CCS PCH C Compiler, Version 4.104, 5967               05-ago.-20 13:30

               Filename: D:\Laboratorio\Cabina de PCR\2020\CPCR60 GLCD  Laboratorio Clinico Kheneyder Fayad #0045882XX OP2020276\Firmware - 18F4680\Maestro_v2.lst

               ROM used: 42162 bytes (64%)
                         Largest free fragment is 23370
               RAM used: 1510 (45%) at main() level
                         1577 (47%) worst case
               Stack:    8 worst case (6 in main + 2 for interrupts)

*
00000:  GOTO   603E
*
00008:  MOVWF  04
0000A:  MOVFF  FD8,05
0000E:  MOVFF  FE0,06
00012:  MOVLB  0
00014:  MOVFF  FE9,0C
00018:  MOVFF  FEA,07
0001C:  MOVFF  FE1,08
00020:  MOVFF  FE2,09
00024:  MOVFF  FD9,0A
00028:  MOVFF  FDA,0B
0002C:  MOVFF  FF3,12
00030:  MOVFF  FF4,13
00034:  MOVFF  FFA,14
00038:  MOVFF  00,0E
0003C:  MOVFF  01,0F
00040:  MOVFF  02,10
00044:  MOVFF  03,11
00048:  BTFSS  FF2.4
0004A:  GOTO   0054
0004E:  BTFSC  FF2.1
00050:  GOTO   135A
00054:  MOVFF  0E,00
00058:  MOVFF  0F,01
0005C:  MOVFF  10,02
00060:  MOVFF  11,03
00064:  MOVFF  0C,FE9
00068:  MOVFF  07,FEA
0006C:  BSF    07.7
0006E:  MOVFF  08,FE1
00072:  MOVFF  09,FE2
00076:  MOVFF  0A,FD9
0007A:  MOVFF  0B,FDA
0007E:  MOVFF  12,FF3
00082:  MOVFF  13,FF4
00086:  MOVFF  14,FFA
0008A:  MOVF   04,W
0008C:  MOVFF  06,FE0
00090:  MOVFF  05,FD8
00094:  RETFIE 0
.................... //Programa para Cabina de Bioseguridad 
....................  
.................... #include <18F4680.h> 
.................... //////// Standard Header file for the PIC18F4680 device //////////////// 
.................... #device PIC18F4680 
.................... #list 
....................  
.................... #device adc=10 
.................... #fuses HS,NOWDT,NOPROTECT,NOLVP,NODEBUG,NOSTVREN,NOPUT,NOCPD,NOWRT,NOIESO,NOFCMEN,NOPBADEN,NOWRTC,NOWRTB,NOEBTR,NOEBTRB,NOCPB,NOXINST,NOLPT1OSC,NOMCLR 
.................... #use delay(clock=20000000) 
*
0133A:  MOVLW  03
0133C:  MOVLB  6
0133E:  SUBWF  x28,F
01340:  BNC   1356
01342:  MOVLW  06
01344:  MOVWF  FEA
01346:  MOVLW  28
01348:  MOVWF  FE9
0134A:  MOVF   FEF,W
0134C:  BZ    1356
0134E:  BRA    1352
01350:  BRA    1352
01352:  DECFSZ FEF,F
01354:  BRA    1350
01356:  MOVLB  0
01358:  RETLW  00
*
01474:  MOVLW  05
01476:  MOVWF  FEA
01478:  MOVLW  F6
0147A:  MOVWF  FE9
0147C:  MOVF   FEF,W
0147E:  BZ    149A
01480:  MOVLW  06
01482:  MOVWF  01
01484:  CLRF   00
01486:  DECFSZ 00,F
01488:  BRA    1486
0148A:  DECFSZ 01,F
0148C:  BRA    1484
0148E:  MOVLW  7B
01490:  MOVWF  00
01492:  DECFSZ 00,F
01494:  BRA    1492
01496:  DECFSZ FEF,F
01498:  BRA    1480
0149A:  RETLW  00
.................... #include <MATH.h> 
.................... //////////////////////////////////////////////////////////////////////////// 
.................... ////        (C) Copyright 1996,2008 Custom Computer Services            //// 
.................... //// This source code may only be used by licensed users of the CCS C   //// 
.................... //// compiler.  This source code may only be distributed to other       //// 
.................... //// licensed users of the CCS C compiler.  No other use, reproduction  //// 
.................... //// or distribution is permitted without written permission.           //// 
.................... //// Derivative programs created using this software in object code     //// 
.................... //// form are not restricted in any way.                                //// 
.................... //////////////////////////////////////////////////////////////////////////// 
.................... ////                                                                    //// 
.................... //// History:                                                           //// 
.................... ////  * 9/20/2001 :  Improvments are made to sin/cos code.              //// 
.................... ////                 The code now is small, much faster,                //// 
.................... ////                 and more accurate.                                 //// 
.................... ////  * 2/21/2007 :  Compiler handles & operator differently and does 
.................... ////                 not return generic (int8 *) so type cast is done   //// 
.................... ////                                                                    //// 
.................... //////////////////////////////////////////////////////////////////////////// 
....................  
.................... #ifndef MATH_H 
.................... #define MATH_H 
....................  
.................... #ifdef PI 
.................... #undef  PI 
.................... #endif 
.................... #define PI     3.1415926535897932 
....................  
....................  
.................... #define SQRT2  1.4142135623730950 
....................  
.................... //float const ps[4] = {5.9304945, 21.125224, 8.9403076, 0.29730279}; 
.................... //float const qs[4] = {1.0000000, 15.035723, 17.764134, 2.4934718}; 
....................  
.................... ///////////////////////////// Round Functions ////////////////////////////// 
....................  
.................... float32 CEIL_FLOOR(float32 x, unsigned int8 n) 
.................... { 
....................    float32 y, res; 
....................    unsigned int16 l; 
....................    int1 s; 
....................  
....................    s = 0; 
*
030AE:  MOVLB  6
030B0:  BCF    x12.0
....................    y = x; 
030B2:  MOVFF  606,60B
030B6:  MOVFF  605,60A
030BA:  MOVFF  604,609
030BE:  MOVFF  603,608
....................  
....................    if (x < 0) 
030C2:  MOVFF  606,616
030C6:  MOVFF  605,615
030CA:  MOVFF  604,614
030CE:  MOVFF  603,613
030D2:  CLRF   x1A
030D4:  CLRF   x19
030D6:  CLRF   x18
030D8:  CLRF   x17
030DA:  MOVLB  0
030DC:  CALL   2538
030E0:  BNC   30EC
....................    { 
....................       s = 1; 
030E2:  MOVLB  6
030E4:  BSF    x12.0
....................       y = -y; 
030E6:  MOVF   x09,W
030E8:  XORLW  80
030EA:  MOVWF  x09
....................    } 
....................  
....................    if (y <= 32768.0) 
030EC:  MOVFF  60B,616
030F0:  MOVFF  60A,615
030F4:  MOVFF  609,614
030F8:  MOVFF  608,613
030FC:  MOVLB  6
030FE:  CLRF   x1A
03100:  CLRF   x19
03102:  CLRF   x18
03104:  MOVLW  8E
03106:  MOVWF  x17
03108:  MOVLB  0
0310A:  CALL   2538
0310E:  BC    3112
03110:  BNZ   3142
....................   res = (float32)(unsigned int16)y; 
03112:  MOVFF  60B,616
03116:  MOVFF  60A,615
0311A:  MOVFF  609,614
0311E:  MOVFF  608,613
03122:  RCALL  2F7C
03124:  MOVFF  02,618
03128:  MOVFF  01,617
0312C:  CALL   19A0
03130:  MOVFF  03,60F
03134:  MOVFF  02,60E
03138:  MOVFF  01,60D
0313C:  MOVFF  00,60C
....................  
....................  else if (y < 10000000.0) 
03140:  BRA    32E0
03142:  MOVFF  60B,616
03146:  MOVFF  60A,615
0314A:  MOVFF  609,614
0314E:  MOVFF  608,613
03152:  MOVLW  80
03154:  MOVLB  6
03156:  MOVWF  x1A
03158:  MOVLW  96
0315A:  MOVWF  x19
0315C:  MOVLW  18
0315E:  MOVWF  x18
03160:  MOVLW  96
03162:  MOVWF  x17
03164:  MOVLB  0
03166:  CALL   2538
0316A:  BTFSS  FD8.0
0316C:  BRA    32D0
....................    { 
....................   l = (unsigned int16)(y/32768.0); 
0316E:  MOVFF  60B,616
03172:  MOVFF  60A,615
03176:  MOVFF  609,614
0317A:  MOVFF  608,613
0317E:  MOVLB  6
03180:  CLRF   x1A
03182:  CLRF   x19
03184:  CLRF   x18
03186:  MOVLW  8E
03188:  MOVWF  x17
0318A:  MOVLB  0
0318C:  CALL   19D6
03190:  MOVFF  03,616
03194:  MOVFF  02,615
03198:  MOVFF  01,614
0319C:  MOVFF  00,613
031A0:  RCALL  2F7C
031A2:  MOVFF  02,611
031A6:  MOVFF  01,610
....................       y = 32768.0*(y/32768.0 - (float32)l); 
031AA:  MOVFF  60B,616
031AE:  MOVFF  60A,615
031B2:  MOVFF  609,614
031B6:  MOVFF  608,613
031BA:  MOVLB  6
031BC:  CLRF   x1A
031BE:  CLRF   x19
031C0:  CLRF   x18
031C2:  MOVLW  8E
031C4:  MOVWF  x17
031C6:  MOVLB  0
031C8:  CALL   19D6
031CC:  MOVFF  00,613
031D0:  MOVFF  01,614
031D4:  MOVFF  02,615
031D8:  MOVFF  03,616
031DC:  MOVFF  611,618
031E0:  MOVFF  610,617
031E4:  CALL   19A0
031E8:  BSF    FD8.1
031EA:  MOVFF  616,61A
031EE:  MOVFF  615,619
031F2:  MOVFF  614,618
031F6:  MOVFF  613,617
031FA:  MOVFF  03,61E
031FE:  MOVFF  02,61D
03202:  MOVFF  01,61C
03206:  MOVFF  00,61B
0320A:  CALL   1B34
0320E:  MOVLB  6
03210:  CLRF   x16
03212:  CLRF   x15
03214:  CLRF   x14
03216:  MOVLW  8E
03218:  MOVWF  x13
0321A:  MOVFF  03,61A
0321E:  MOVFF  02,619
03222:  MOVFF  01,618
03226:  MOVFF  00,617
0322A:  MOVLB  0
0322C:  RCALL  2FB8
0322E:  MOVFF  03,60B
03232:  MOVFF  02,60A
03236:  MOVFF  01,609
0323A:  MOVFF  00,608
....................   res = 32768.0*(float32)l; 
0323E:  MOVFF  611,618
03242:  MOVFF  610,617
03246:  CALL   19A0
0324A:  MOVLB  6
0324C:  CLRF   x16
0324E:  CLRF   x15
03250:  CLRF   x14
03252:  MOVLW  8E
03254:  MOVWF  x13
03256:  MOVFF  03,61A
0325A:  MOVFF  02,619
0325E:  MOVFF  01,618
03262:  MOVFF  00,617
03266:  MOVLB  0
03268:  RCALL  2FB8
0326A:  MOVFF  03,60F
0326E:  MOVFF  02,60E
03272:  MOVFF  01,60D
03276:  MOVFF  00,60C
....................   res += (float32)(unsigned int16)y; 
0327A:  MOVFF  60B,616
0327E:  MOVFF  60A,615
03282:  MOVFF  609,614
03286:  MOVFF  608,613
0328A:  RCALL  2F7C
0328C:  MOVFF  02,618
03290:  MOVFF  01,617
03294:  CALL   19A0
03298:  BCF    FD8.1
0329A:  MOVFF  60F,61A
0329E:  MOVFF  60E,619
032A2:  MOVFF  60D,618
032A6:  MOVFF  60C,617
032AA:  MOVFF  03,61E
032AE:  MOVFF  02,61D
032B2:  MOVFF  01,61C
032B6:  MOVFF  00,61B
032BA:  CALL   1B34
032BE:  MOVFF  03,60F
032C2:  MOVFF  02,60E
032C6:  MOVFF  01,60D
032CA:  MOVFF  00,60C
....................  } 
....................  
....................  else 
032CE:  BRA    32E0
....................   res = y; 
032D0:  MOVFF  60B,60F
032D4:  MOVFF  60A,60E
032D8:  MOVFF  609,60D
032DC:  MOVFF  608,60C
....................  
....................  y = y - (float32)(unsigned int16)y; 
032E0:  MOVFF  60B,616
032E4:  MOVFF  60A,615
032E8:  MOVFF  609,614
032EC:  MOVFF  608,613
032F0:  RCALL  2F7C
032F2:  MOVFF  02,618
032F6:  MOVFF  01,617
032FA:  CALL   19A0
032FE:  BSF    FD8.1
03300:  MOVFF  60B,61A
03304:  MOVFF  60A,619
03308:  MOVFF  609,618
0330C:  MOVFF  608,617
03310:  MOVFF  03,61E
03314:  MOVFF  02,61D
03318:  MOVFF  01,61C
0331C:  MOVFF  00,61B
03320:  CALL   1B34
03324:  MOVFF  03,60B
03328:  MOVFF  02,60A
0332C:  MOVFF  01,609
03330:  MOVFF  00,608
....................  
....................  if (s) 
03334:  MOVLB  6
03336:  BTFSS  x12.0
03338:  BRA    3340
....................   res = -res; 
0333A:  MOVF   x0D,W
0333C:  XORLW  80
0333E:  MOVWF  x0D
....................  
....................  if (y != 0) 
03340:  MOVFF  60B,616
03344:  MOVFF  60A,615
03348:  MOVFF  609,614
0334C:  MOVFF  608,613
03350:  CLRF   x1A
03352:  CLRF   x19
03354:  CLRF   x18
03356:  CLRF   x17
03358:  MOVLB  0
0335A:  CALL   2538
0335E:  BZ    33D8
....................  { 
....................   if (s == 1 && n == 0) 
03360:  MOVLB  6
03362:  BTFSS  x12.0
03364:  BRA    339E
03366:  MOVF   x07,F
03368:  BNZ   339E
....................    res -= 1.0; 
0336A:  BSF    FD8.1
0336C:  MOVFF  60F,61A
03370:  MOVFF  60E,619
03374:  MOVFF  60D,618
03378:  MOVFF  60C,617
0337C:  CLRF   x1E
0337E:  CLRF   x1D
03380:  CLRF   x1C
03382:  MOVLW  7F
03384:  MOVWF  x1B
03386:  MOVLB  0
03388:  CALL   1B34
0338C:  MOVFF  03,60F
03390:  MOVFF  02,60E
03394:  MOVFF  01,60D
03398:  MOVFF  00,60C
0339C:  MOVLB  6
....................  
....................   if (s == 0 && n == 1) 
0339E:  BTFSC  x12.0
033A0:  BRA    33DA
033A2:  DECFSZ x07,W
033A4:  BRA    33DA
....................    res += 1.0; 
033A6:  BCF    FD8.1
033A8:  MOVFF  60F,61A
033AC:  MOVFF  60E,619
033B0:  MOVFF  60D,618
033B4:  MOVFF  60C,617
033B8:  CLRF   x1E
033BA:  CLRF   x1D
033BC:  CLRF   x1C
033BE:  MOVLW  7F
033C0:  MOVWF  x1B
033C2:  MOVLB  0
033C4:  CALL   1B34
033C8:  MOVFF  03,60F
033CC:  MOVFF  02,60E
033D0:  MOVFF  01,60D
033D4:  MOVFF  00,60C
033D8:  MOVLB  6
....................  } 
....................  if (x == 0) 
033DA:  MOVFF  606,616
033DE:  MOVFF  605,615
033E2:  MOVFF  604,614
033E6:  MOVFF  603,613
033EA:  CLRF   x1A
033EC:  CLRF   x19
033EE:  CLRF   x18
033F0:  CLRF   x17
033F2:  MOVLB  0
033F4:  CALL   2538
033F8:  BNZ   3406
....................     res = 0; 
033FA:  MOVLB  6
033FC:  CLRF   x0F
033FE:  CLRF   x0E
03400:  CLRF   x0D
03402:  CLRF   x0C
03404:  MOVLB  0
....................  
....................  return (res); 
03406:  MOVFF  60C,00
0340A:  MOVFF  60D,01
0340E:  MOVFF  60E,02
03412:  MOVFF  60F,03
.................... } 
03416:  RETLW  00
....................  
.................... // Overloaded Functions to take care for new Data types in PCD 
.................... // Overloaded function CEIL_FLOOR() for data type - Float48 
.................... #if defined(__PCD__) 
.................... float48 CEIL_FLOOR(float48 x, unsigned int8 n) 
.................... { 
....................    float48 y, res; 
....................    unsigned int16 l; 
....................    int1 s; 
....................  
....................    s = 0; 
....................    y = x; 
....................  
....................    if (x < 0) 
....................    { 
....................       s = 1; 
....................       y = -y; 
....................    } 
....................  
....................    if (y <= 32768.0) 
....................   res = (float48)(unsigned int16)y; 
....................  
....................  else if (y < 10000000.0) 
....................    { 
....................   l = (unsigned int16)(y/32768.0); 
....................       y = 32768.0*(y/32768.0 - (float48)l); 
....................   res = 32768.0*(float32)l; 
....................   res += (float48)(unsigned int16)y; 
....................  } 
....................  
....................  else 
....................   res = y; 
....................  
....................  y = y - (float48)(unsigned int16)y; 
....................  
....................  if (s) 
....................   res = -res; 
....................  
....................  if (y != 0) 
....................  { 
....................   if (s == 1 && n == 0) 
....................    res -= 1.0; 
....................  
....................   if (s == 0 && n == 1) 
....................    res += 1.0; 
....................  } 
....................  if (x == 0) 
....................     res = 0; 
....................  
....................  return (res); 
.................... } 
....................  
....................  
.................... // Overloaded function CEIL_FLOOR() for data type - Float64 
.................... float64 CEIL_FLOOR(float64 x, unsigned int8 n) 
.................... { 
....................    float64 y, res; 
....................    unsigned int16 l; 
....................    int1 s; 
....................  
....................    s = 0; 
....................    y = x; 
....................  
....................    if (x < 0) 
....................    { 
....................       s = 1; 
....................       y = -y; 
....................    } 
....................  
....................    if (y <= 32768.0) 
....................   res = (float64)(unsigned int16)y; 
....................  
....................  else if (y < 10000000.0) 
....................    { 
....................   l = (unsigned int16)(y/32768.0); 
....................       y = 32768.0*(y/32768.0 - (float64)l); 
....................   res = 32768.0*(float64)l; 
....................   res += (float64)(unsigned int16)y; 
....................  } 
....................  
....................  else 
....................   res = y; 
....................  
....................  y = y - (float64)(unsigned int16)y; 
....................  
....................  if (s) 
....................   res = -res; 
....................  
....................  if (y != 0) 
....................  { 
....................   if (s == 1 && n == 0) 
....................    res -= 1.0; 
....................  
....................   if (s == 0 && n == 1) 
....................    res += 1.0; 
....................  } 
....................  if (x == 0) 
....................     res = 0; 
....................  
....................  return (res); 
.................... } 
.................... #endif 
....................  
.................... //////////////////////////////////////////////////////////////////////////// 
.................... //   float floor(float x) 
.................... //////////////////////////////////////////////////////////////////////////// 
.................... // Description : rounds down the number x. 
.................... // Date : N/A 
.................... // 
.................... float32 floor(float32 x) 
.................... { 
....................    return CEIL_FLOOR(x, 0); 
*
03436:  MOVFF  602,606
0343A:  MOVFF  601,605
0343E:  MOVFF  600,604
03442:  MOVFF  5FF,603
03446:  MOVLB  6
03448:  CLRF   x07
0344A:  MOVLB  0
0344C:  RCALL  30AE
.................... } 
0344E:  GOTO   355A (RETURN)
.................... // Following 2 functions are overloaded functions of floor() for PCD 
.................... // Overloaded function floor() for data type - Float48 
.................... #if defined(__PCD__) 
.................... float48 floor(float48 x) 
.................... { 
....................    return CEIL_FLOOR(x, 0); 
.................... } 
....................  
.................... // Overloaded function floor() for data type - Float64 
.................... float64 floor(float64 x) 
.................... { 
....................    return CEIL_FLOOR(x, 0); 
.................... } 
.................... #endif 
....................  
....................  
.................... //////////////////////////////////////////////////////////////////////////// 
.................... //   float ceil(float x) 
.................... //////////////////////////////////////////////////////////////////////////// 
.................... // Description : rounds up the number x. 
.................... // Date : N/A 
.................... // 
.................... float32 ceil(float32 x) 
.................... { 
....................    return CEIL_FLOOR(x, 1); 
*
03418:  MOVFF  602,606
0341C:  MOVFF  601,605
03420:  MOVFF  600,604
03424:  MOVFF  5FF,603
03428:  MOVLW  01
0342A:  MOVLB  6
0342C:  MOVWF  x07
0342E:  MOVLB  0
03430:  RCALL  30AE
.................... } 
03432:  GOTO   3512 (RETURN)
.................... // Following 2 functions are overloaded functions of ceil() for PCD 
.................... // Overloaded function ceil() for data type - Float48 
.................... #if defined(__PCD__) 
.................... float48 ceil(float48 x) 
.................... { 
....................    return CEIL_FLOOR(x, 1); 
.................... } 
....................  
.................... // Overloaded function ceil() for data type - Float64 
.................... float64 ceil(float64 x) 
.................... { 
....................    return CEIL_FLOOR(x, 1); 
.................... } 
.................... #endif 
....................  
....................  //////////////////////////////////////////////////////////////////////////// 
.................... //   float fabs(float x) 
.................... //////////////////////////////////////////////////////////////////////////// 
.................... // Description : Computes the absolute value of floating point number x 
.................... // Returns : returns the absolute value of x 
.................... // Date : N/A 
.................... // 
.................... #define fabs abs 
....................  
.................... //////////////////////////////////////////////////////////////////////////// 
.................... //   float fmod(float x) 
.................... //////////////////////////////////////////////////////////////////////////// 
.................... // Description : Computes the floating point remainder of x/y 
.................... // Returns : returns the value of x= i*y, for some integer i such that, if y 
.................... // is non zero, the result has the same isgn of x na dmagnitude less than the 
.................... // magnitude of y. If y is zero then a domain error occurs. 
.................... // Date : N/A 
.................... // 
....................  
.................... float fmod(float32 x,float32 y) 
.................... { 
....................    float32 i; 
....................    if (y!=0.0) 
*
03452:  MOVFF  5F6,616
03456:  MOVFF  5F5,615
0345A:  MOVFF  5F4,614
0345E:  MOVFF  5F3,613
03462:  MOVLB  6
03464:  CLRF   x1A
03466:  CLRF   x19
03468:  CLRF   x18
0346A:  CLRF   x17
0346C:  MOVLB  0
0346E:  CALL   2538
03472:  BTFSC  FD8.2
03474:  BRA    35B6
....................    { 
....................       i=(x/y < 0.0)? ceil(x/y): floor(x/y); 
03476:  MOVFF  5F2,616
0347A:  MOVFF  5F1,615
0347E:  MOVFF  5F0,614
03482:  MOVFF  5EF,613
03486:  MOVFF  5F6,61A
0348A:  MOVFF  5F5,619
0348E:  MOVFF  5F4,618
03492:  MOVFF  5F3,617
03496:  CALL   19D6
0349A:  MOVFF  00,5FB
0349E:  MOVFF  01,5FC
034A2:  MOVFF  02,5FD
034A6:  MOVFF  03,5FE
034AA:  MOVFF  03,616
034AE:  MOVFF  02,615
034B2:  MOVFF  01,614
034B6:  MOVFF  00,613
034BA:  MOVLB  6
034BC:  CLRF   x1A
034BE:  CLRF   x19
034C0:  CLRF   x18
034C2:  CLRF   x17
034C4:  MOVLB  0
034C6:  CALL   2538
034CA:  BNC   3514
034CC:  MOVFF  5F2,616
034D0:  MOVFF  5F1,615
034D4:  MOVFF  5F0,614
034D8:  MOVFF  5EF,613
034DC:  MOVFF  5F6,61A
034E0:  MOVFF  5F5,619
034E4:  MOVFF  5F4,618
034E8:  MOVFF  5F3,617
034EC:  CALL   19D6
034F0:  MOVFF  00,5FB
034F4:  MOVFF  01,5FC
034F8:  MOVFF  02,5FD
034FC:  MOVFF  03,5FE
03500:  MOVFF  03,602
03504:  MOVFF  02,601
03508:  MOVFF  01,600
0350C:  MOVFF  00,5FF
03510:  BRA    3418
03512:  BRA    355A
03514:  MOVFF  5F2,616
03518:  MOVFF  5F1,615
0351C:  MOVFF  5F0,614
03520:  MOVFF  5EF,613
03524:  MOVFF  5F6,61A
03528:  MOVFF  5F5,619
0352C:  MOVFF  5F4,618
03530:  MOVFF  5F3,617
03534:  CALL   19D6
03538:  MOVFF  00,5FB
0353C:  MOVFF  01,5FC
03540:  MOVFF  02,5FD
03544:  MOVFF  03,5FE
03548:  MOVFF  03,602
0354C:  MOVFF  02,601
03550:  MOVFF  01,600
03554:  MOVFF  00,5FF
03558:  BRA    3436
0355A:  MOVFF  03,5FA
0355E:  MOVFF  02,5F9
03562:  MOVFF  01,5F8
03566:  MOVFF  00,5F7
....................       return(x-(i*y)); 
0356A:  MOVFF  5FA,616
0356E:  MOVFF  5F9,615
03572:  MOVFF  5F8,614
03576:  MOVFF  5F7,613
0357A:  MOVFF  5F6,61A
0357E:  MOVFF  5F5,619
03582:  MOVFF  5F4,618
03586:  MOVFF  5F3,617
0358A:  RCALL  2FB8
0358C:  BSF    FD8.1
0358E:  MOVFF  5F2,61A
03592:  MOVFF  5F1,619
03596:  MOVFF  5F0,618
0359A:  MOVFF  5EF,617
0359E:  MOVFF  03,61E
035A2:  MOVFF  02,61D
035A6:  MOVFF  01,61C
035AA:  MOVFF  00,61B
035AE:  CALL   1B34
035B2:  BRA    35B6
....................    } 
....................    else 
035B4:  BRA    35B6
....................    { 
....................    #ifdef _ERRNO 
....................    { 
....................       errno=EDOM; 
....................    } 
....................    #endif 
....................    } 
.................... } 
035B6:  RETLW  00
.................... //Overloaded function for fmod() for PCD 
.................... // Overloaded function fmod() for data type - Float48 
.................... #if defined(__PCD__) 
.................... float48 fmod(float48 x,float48 y) 
.................... { 
....................    float48 i; 
....................    if (y!=0.0) 
....................    { 
....................       i=(x/y < 0.0)? ceil(x/y): floor(x/y); 
....................       return(x-(i*y)); 
....................    } 
....................    else 
....................    { 
....................    #ifdef _ERRNO 
....................    { 
....................       errno=EDOM; 
....................    } 
....................    #endif 
....................    } 
.................... } 
.................... // Overloaded function fmod() for data type - Float64 
.................... float64 fmod(float64 x,float64 y) 
.................... { 
....................    float64 i; 
....................    if (y!=0.0) 
....................    { 
....................       i=(x/y < 0.0)? ceil(x/y): floor(x/y); 
....................       return(x-(i*y)); 
....................    } 
....................    else 
....................    { 
....................    #ifdef _ERRNO 
....................    { 
....................       errno=EDOM; 
....................    } 
....................    #endif 
....................    } 
.................... } 
.................... #endif 
.................... //////////////////// Exponential and logarithmic functions //////////////////// 
.................... //////////////////////////////////////////////////////////////////////////// 
.................... //   float exp(float x) 
.................... //////////////////////////////////////////////////////////////////////////// 
.................... // Description : returns the value (e^x) 
.................... // Date : N/A 
.................... // 
.................... #define LN2 0.6931471805599453 
....................  
.................... float const pe[6] = {0.000207455774, 0.00127100575, 0.00965065093, 
....................                      0.0554965651,  0.240227138,  0.693147172}; 
....................  
....................  
.................... float32 exp(float32 x) 
.................... { 
....................    float32 y, res, r; 
....................    #if defined(__PCD__) 
....................    int8 data1; 
....................    #endif 
....................    signed int8 n; 
....................    int1 s; 
....................    #ifdef _ERRNO 
....................    if(x > 88.722838) 
....................    { 
....................       errno=ERANGE; 
....................       return(0); 
....................    } 
....................    #endif 
....................    n = (signed int16)(x/LN2); 
*
03AE2:  MOVFF  5F6,616
03AE6:  MOVFF  5F5,615
03AEA:  MOVFF  5F4,614
03AEE:  MOVFF  5F3,613
03AF2:  MOVLW  18
03AF4:  MOVLB  6
03AF6:  MOVWF  x1A
03AF8:  MOVLW  72
03AFA:  MOVWF  x19
03AFC:  MOVLW  31
03AFE:  MOVWF  x18
03B00:  MOVLW  7E
03B02:  MOVWF  x17
03B04:  MOVLB  0
03B06:  CALL   19D6
03B0A:  MOVFF  03,616
03B0E:  MOVFF  02,615
03B12:  MOVFF  01,614
03B16:  MOVFF  00,613
03B1A:  CALL   2F7C
03B1E:  MOVFF  01,603
....................    s = 0; 
03B22:  MOVLB  6
03B24:  BCF    x04.0
....................    y = x; 
03B26:  MOVFF  5F6,5FA
03B2A:  MOVFF  5F5,5F9
03B2E:  MOVFF  5F4,5F8
03B32:  MOVFF  5F3,5F7
....................  
....................    if (x < 0) 
03B36:  MOVFF  5F6,616
03B3A:  MOVFF  5F5,615
03B3E:  MOVFF  5F4,614
03B42:  MOVFF  5F3,613
03B46:  CLRF   x1A
03B48:  CLRF   x19
03B4A:  CLRF   x18
03B4C:  CLRF   x17
03B4E:  MOVLB  0
03B50:  CALL   2538
03B54:  BNC   3B64
....................    { 
....................       s = 1; 
03B56:  MOVLB  6
03B58:  BSF    x04.0
....................       n = -n; 
03B5A:  NEGF   x03
....................       y = -y; 
03B5C:  MOVLB  5
03B5E:  MOVF   xF8,W
03B60:  XORLW  80
03B62:  MOVWF  xF8
....................    } 
....................  
....................    res = 0.0; 
03B64:  MOVLB  5
03B66:  CLRF   xFE
03B68:  CLRF   xFD
03B6A:  CLRF   xFC
03B6C:  CLRF   xFB
.................... #if !defined(__PCD__) 
....................    *((unsigned int8 *)(&res)) = n + 0x7F; 
03B6E:  MOVLW  05
03B70:  MOVLB  6
03B72:  MOVWF  x06
03B74:  MOVLW  FB
03B76:  MOVWF  FE9
03B78:  MOVFF  606,FEA
03B7C:  MOVLW  7F
03B7E:  ADDWF  x03,W
03B80:  MOVWF  FEF
.................... #endif 
....................  
.................... #if defined(__PCD__)  // Takes care of IEEE format for PCD 
....................    data1 = n+0x7F; 
....................    if(bit_test(data1,0)) 
....................    bit_set(*(((unsigned int8 *)(&res)+2)),7); 
....................    rotate_right(&data1,1); 
....................    bit_clear(data1,7); 
....................    *(((unsigned int8 *)(&res)+3)) = data1; 
.................... #endif 
....................  
....................    y = y/LN2 - (float32)n; 
03B82:  MOVFF  5FA,616
03B86:  MOVFF  5F9,615
03B8A:  MOVFF  5F8,614
03B8E:  MOVFF  5F7,613
03B92:  MOVLW  18
03B94:  MOVWF  x1A
03B96:  MOVLW  72
03B98:  MOVWF  x19
03B9A:  MOVLW  31
03B9C:  MOVWF  x18
03B9E:  MOVLW  7E
03BA0:  MOVWF  x17
03BA2:  MOVLB  0
03BA4:  CALL   19D6
03BA8:  MOVFF  00,605
03BAC:  MOVFF  01,606
03BB0:  MOVFF  02,607
03BB4:  MOVFF  03,608
03BB8:  MOVLB  6
03BBA:  CLRF   x0A
03BBC:  MOVFF  603,609
03BC0:  BTFSC  x09.7
03BC2:  DECF   x0A,F
03BC4:  MOVLB  0
03BC6:  RCALL  35B8
03BC8:  BSF    FD8.1
03BCA:  MOVFF  608,61A
03BCE:  MOVFF  607,619
03BD2:  MOVFF  606,618
03BD6:  MOVFF  605,617
03BDA:  MOVFF  03,61E
03BDE:  MOVFF  02,61D
03BE2:  MOVFF  01,61C
03BE6:  MOVFF  00,61B
03BEA:  CALL   1B34
03BEE:  MOVFF  03,5FA
03BF2:  MOVFF  02,5F9
03BF6:  MOVFF  01,5F8
03BFA:  MOVFF  00,5F7
....................  
....................    r = pe[0]*y + pe[1]; 
03BFE:  MOVLW  7C
03C00:  MOVLB  6
03C02:  MOVWF  x16
03C04:  MOVLW  88
03C06:  MOVWF  x15
03C08:  MOVLW  59
03C0A:  MOVWF  x14
03C0C:  MOVLW  72
03C0E:  MOVWF  x13
03C10:  MOVFF  5FA,61A
03C14:  MOVFF  5F9,619
03C18:  MOVFF  5F8,618
03C1C:  MOVFF  5F7,617
03C20:  MOVLB  0
03C22:  CALL   2FB8
03C26:  MOVFF  00,605
03C2A:  MOVFF  01,606
03C2E:  MOVFF  02,607
03C32:  MOVFF  03,608
03C36:  BCF    FD8.1
03C38:  MOVFF  03,61A
03C3C:  MOVFF  02,619
03C40:  MOVFF  01,618
03C44:  MOVFF  00,617
03C48:  MOVLW  E0
03C4A:  MOVLB  6
03C4C:  MOVWF  x1E
03C4E:  MOVLW  97
03C50:  MOVWF  x1D
03C52:  MOVLW  26
03C54:  MOVWF  x1C
03C56:  MOVLW  75
03C58:  MOVWF  x1B
03C5A:  MOVLB  0
03C5C:  CALL   1B34
03C60:  MOVFF  03,602
03C64:  MOVFF  02,601
03C68:  MOVFF  01,600
03C6C:  MOVFF  00,5FF
....................    r = r*y + pe[2]; 
03C70:  MOVFF  602,616
03C74:  MOVFF  601,615
03C78:  MOVFF  600,614
03C7C:  MOVFF  5FF,613
03C80:  MOVFF  5FA,61A
03C84:  MOVFF  5F9,619
03C88:  MOVFF  5F8,618
03C8C:  MOVFF  5F7,617
03C90:  CALL   2FB8
03C94:  MOVFF  00,605
03C98:  MOVFF  01,606
03C9C:  MOVFF  02,607
03CA0:  MOVFF  03,608
03CA4:  BCF    FD8.1
03CA6:  MOVFF  03,61A
03CAA:  MOVFF  02,619
03CAE:  MOVFF  01,618
03CB2:  MOVFF  00,617
03CB6:  MOVLW  C4
03CB8:  MOVLB  6
03CBA:  MOVWF  x1E
03CBC:  MOVLW  1D
03CBE:  MOVWF  x1D
03CC0:  MOVLW  1E
03CC2:  MOVWF  x1C
03CC4:  MOVLW  78
03CC6:  MOVWF  x1B
03CC8:  MOVLB  0
03CCA:  CALL   1B34
03CCE:  MOVFF  03,602
03CD2:  MOVFF  02,601
03CD6:  MOVFF  01,600
03CDA:  MOVFF  00,5FF
....................    r = r*y + pe[3]; 
03CDE:  MOVFF  602,616
03CE2:  MOVFF  601,615
03CE6:  MOVFF  600,614
03CEA:  MOVFF  5FF,613
03CEE:  MOVFF  5FA,61A
03CF2:  MOVFF  5F9,619
03CF6:  MOVFF  5F8,618
03CFA:  MOVFF  5F7,617
03CFE:  CALL   2FB8
03D02:  MOVFF  00,605
03D06:  MOVFF  01,606
03D0A:  MOVFF  02,607
03D0E:  MOVFF  03,608
03D12:  BCF    FD8.1
03D14:  MOVFF  03,61A
03D18:  MOVFF  02,619
03D1C:  MOVFF  01,618
03D20:  MOVFF  00,617
03D24:  MOVLW  5E
03D26:  MOVLB  6
03D28:  MOVWF  x1E
03D2A:  MOVLW  50
03D2C:  MOVWF  x1D
03D2E:  MOVLW  63
03D30:  MOVWF  x1C
03D32:  MOVLW  7A
03D34:  MOVWF  x1B
03D36:  MOVLB  0
03D38:  CALL   1B34
03D3C:  MOVFF  03,602
03D40:  MOVFF  02,601
03D44:  MOVFF  01,600
03D48:  MOVFF  00,5FF
....................    r = r*y + pe[4]; 
03D4C:  MOVFF  602,616
03D50:  MOVFF  601,615
03D54:  MOVFF  600,614
03D58:  MOVFF  5FF,613
03D5C:  MOVFF  5FA,61A
03D60:  MOVFF  5F9,619
03D64:  MOVFF  5F8,618
03D68:  MOVFF  5F7,617
03D6C:  CALL   2FB8
03D70:  MOVFF  00,605
03D74:  MOVFF  01,606
03D78:  MOVFF  02,607
03D7C:  MOVFF  03,608
03D80:  BCF    FD8.1
03D82:  MOVFF  03,61A
03D86:  MOVFF  02,619
03D8A:  MOVFF  01,618
03D8E:  MOVFF  00,617
03D92:  MOVLW  1A
03D94:  MOVLB  6
03D96:  MOVWF  x1E
03D98:  MOVLW  FE
03D9A:  MOVWF  x1D
03D9C:  MOVLW  75
03D9E:  MOVWF  x1C
03DA0:  MOVLW  7C
03DA2:  MOVWF  x1B
03DA4:  MOVLB  0
03DA6:  CALL   1B34
03DAA:  MOVFF  03,602
03DAE:  MOVFF  02,601
03DB2:  MOVFF  01,600
03DB6:  MOVFF  00,5FF
....................    r = r*y + pe[5]; 
03DBA:  MOVFF  602,616
03DBE:  MOVFF  601,615
03DC2:  MOVFF  600,614
03DC6:  MOVFF  5FF,613
03DCA:  MOVFF  5FA,61A
03DCE:  MOVFF  5F9,619
03DD2:  MOVFF  5F8,618
03DD6:  MOVFF  5F7,617
03DDA:  CALL   2FB8
03DDE:  MOVFF  00,605
03DE2:  MOVFF  01,606
03DE6:  MOVFF  02,607
03DEA:  MOVFF  03,608
03DEE:  BCF    FD8.1
03DF0:  MOVFF  03,61A
03DF4:  MOVFF  02,619
03DF8:  MOVFF  01,618
03DFC:  MOVFF  00,617
03E00:  MOVLW  18
03E02:  MOVLB  6
03E04:  MOVWF  x1E
03E06:  MOVLW  72
03E08:  MOVWF  x1D
03E0A:  MOVLW  31
03E0C:  MOVWF  x1C
03E0E:  MOVLW  7E
03E10:  MOVWF  x1B
03E12:  MOVLB  0
03E14:  CALL   1B34
03E18:  MOVFF  03,602
03E1C:  MOVFF  02,601
03E20:  MOVFF  01,600
03E24:  MOVFF  00,5FF
....................  
....................    res = res*(1.0 + y*r); 
03E28:  MOVFF  5FA,616
03E2C:  MOVFF  5F9,615
03E30:  MOVFF  5F8,614
03E34:  MOVFF  5F7,613
03E38:  MOVFF  602,61A
03E3C:  MOVFF  601,619
03E40:  MOVFF  600,618
03E44:  MOVFF  5FF,617
03E48:  CALL   2FB8
03E4C:  BCF    FD8.1
03E4E:  MOVLB  6
03E50:  CLRF   x1A
03E52:  CLRF   x19
03E54:  CLRF   x18
03E56:  MOVLW  7F
03E58:  MOVWF  x17
03E5A:  MOVFF  03,61E
03E5E:  MOVFF  02,61D
03E62:  MOVFF  01,61C
03E66:  MOVFF  00,61B
03E6A:  MOVLB  0
03E6C:  CALL   1B34
03E70:  MOVFF  5FE,616
03E74:  MOVFF  5FD,615
03E78:  MOVFF  5FC,614
03E7C:  MOVFF  5FB,613
03E80:  MOVFF  03,61A
03E84:  MOVFF  02,619
03E88:  MOVFF  01,618
03E8C:  MOVFF  00,617
03E90:  CALL   2FB8
03E94:  MOVFF  03,5FE
03E98:  MOVFF  02,5FD
03E9C:  MOVFF  01,5FC
03EA0:  MOVFF  00,5FB
....................  
....................    if (s) 
03EA4:  MOVLB  6
03EA6:  BTFSS  x04.0
03EA8:  BRA    3EDC
....................       res = 1.0/res; 
03EAA:  CLRF   x16
03EAC:  CLRF   x15
03EAE:  CLRF   x14
03EB0:  MOVLW  7F
03EB2:  MOVWF  x13
03EB4:  MOVFF  5FE,61A
03EB8:  MOVFF  5FD,619
03EBC:  MOVFF  5FC,618
03EC0:  MOVFF  5FB,617
03EC4:  MOVLB  0
03EC6:  CALL   19D6
03ECA:  MOVFF  03,5FE
03ECE:  MOVFF  02,5FD
03ED2:  MOVFF  01,5FC
03ED6:  MOVFF  00,5FB
03EDA:  MOVLB  6
....................    return(res); 
03EDC:  MOVFF  5FB,00
03EE0:  MOVFF  5FC,01
03EE4:  MOVFF  5FD,02
03EE8:  MOVFF  5FE,03
.................... } 
03EEC:  MOVLB  0
03EEE:  RETLW  00
....................  
....................  
.................... //Overloaded function for exp() for PCD 
.................... // Overloaded function exp() for data type - Float48 
.................... #if defined(__PCD__) 
.................... float48 exp(float48 x) 
.................... { 
....................    float48 y, res, r; 
....................    int8 data1; 
....................    signed int8 n; 
....................    int1 s; 
....................    #ifdef _ERRNO 
....................    if(x > 88.722838) 
....................    { 
....................       errno=ERANGE; 
....................       return(0); 
....................    } 
....................    #endif 
....................    n = (signed int16)(x/LN2); 
....................    s = 0; 
....................    y = x; 
....................  
....................    if (x < 0) 
....................    { 
....................       s = 1; 
....................       n = -n; 
....................       y = -y; 
....................    } 
....................  
....................    res = 0.0; 
....................  
....................    data1 = n+0x7F; 
....................    if(bit_test(data1,0)) 
....................    bit_set(*(((unsigned int8 *)(&res)+4)),7); 
....................    rotate_right(&data1,1); 
....................    bit_clear(data1,7); 
....................    *(((unsigned int8 *)(&res)+5)) = data1; 
....................  
....................    y = y/LN2 - (float48)n; 
....................  
....................    r = pe[0]*y + pe[1]; 
....................    r = r*y + pe[2]; 
....................    r = r*y + pe[3]; 
....................    r = r*y + pe[4]; 
....................    r = r*y + pe[5]; 
....................  
....................    res = res*(1.0 + y*r); 
....................  
....................    if (s) 
....................       res = 1.0/res; 
....................    return(res); 
.................... } 
....................  
.................... // Overloaded function exp() for data type - Float64 
.................... float64 exp(float64 x) 
.................... { 
....................    float64 y, res, r; 
....................    unsigned int16 data1, data2; 
....................    unsigned int16 *p; 
....................    signed int16 n; 
....................    int1 s; 
....................    #ifdef _ERRNO 
....................    if(x > 709.7827128) 
....................    { 
....................       errno=ERANGE; 
....................       return(0); 
....................    } 
....................    #endif 
....................    n = (signed int16)(x/LN2); 
....................    s = 0; 
....................    y = x; 
....................  
....................    if (x < 0) 
....................    { 
....................       s = 1; 
....................       n = -n; 
....................       y = -y; 
....................    } 
....................  
....................    res = 0.0; 
....................  
.................... #if !defined(__PCD__) 
....................    *((unsigned int16 *)(&res)) = n + 0x7F; 
.................... #endif 
....................    p= (((unsigned int16 *)(&res))+3); 
....................    data1 = *p; 
....................    data2 = *p;    
....................    data1 = n + 0x3FF; 
....................    data1 = data1 <<4; 
....................    if(bit_test(data2,15)) 
....................    bit_set(data1,15); 
....................    data2 = data2 & 0x000F; 
....................    data1 ^= data2; 
....................  
....................    *(((unsigned int16 *)(&res)+3)) = data1; 
....................  
....................  
....................    y = y/LN2 - (float64)n; 
....................  
....................    r = pe[0]*y + pe[1]; 
....................    r = r*y + pe[2]; 
....................    r = r*y + pe[3]; 
....................    r = r*y + pe[4]; 
....................    r = r*y + pe[5]; 
....................  
....................    res = res*(1.0 + y*r); 
....................  
....................    if (s) 
....................       res = 1.0/res; 
....................    return(res); 
.................... } 
....................  
.................... #ENDIF 
....................  
....................  
.................... /************************************************************/ 
....................  
.................... float32 const pl[4] = {0.45145214, -9.0558803, 26.940971, -19.860189}; 
.................... float32 const ql[4] = {1.0000000,  -8.1354259, 16.780517, -9.9300943}; 
....................  
.................... //////////////////////////////////////////////////////////////////////////// 
.................... //   float log(float x) 
.................... //////////////////////////////////////////////////////////////////////////// 
.................... // Description : returns the the natural log of x 
.................... // Date : N/A 
.................... // 
.................... float32 log(float32 x) 
.................... { 
....................    float32 y, res, r, y2; 
....................    #if defined(__PCD__) 
....................    unsigned int8  data1,data2; 
....................    #endif 
....................    signed int8 n; 
....................    #ifdef _ERRNO 
....................    if(x <0) 
....................    { 
....................       errno=EDOM; 
....................    } 
....................    if(x ==0) 
....................    { 
....................       errno=ERANGE; 
....................       return(0); 
....................    } 
....................    #endif 
....................    y = x; 
*
03608:  MOVFF  5F6,5FA
0360C:  MOVFF  5F5,5F9
03610:  MOVFF  5F4,5F8
03614:  MOVFF  5F3,5F7
....................  
....................    if (y != 1.0) 
03618:  MOVFF  5FA,616
0361C:  MOVFF  5F9,615
03620:  MOVFF  5F8,614
03624:  MOVFF  5F7,613
03628:  MOVLB  6
0362A:  CLRF   x1A
0362C:  CLRF   x19
0362E:  CLRF   x18
03630:  MOVLW  7F
03632:  MOVWF  x17
03634:  MOVLB  0
03636:  CALL   2538
0363A:  BTFSC  FD8.2
0363C:  BRA    3AC4
....................    { 
.................... #if !defined(__PCD__) 
....................     *((unsigned int8 *)(&y)) = 0x7E;  
0363E:  MOVLW  05
03640:  MOVLB  6
03642:  MOVWF  x09
03644:  MOVLW  F7
03646:  MOVWF  FE9
03648:  MOVFF  609,FEA
0364C:  MOVLW  7E
0364E:  MOVWF  FEF
.................... #endif 
....................  
.................... #if defined(__PCD__) // Takes care of IEEE format 
....................    data2 = *(((unsigned int8 *)(&y))+3); 
....................    *(((unsigned int8 *)(&y))+3) = 0x3F; 
....................    data1 = *(((unsigned int8 *)(&y))+2); 
....................    bit_clear(data1,7); 
....................    *(((unsigned int8 *)(&y))+2) = data1; 
....................    if(bit_test(data2,7)) 
....................    bit_set(*(((unsigned int8 *)(&y))+3),7); 
.................... #endif 
....................  
....................       y = (y - 1.0)/(y + 1.0); 
03650:  BSF    FD8.1
03652:  MOVFF  5FA,61A
03656:  MOVFF  5F9,619
0365A:  MOVFF  5F8,618
0365E:  MOVFF  5F7,617
03662:  CLRF   x1E
03664:  CLRF   x1D
03666:  CLRF   x1C
03668:  MOVLW  7F
0366A:  MOVWF  x1B
0366C:  MOVLB  0
0366E:  CALL   1B34
03672:  MOVFF  00,608
03676:  MOVFF  01,609
0367A:  MOVFF  02,60A
0367E:  MOVFF  03,60B
03682:  BCF    FD8.1
03684:  MOVFF  5FA,61A
03688:  MOVFF  5F9,619
0368C:  MOVFF  5F8,618
03690:  MOVFF  5F7,617
03694:  MOVLB  6
03696:  CLRF   x1E
03698:  CLRF   x1D
0369A:  CLRF   x1C
0369C:  MOVLW  7F
0369E:  MOVWF  x1B
036A0:  MOVLB  0
036A2:  CALL   1B34
036A6:  MOVFF  60B,616
036AA:  MOVFF  60A,615
036AE:  MOVFF  609,614
036B2:  MOVFF  608,613
036B6:  MOVFF  03,61A
036BA:  MOVFF  02,619
036BE:  MOVFF  01,618
036C2:  MOVFF  00,617
036C6:  CALL   19D6
036CA:  MOVFF  03,5FA
036CE:  MOVFF  02,5F9
036D2:  MOVFF  01,5F8
036D6:  MOVFF  00,5F7
....................  
....................       y2=y*y; 
036DA:  MOVFF  5FA,616
036DE:  MOVFF  5F9,615
036E2:  MOVFF  5F8,614
036E6:  MOVFF  5F7,613
036EA:  MOVFF  5FA,61A
036EE:  MOVFF  5F9,619
036F2:  MOVFF  5F8,618
036F6:  MOVFF  5F7,617
036FA:  RCALL  2FB8
036FC:  MOVFF  03,606
03700:  MOVFF  02,605
03704:  MOVFF  01,604
03708:  MOVFF  00,603
....................  
....................       res = pl[0]*y2 + pl[1]; 
0370C:  MOVLW  BC
0370E:  MOVLB  6
03710:  MOVWF  x16
03712:  MOVLW  24
03714:  MOVWF  x15
03716:  MOVLW  67
03718:  MOVWF  x14
0371A:  MOVLW  7D
0371C:  MOVWF  x13
0371E:  MOVFF  606,61A
03722:  MOVFF  605,619
03726:  MOVFF  604,618
0372A:  MOVFF  603,617
0372E:  MOVLB  0
03730:  RCALL  2FB8
03732:  MOVFF  00,608
03736:  MOVFF  01,609
0373A:  MOVFF  02,60A
0373E:  MOVFF  03,60B
03742:  BCF    FD8.1
03744:  MOVFF  03,61A
03748:  MOVFF  02,619
0374C:  MOVFF  01,618
03750:  MOVFF  00,617
03754:  MOVLW  E3
03756:  MOVLB  6
03758:  MOVWF  x1E
0375A:  MOVLW  E4
0375C:  MOVWF  x1D
0375E:  MOVLW  90
03760:  MOVWF  x1C
03762:  MOVLW  82
03764:  MOVWF  x1B
03766:  MOVLB  0
03768:  CALL   1B34
0376C:  MOVFF  03,5FE
03770:  MOVFF  02,5FD
03774:  MOVFF  01,5FC
03778:  MOVFF  00,5FB
....................       res = res*y2 + pl[2]; 
0377C:  MOVFF  5FE,616
03780:  MOVFF  5FD,615
03784:  MOVFF  5FC,614
03788:  MOVFF  5FB,613
0378C:  MOVFF  606,61A
03790:  MOVFF  605,619
03794:  MOVFF  604,618
03798:  MOVFF  603,617
0379C:  RCALL  2FB8
0379E:  MOVFF  00,608
037A2:  MOVFF  01,609
037A6:  MOVFF  02,60A
037AA:  MOVFF  03,60B
037AE:  BCF    FD8.1
037B0:  MOVFF  03,61A
037B4:  MOVFF  02,619
037B8:  MOVFF  01,618
037BC:  MOVFF  00,617
037C0:  MOVLW  1C
037C2:  MOVLB  6
037C4:  MOVWF  x1E
037C6:  MOVLW  87
037C8:  MOVWF  x1D
037CA:  MOVLW  57
037CC:  MOVWF  x1C
037CE:  MOVLW  83
037D0:  MOVWF  x1B
037D2:  MOVLB  0
037D4:  CALL   1B34
037D8:  MOVFF  03,5FE
037DC:  MOVFF  02,5FD
037E0:  MOVFF  01,5FC
037E4:  MOVFF  00,5FB
....................       res = res*y2 + pl[3]; 
037E8:  MOVFF  5FE,616
037EC:  MOVFF  5FD,615
037F0:  MOVFF  5FC,614
037F4:  MOVFF  5FB,613
037F8:  MOVFF  606,61A
037FC:  MOVFF  605,619
03800:  MOVFF  604,618
03804:  MOVFF  603,617
03808:  CALL   2FB8
0380C:  MOVFF  00,608
03810:  MOVFF  01,609
03814:  MOVFF  02,60A
03818:  MOVFF  03,60B
0381C:  BCF    FD8.1
0381E:  MOVFF  03,61A
03822:  MOVFF  02,619
03826:  MOVFF  01,618
0382A:  MOVFF  00,617
0382E:  MOVLW  AB
03830:  MOVLB  6
03832:  MOVWF  x1E
03834:  MOVLW  E1
03836:  MOVWF  x1D
03838:  MOVLW  9E
0383A:  MOVWF  x1C
0383C:  MOVLW  83
0383E:  MOVWF  x1B
03840:  MOVLB  0
03842:  CALL   1B34
03846:  MOVFF  03,5FE
0384A:  MOVFF  02,5FD
0384E:  MOVFF  01,5FC
03852:  MOVFF  00,5FB
....................  
....................       r = ql[0]*y2 + ql[1]; 
03856:  MOVLB  6
03858:  CLRF   x16
0385A:  CLRF   x15
0385C:  CLRF   x14
0385E:  MOVLW  7F
03860:  MOVWF  x13
03862:  MOVFF  606,61A
03866:  MOVFF  605,619
0386A:  MOVFF  604,618
0386E:  MOVFF  603,617
03872:  MOVLB  0
03874:  CALL   2FB8
03878:  MOVFF  00,608
0387C:  MOVFF  01,609
03880:  MOVFF  02,60A
03884:  MOVFF  03,60B
03888:  BCF    FD8.1
0388A:  MOVFF  03,61A
0388E:  MOVFF  02,619
03892:  MOVFF  01,618
03896:  MOVFF  00,617
0389A:  MOVLW  B4
0389C:  MOVLB  6
0389E:  MOVWF  x1E
038A0:  MOVLW  2A
038A2:  MOVWF  x1D
038A4:  MOVLW  82
038A6:  MOVWF  x1C
038A8:  MOVWF  x1B
038AA:  MOVLB  0
038AC:  CALL   1B34
038B0:  MOVFF  03,602
038B4:  MOVFF  02,601
038B8:  MOVFF  01,600
038BC:  MOVFF  00,5FF
....................       r = r*y2 + ql[2]; 
038C0:  MOVFF  602,616
038C4:  MOVFF  601,615
038C8:  MOVFF  600,614
038CC:  MOVFF  5FF,613
038D0:  MOVFF  606,61A
038D4:  MOVFF  605,619
038D8:  MOVFF  604,618
038DC:  MOVFF  603,617
038E0:  CALL   2FB8
038E4:  MOVFF  00,608
038E8:  MOVFF  01,609
038EC:  MOVFF  02,60A
038F0:  MOVFF  03,60B
038F4:  BCF    FD8.1
038F6:  MOVFF  03,61A
038FA:  MOVFF  02,619
038FE:  MOVFF  01,618
03902:  MOVFF  00,617
03906:  MOVLW  80
03908:  MOVLB  6
0390A:  MOVWF  x1E
0390C:  MOVLW  3E
0390E:  MOVWF  x1D
03910:  MOVLW  06
03912:  MOVWF  x1C
03914:  MOVLW  83
03916:  MOVWF  x1B
03918:  MOVLB  0
0391A:  CALL   1B34
0391E:  MOVFF  03,602
03922:  MOVFF  02,601
03926:  MOVFF  01,600
0392A:  MOVFF  00,5FF
....................       r = r*y2 + ql[3]; 
0392E:  MOVFF  602,616
03932:  MOVFF  601,615
03936:  MOVFF  600,614
0393A:  MOVFF  5FF,613
0393E:  MOVFF  606,61A
03942:  MOVFF  605,619
03946:  MOVFF  604,618
0394A:  MOVFF  603,617
0394E:  CALL   2FB8
03952:  MOVFF  00,608
03956:  MOVFF  01,609
0395A:  MOVFF  02,60A
0395E:  MOVFF  03,60B
03962:  BCF    FD8.1
03964:  MOVFF  03,61A
03968:  MOVFF  02,619
0396C:  MOVFF  01,618
03970:  MOVFF  00,617
03974:  MOVLW  AB
03976:  MOVLB  6
03978:  MOVWF  x1E
0397A:  MOVLW  E1
0397C:  MOVWF  x1D
0397E:  MOVLW  9E
03980:  MOVWF  x1C
03982:  MOVLW  82
03984:  MOVWF  x1B
03986:  MOVLB  0
03988:  CALL   1B34
0398C:  MOVFF  03,602
03990:  MOVFF  02,601
03994:  MOVFF  01,600
03998:  MOVFF  00,5FF
....................  
....................       res = y*res/r; 
0399C:  MOVFF  5FA,616
039A0:  MOVFF  5F9,615
039A4:  MOVFF  5F8,614
039A8:  MOVFF  5F7,613
039AC:  MOVFF  5FE,61A
039B0:  MOVFF  5FD,619
039B4:  MOVFF  5FC,618
039B8:  MOVFF  5FB,617
039BC:  CALL   2FB8
039C0:  MOVFF  00,608
039C4:  MOVFF  01,609
039C8:  MOVFF  02,60A
039CC:  MOVFF  03,60B
039D0:  MOVFF  03,616
039D4:  MOVFF  02,615
039D8:  MOVFF  01,614
039DC:  MOVFF  00,613
039E0:  MOVFF  602,61A
039E4:  MOVFF  601,619
039E8:  MOVFF  600,618
039EC:  MOVFF  5FF,617
039F0:  CALL   19D6
039F4:  MOVFF  03,5FE
039F8:  MOVFF  02,5FD
039FC:  MOVFF  01,5FC
03A00:  MOVFF  00,5FB
.................... #if !defined(__PCD__) 
....................       n = *((unsigned int8 *)(&x)) - 0x7E; 
03A04:  MOVLW  05
03A06:  MOVLB  6
03A08:  MOVWF  x09
03A0A:  MOVLW  F3
03A0C:  MOVWF  FE9
03A0E:  MOVFF  609,FEA
03A12:  MOVLW  7E
03A14:  SUBWF  FEF,W
03A16:  MOVWF  x07
.................... #endif 
.................... #if defined(__PCD__)  
....................     data1 = *(((unsigned int8 *)(&x)+3)); 
....................     rotate_left(&data1,1); 
....................     data2 = *(((unsigned int8 *)(&x)+2)); 
....................     if(bit_test (data2,7)) 
....................       bit_set(data1,0); 
....................     n = data1 - 0x7E; 
.................... #endif 
....................  
....................       if (n<0)  
03A18:  BTFSC  x07.7
03A1A:  BRA    3A1E
03A1C:  BRA    3A46
....................          r = -(float32)-n; 
03A1E:  MOVLW  00
03A20:  BSF    FD8.0
03A22:  SUBFWB x07,W
03A24:  CLRF   x0A
03A26:  MOVWF  x09
03A28:  BTFSC  x09.7
03A2A:  DECF   x0A,F
03A2C:  MOVLB  0
03A2E:  RCALL  35B8
03A30:  MOVFF  00,5FF
03A34:  MOVF   01,W
03A36:  XORLW  80
03A38:  MOVLB  6
03A3A:  MOVWF  x00
03A3C:  MOVFF  02,601
03A40:  MOVFF  03,602
....................       else 
03A44:  BRA    3A66
....................          r = (float32)n; 
03A46:  CLRF   x0A
03A48:  MOVFF  607,609
03A4C:  BTFSC  x09.7
03A4E:  DECF   x0A,F
03A50:  MOVLB  0
03A52:  RCALL  35B8
03A54:  MOVFF  03,602
03A58:  MOVFF  02,601
03A5C:  MOVFF  01,600
03A60:  MOVFF  00,5FF
03A64:  MOVLB  6
....................  
....................       res += r*LN2; 
03A66:  MOVFF  602,616
03A6A:  MOVFF  601,615
03A6E:  MOVFF  600,614
03A72:  MOVFF  5FF,613
03A76:  MOVLW  18
03A78:  MOVWF  x1A
03A7A:  MOVLW  72
03A7C:  MOVWF  x19
03A7E:  MOVLW  31
03A80:  MOVWF  x18
03A82:  MOVLW  7E
03A84:  MOVWF  x17
03A86:  MOVLB  0
03A88:  CALL   2FB8
03A8C:  BCF    FD8.1
03A8E:  MOVFF  5FE,61A
03A92:  MOVFF  5FD,619
03A96:  MOVFF  5FC,618
03A9A:  MOVFF  5FB,617
03A9E:  MOVFF  03,61E
03AA2:  MOVFF  02,61D
03AA6:  MOVFF  01,61C
03AAA:  MOVFF  00,61B
03AAE:  CALL   1B34
03AB2:  MOVFF  03,5FE
03AB6:  MOVFF  02,5FD
03ABA:  MOVFF  01,5FC
03ABE:  MOVFF  00,5FB
....................    } 
....................  
....................    else 
03AC2:  BRA    3AD0
....................       res = 0.0; 
03AC4:  MOVLB  5
03AC6:  CLRF   xFE
03AC8:  CLRF   xFD
03ACA:  CLRF   xFC
03ACC:  CLRF   xFB
03ACE:  MOVLB  0
....................  
....................    return(res); 
03AD0:  MOVFF  5FB,00
03AD4:  MOVFF  5FC,01
03AD8:  MOVFF  5FD,02
03ADC:  MOVFF  5FE,03
.................... } 
03AE0:  RETLW  00
....................  
.................... //Overloaded function for log() for PCD 
.................... // Overloaded function log() for data type - Float48 
.................... #if defined(__PCD__) 
.................... float48 log(float48 x) 
.................... { 
....................    float48 y, res, r, y2; 
....................    unsigned int8  data1,data2; 
....................    signed int8 n; 
....................    #ifdef _ERRNO 
....................    if(x <0) 
....................    { 
....................       errno=EDOM; 
....................    } 
....................    if(x ==0) 
....................    { 
....................       errno=ERANGE; 
....................       return(0); 
....................    } 
....................    #endif 
....................    y = x; 
....................  
....................    if (y != 1.0) 
....................    { 
....................     
....................    #if !defined(__PCD__) 
....................        *((unsigned int8 *)(&y)) = 0x7E;  
....................    #endif 
....................       data2 = *(((unsigned int8 *)(&y))+5); 
....................       *(((unsigned int8 *)(&y))+5) = 0x3F; 
....................       data1 = *(((unsigned int8 *)(&y))+4); 
....................       bit_clear(data1,7); 
....................       *(((unsigned int8 *)(&y))+4) = data1; 
....................    
....................       if(bit_test(data2,7)) 
....................          bit_set(*(((unsigned int8 *)(&y))+4),7); 
....................       y = (y - 1.0)/(y + 1.0); 
....................  
....................       y2=y*y; 
....................  
....................       res = pl[0]*y2 + pl[1]; 
....................       res = res*y2 + pl[2]; 
....................       res = res*y2 + pl[3]; 
....................  
....................       r = ql[0]*y2 + ql[1]; 
....................       r = r*y2 + ql[2]; 
....................       r = r*y2 + ql[3]; 
....................  
....................       res = y*res/r; 
....................  
....................     data1 = *(((unsigned int8 *)(&x)+5)); 
....................     rotate_left(&data1,1); 
....................     data2 = *(((unsigned int8 *)(&x)+4)); 
....................     if(bit_test (data2,7)) 
....................        bit_set(data1,0); 
....................       
....................     n = data1 - 0x7E; 
....................  
....................       if (n<0) 
....................          r = -(float48)-n; 
....................       else 
....................          r = (float48)n; 
....................  
....................       res += r*LN2; 
....................    } 
....................  
....................    else 
....................       res = 0.0; 
....................  
....................    return(res); 
.................... } 
....................  
.................... // Overloaded function log() for data type - Float48 
.................... #if defined(__PCD__) 
.................... float32 const pl_64[4] = {0.45145214, -9.0558803, 26.940971, -19.860189}; 
.................... float32 const ql_64[4] = {1.0000000,  -8.1354259, 16.780517, -9.9300943}; 
.................... #endif 
.................... float64 log(float64 x) 
.................... { 
....................    float64 y, res, r, y2; 
....................    unsigned int16  data1,data2; 
....................    unsigned int16 *p; 
....................    signed int16 n; 
....................    #ifdef _ERRNO 
....................    if(x <0) 
....................    { 
....................       errno=EDOM; 
....................    } 
....................    if(x ==0) 
....................    { 
....................       errno=ERANGE; 
....................       return(0); 
....................    } 
....................    #endif 
....................    y = x; 
....................  
....................    if (y != 1.0) 
....................    { 
....................    #if !defined(__PCD__) 
....................        *((unsigned int8 *)(&y)) = 0x7E;  
....................    #endif 
....................       p= (((unsigned int16 *)(&y))+3); 
....................       data1 = *p; 
....................       data2 = *p; 
....................       data1 = 0x3FE; 
....................       data1 = data1 <<4; 
....................       if(bit_test (data2,15)) 
....................       bit_set(data1,15); 
....................       data2 = data2 & 0x000F; 
....................       data1 ^=data2; 
....................  
....................       *p = data1; 
....................  
....................       y = (y - 1.0)/(y + 1.0); 
....................  
....................       y2=y*y; 
....................  
....................       res = pl_64[0]*y2 + pl_64[1]; 
....................       res = res*y2 + pl_64[2]; 
....................       res = res*y2 + pl_64[3]; 
....................  
....................       r = ql_64[0]*y2 + ql_64[1]; 
....................       r = r*y2 + ql_64[2]; 
....................       r = r*y2 + ql_64[3]; 
....................  
....................       res = y*res/r; 
....................   
....................       p= (((unsigned int16 *)(&x))+3); 
....................       data1 = *p; 
....................       bit_clear(data1,15); 
....................       data1 = data1 >>4;     
....................       n = data1 - 0x3FE; 
....................  
....................  
....................       if (n<0) 
....................          r = -(float64)-n; 
....................       else 
....................          r = (float64)n; 
....................  
....................       res += r*LN2; 
....................    } 
....................  
....................    else 
....................       res = 0.0; 
....................  
....................    return(res); 
.................... } 
.................... #endif 
....................  
....................  
.................... #define LN10 2.3025850929940456 
....................  
.................... //////////////////////////////////////////////////////////////////////////// 
.................... //   float log10(float x) 
.................... //////////////////////////////////////////////////////////////////////////// 
.................... // Description : returns the the log base 10 of x 
.................... // Date : N/A 
.................... // 
.................... float32 log10(float32 x) 
.................... { 
....................    float32 r; 
....................  
....................    r = log(x); 
....................    r = r/LN10; 
....................    return(r); 
.................... } 
....................  
.................... //Overloaded functions for log10() for PCD 
.................... // Overloaded function log10() for data type - Float48 
.................... #if defined(__PCD__) 
.................... float48 log10(float48 x) 
.................... { 
....................    float48 r; 
....................  
....................    r = log(x); 
....................    r = r/LN10; 
....................    return(r); 
.................... } 
....................  
.................... // Overloaded function log10() for data type - Float64 
.................... float64 log10(float64 x) 
.................... { 
....................    float64 r; 
....................  
....................    r = log(x); 
....................    r = r/LN10; 
....................    return(r); 
.................... } 
.................... #endif 
.................... //////////////////////////////////////////////////////////////////////////// 
.................... //   float modf(float x) 
.................... //////////////////////////////////////////////////////////////////////////// 
.................... // Description :breaks the argument value int integral and fractional parts, 
.................... // ach of which have the same sign as the argument.  It stores the integral part 
.................... // as a float in the object pointed to by the iptr 
.................... // Returns : returns the signed fractional part of value. 
.................... // Date : N/A 
.................... // 
....................  
.................... float32 modf(float32 value,float32 *iptr) 
.................... { 
....................    *iptr=(value < 0.0)? ceil(value): floor(value); 
....................    return(value - *iptr); 
.................... } 
.................... //Overloaded functions for modf() for PCD 
.................... // Overloaded function modf() for data type - Float48 
.................... #if defined(__PCD__) 
.................... float48 modf(float48 value,float48 *iptr) 
.................... { 
....................    *iptr=(value < 0.0)? ceil(value): floor(value); 
....................    return(value - *iptr); 
.................... } 
.................... // Overloaded function modf() for data type - Float64 
.................... float64 modf(float64 value,float64 *iptr) 
.................... { 
....................    *iptr=(value < 0.0)? ceil(value): floor(value); 
....................    return(value - *iptr); 
.................... } 
.................... #endif 
....................  
.................... //////////////////////////////////////////////////////////////////////////// 
.................... //   float pwr(float x,float y) 
.................... //////////////////////////////////////////////////////////////////////////// 
.................... // Description : returns the value (x^y) 
.................... // Date : N/A 
.................... // Note : 0 is returned when the function will generate an imaginary number 
.................... // 
.................... float32 pwr(float32 x,float32 y) 
.................... { 
....................    if(0 > x && fmod(y, 1) == 0) { 
....................       if(fmod(y, 2) == 0) { 
....................          return (exp(log(-x) * y)); 
....................       } else { 
....................          return (-exp(log(-x) * y)); 
....................       } 
....................    } else if(0 > x && fmod(y, 1) != 0) { 
....................       return 0; 
....................    } else { 
....................       if(x != 0 || 0 >= y) { 
....................          return (exp(log(x) * y)); 
....................       } 
....................    } 
.................... } 
.................... //Overloaded functions for pwr() for PCD 
.................... // Overloaded function pwr() for data type - Float48 
.................... #if defined(__PCD__) 
.................... float48 pwr(float48 x,float48 y) 
.................... { 
....................    if(0 > x && fmod(y, 1) == 0) { 
....................       if(fmod(y, 2) == 0) { 
....................          return (exp(log(-x) * y)); 
....................       } else { 
....................          return (-exp(log(-x) * y)); 
....................       } 
....................    } else if(0 > x && fmod(y, 1) != 0) { 
....................       return 0; 
....................    } else { 
....................       if(x != 0 || 0 >= y) { 
....................          return (exp(log(x) * y)); 
....................       } 
....................    } 
.................... } 
.................... // Overloaded function pwr() for data type - Float64 
.................... float64 pwr(float64 x,float64 y) 
.................... { 
....................    if(0 > x && fmod(y, 1) == 0) { 
....................       if(fmod(y, 2) == 0) { 
....................          return (exp(log(-x) * y)); 
....................       } else { 
....................          return (-exp(log(-x) * y)); 
....................       } 
....................    } else if(0 > x && fmod(y, 1) != 0) { 
....................       return 0; 
....................    } else { 
....................       if(x != 0 || 0 >= y) { 
....................          return (exp(log(x) * y)); 
....................       } 
....................    } 
.................... } 
.................... #endif 
....................  
.................... //////////////////// Power functions //////////////////// 
....................  
.................... //////////////////////////////////////////////////////////////////////////// 
.................... //   float pow(float x,float y) 
.................... //////////////////////////////////////////////////////////////////////////// 
.................... // Description : returns the value (x^y) 
.................... // Date : N/A 
.................... // Note : 0 is returned when the function will generate an imaginary number 
.................... // 
.................... float32 pow(float32 x,float32 y) 
.................... { 
....................    if(0 > x && fmod(y, 1) == 0) { 
*
03EF0:  MOVFF  5EA,616
03EF4:  MOVFF  5E9,615
03EF8:  MOVFF  5E8,614
03EFC:  MOVFF  5E7,613
03F00:  MOVLB  6
03F02:  CLRF   x1A
03F04:  CLRF   x19
03F06:  CLRF   x18
03F08:  CLRF   x17
03F0A:  MOVLB  0
03F0C:  CALL   2538
03F10:  BTFSS  FD8.0
03F12:  BRA    40C6
03F14:  MOVFF  5EE,5F2
03F18:  MOVFF  5ED,5F1
03F1C:  MOVFF  5EC,5F0
03F20:  MOVFF  5EB,5EF
03F24:  MOVLB  5
03F26:  CLRF   xF6
03F28:  CLRF   xF5
03F2A:  CLRF   xF4
03F2C:  MOVLW  7F
03F2E:  MOVWF  xF3
03F30:  MOVLB  0
03F32:  CALL   3452
03F36:  MOVFF  00,5EF
03F3A:  MOVFF  01,5F0
03F3E:  MOVFF  02,5F1
03F42:  MOVFF  03,5F2
03F46:  MOVFF  03,616
03F4A:  MOVFF  02,615
03F4E:  MOVFF  01,614
03F52:  MOVFF  00,613
03F56:  MOVLB  6
03F58:  CLRF   x1A
03F5A:  CLRF   x19
03F5C:  CLRF   x18
03F5E:  CLRF   x17
03F60:  MOVLB  0
03F62:  CALL   2538
03F66:  BTFSS  FD8.2
03F68:  BRA    40C6
....................       if(fmod(y, 2) == 0) { 
03F6A:  MOVFF  5EE,5F2
03F6E:  MOVFF  5ED,5F1
03F72:  MOVFF  5EC,5F0
03F76:  MOVFF  5EB,5EF
03F7A:  MOVLB  5
03F7C:  CLRF   xF6
03F7E:  CLRF   xF5
03F80:  CLRF   xF4
03F82:  MOVLW  80
03F84:  MOVWF  xF3
03F86:  MOVLB  0
03F88:  CALL   3452
03F8C:  MOVFF  00,5EF
03F90:  MOVFF  01,5F0
03F94:  MOVFF  02,5F1
03F98:  MOVFF  03,5F2
03F9C:  MOVFF  03,616
03FA0:  MOVFF  02,615
03FA4:  MOVFF  01,614
03FA8:  MOVFF  00,613
03FAC:  MOVLB  6
03FAE:  CLRF   x1A
03FB0:  CLRF   x19
03FB2:  CLRF   x18
03FB4:  CLRF   x17
03FB6:  MOVLB  0
03FB8:  CALL   2538
03FBC:  BNZ   4040
....................          return (exp(log(-x) * y)); 
03FBE:  MOVFF  5E7,5EF
03FC2:  MOVLB  5
03FC4:  MOVF   xE8,W
03FC6:  XORLW  80
03FC8:  MOVWF  xF0
03FCA:  MOVFF  5E9,5F1
03FCE:  MOVFF  5EA,5F2
03FD2:  MOVFF  5EA,5F6
03FD6:  MOVFF  5E9,5F5
03FDA:  MOVWF  xF4
03FDC:  MOVFF  5E7,5F3
03FE0:  MOVLB  0
03FE2:  CALL   3608
03FE6:  MOVFF  00,5EF
03FEA:  MOVFF  01,5F0
03FEE:  MOVFF  02,5F1
03FF2:  MOVFF  03,5F2
03FF6:  MOVFF  03,616
03FFA:  MOVFF  02,615
03FFE:  MOVFF  01,614
04002:  MOVFF  00,613
04006:  MOVFF  5EE,61A
0400A:  MOVFF  5ED,619
0400E:  MOVFF  5EC,618
04012:  MOVFF  5EB,617
04016:  CALL   2FB8
0401A:  MOVFF  00,5EF
0401E:  MOVFF  01,5F0
04022:  MOVFF  02,5F1
04026:  MOVFF  03,5F2
0402A:  MOVFF  03,5F6
0402E:  MOVFF  02,5F5
04032:  MOVFF  01,5F4
04036:  MOVFF  00,5F3
0403A:  RCALL  3AE2
0403C:  BRA    41FA
....................       } else { 
0403E:  BRA    40C4
....................          return (-exp(log(-x) * y)); 
04040:  MOVFF  5E7,5EF
04044:  MOVLB  5
04046:  MOVF   xE8,W
04048:  XORLW  80
0404A:  MOVWF  xF0
0404C:  MOVFF  5E9,5F1
04050:  MOVFF  5EA,5F2
04054:  MOVFF  5EA,5F6
04058:  MOVFF  5E9,5F5
0405C:  MOVWF  xF4
0405E:  MOVFF  5E7,5F3
04062:  MOVLB  0
04064:  CALL   3608
04068:  MOVFF  00,5EF
0406C:  MOVFF  01,5F0
04070:  MOVFF  02,5F1
04074:  MOVFF  03,5F2
04078:  MOVFF  03,616
0407C:  MOVFF  02,615
04080:  MOVFF  01,614
04084:  MOVFF  00,613
04088:  MOVFF  5EE,61A
0408C:  MOVFF  5ED,619
04090:  MOVFF  5EC,618
04094:  MOVFF  5EB,617
04098:  CALL   2FB8
0409C:  MOVFF  00,5EF
040A0:  MOVFF  01,5F0
040A4:  MOVFF  02,5F1
040A8:  MOVFF  03,5F2
040AC:  MOVFF  03,5F6
040B0:  MOVFF  02,5F5
040B4:  MOVFF  01,5F4
040B8:  MOVFF  00,5F3
040BC:  RCALL  3AE2
040BE:  MOVLW  80
040C0:  XORWF  01,F
040C2:  BRA    41FA
....................       } 
....................    } else if(0 > x && fmod(y, 1) != 0) { 
040C4:  BRA    41FA
040C6:  MOVFF  5EA,616
040CA:  MOVFF  5E9,615
040CE:  MOVFF  5E8,614
040D2:  MOVFF  5E7,613
040D6:  MOVLB  6
040D8:  CLRF   x1A
040DA:  CLRF   x19
040DC:  CLRF   x18
040DE:  CLRF   x17
040E0:  MOVLB  0
040E2:  CALL   2538
040E6:  BNC   4148
040E8:  MOVFF  5EE,5F2
040EC:  MOVFF  5ED,5F1
040F0:  MOVFF  5EC,5F0
040F4:  MOVFF  5EB,5EF
040F8:  MOVLB  5
040FA:  CLRF   xF6
040FC:  CLRF   xF5
040FE:  CLRF   xF4
04100:  MOVLW  7F
04102:  MOVWF  xF3
04104:  MOVLB  0
04106:  CALL   3452
0410A:  MOVFF  00,5EF
0410E:  MOVFF  01,5F0
04112:  MOVFF  02,5F1
04116:  MOVFF  03,5F2
0411A:  MOVFF  03,616
0411E:  MOVFF  02,615
04122:  MOVFF  01,614
04126:  MOVFF  00,613
0412A:  MOVLB  6
0412C:  CLRF   x1A
0412E:  CLRF   x19
04130:  CLRF   x18
04132:  CLRF   x17
04134:  MOVLB  0
04136:  CALL   2538
0413A:  BZ    4148
....................       return 0; 
0413C:  CLRF   00
0413E:  CLRF   01
04140:  CLRF   02
04142:  CLRF   03
04144:  BRA    41FA
....................    } else { 
04146:  BRA    41FA
....................       if(x != 0 || 0 >= y) { 
04148:  MOVFF  5EA,616
0414C:  MOVFF  5E9,615
04150:  MOVFF  5E8,614
04154:  MOVFF  5E7,613
04158:  MOVLB  6
0415A:  CLRF   x1A
0415C:  CLRF   x19
0415E:  CLRF   x18
04160:  CLRF   x17
04162:  MOVLB  0
04164:  CALL   2538
04168:  BNZ   418E
0416A:  MOVFF  5EE,616
0416E:  MOVFF  5ED,615
04172:  MOVFF  5EC,614
04176:  MOVFF  5EB,613
0417A:  MOVLB  6
0417C:  CLRF   x1A
0417E:  CLRF   x19
04180:  CLRF   x18
04182:  CLRF   x17
04184:  MOVLB  0
04186:  CALL   2538
0418A:  BC    418E
0418C:  BNZ   41FA
....................          return (exp(log(x) * y)); 
0418E:  MOVFF  5EA,5F6
04192:  MOVFF  5E9,5F5
04196:  MOVFF  5E8,5F4
0419A:  MOVFF  5E7,5F3
0419E:  CALL   3608
041A2:  MOVFF  00,5EF
041A6:  MOVFF  01,5F0
041AA:  MOVFF  02,5F1
041AE:  MOVFF  03,5F2
041B2:  MOVFF  03,616
041B6:  MOVFF  02,615
041BA:  MOVFF  01,614
041BE:  MOVFF  00,613
041C2:  MOVFF  5EE,61A
041C6:  MOVFF  5ED,619
041CA:  MOVFF  5EC,618
041CE:  MOVFF  5EB,617
041D2:  CALL   2FB8
041D6:  MOVFF  00,5EF
041DA:  MOVFF  01,5F0
041DE:  MOVFF  02,5F1
041E2:  MOVFF  03,5F2
041E6:  MOVFF  03,5F6
041EA:  MOVFF  02,5F5
041EE:  MOVFF  01,5F4
041F2:  MOVFF  00,5F3
041F6:  RCALL  3AE2
041F8:  BRA    41FA
....................       } 
....................    } 
.................... } 
041FA:  RETLW  00
.................... //Overloaded functions for pow() for PCD 
.................... // Overloaded function for pow() data type - Float48 
.................... #if defined(__PCD__) 
.................... float48 pow(float48 x,float48 y) 
.................... { 
....................    if(0 > x && fmod(y, 1) == 0) { 
....................       if(fmod(y, 2) == 0) { 
....................          return (exp(log(-x) * y)); 
....................       } else { 
....................          return (-exp(log(-x) * y)); 
....................       } 
....................    } else if(0 > x && fmod(y, 1) != 0) { 
....................       return 0; 
....................    } else { 
....................       if(x != 0 || 0 >= y) { 
....................          return (exp(log(x) * y)); 
....................       } 
....................    } 
.................... } 
....................  
.................... // Overloaded function pow() for data type - Float64 
.................... float64 pow(float64 x,float64 y) 
.................... { 
....................    if(0 > x && fmod(y, 1) == 0) { 
....................       if(fmod(y, 2) == 0) { 
....................          return (exp(log(-x) * y)); 
....................       } else { 
....................          return (-exp(log(-x) * y)); 
....................       } 
....................    } else if(0 > x && fmod(y, 1) != 0) { 
....................       return 0; 
....................    } else { 
....................       if(x != 0 || 0 >= y) { 
....................          return (exp(log(x) * y)); 
....................       } 
....................    } 
.................... } 
.................... #endif 
....................  
.................... //////////////////////////////////////////////////////////////////////////// 
.................... //   float sqrt(float x) 
.................... //////////////////////////////////////////////////////////////////////////// 
.................... // Description : returns the square root of x 
.................... // Date : N/A 
.................... // 
.................... float32 sqrt(float32 x) 
.................... { 
....................    float32 y, res; 
....................    #if defined(__PCD__) 
....................    unsigned int16 data1,data2; 
....................    #endif 
....................    BYTE *p; 
....................  
....................    #ifdef _ERRNO 
....................    if(x < 0) 
....................    { 
....................       errno=EDOM; 
....................    } 
....................    #endif 
....................  
....................    if( x<=0.0) 
....................       return(0.0); 
....................  
....................    y=x; 
....................     
....................    #if !defined(__PCD__) 
....................     p=&y; 
....................    (*p)=(BYTE)((((unsigned int16)(*p)) + 127) >> 1); 
....................    #endif 
....................     
....................    #if defined(__PCD__) 
....................     p = (((unsigned int8 *)(&y))+3); 
....................     data1 = *(((unsigned int8 *)(&y))+3); 
....................     data2 = *(((unsigned int8 *)(&y))+2); 
....................     rotate_left(&data1,1);     
....................     if(bit_test(data2,7))     
....................     bit_set(data1,0);     
....................     data1 = ((data1+127) >>1); 
....................     bit_clear(data2,7); 
....................     if(bit_test(data1,0)) 
....................     bit_set(data2,7); 
....................     data1 = data1 >>1; 
....................     *(((unsigned int8 *)(&y))+3) = data1; 
....................     *(((unsigned int8 *)(&y))+2) = data2; 
....................      
....................   #endif 
....................  
....................    do { 
....................       res=y; 
....................       y+=(x/y); 
....................  
....................       #if !defined(__PCD__) 
....................      (*p)--; 
....................    #endif 
....................     
....................    #if defined(__PCD__) 
....................     data1 = *(((unsigned int8 *)(&y))+3); 
....................     data2 = *(((unsigned int8 *)(&y))+2); 
....................     rotate_left(&data1,1); 
....................     if(bit_test(data2,7)) 
....................     bit_set(data1,0);     
....................     data1--; 
....................     bit_clear(data2,7); 
....................     if(bit_test(data1,0)) 
....................     bit_set(data2,7); 
....................     data1 = data1 >>1; 
....................     *(((unsigned int8 *)(&y))+3) = data1; 
....................     *(((unsigned int8 *)(&y))+2) = data2; 
....................      
....................   #endif 
....................    } while(res != y); 
....................  
....................    return(res); 
.................... } 
.................... //Overloaded functions for sqrt() for PCD 
.................... // Overloaded function sqrt() for data type - Float48 
.................... #if defined(__PCD__) 
.................... float48 sqrt(float48 x) 
.................... { 
....................    float48 y, res; 
....................    unsigned int16 data1,data2; 
....................    BYTE *p; 
....................  
....................    #ifdef _ERRNO 
....................    if(x < 0) 
....................    { 
....................       errno=EDOM; 
....................    } 
....................    #endif 
....................  
....................    if( x<=0.0) 
....................       return(0.0); 
....................  
....................    y=x; 
....................     
....................    #if !defined(__PCD__) 
....................     p=&y; 
....................    (*p)=(BYTE)((((unsigned int16)(*p)) + 127) >> 1); 
....................    #endif 
....................     
....................    #if defined(__PCD__) 
....................     p = (((unsigned int8 *)(&y))+5); 
....................     data1 = *(((unsigned int8 *)(&y))+5); 
....................     data2 = *(((unsigned int8 *)(&y))+4); 
....................     rotate_left(&data1,1); 
....................     if(bit_test(data2,7)) 
....................     bit_set(data1,0);     
....................     data1 = ((data1+127) >>1); 
....................     bit_clear(data2,7); 
....................     if(bit_test(data1,0)) 
....................     bit_set(data2,7); 
....................     data1 = data1 >>1; 
....................     *(((unsigned int8 *)(&y))+5) = data1; 
....................     *(((unsigned int8 *)(&y))+4) = data2; 
....................      
....................   #endif 
....................  
....................    do { 
....................       res=y; 
....................       y+=(x/y); 
....................  
....................       #if !defined(__PCD__) 
....................      (*p)--; 
....................    #endif 
....................     
....................     data1 = *(((unsigned int8 *)(&y))+5); 
....................     data2 = *(((unsigned int8 *)(&y))+4); 
....................     rotate_left(&data1,1); 
....................     if(bit_test(data2,7)) 
....................     bit_set(data1,0);     
....................     data1--; 
....................     bit_clear(data2,7); 
....................     if(bit_test(data1,0)) 
....................     bit_set(data2,7); 
....................     data1 = data1 >>1; 
....................     *(((unsigned int8 *)(&y))+5) = data1; 
....................     *(((unsigned int8 *)(&y))+4) = data2; 
....................      
....................    } while(res != y); 
....................  
....................    return(res); 
.................... } 
....................  
.................... // Overloaded function sqrt() for data type - Float64 
.................... float64 sqrt(float64 x) 
.................... { 
....................    float64 y, res; 
....................    unsigned int16 *p; 
....................    unsigned int16 temp1,temp2; 
....................  
....................    #ifdef _ERRNO 
....................    if(x < 0) 
....................    { 
....................       errno=EDOM; 
....................    } 
....................    #endif 
....................  
....................    if( x<=0.0) 
....................       return(0.0); 
....................  
....................    y=x; 
....................    p= (((unsigned int16 *)(&y))+3); 
....................    temp1 = *p; 
....................    temp2 = *p; 
....................    bit_clear(temp1,15); 
....................    temp1 = (temp1>>4)+1023; 
....................    temp1 = temp1 >> 1; 
....................    temp1 = (temp1<<4) & 0xFFF0; 
....................    if(bit_test(temp2,15)) 
....................    bit_set(temp1,15); 
....................    temp2 = temp2 & 0x000F; 
....................    temp1 ^= temp2; 
....................     
....................    (*p) = temp1; 
....................     
....................    do { 
....................       res=y; 
....................       y+=(x/y); 
....................      temp1 = *p; 
....................      temp2 = *p; 
....................      bit_clear(temp1,15); 
....................      temp1 = (temp1>>4); 
....................      temp1--; 
....................      temp1 = (temp1<<4) & 0xFFF0; 
....................      if(bit_test(temp2,15)) 
....................      bit_set(temp1,15); 
....................      temp2 = temp2 & 0x000F; 
....................      temp1 ^= temp2; 
....................      (*p) = temp1; 
....................  
....................    } while(res != y); 
....................  
....................    return(res); 
.................... } 
.................... #endif 
....................  
.................... ////////////////////////////// Trig Functions ////////////////////////////// 
.................... #ifdef PI_DIV_BY_TWO 
.................... #undef PI_DIV_BY_TWO 
.................... #endif 
.................... #define PI_DIV_BY_TWO   1.5707963267948966 
.................... #ifdef TWOBYPI 
.................... #undef TWOBYPI 
.................... #define TWOBYPI          0.6366197723675813 
.................... #endif 
.................... //////////////////////////////////////////////////////////////////////////// 
.................... //   float cos(float x) 
.................... //////////////////////////////////////////////////////////////////////////// 
.................... // Description : returns the cosine value of the angle x, which is in radian 
.................... // Date : 9/20/2001 
.................... // 
.................... float32 cos(float32 x) 
.................... { 
....................    float32 y, t, t2 = 1.0; 
....................    unsigned int8 quad, i; 
....................    float32 frac; 
....................    float32 p[6] = {                    //by the series definition for cosine 
....................       -0.5,                            // sum ( ( (-1)^n * x^2n )/(2n)! ) 
....................        0.04166666666667, 
....................       -0.00138888888889, 
....................        0.00002480158730, 
....................       -0.00000027557319, 
....................        0.00000000208767, 
....................       //-0.00000000001147, 
....................       // 0.00000000000005 
....................    }; 
....................  
....................    if (x < 0) x = -x;                  // absolute value of input 
....................  
....................    quad = (unsigned int8)(x / PI_DIV_BY_TWO);    // quadrant 
....................    frac = (x / PI_DIV_BY_TWO) - quad;  // fractional part of input 
....................    quad = quad % 4;                    // quadrant (0 to 3) 
....................  
....................    if (quad == 0 || quad == 2) 
....................       t = frac * PI_DIV_BY_TWO; 
....................    else if (quad == 1) 
....................       t = (1-frac) * PI_DIV_BY_TWO; 
....................    else // should be 3 
....................       t = (frac-1) * PI_DIV_BY_TWO; 
....................  
....................    y = 1.0; 
....................    t = t * t; 
....................    for (i = 0; i <= 5; i++) 
....................    { 
....................       t2 = t2 * t; 
....................       y = y + p[i] * t2; 
....................    } 
....................  
....................    if (quad == 2 || quad == 1) 
....................       y = -y;  // correct sign 
....................  
....................    return (y); 
.................... } 
....................  
....................  
.................... //Overloaded functions for cos() for PCD 
.................... // Overloaded function cos() for data type - Float48 
.................... #if defined(__PCD__) 
.................... float48 cos(float48 x) 
.................... { 
....................    float48 y, t, t2 = 1.0; 
....................    unsigned int8 quad, i; 
....................    float48 frac; 
....................    float48 p[6] = {                    //by the series definition for cosine 
....................       -0.5,                            // sum ( ( (-1)^n * x^2n )/(2n)! ) 
....................        0.04166666666667, 
....................       -0.00138888888889, 
....................        0.00002480158730, 
....................       -0.00000027557319, 
....................        0.00000000208767, 
....................       //-0.00000000001147, 
....................       // 0.00000000000005 
....................    }; 
....................  
....................    if (x < 0) x = -x;                  // absolute value of input 
....................  
....................    quad = (unsigned int8)(x / PI_DIV_BY_TWO);    // quadrant 
....................    frac = (x / PI_DIV_BY_TWO) - quad;  // fractional part of input 
....................    quad = quad % 4;                    // quadrant (0 to 3) 
....................  
....................    if (quad == 0 || quad == 2) 
....................       t = frac * PI_DIV_BY_TWO; 
....................    else if (quad == 1) 
....................       t = (1-frac) * PI_DIV_BY_TWO; 
....................    else // should be 3 
....................       t = (frac-1) * PI_DIV_BY_TWO; 
....................  
....................    y = 0.999999999781; 
....................    t = t * t; 
....................    for (i = 0; i <= 5; i++) 
....................    { 
....................       t2 = t2 * t; 
....................       y = y + p[i] * t2; 
....................    } 
....................  
....................    if (quad == 2 || quad == 1) 
....................       y = -y;  // correct sign 
....................  
....................    return (y); 
.................... } 
....................  
.................... // Overloaded function cos() for data type - Float48 
.................... float64 cos(float64 x) 
.................... { 
....................    float64 y, t, t2 = 1.0; 
....................    unsigned int8 quad, i; 
....................    float64 frac; 
....................    float64 p[6] = {                    //by the series definition for cosine 
....................       -0.5,                            // sum ( ( (-1)^n * x^2n )/(2n)! ) 
....................        0.04166666666667, 
....................       -0.00138888888889, 
....................        0.00002480158730, 
....................       -0.00000027557319, 
....................        0.00000000208767, 
....................       //-0.00000000001147, 
....................       // 0.00000000000005 
....................    }; 
....................  
....................    if (x < 0) x = -x;                  // absolute value of input 
....................  
....................    quad = (unsigned int8)(x / PI_DIV_BY_TWO);    // quadrant 
....................    frac = (x / PI_DIV_BY_TWO) - quad;  // fractional part of input 
....................    quad = quad % 4;                    // quadrant (0 to 3) 
....................  
....................    if (quad == 0 || quad == 2) 
....................       t = frac * PI_DIV_BY_TWO; 
....................    else if (quad == 1) 
....................       t = (1-frac) * PI_DIV_BY_TWO; 
....................    else // should be 3 
....................       t = (frac-1) * PI_DIV_BY_TWO; 
....................  
....................    y = 0.999999999781; 
....................    t = t * t; 
....................    for (i = 0; i <= 5; i++) 
....................    { 
....................       t2 = t2 * t; 
....................       y = y + p[i] * t2; 
....................    } 
....................  
....................    if (quad == 2 || quad == 1) 
....................       y = -y;  // correct sign 
....................  
....................    return (y); 
.................... } 
....................  
.................... #endif 
....................  
.................... //////////////////////////////////////////////////////////////////////////// 
.................... //   float sin(float x) 
.................... //////////////////////////////////////////////////////////////////////////// 
.................... // Description : returns the sine value of the angle x, which is in radian 
.................... // Date : 9/20/2001 
.................... // 
.................... float32 sin(float32 x) 
.................... { 
....................    return cos(x - PI_DIV_BY_TWO); 
.................... } 
....................  
.................... //Overloaded functions for sin() for PCD 
.................... // Overloaded function sin() for data type - Float48 
.................... #if defined(__PCD__) 
.................... float48 sin(float48 x) 
.................... { 
....................    return cos(x - PI_DIV_BY_TWO); 
.................... } 
....................  
.................... // Overloaded function sin() for data type - Float48 
.................... float64 sin(float64 x) 
.................... { 
....................    return cos(x - PI_DIV_BY_TWO); 
.................... } 
.................... #endif 
....................  
.................... //////////////////////////////////////////////////////////////////////////// 
.................... //   float tan(float x) 
.................... //////////////////////////////////////////////////////////////////////////// 
.................... // Description : returns the tangent value of the angle x, which is in radian 
.................... // Date : 9/20/2001 
.................... // 
.................... float32 tan(float32 x) 
.................... { 
....................    float32 c, s; 
....................  
....................    c = cos(x); 
....................    if (c == 0.0) 
....................       return (1.0e+36); 
....................  
....................    s = sin(x); 
....................    return(s/c); 
.................... } 
.................... //Overloaded functions for tan() for PCD 
.................... // Overloaded function tan() for data type - Float48 
.................... #if defined(__PCD__) 
.................... float48 tan(float48 x) 
.................... { 
....................    float48 c, s; 
....................  
....................    c = cos(x); 
....................    if (c == 0.0) 
....................       return (1.0e+36); 
....................  
....................    s = sin(x); 
....................    return(s/c); 
.................... } 
....................  
.................... // Overloaded function tan() for data type - Float48 
.................... float64 tan(float64 x) 
.................... { 
....................    float64 c, s; 
....................  
....................    c = cos(x); 
....................    if (c == 0.0) 
....................       return (1.0e+36); 
....................  
....................    s = sin(x); 
....................    return(s/c); 
.................... } 
.................... #endif 
....................  
.................... float32 const pas[3] = {0.49559947, -4.6145309, 5.6036290}; 
.................... float32 const qas[3] = {1.0000000,  -5.5484666, 5.6036290}; 
....................  
.................... float32 ASIN_COS(float32 x, unsigned int8 n) 
.................... { 
....................    float32 y, res, r, y2; 
....................    int1 s; 
....................    #ifdef _ERRNO 
....................    if(x <-1 || x > 1) 
....................    { 
....................       errno=EDOM; 
....................    } 
....................    #endif 
....................    s = 0; 
....................    y = x; 
....................  
....................    if (x < 0) 
....................    { 
....................       s = 1; 
....................       y = -y; 
....................    } 
....................  
....................    if (y > 0.5) 
....................    { 
....................       y = sqrt((1.0 - y)/2.0); 
....................       n += 2; 
....................    } 
....................  
....................    y2=y*y; 
....................  
....................    res = pas[0]*y2 + pas[1]; 
....................    res = res*y2 + pas[2]; 
....................  
....................    r = qas[0]*y2 + qas[1]; 
....................    r = r*y2 + qas[2]; 
....................  
....................    res = y*res/r; 
....................  
....................    if (n & 2)     // |x| > 0.5 
....................       res = PI_DIV_BY_TWO - 2.0*res; 
....................    if (s) 
....................       res = -res; 
....................    if (n & 1)           // take arccos 
....................       res = PI_DIV_BY_TWO - res; 
....................  
....................    return(res); 
.................... } 
....................  
.................... //Overloaded functions for ASIN_COS() for PCD 
.................... // Overloaded function ASIN_COS() for data type - Float48 
.................... #if defined(__PCD__) 
.................... float48 ASIN_COS(float48 x, unsigned int8 n) 
.................... { 
....................    float48 y, res, r, y2; 
....................    int1 s; 
....................    #ifdef _ERRNO 
....................    if(x <-1 || x > 1) 
....................    { 
....................       errno=EDOM; 
....................    } 
....................    #endif 
....................    s = 0; 
....................    y = x; 
....................  
....................    if (x < 0) 
....................    { 
....................       s = 1; 
....................       y = -y; 
....................    } 
....................  
....................    if (y > 0.5) 
....................    { 
....................       y = sqrt((1.0 - y)/2.0); 
....................       n += 2; 
....................    } 
....................  
....................    y2=y*y; 
....................  
....................    res = pas[0]*y2 + pas[1]; 
....................    res = res*y2 + pas[2]; 
....................  
....................    r = qas[0]*y2 + qas[1]; 
....................    r = r*y2 + qas[2]; 
....................  
....................    res = y*res/r; 
....................  
....................    if (n & 2)     // |x| > 0.5 
....................       res = PI_DIV_BY_TWO - 2.0*res; 
....................    if (s) 
....................       res = -res; 
....................    if (n & 1)           // take arccos 
....................       res = PI_DIV_BY_TWO - res; 
....................  
....................    return(res); 
.................... } 
....................  
.................... // Overloaded function ASIN_COS() for data type - Float64 
.................... float64 ASIN_COS(float64 x, unsigned int8 n) 
.................... { 
....................    float64 y, res, r, y2; 
....................    int1 s; 
....................    #ifdef _ERRNO 
....................    if(x <-1 || x > 1) 
....................    { 
....................       errno=EDOM; 
....................    } 
....................    #endif 
....................    s = 0; 
....................    y = x; 
....................  
....................    if (x < 0) 
....................    { 
....................       s = 1; 
....................       y = -y; 
....................    } 
....................  
....................    if (y > 0.5) 
....................    { 
....................       y = sqrt((1.0 - y)/2.0); 
....................       n += 2; 
....................    } 
....................  
....................    y2=y*y; 
....................  
....................    res = pas[0]*y2 + pas[1]; 
....................    res = res*y2 + pas[2]; 
....................  
....................    r = qas[0]*y2 + qas[1]; 
....................    r = r*y2 + qas[2]; 
....................  
....................    res = y*res/r; 
....................  
....................    if (n & 2)     // |x| > 0.5 
....................       res = PI_DIV_BY_TWO - 2.0*res; 
....................    if (s) 
....................       res = -res; 
....................    if (n & 1)           // take arccos 
....................       res = PI_DIV_BY_TWO - res; 
....................  
....................    return(res); 
.................... } 
.................... #endif 
....................  
.................... //////////////////////////////////////////////////////////////////////////// 
.................... //   float asin(float x) 
.................... //////////////////////////////////////////////////////////////////////////// 
.................... // Description : returns the arcsine value of the value x. 
.................... // Date : N/A 
.................... // 
.................... float32 asin(float32 x) 
.................... { 
....................    float32 r; 
....................  
....................    r = ASIN_COS(x, 0); 
....................    return(r); 
.................... } 
.................... //Overloaded functions for asin() for PCD 
.................... // Overloaded function asin() for data type - Float48 
.................... #if defined(__PCD__) 
.................... float48 asin(float48 x) 
.................... { 
....................    float48 r; 
....................  
....................    r = ASIN_COS(x, 0); 
....................    return(r); 
.................... } 
....................  
.................... // Overloaded function asin() for data type - Float64 
.................... float64 asin(float64 x) 
.................... { 
....................    float64 r; 
....................  
....................    r = ASIN_COS(x, 0); 
....................    return(r); 
.................... } 
.................... #endif 
....................  
.................... //////////////////////////////////////////////////////////////////////////// 
.................... //   float acos(float x) 
.................... //////////////////////////////////////////////////////////////////////////// 
.................... // Description : returns the arccosine value of the value x. 
.................... // Date : N/A 
.................... // 
.................... float32 acos(float32 x) 
.................... { 
....................    float32 r; 
....................  
....................    r = ASIN_COS(x, 1); 
....................    return(r); 
.................... } 
.................... //Overloaded functions for acos() for PCD 
.................... // Overloaded function acos() for data type - Float48 
.................... #if defined(__PCD__) 
.................... float48 acos(float48 x) 
.................... { 
....................    float48 r; 
....................  
....................    r = ASIN_COS(x, 1); 
....................    return(r); 
.................... } 
....................  
.................... // Overloaded function acos() for data type - Float64 
.................... float64 acos(float64 x) 
.................... { 
....................    float64 r; 
....................  
....................    r = ASIN_COS(x, 1); 
....................    return(r); 
.................... } 
.................... #endif 
....................  
.................... float32 const pat[4] = {0.17630401, 5.6710795, 22.376096, 19.818457}; 
.................... float32 const qat[4] = {1.0000000,  11.368190, 28.982246, 19.818457}; 
....................  
.................... //////////////////////////////////////////////////////////////////////////// 
.................... //   float atan(float x) 
.................... //////////////////////////////////////////////////////////////////////////// 
.................... // Description : returns the arctangent value of the value x. 
.................... // Date : N/A 
.................... // 
.................... float32 atan(float32 x) 
.................... { 
....................    float32 y, res, r; 
....................    int1 s, flag; 
....................  
....................    s = 0; 
....................    flag = 0; 
....................    y = x; 
....................  
....................    if (x < 0) 
....................    { 
....................       s = 1; 
....................       y = -y; 
....................    } 
....................  
....................    if (y > 1.0) 
....................    { 
....................       y = 1.0/y; 
....................       flag = 1; 
....................    } 
....................  
....................    res = pat[0]*y*y + pat[1]; 
....................    res = res*y*y + pat[2]; 
....................    res = res*y*y + pat[3]; 
....................  
....................    r = qat[0]*y*y + qat[1]; 
....................    r = r*y*y + qat[2]; 
....................    r = r*y*y + qat[3]; 
....................  
....................    res = y*res/r; 
....................  
....................  
....................    if (flag)                              // for |x| > 1 
....................       res = PI_DIV_BY_TWO - res; 
....................    if (s) 
....................       res = -res; 
....................  
....................    return(res); 
.................... } 
.................... //Overloaded functions for atan() for PCD 
.................... // Overloaded function atan() for data type - Float48 
.................... #if defined(__PCD__) 
.................... float48 atan(float48 x) 
.................... { 
....................    float48 y, res, r; 
....................    int1 s, flag; 
....................  
....................    s = 0; 
....................    flag = 0; 
....................    y = x; 
....................  
....................    if (x < 0) 
....................    { 
....................       s = 1; 
....................       y = -y; 
....................    } 
....................  
....................    if (y > 1.0) 
....................    { 
....................       y = 1.0/y; 
....................       flag = 1; 
....................    } 
....................  
....................    res = pat[0]*y*y + pat[1]; 
....................    res = res*y*y + pat[2]; 
....................    res = res*y*y + pat[3]; 
....................  
....................    r = qat[0]*y*y + qat[1]; 
....................    r = r*y*y + qat[2]; 
....................    r = r*y*y + qat[3]; 
....................  
....................    res = y*res/r; 
....................  
....................  
....................    if (flag)                              // for |x| > 1 
....................       res = PI_DIV_BY_TWO - res; 
....................    if (s) 
....................       res = -res; 
....................  
....................    return(res); 
.................... } 
....................  
.................... // Overloaded function atan() for data type - Float64 
.................... float64 atan(float64 x) 
.................... { 
....................    float64 y, res, r; 
....................    int1 s, flag; 
....................  
....................    s = 0; 
....................    flag = 0; 
....................    y = x; 
....................  
....................    if (x < 0) 
....................    { 
....................       s = 1; 
....................       y = -y; 
....................    } 
....................  
....................    if (y > 1.0) 
....................    { 
....................       y = 1.0/y; 
....................       flag = 1; 
....................    } 
....................  
....................    res = pat[0]*y*y + pat[1]; 
....................    res = res*y*y + pat[2]; 
....................    res = res*y*y + pat[3]; 
....................  
....................    r = qat[0]*y*y + qat[1]; 
....................    r = r*y*y + qat[2]; 
....................    r = r*y*y + qat[3]; 
....................  
....................    res = y*res/r; 
....................  
....................  
....................    if (flag)                              // for |x| > 1 
....................       res = PI_DIV_BY_TWO - res; 
....................    if (s) 
....................       res = -res; 
....................  
....................    return(res); 
.................... } 
.................... #endif 
....................  
.................... ///////////////////////////////////////////////////////////////////////////// 
.................... //   float atan2(float y, float x) 
.................... ///////////////////////////////////////////////////////////////////////////// 
.................... // Description :computes the principal value of arc tangent of y/x, using the 
.................... // signs of both the arguments to determine the quadrant of the return value 
.................... // Returns : returns the arc tangent of y/x. 
.................... // Date : N/A 
.................... // 
....................  
.................... float32 atan2(float32 y,float32 x) 
.................... { 
....................    float32 z; 
....................    int1 sign; 
....................    unsigned int8 quad; 
....................    sign=0; 
....................    quad=0; //quadrant 
....................    quad=((y<=0.0)?((x<=0.0)?3:4):((x<0.0)?2:1)); 
....................    if(y<0.0) 
....................    { 
....................       sign=1; 
....................       y=-y; 
....................    } 
....................    if(x<0.0) 
....................    { 
....................       x=-x; 
....................    } 
....................    if (x==0.0) 
....................    { 
....................       if(y==0.0) 
....................       { 
....................       #ifdef _ERRNO 
....................       { 
....................          errno=EDOM; 
....................       } 
....................       #endif 
....................       } 
....................       else 
....................       { 
....................          if(sign) 
....................          { 
....................          return (-(PI_DIV_BY_TWO)); 
....................          } 
....................          else 
....................          { 
....................          return (PI_DIV_BY_TWO); 
....................          } 
....................       } 
....................    } 
....................    else 
....................    { 
....................       z=y/x; 
....................       switch(quad) 
....................       { 
....................          case 1: 
....................          { 
....................             return atan(z); 
....................             break; 
....................          } 
....................          case 2: 
....................          { 
.................... //            return (atan(z)+PI_DIV_BY_TWO);  //2L3122 
....................             return (PI-atan(z)); 
....................             break; 
....................          } 
....................          case 3: 
....................          { 
....................             return (atan(z)-PI); 
....................             break; 
....................          } 
....................          case 4: 
....................          { 
....................             return (-atan(z)); 
....................             break; 
....................          } 
....................       } 
....................    } 
.................... } 
....................  
.................... //Overloaded functions for atan2() for PCD 
.................... // Overloaded function atan2() for data type - Float48 
.................... #if defined(__PCD__) 
.................... float48 atan2(float48 y,float48 x) 
.................... { 
....................    float48 z; 
....................    int1 sign; 
....................    unsigned int8 quad; 
....................    sign=0; 
....................    quad=0; //quadrant 
....................    quad=((y<=0.0)?((x<=0.0)?3:4):((x<0.0)?2:1)); 
....................    if(y<0.0) 
....................    { 
....................       sign=1; 
....................       y=-y; 
....................    } 
....................    if(x<0.0) 
....................    { 
....................       x=-x; 
....................    } 
....................    if (x==0.0) 
....................    { 
....................       if(y==0.0) 
....................       { 
....................       #ifdef _ERRNO 
....................       { 
....................          errno=EDOM; 
....................       } 
....................       #endif 
....................       } 
....................       else 
....................       { 
....................          if(sign) 
....................          { 
....................          return (-(PI_DIV_BY_TWO)); 
....................          } 
....................          else 
....................          { 
....................          return (PI_DIV_BY_TWO); 
....................          } 
....................       } 
....................    } 
....................    else 
....................    { 
....................       z=y/x; 
....................       switch(quad) 
....................       { 
....................          case 1: 
....................          { 
....................             return atan(z); 
....................             break; 
....................          } 
....................          case 2: 
....................          { 
.................... //            return (atan(z)+PI_DIV_BY_TWO);  //2L3122 
....................             return (PI-atan(z)); 
....................             break; 
....................          } 
....................          case 3: 
....................          { 
....................             return (atan(z)-PI); 
....................             break; 
....................          } 
....................          case 4: 
....................          { 
....................             return (-atan(z)); 
....................             break; 
....................          } 
....................       } 
....................    } 
.................... } 
....................  
.................... // Overloaded function atan2() for data type - Float64 
.................... float64 atan2(float64 y,float64 x) 
.................... { 
....................    float64 z; 
....................    int1 sign; 
....................    unsigned int8 quad; 
....................    sign=0; 
....................    quad=0; //quadrant 
....................    quad=((y<=0.0)?((x<=0.0)?3:4):((x<0.0)?2:1)); 
....................    if(y<0.0) 
....................    { 
....................       sign=1; 
....................       y=-y; 
....................    } 
....................    if(x<0.0) 
....................    { 
....................       x=-x; 
....................    } 
....................    if (x==0.0) 
....................    { 
....................       if(y==0.0) 
....................       { 
....................       #ifdef _ERRNO 
....................       { 
....................          errno=EDOM; 
....................       } 
....................       #endif 
....................       } 
....................       else 
....................       { 
....................          if(sign) 
....................          { 
....................          return (-(PI_DIV_BY_TWO)); 
....................          } 
....................          else 
....................          { 
....................          return (PI_DIV_BY_TWO); 
....................          } 
....................       } 
....................    } 
....................    else 
....................    { 
....................       z=y/x; 
....................       switch(quad) 
....................       { 
....................          case 1: 
....................          { 
....................             return atan(z); 
....................             break; 
....................          } 
....................          case 2: 
....................          { 
.................... //            return (atan(z)+PI_DIV_BY_TWO);  //2L3122 
....................             return (PI-atan(z)); 
....................             break; 
....................          } 
....................          case 3: 
....................          { 
....................             return (atan(z)-PI); 
....................             break; 
....................          } 
....................          case 4: 
....................          { 
....................             return (-atan(z)); 
....................             break; 
....................          } 
....................       } 
....................    } 
.................... } 
.................... #endif 
....................  
.................... //////////////////// Hyperbolic functions //////////////////// 
....................  
.................... //////////////////////////////////////////////////////////////////////////// 
.................... //   float cosh(float x) 
.................... //////////////////////////////////////////////////////////////////////////// 
.................... // Description : Computes the hyperbolic cosine value of x 
.................... // Returns : returns the hyperbolic cosine value of x 
.................... // Date : N/A 
.................... // 
....................  
.................... float32 cosh(float32 x) 
.................... { 
....................    return ((exp(x)+exp(-x))/2); 
.................... } 
.................... //Overloaded functions for cosh() for PCD 
.................... // Overloaded function cosh() for data type - Float48 
.................... #if defined(__PCD__) 
.................... float48 cosh(float48 x) 
.................... { 
....................    return ((exp(x)+exp(-x))/2); 
.................... } 
....................  
.................... // Overloaded function cosh() for data type - Float64 
.................... float64 cosh(float64 x) 
.................... { 
....................    return ((exp(x)+exp(-x))/2); 
.................... } 
.................... #endif 
....................  
.................... //////////////////////////////////////////////////////////////////////////// 
.................... //   float sinh(float x) 
.................... //////////////////////////////////////////////////////////////////////////// 
.................... // Description : Computes the hyperbolic sine value of x 
.................... // Returns : returns the hyperbolic sine value of x 
.................... // Date : N/A 
.................... // 
....................  
.................... float32 sinh(float32 x) 
.................... { 
....................  
....................    return ((exp(x) - exp(-x))/2); 
.................... } 
.................... //Overloaded functions for sinh() for PCD 
.................... // Overloaded function sinh() for data type - Float48 
.................... #if defined(__PCD__) 
.................... float48 sinh(float48 x) 
.................... { 
....................  
....................    return ((exp(x) - exp(-x))/2); 
.................... } 
....................  
.................... // Overloaded function sinh() for data type - Float48 
.................... float64 sinh(float64 x) 
.................... { 
....................  
....................    return ((exp(x) - exp(-x))/2); 
.................... } 
.................... #endif 
....................  
.................... //////////////////////////////////////////////////////////////////////////// 
.................... //   float tanh(float x) 
.................... //////////////////////////////////////////////////////////////////////////// 
.................... // Description : Computes the hyperbolic tangent value of x 
.................... // Returns : returns the hyperbolic tangent value of x 
.................... // Date : N/A 
.................... // 
....................  
.................... float32 tanh(float32 x) 
.................... { 
....................    return(sinh(x)/cosh(x)); 
.................... } 
.................... //Overloaded functions for tanh() for PCD 
.................... // Overloaded function tanh() for data type - Float48 
.................... #if defined(__PCD__) 
.................... float48 tanh(float48 x) 
.................... { 
....................    return(sinh(x)/cosh(x)); 
.................... } 
....................  
.................... // Overloaded function tanh() for data type - Float64 
.................... float64 tanh(float64 x) 
.................... { 
....................    return(sinh(x)/cosh(x)); 
.................... } 
.................... #endif 
....................  
.................... //////////////////////////////////////////////////////////////////////////// 
.................... //   float frexp(float x, signed int *exp) 
.................... //////////////////////////////////////////////////////////////////////////// 
.................... // Description : breaks a floating point number into a normalized fraction and an integral 
.................... // power of 2. It stores the integer in the signed int object pointed to by exp. 
.................... // Returns : returns the value x, such that x is a double with magnitude in the interval 
.................... // [1/2,1) or zero, and value equals x times 2 raised to the power *exp.If value is zero, 
.................... // both parts of the result are zero. 
.................... // Date : N/A 
.................... // 
....................  
.................... #define LOG2 .30102999566398119521 
.................... float32 frexp(float32 x, signed int8 *exp) 
.................... { 
....................    float32 res; 
....................    int1 sign = 0; 
....................    if(x == 0.0) 
....................    { 
....................       *exp=0; 
....................       return (0.0); 
....................    } 
....................    if(x < 0.0) 
....................    { 
....................      x=-x; 
....................      sign=1; 
....................    } 
....................    if (x > 1.0) 
....................    { 
....................       *exp=(ceil(log10(x)/LOG2)); 
....................       res=x/(pow(2, *exp)); 
....................       if (res == 1) 
....................       { 
....................          *exp=*exp+1; 
....................           res=.5; 
....................       } 
....................    } 
....................    else 
....................    { 
....................       if(x < 0.5) 
....................       { 
....................          *exp=-1; 
....................          res=x*2; 
....................       } 
....................       else 
....................       { 
....................          *exp=0; 
....................           res=x; 
....................       } 
....................    } 
....................    if(sign) 
....................    { 
....................       res=-res; 
....................    } 
....................    return res; 
.................... } 
....................  
.................... //Overloaded functions for frexp() for PCD 
.................... // Overloaded function frexp() for data type - Float48 
.................... #if defined(__PCD__) 
.................... float48 frexp(float48 x, signed int8 *exp) 
.................... { 
....................    float48 res; 
....................    int1 sign = 0; 
....................    if(x == 0.0) 
....................    { 
....................       *exp=0; 
....................       return (0.0); 
....................    } 
....................    if(x < 0.0) 
....................    { 
....................      x=-x; 
....................      sign=1; 
....................    } 
....................    if (x > 1.0) 
....................    { 
....................       *exp=(ceil(log10(x)/LOG2)); 
....................       res=x/(pow(2, *exp)); 
....................       if (res == 1) 
....................       { 
....................          *exp=*exp+1; 
....................           res=.5; 
....................       } 
....................    } 
....................    else 
....................    { 
....................       if(x < 0.5) 
....................       { 
....................          *exp=-1; 
....................          res=x*2; 
....................       } 
....................       else 
....................       { 
....................          *exp=0; 
....................           res=x; 
....................       } 
....................    } 
....................    if(sign) 
....................    { 
....................       res=-res; 
....................    } 
....................    return res; 
.................... } 
....................  
.................... // Overloaded function frexp() for data type - Float64 
.................... float64 frexp(float64 x, signed int8 *exp) 
.................... { 
....................    float64 res; 
....................    int1 sign = 0; 
....................    if(x == 0.0) 
....................    { 
....................       *exp=0; 
....................       return (0.0); 
....................    } 
....................    if(x < 0.0) 
....................    { 
....................      x=-x; 
....................      sign=1; 
....................    } 
....................    if (x > 1.0) 
....................    { 
....................       *exp=(ceil(log10(x)/LOG2)); 
....................       res=x/(pow(2, *exp)); 
....................       if (res == 1) 
....................       { 
....................          *exp=*exp+1; 
....................           res=.5; 
....................       } 
....................    } 
....................    else 
....................    { 
....................       if(x < 0.5) 
....................       { 
....................          *exp=-1; 
....................          res=x*2; 
....................       } 
....................       else 
....................       { 
....................          *exp=0; 
....................           res=x; 
....................       } 
....................    } 
....................    if(sign) 
....................    { 
....................       res=-res; 
....................    } 
....................    return res; 
.................... } 
.................... #endif 
....................  
.................... ////////////////////////////////////////////////////////////////////////////// 
.................... //   float ldexp(float x, signed int *exp) 
.................... ////////////////////////////////////////////////////////////////////////////// 
.................... // Description : multiplies a floating point number by an integral power of 2. 
.................... // Returns : returns the value of x times 2 raised to the power exp. 
.................... // Date : N/A 
.................... // 
....................  
.................... float32 ldexp(float32 value, signed int8 exp) 
.................... { 
....................    return (value * pow(2,exp)); 
.................... } 
.................... //Overloaded functions for ldexp() for PCD 
.................... // Overloaded function ldexp() for data type - Float48 
....................  
.................... #if defined(__PCD__) 
.................... float48 ldexp(float48 value, signed int8 exp) 
.................... { 
....................    return (value * pow(2,exp)); 
.................... } 
.................... // Overloaded function ldexp() for data type - Float64 
.................... float64 ldexp(float64 value, signed int8 exp) 
.................... { 
....................    return (value * pow(2,exp)); 
.................... } 
.................... #endif 
....................  
.................... #endif 
....................  
.................... #include "HDM64GS12.c" 
.................... ///////////////////////////////////////////////////////////////////////// 
.................... ////                           HDM64GS12.c                           //// 
.................... ////                                                                 //// 
.................... //// This file contains drivers for using a Hantronix HDM64GS12 with //// 
.................... //// a KS0108 display controller. The HDM64GS12 is 128 by 64 pixels. //// 
.................... //// The driver treats the upper left pixel as (0,0).                //// 
.................... ////                                                                 //// 
.................... //// Use #define FAST_GLCD if the target chip has at least 1k of RAM //// 
.................... //// to decrease the time it takes to update the display.            //// 
.................... //// glcd_update() must then be called to update the display after   //// 
.................... //// changing the pixel information.                                 //// 
.................... //// See ex_glcd.c for suggested usage.                              //// 
.................... //// See KS0108.c for controlling a single 64 by 64 display          //// 
.................... ///////////////////////////////////////////////////////////////////////// 
.................... ////                                                                 //// 
.................... //// LCD Pin connections:                                            //// 
.................... //// (These can be changed as needed in the following defines).      //// 
.................... ////  * 1: VSS is connected to GND                                   //// 
.................... ////  * 2: VDD is connected to +5V                                   //// 
.................... ////  * 3: V0  - LCD operating voltage (Constrast adjustment)        //// 
.................... ////  * 4: D/I - Data or Instruction is connected to B2              //// 
.................... ////  * 5: R/W - Read or Write is connected to B4                    //// 
.................... ////  * 6: Enable is connected to B5                                 //// 
.................... ////  *7-14: Data Bus 0 to 7 is connected to port d                  //// 
.................... ////  *15: Chip Select 1 is connected to B0                          //// 
.................... ////  *16: Chip Select 2 is connected to B1                          //// 
.................... ////  *17: Reset is connected to C0                                  //// 
.................... ////  *18: Negative voltage is also connected to the 20k Ohm POT     //// 
.................... ////  *19: Positive voltage for LED backlight is connected to +5V    //// 
.................... ////  *20: Negavtive voltage for LED backlight is connected to GND   //// 
.................... ////                                                                 //// 
.................... ///////////////////////////////////////////////////////////////////////// 
.................... ////                                                                 //// 
.................... ////  glcd_init(mode)                                                //// 
.................... ////     * Must be called before any other function.                 //// 
.................... ////       - mode can be ON or OFF to turn the LCD on or off         //// 
.................... ////                                                                 //// 
.................... ////  glcd_pixel(x,y,color)                                          //// 
.................... ////     * Sets the pixel to the given color.                        //// 
.................... ////       - color can be ON or OFF                                  //// 
.................... ////                                                                 //// 
.................... ////  glcd_fillScreen(color)                                         //// 
.................... ////     * Fills the entire LCD with the given color.                //// 
.................... ////       - color can be ON or OFF                                  //// 
.................... ////                                                                 //// 
.................... ////  glcd_update()                                                  //// 
.................... ////     * Write the display data stored in RAM to the LCD           //// 
.................... ////     * Only available if FAST_GLCD is defined                    //// 
.................... ////                                                                 //// 
.................... ///////////////////////////////////////////////////////////////////////// 
.................... ////        (C) Copyright 1996, 2004 Custom Computer Services        //// 
.................... //// This source code may only be used by licensed users of the CCS  //// 
.................... //// C compiler.  This source code may only be distributed to other  //// 
.................... //// licensed users of the CCS C compiler.  No other use,            //// 
.................... //// reproduction or distribution is permitted without written       //// 
.................... //// permission.  Derivative programs created using this software    //// 
.................... //// in object code form are not restricted in any way.              //// 
.................... ///////////////////////////////////////////////////////////////////////// 
....................  
....................  
....................  
.................... #ifndef HDM64GS12 
.................... #define HDM64GS12 
....................  
.................... #ifndef FAST_GLCD 
.................... #define FAST_GLCD 
....................  
.................... #ifndef GLCD_WIDTH 
.................... #define GLCD_WIDTH   128 
.................... #endif 
....................  
.................... #ifndef GLCD_CS1 
.................... #define GLCD_CS1     PIN_B2   // Chip Selection 1 
.................... #endif 
....................  
.................... #ifndef GLCD_CS2 
.................... #define GLCD_CS2     PIN_B3   // Chip Selection 2 
.................... #endif 
....................  
.................... #ifndef GLCD_DI 
.................... #define GLCD_DI      PIN_B5   // Data or Instruction input 
.................... #endif 
....................  
.................... #ifndef GLCD_RW 
.................... #define GLCD_RW      PIN_B6   // Read/Write 
.................... #endif 
....................  
.................... #ifndef GLCD_E 
.................... #define GLCD_E       PIN_B7   // Enable 
.................... #endif 
....................  
.................... #ifndef GLCD_RST 
.................... #define GLCD_RST     PIN_B4   // Reset 
.................... #endif 
....................  
.................... #define GLCD_LEFT    0 
.................... #define GLCD_RIGHT   1 
....................  
.................... #ifndef ON 
.................... #define ON           1 
.................... #endif 
....................  
.................... #ifndef OFF 
.................... #define OFF          0 
.................... #endif 
....................  
.................... ///////////////////////////////////////////////////////////////////////// 
.................... // Function Prototypes 
.................... ///////////////////////////////////////////////////////////////////////// 
.................... void glcd_init(int1 mode); 
.................... void glcd_pixel(int8 x, int8 y, int1 color); 
.................... void glcd_fillScreen(int1 color); 
.................... void glcd_writeByte(int1 side, BYTE data); 
.................... BYTE glcd_readByte(int1 side); 
.................... void glcd_update(); 
.................... ///////////////////////////////////////////////////////////////////////// 
....................  
.................... #ifdef FAST_GLCD 
.................... struct 
.................... { 
....................    int8 left[512]; 
....................    int8 right[512]; 
.................... } displayData; 
.................... #endif 
....................  
....................  
.................... // Purpose:       Initialize the LCD. 
.................... //                Call before using any other LCD function. 
.................... // Inputs:        OFF - Turns the LCD off 
.................... //                ON  - Turns the LCD on 
.................... void glcd_init(int1 mode) 
.................... { 
....................    // Initialze some pins 
....................    output_high(GLCD_RST); 
*
01666:  BCF    F93.4
01668:  BSF    F8A.4
....................    output_low(GLCD_E); 
0166A:  BCF    F93.7
0166C:  BCF    F8A.7
....................    output_low(GLCD_CS1); 
0166E:  BCF    F93.2
01670:  BCF    F8A.2
....................    output_low(GLCD_CS2); 
01672:  BCF    F93.3
01674:  BCF    F8A.3
....................  
....................    output_low(GLCD_DI);                 // Set for instruction 
01676:  BCF    F93.5
01678:  BCF    F8A.5
....................    glcd_writeByte(GLCD_LEFT,  0xC0);    // Specify first RAM line at the top 
0167A:  MOVLB  5
0167C:  CLRF   xF1
0167E:  MOVLW  C0
01680:  MOVWF  xF2
01682:  MOVLB  0
01684:  RCALL  151E
....................    glcd_writeByte(GLCD_RIGHT, 0xC0);    //   of the screen 
01686:  MOVLW  01
01688:  MOVLB  5
0168A:  MOVWF  xF1
0168C:  MOVLW  C0
0168E:  MOVWF  xF2
01690:  MOVLB  0
01692:  RCALL  151E
....................    glcd_writeByte(GLCD_LEFT,  0x40);    // Set the column address to 0 
01694:  MOVLB  5
01696:  CLRF   xF1
01698:  MOVLW  40
0169A:  MOVWF  xF2
0169C:  MOVLB  0
0169E:  RCALL  151E
....................    glcd_writeByte(GLCD_RIGHT, 0x40); 
016A0:  MOVLW  01
016A2:  MOVLB  5
016A4:  MOVWF  xF1
016A6:  MOVLW  40
016A8:  MOVWF  xF2
016AA:  MOVLB  0
016AC:  RCALL  151E
....................    glcd_writeByte(GLCD_LEFT,  0xB8);    // Set the page address to 0 
016AE:  MOVLB  5
016B0:  CLRF   xF1
016B2:  MOVLW  B8
016B4:  MOVWF  xF2
016B6:  MOVLB  0
016B8:  RCALL  151E
....................    glcd_writeByte(GLCD_RIGHT, 0xB8); 
016BA:  MOVLW  01
016BC:  MOVLB  5
016BE:  MOVWF  xF1
016C0:  MOVLW  B8
016C2:  MOVWF  xF2
016C4:  MOVLB  0
016C6:  RCALL  151E
....................  
....................    if(mode == ON) 
016C8:  MOVLB  5
016CA:  DECFSZ xE2,W
016CC:  BRA    16EA
....................    { 
....................       glcd_writeByte(GLCD_LEFT,  0x3F); // Turn the display on 
016CE:  CLRF   xF1
016D0:  MOVLW  3F
016D2:  MOVWF  xF2
016D4:  MOVLB  0
016D6:  RCALL  151E
....................       glcd_writeByte(GLCD_RIGHT, 0x3F); 
016D8:  MOVLW  01
016DA:  MOVLB  5
016DC:  MOVWF  xF1
016DE:  MOVLW  3F
016E0:  MOVWF  xF2
016E2:  MOVLB  0
016E4:  RCALL  151E
....................    } 
....................    else 
016E6:  BRA    1702
016E8:  MOVLB  5
....................    { 
....................       glcd_writeByte(GLCD_LEFT,  0x3E); // Turn the display off 
016EA:  CLRF   xF1
016EC:  MOVLW  3E
016EE:  MOVWF  xF2
016F0:  MOVLB  0
016F2:  RCALL  151E
....................       glcd_writeByte(GLCD_RIGHT, 0x3E); 
016F4:  MOVLW  01
016F6:  MOVLB  5
016F8:  MOVWF  xF1
016FA:  MOVLW  3E
016FC:  MOVWF  xF2
016FE:  MOVLB  0
01700:  RCALL  151E
....................    } 
....................  
....................    glcd_fillScreen(OFF);                // Clear the display 
01702:  MOVLB  5
01704:  CLRF   xEA
01706:  MOVLB  0
01708:  RCALL  1554
....................  
....................    #ifdef FAST_GLCD 
....................    glcd_update(); 
0170A:  RCALL  15AE
....................    #endif 
.................... } 
0170C:  RETLW  00
....................  
....................  
.................... // Purpose:    Update the LCD with data from the display arrays 
.................... #ifdef FAST_GLCD 
.................... void glcd_update() 
.................... { 
....................    int8 i, j; 
....................    int8 *p1, *p2; 
....................  
....................    p1 = displayData.left; 
*
015AE:  MOVLB  5
015B0:  CLRF   xED
015B2:  MOVLW  16
015B4:  MOVWF  xEC
....................    p2 = displayData.right; 
015B6:  MOVLW  02
015B8:  MOVWF  xEF
015BA:  MOVLW  16
015BC:  MOVWF  xEE
....................  
....................    // Loop through the vertical pages 
....................    for(i = 0; i < 8; ++i) 
015BE:  CLRF   xEA
015C0:  MOVF   xEA,W
015C2:  SUBLW  07
015C4:  BNC   1662
....................    { 
....................       output_low(GLCD_DI);                      // Set for instruction 
015C6:  BCF    F93.5
015C8:  BCF    F8A.5
....................       glcd_writeByte(GLCD_LEFT, 0x40);          // Set horizontal address to 0 
015CA:  CLRF   xF1
015CC:  MOVLW  40
015CE:  MOVWF  xF2
015D0:  MOVLB  0
015D2:  RCALL  151E
....................       glcd_writeByte(GLCD_RIGHT, 0x40); 
015D4:  MOVLW  01
015D6:  MOVLB  5
015D8:  MOVWF  xF1
015DA:  MOVLW  40
015DC:  MOVWF  xF2
015DE:  MOVLB  0
015E0:  RCALL  151E
....................       glcd_writeByte(GLCD_LEFT, i | 0xB8);      // Set page address 
015E2:  MOVLB  5
015E4:  MOVF   xEA,W
015E6:  IORLW  B8
015E8:  MOVWF  xF0
015EA:  CLRF   xF1
015EC:  MOVWF  xF2
015EE:  MOVLB  0
015F0:  RCALL  151E
....................       glcd_writeByte(GLCD_RIGHT, i | 0xB8); 
015F2:  MOVLB  5
015F4:  MOVF   xEA,W
015F6:  IORLW  B8
015F8:  MOVWF  xF0
015FA:  MOVLW  01
015FC:  MOVWF  xF1
015FE:  MOVFF  5F0,5F2
01602:  MOVLB  0
01604:  RCALL  151E
....................       output_high(GLCD_DI);                     // Set for data 
01606:  BCF    F93.5
01608:  BSF    F8A.5
....................  
....................       // Loop through the horizontal sections 
....................       for(j = 0; j < 64; ++j) 
0160A:  MOVLB  5
0160C:  CLRF   xEB
0160E:  MOVF   xEB,W
01610:  SUBLW  3F
01612:  BNC   165E
....................       { 
....................          glcd_writeByte(GLCD_LEFT, *p1++);      // Turn pixels on or off 
01614:  MOVFF  5ED,03
01618:  MOVF   xEC,W
0161A:  INCF   xEC,F
0161C:  BTFSC  FD8.2
0161E:  INCF   xED,F
01620:  MOVWF  FE9
01622:  MOVFF  03,FEA
01626:  MOVFF  FEF,5F0
0162A:  CLRF   xF1
0162C:  MOVFF  5F0,5F2
01630:  MOVLB  0
01632:  RCALL  151E
....................          glcd_writeByte(GLCD_RIGHT, *p2++);     // Turn pixels on or off 
01634:  MOVLB  5
01636:  MOVFF  5EF,03
0163A:  MOVF   xEE,W
0163C:  INCF   xEE,F
0163E:  BTFSC  FD8.2
01640:  INCF   xEF,F
01642:  MOVWF  FE9
01644:  MOVFF  03,FEA
01648:  MOVFF  FEF,5F0
0164C:  MOVLW  01
0164E:  MOVWF  xF1
01650:  MOVFF  5F0,5F2
01654:  MOVLB  0
01656:  RCALL  151E
....................       } 
01658:  MOVLB  5
0165A:  INCF   xEB,F
0165C:  BRA    160E
....................    } 
0165E:  INCF   xEA,F
01660:  BRA    15C0
.................... } 
01662:  MOVLB  0
01664:  RETLW  00
.................... #endif 
....................  
....................  
.................... // Purpose:    Turn a pixel on a graphic LCD on or off 
.................... // Inputs:     1) x - the x coordinate of the pixel 
.................... //             2) y - the y coordinate of the pixel 
.................... //             3) color - ON or OFF 
.................... void glcd_pixel(int8 x, int8 y, int1 color) 
.................... #ifdef FAST_GLCD 
.................... { 
....................    int8* p; 
....................    int16 temp; 
....................    temp =  y/8; 
*
0170E:  MOVLB  6
01710:  CLRF   x1C
01712:  RRCF   x17,W
01714:  MOVWF  x1B
01716:  RRCF   x1B,F
01718:  RRCF   x1B,F
0171A:  MOVLW  1F
0171C:  ANDWF  x1B,F
....................    temp *= 64; 
0171E:  RLCF   x1B,F
01720:  RLCF   x1C,F
01722:  RLCF   x1B,F
01724:  RLCF   x1C,F
01726:  RLCF   x1B,F
01728:  RLCF   x1C,F
0172A:  RLCF   x1B,F
0172C:  RLCF   x1C,F
0172E:  RLCF   x1B,F
01730:  RLCF   x1C,F
01732:  RLCF   x1B,F
01734:  RLCF   x1C,F
01736:  MOVLW  C0
01738:  ANDWF  x1B,F
....................    temp += x; 
0173A:  MOVF   x16,W
0173C:  ADDWF  x1B,F
0173E:  MOVLW  00
01740:  ADDWFC x1C,F
....................  
....................    if(x > 63) 
01742:  MOVF   x16,W
01744:  SUBLW  3F
01746:  BC    1762
....................    { 
....................       p = displayData.right + temp - 64; 
01748:  MOVLW  16
0174A:  ADDWF  x1B,W
0174C:  MOVWF  x1D
0174E:  MOVLW  02
01750:  ADDWFC x1C,W
01752:  MOVWF  x1E
01754:  MOVLW  40
01756:  SUBWF  x1D,W
01758:  MOVWF  x19
0175A:  MOVLW  00
0175C:  SUBWFB x1E,W
0175E:  MOVWF  x1A
....................    } 
....................    else 
01760:  BRA    176E
....................    { 
....................       p = displayData.left + temp; 
01762:  MOVLW  16
01764:  ADDWF  x1B,W
01766:  MOVWF  x19
01768:  MOVLW  00
0176A:  ADDWFC x1C,W
0176C:  MOVWF  x1A
....................    } 
....................  
....................    if(color) 
0176E:  MOVF   x18,F
01770:  BZ    179C
....................    { 
....................       bit_set(*p, y%8); 
01772:  MOVFF  61A,03
01776:  MOVFF  619,FE9
0177A:  MOVFF  61A,FEA
0177E:  MOVF   x17,W
01780:  ANDLW  07
01782:  MOVWF  x1D
01784:  MOVLW  01
01786:  MOVWF  00
01788:  MOVF   x1D,W
0178A:  MOVWF  01
0178C:  BZ    1796
0178E:  BCF    FD8.0
01790:  RLCF   00,F
01792:  DECFSZ 01,F
01794:  BRA    178E
01796:  MOVF   00,W
01798:  IORWF  FEF,F
....................    } 
....................    else 
0179A:  BRA    17C6
....................    { 
....................       bit_clear(*p, y%8); 
0179C:  MOVFF  61A,03
017A0:  MOVFF  619,FE9
017A4:  MOVFF  61A,FEA
017A8:  MOVF   x17,W
017AA:  ANDLW  07
017AC:  MOVWF  x1D
017AE:  MOVLW  01
017B0:  MOVWF  00
017B2:  MOVF   x1D,W
017B4:  MOVWF  01
017B6:  BZ    17C0
017B8:  BCF    FD8.0
017BA:  RLCF   00,F
017BC:  DECFSZ 01,F
017BE:  BRA    17B8
017C0:  MOVF   00,W
017C2:  XORLW  FF
017C4:  ANDWF  FEF,F
....................    } 
.................... } 
017C6:  MOVLB  0
017C8:  RETLW  00
.................... #else 
.................... { 
....................    BYTE data; 
....................    int1 side = GLCD_LEFT;  // Stores which chip to use on the LCD 
....................  
....................    if(x > 63)              // Check for first or second display area 
....................    { 
....................       x -= 64; 
....................       side = GLCD_RIGHT; 
....................    } 
....................  
....................    output_low(GLCD_DI);                         // Set for instruction 
....................    bit_clear(x,7);                              // Clear the MSB. Part of an instruction code 
....................    bit_set(x,6);                                // Set bit 6. Also part of an instruction code 
....................    glcd_writeByte(side, x);                     // Set the horizontal address 
....................    glcd_writeByte(side, (y/8 & 0xBF) | 0xB8);   // Set the vertical page address 
....................    output_high(GLCD_DI);                        // Set for data 
....................    glcd_readByte(side);                         // Need two reads to get data 
....................    data = glcd_readByte(side);                  //  at new address 
....................  
....................    if(color == ON) 
....................       bit_set(data, y%8);        // Turn the pixel on 
....................    else                          // or 
....................       bit_clear(data, y%8);      // turn the pixel off 
....................  
....................    output_low(GLCD_DI);          // Set for instruction 
....................    glcd_writeByte(side, x);      // Set the horizontal address 
....................    output_high(GLCD_DI);         // Set for data 
....................    glcd_writeByte(side, data);   // Write the pixel data 
.................... } 
.................... #endif 
....................  
....................  
.................... // Purpose:    Fill the LCD screen with the passed in color 
.................... // Inputs:     ON  - turn all the pixels on 
.................... //             OFF - turn all the pixels off 
.................... void glcd_fillScreen(int1 color) 
.................... #ifdef FAST_GLCD 
.................... { 
....................    int8  data; 
....................    int8  *p1, *p2; 
....................    int16 i; 
....................  
....................    p1 = displayData.left; 
*
01554:  MOVLB  5
01556:  CLRF   xED
01558:  MOVLW  16
0155A:  MOVWF  xEC
....................    p2 = displayData.right; 
0155C:  MOVLW  02
0155E:  MOVWF  xEF
01560:  MOVLW  16
01562:  MOVWF  xEE
....................    data = 0xFF * color; 
01564:  MOVF   xEA,W
01566:  MULLW  FF
01568:  MOVFF  FF3,5EB
....................  
....................    for(i=0; i<512; ++i) 
0156C:  CLRF   xF1
0156E:  CLRF   xF0
01570:  MOVF   xF1,W
01572:  SUBLW  01
01574:  BNC   15AA
....................    { 
....................       *p1++ = data; 
01576:  MOVFF  5ED,03
0157A:  MOVF   xEC,W
0157C:  INCF   xEC,F
0157E:  BTFSC  FD8.2
01580:  INCF   xED,F
01582:  MOVWF  FE9
01584:  MOVFF  03,FEA
01588:  MOVFF  5EB,FEF
....................       *p2++ = data; 
0158C:  MOVFF  5EF,03
01590:  MOVF   xEE,W
01592:  INCF   xEE,F
01594:  BTFSC  FD8.2
01596:  INCF   xEF,F
01598:  MOVWF  FE9
0159A:  MOVFF  03,FEA
0159E:  MOVFF  5EB,FEF
....................    } 
015A2:  INCF   xF0,F
015A4:  BTFSC  FD8.2
015A6:  INCF   xF1,F
015A8:  BRA    1570
.................... } 
015AA:  MOVLB  0
015AC:  RETLW  00
.................... #else 
.................... { 
....................    int8 i, j; 
....................  
....................    // Loop through the vertical pages 
....................    for(i = 0; i < 8; ++i) 
....................    { 
....................       output_low(GLCD_DI);                      // Set for instruction 
....................       glcd_writeByte(GLCD_LEFT, 0b01000000);    // Set horizontal address to 0 
....................       glcd_writeByte(GLCD_RIGHT, 0b01000000); 
....................       glcd_writeByte(GLCD_LEFT, i | 0b10111000);// Set page address 
....................       glcd_writeByte(GLCD_RIGHT, i | 0b10111000); 
....................       output_high(GLCD_DI);                     // Set for data 
....................  
....................       // Loop through the horizontal sections 
....................       for(j = 0; j < 64; ++j) 
....................       { 
....................          glcd_writeByte(GLCD_LEFT, 0xFF*color);  // Turn pixels on or off 
....................          glcd_writeByte(GLCD_RIGHT, 0xFF*color); // Turn pixels on or off 
....................       } 
....................    } 
.................... } 
.................... #endif 
....................  
....................  
.................... // Purpose:    Write a byte of data to the specified chip 
.................... // Inputs:     1) chipSelect - which chip to write the data to 
.................... //             2) data - the byte of data to write 
.................... void glcd_writeByte(int1 side, BYTE data) 
.................... { 
....................    if(side)                   // Choose which side to write to 
*
0151E:  MOVLB  5
01520:  MOVF   xF1,F
01522:  BZ    152A
....................       output_high(GLCD_CS2); 
01524:  BCF    F93.3
01526:  BSF    F8A.3
....................    else 
01528:  BRA    152E
....................       output_high(GLCD_CS1); 
0152A:  BCF    F93.2
0152C:  BSF    F8A.2
....................  
....................    output_low(GLCD_RW);       // Set for writing 
0152E:  BCF    F93.6
01530:  BCF    F8A.6
....................    output_d(data);            // Put the data on the port 
01532:  CLRF   F95
01534:  MOVFF  5F2,F8C
....................    delay_cycles(1); 
01538:  NOP   
....................    output_high(GLCD_E);       // Pulse the enable pin 
0153A:  BCF    F93.7
0153C:  BSF    F8A.7
....................    delay_cycles(5); 
0153E:  BRA    1540
01540:  BRA    1542
01542:  NOP   
....................    output_low(GLCD_E); 
01544:  BCF    F93.7
01546:  BCF    F8A.7
....................  
....................    output_low(GLCD_CS1);      // Reset the chip select lines 
01548:  BCF    F93.2
0154A:  BCF    F8A.2
....................    output_low(GLCD_CS2); 
0154C:  BCF    F93.3
0154E:  BCF    F8A.3
.................... } 
01550:  MOVLB  0
01552:  RETLW  00
....................  
....................  
.................... // Purpose:    Reads a byte of data from the specified chip 
.................... // Ouputs:     A byte of data read from the chip 
.................... BYTE glcd_readByte(int1 side) 
.................... { 
....................    BYTE data;                 // Stores the data read from the LCD 
....................  
....................    set_tris_d(0xFF);          // Set port d to input 
....................    output_high(GLCD_RW);      // Set for reading 
....................  
....................    if(side)                   // Choose which side to write to 
....................       output_high(GLCD_CS2); 
....................    else 
....................       output_high(GLCD_CS1); 
....................  
....................    delay_cycles(1); 
....................    output_high(GLCD_E);       // Pulse the enable pin 
....................    delay_cycles(4); 
....................    data = input_d();          // Get the data from the display's output register 
....................    output_low(GLCD_E); 
....................  
....................    output_low(GLCD_CS1);      // Reset the chip select lines 
....................    output_low(GLCD_CS2); 
....................    return data;               // Return the read data 
.................... } 
....................  
.................... #endif 
....................  
.................... #include "GRAPHICS.c" 
.................... ///////////////////////////////////////////////////////////////////////// 
.................... ////                          graphics.c                             //// 
.................... ////                                                                 //// 
.................... ////   This file contains functions to draw lines, rectangles, bars, //// 
.................... ////   circles and text to a display. A function which draws a       //// 
.................... ////   single pixel must be defined before calling the functions in  //// 
.................... ////   this file. Call it glcd_pixel(x, y, color) where x is the     //// 
.................... ////   horizontal coordinate, y is the vertical coordinate, and      //// 
.................... ////   color is 1 bit to turn the pixel on or off.                   //// 
.................... ////                                                                 //// 
.................... ////   * Note: (0, 0) is treated as the upper left corner            //// 
.................... ////                                                                 //// 
.................... ///////////////////////////////////////////////////////////////////////// 
.................... ////                                                                 //// 
.................... ////  glcd_line(x1, y1, x2, y2, color)                               //// 
.................... ////     * Draws a line from the first point to the second point     //// 
.................... ////       with the given color                                      //// 
.................... ////       - color can be ON or OFF                                  //// 
.................... ////                                                                 //// 
.................... ////  glcd_rect(x1, y1, x2, y2, fill, color)                         //// 
.................... ////     * Draws a rectangle with one corner at point (x1,y1) and    //// 
.................... ////       the other corner at point (x2,y2)                         //// 
.................... ////       - fill can be YES or NO                                   //// 
.................... ////       - color can be ON or OFF                                  //// 
.................... ////                                                                 //// 
.................... ////  glcd_bar(x1, y1, x2, y2, width, color)                         //// 
.................... ////     * Draws a bar (wide line) from the first point to the       //// 
.................... ////       second point                                              //// 
.................... ////       - width is the number of pixels wide                      //// 
.................... ////       - color is ON or OFF                                      //// 
.................... ////                                                                 //// 
.................... ////  glcd_circle(x, y, radius, fill, color)                         //// 
.................... ////     * Draws a circle with center at (x,y)                       //// 
.................... ////       - fill can be YES or NO                                   //// 
.................... ////       - color can be ON or OFF                                  //// 
.................... ////                                                                 //// 
.................... ////  glcd_text57(x, y, textptr, size, color)                        //// 
.................... ////     * Write the null terminated text pointed to by textptr with //// 
.................... ////       the upper left coordinate of the first character at (x,y) //// 
.................... ////       Characters are 5 pixels wide and 7 pixels tall            //// 
.................... ////       - size is an integer that scales the size of the text     //// 
.................... ////       - color is ON or OFF                                      //// 
.................... ////     * Note - This function wraps characters to the next line    //// 
.................... ////              use #define GLCD_WIDTH to specify a display width  //// 
.................... ////                                                                 //// 
.................... ///////////////////////////////////////////////////////////////////////// 
.................... ////        (C) Copyright 1996, 2004 Custom Computer Services        //// 
.................... //// This source code may only be used by licensed users of the CCS  //// 
.................... //// C compiler.  This source code may only be distributed to other  //// 
.................... //// licensed users of the CCS C compiler.  No other use,            //// 
.................... //// reproduction or distribution is permitted without written       //// 
.................... //// permission.  Derivative programs created using this software    //// 
.................... //// in object code form are not restricted in any way.              //// 
.................... ///////////////////////////////////////////////////////////////////////// 
....................  
....................  
.................... ///////////////////////////////////////////////////////////////////////// 
.................... #ifndef GRAPHICS_DRAWING_FUNCTIONS 
.................... #define GRAPHICS_DRAWING_FUNCTIONS 
.................... ///////////////////////////////////////////////////////////////////////// 
....................  
....................  
.................... ///////////////////////////////////////////////////////////////////////// 
.................... #ifndef ON 
.................... #define ON  1 
.................... #endif 
....................  
.................... #ifndef OFF 
.................... #define OFF 0 
.................... #endif 
....................  
.................... #ifndef YES 
.................... #define YES 1 
.................... #endif 
....................  
.................... #ifndef NO 
.................... #define NO  0 
.................... #endif 
.................... ///////////////////////////////////////////////////////////////////////// 
....................  
....................  
.................... ///////////////////////////////////////////////////////////////////////// 
.................... //// Defines a 5x7 font 
.................... ///////////////////////////////////////////////////////////////////////// 
.................... const int8 FONT[51][5] ={0x00, 0x00, 0x00, 0x00, 0x00, // SPACE 
....................                          0x00, 0x00, 0x5F, 0x00, 0x00, // ! 
....................                          0x00, 0x03, 0x00, 0x03, 0x00, // " 
....................                          0x14, 0x3E, 0x14, 0x3E, 0x14, // # 
....................                          0x24, 0x2A, 0x7F, 0x2A, 0x12, // $ 
....................                          0x43, 0x33, 0x08, 0x66, 0x61, // % 
....................                          0x36, 0x49, 0x55, 0x22, 0x50, // & 
....................                          0x00, 0x05, 0x03, 0x00, 0x00, // ' 
....................                          0x00, 0x1C, 0x22, 0x41, 0x00, // ( 
....................                          0x00, 0x41, 0x22, 0x1C, 0x00, // ) 
....................                          0x14, 0x08, 0x3E, 0x08, 0x14, // * 
....................                          0x08, 0x08, 0x3E, 0x08, 0x08, // + 
....................                          0x00, 0x50, 0x30, 0x00, 0x00, // , 
....................                          0x08, 0x08, 0x08, 0x08, 0x08, // - 
....................                          0x00, 0x60, 0x60, 0x00, 0x00, // . 
....................                          0x20, 0x10, 0x08, 0x04, 0x02, // / 
....................                          0x3E, 0x51, 0x49, 0x45, 0x3E, // 0 
....................                          0x00, 0x04, 0x02, 0x7F, 0x00, // 1 
....................                          0x42, 0x61, 0x51, 0x49, 0x46, // 2 
....................                          0x22, 0x41, 0x49, 0x49, 0x36, // 3 
....................                          0x18, 0x14, 0x12, 0x7F, 0x10, // 4 
....................                          0x27, 0x45, 0x45, 0x45, 0x39, // 5 
....................                          0x3E, 0x49, 0x49, 0x49, 0x32, // 6 
....................                          0x01, 0x01, 0x71, 0x09, 0x07, // 7 
....................                          0x36, 0x49, 0x49, 0x49, 0x36, // 8 
....................                          0x26, 0x49, 0x49, 0x49, 0x3E, // 9 
....................                          0x00, 0x36, 0x36, 0x00, 0x00, // : 
....................                          0x00, 0x56, 0x36, 0x00, 0x00, // ; 
....................                          0x08, 0x14, 0x22, 0x41, 0x00, // < 
....................                          0x14, 0x14, 0x14, 0x14, 0x14, // = 
....................                          0x00, 0x41, 0x22, 0x14, 0x08, // > 
....................                          0x02, 0x01, 0x51, 0x09, 0x06, // ? 
....................                          0x3E, 0x41, 0x59, 0x55, 0x5E, // @ 
....................                          0x7E, 0x09, 0x09, 0x09, 0x7E, // A 
....................                          0x7F, 0x49, 0x49, 0x49, 0x36, // B 
....................                          0x3E, 0x41, 0x41, 0x41, 0x22, // C 
....................                          0x7F, 0x41, 0x41, 0x41, 0x3E, // D 
....................                          0x7F, 0x49, 0x49, 0x49, 0x41, // E 
....................                          0x7F, 0x09, 0x09, 0x09, 0x01, // F 
....................                          0x3E, 0x41, 0x41, 0x49, 0x3A, // G 
....................                          0x7F, 0x08, 0x08, 0x08, 0x7F, // H 
....................                          0x00, 0x41, 0x7F, 0x41, 0x00, // I 
....................                          0x30, 0x40, 0x40, 0x40, 0x3F, // J 
....................                          0x7F, 0x08, 0x14, 0x22, 0x41, // K 
....................                          0x7F, 0x40, 0x40, 0x40, 0x40, // L 
....................                          0x7F, 0x02, 0x0C, 0x02, 0x7F, // M 
....................                          0x7F, 0x02, 0x04, 0x08, 0x7F, // N 
....................                          0x3E, 0x41, 0x41, 0x41, 0x3E, // O 
....................                          0x7F, 0x09, 0x09, 0x09, 0x06, // P 
....................                          0x1E, 0x21, 0x21, 0x21, 0x5E, // Q 
....................                          0x7F, 0x09, 0x09, 0x09, 0x76};// R 
....................  
.................... const int8 FONT2[44][5]={0x26, 0x49, 0x49, 0x49, 0x32, // S 
....................                          0x01, 0x01, 0x7F, 0x01, 0x01, // T 
....................                          0x3F, 0x40, 0x40, 0x40, 0x3F, // U 
....................                          0x1F, 0x20, 0x40, 0x20, 0x1F, // V 
....................                          0x7F, 0x20, 0x10, 0x20, 0x7F, // W 
....................                          0x41, 0x22, 0x1C, 0x22, 0x41, // X 
....................                          0x07, 0x08, 0x70, 0x08, 0x07, // Y 
....................                          0x61, 0x51, 0x49, 0x45, 0x43, // Z 
....................                          0x00, 0x7F, 0x41, 0x00, 0x00, // [ 
....................                          0x02, 0x04, 0x08, 0x10, 0x20, // \ 
....................                          0x00, 0x00, 0x41, 0x7F, 0x00, // ] 
....................                          0x04, 0x02, 0x01, 0x02, 0x04, // ^ 
....................                          0x40, 0x40, 0x40, 0x40, 0x40, // _ 
....................                          0x00, 0x01, 0x02, 0x04, 0x00, // ` 
....................                          0x20, 0x54, 0x54, 0x54, 0x78, // a 
....................                          0x7F, 0x44, 0x44, 0x44, 0x38, // b 
....................                          0x38, 0x44, 0x44, 0x44, 0x44, // c 
....................                          0x38, 0x44, 0x44, 0x44, 0x7F, // d 
....................                          0x38, 0x54, 0x54, 0x54, 0x18, // e 
....................                          0x04, 0x04, 0x7E, 0x05, 0x05, // f 
....................                          0x08, 0x54, 0x54, 0x54, 0x3C, // g 
....................                          0x7F, 0x08, 0x04, 0x04, 0x78, // h 
....................                          0x00, 0x44, 0x7D, 0x40, 0x00, // i 
....................                          0x20, 0x40, 0x44, 0x3D, 0x00, // j 
....................                          0x7F, 0x10, 0x28, 0x44, 0x00, // k 
....................                          0x00, 0x41, 0x7F, 0x40, 0x00, // l 
....................                          0x7C, 0x04, 0x78, 0x04, 0x78, // m 
....................                          0x7C, 0x08, 0x04, 0x04, 0x78, // n 
....................                          0x38, 0x44, 0x44, 0x44, 0x38, // o 
....................                          0x7C, 0x14, 0x14, 0x14, 0x08, // p 
....................                          0x08, 0x14, 0x14, 0x14, 0x7C, // q 
....................                          0x00, 0x7C, 0x08, 0x04, 0x04, // r 
....................                          0x48, 0x54, 0x54, 0x54, 0x20, // s 
....................                          0x04, 0x04, 0x3F, 0x44, 0x44, // t 
....................                          0x3C, 0x40, 0x40, 0x20, 0x7C, // u 
....................                          0x1C, 0x20, 0x40, 0x20, 0x1C, // v 
....................                          0x3C, 0x40, 0x30, 0x40, 0x3C, // w 
....................                          0x44, 0x28, 0x10, 0x28, 0x44, // x 
....................                          0x0C, 0x50, 0x50, 0x50, 0x3C, // y 
....................                          0x44, 0x64, 0x54, 0x4C, 0x44, // z 
....................                          0x00, 0x08, 0x36, 0x41, 0x41, // { 
....................                          0x00, 0x00, 0x7F, 0x00, 0x00, // | 
....................                          0x41, 0x41, 0x36, 0x08, 0x00, // } 
....................                          0x02, 0x01, 0x02, 0x04, 0x02};// ~ 
.................... ///////////////////////////////////////////////////////////////////////// 
....................  
....................  
.................... ///////////////////////////////////////////////////////////////////////// 
.................... // Purpose:       Draw a line on a graphic LCD using Bresenham's 
.................... //                line drawing algorithm 
.................... // Inputs:        (x1, y1) - the start coordinate 
.................... //                (x2, y2) - the end coordinate 
.................... //                color - ON or OFF 
.................... // Dependencies:  glcd_pixel() 
.................... ///////////////////////////////////////////////////////////////////////// 
.................... #ifdef LARGE_LCD 
.................... void glcd_line(int16 x1, int16 y1, int16 x2, int16 y2, int1 color) 
.................... #else 
.................... void glcd_line(int8 x1, int8 y1, int8 x2, int8 y2, int1 color) 
.................... #endif 
.................... { 
*
04AE6:  MOVLW  01
04AE8:  MOVLB  6
04AEA:  MOVWF  x0F
04AEC:  MOVWF  x10
04AEE:  CLRF   x15
....................    int16        dy, dx; 
....................    signed int8  addx=1, addy=1; 
....................    signed int16 P, diff; 
....................  
....................    #ifdef LARGE_LCD 
....................    int16 i=0; 
....................    dx = abs((signed int16)(x2 - x1)); 
....................    dy = abs((signed int16)(y2 - y1)); 
....................    #else 
....................    int8 i=0; 
....................    dx = abs((signed int8)(x2 - x1)); 
04AF0:  MOVF   x06,W
04AF2:  SUBWF  x08,W
04AF4:  MOVWF  x16
04AF6:  MOVF   x16,W
04AF8:  BTFSS  x16.7
04AFA:  BRA    4B02
04AFC:  MOVLW  00
04AFE:  BSF    FD8.0
04B00:  SUBFWB x16,W
04B02:  CLRF   03
04B04:  MOVWF  x0D
04B06:  MOVFF  03,60E
....................    dy = abs((signed int8)(y2 - y1)); 
04B0A:  MOVF   x07,W
04B0C:  SUBWF  x09,W
04B0E:  MOVWF  x16
04B10:  MOVF   x16,W
04B12:  BTFSS  x16.7
04B14:  BRA    4B1C
04B16:  MOVLW  00
04B18:  BSF    FD8.0
04B1A:  SUBFWB x16,W
04B1C:  CLRF   03
04B1E:  MOVWF  x0B
04B20:  MOVFF  03,60C
....................    #endif 
....................  
....................    if(x1 > x2) 
04B24:  MOVF   x06,W
04B26:  SUBWF  x08,W
04B28:  BC    4B2E
....................       addx = -1; 
04B2A:  MOVLW  FF
04B2C:  MOVWF  x0F
....................    if(y1 > y2) 
04B2E:  MOVF   x07,W
04B30:  SUBWF  x09,W
04B32:  BC    4B38
....................       addy = -1; 
04B34:  MOVLW  FF
04B36:  MOVWF  x10
....................  
....................    if(dx >= dy) 
04B38:  MOVF   x0C,W
04B3A:  SUBWF  x0E,W
04B3C:  BNC   4BB6
04B3E:  BNZ   4B46
04B40:  MOVF   x0B,W
04B42:  SUBWF  x0D,W
04B44:  BNC   4BB6
....................    { 
....................       dy *= 2; 
04B46:  BCF    FD8.0
04B48:  RLCF   x0B,F
04B4A:  RLCF   x0C,F
....................       P = dy - dx; 
04B4C:  MOVF   x0D,W
04B4E:  SUBWF  x0B,W
04B50:  MOVWF  00
04B52:  MOVF   x0E,W
04B54:  SUBWFB x0C,W
04B56:  MOVFF  00,611
04B5A:  MOVWF  x12
....................       diff = P - dx; 
04B5C:  MOVF   x0D,W
04B5E:  SUBWF  x11,W
04B60:  MOVWF  x13
04B62:  MOVF   x0E,W
04B64:  SUBWFB x12,W
04B66:  MOVWF  x14
....................  
....................       for(; i<=dx; ++i) 
04B68:  MOVF   x0E,F
04B6A:  BNZ   4B72
04B6C:  MOVF   x15,W
04B6E:  SUBWF  x0D,W
04B70:  BNC   4BB4
....................       { 
....................          glcd_pixel(x1, y1, color); 
04B72:  MOVFF  606,616
04B76:  MOVFF  607,617
04B7A:  MOVFF  60A,618
04B7E:  MOVLB  0
04B80:  CALL   170E
....................  
....................          if(P < 0) 
04B84:  MOVLB  6
04B86:  BTFSC  x12.7
04B88:  BRA    4B8C
04B8A:  BRA    4B9C
....................          { 
....................             P  += dy; 
04B8C:  MOVF   x0B,W
04B8E:  ADDWF  x11,F
04B90:  MOVF   x0C,W
04B92:  ADDWFC x12,F
....................             x1 += addx; 
04B94:  MOVF   x0F,W
04B96:  ADDWF  x06,W
04B98:  MOVWF  x06
....................          } 
....................          else 
04B9A:  BRA    4BB0
....................          { 
....................             P  += diff; 
04B9C:  MOVF   x13,W
04B9E:  ADDWF  x11,F
04BA0:  MOVF   x14,W
04BA2:  ADDWFC x12,F
....................             x1 += addx; 
04BA4:  MOVF   x0F,W
04BA6:  ADDWF  x06,W
04BA8:  MOVWF  x06
....................             y1 += addy; 
04BAA:  MOVF   x10,W
04BAC:  ADDWF  x07,W
04BAE:  MOVWF  x07
....................          } 
....................       } 
04BB0:  INCF   x15,F
04BB2:  BRA    4B68
....................    } 
....................    else 
04BB4:  BRA    4C24
....................    { 
....................       dx *= 2; 
04BB6:  BCF    FD8.0
04BB8:  RLCF   x0D,F
04BBA:  RLCF   x0E,F
....................       P = dx - dy; 
04BBC:  MOVF   x0B,W
04BBE:  SUBWF  x0D,W
04BC0:  MOVWF  00
04BC2:  MOVF   x0C,W
04BC4:  SUBWFB x0E,W
04BC6:  MOVFF  00,611
04BCA:  MOVWF  x12
....................       diff = P - dy; 
04BCC:  MOVF   x0B,W
04BCE:  SUBWF  x11,W
04BD0:  MOVWF  x13
04BD2:  MOVF   x0C,W
04BD4:  SUBWFB x12,W
04BD6:  MOVWF  x14
....................  
....................       for(; i<=dy; ++i) 
04BD8:  MOVF   x0C,F
04BDA:  BNZ   4BE2
04BDC:  MOVF   x15,W
04BDE:  SUBWF  x0B,W
04BE0:  BNC   4C24
....................       { 
....................          glcd_pixel(x1, y1, color); 
04BE2:  MOVFF  606,616
04BE6:  MOVFF  607,617
04BEA:  MOVFF  60A,618
04BEE:  MOVLB  0
04BF0:  CALL   170E
....................  
....................          if(P < 0) 
04BF4:  MOVLB  6
04BF6:  BTFSC  x12.7
04BF8:  BRA    4BFC
04BFA:  BRA    4C0C
....................          { 
....................             P  += dx; 
04BFC:  MOVF   x0D,W
04BFE:  ADDWF  x11,F
04C00:  MOVF   x0E,W
04C02:  ADDWFC x12,F
....................             y1 += addy; 
04C04:  MOVF   x10,W
04C06:  ADDWF  x07,W
04C08:  MOVWF  x07
....................          } 
....................          else 
04C0A:  BRA    4C20
....................          { 
....................             P  += diff; 
04C0C:  MOVF   x13,W
04C0E:  ADDWF  x11,F
04C10:  MOVF   x14,W
04C12:  ADDWFC x12,F
....................             x1 += addx; 
04C14:  MOVF   x0F,W
04C16:  ADDWF  x06,W
04C18:  MOVWF  x06
....................             y1 += addy; 
04C1A:  MOVF   x10,W
04C1C:  ADDWF  x07,W
04C1E:  MOVWF  x07
....................          } 
....................       } 
04C20:  INCF   x15,F
04C22:  BRA    4BD8
....................    } 
.................... } 
04C24:  MOVLB  0
04C26:  RETLW  00
....................  
....................  
.................... ///////////////////////////////////////////////////////////////////////// 
.................... // Purpose:       Draw a rectangle on a graphic LCD 
.................... // Inputs:        (x1, y1) - the start coordinate 
.................... //                (x2, y2) - the end coordinate 
.................... //                fill  - YES or NO 
.................... //                color - ON or OFF 
.................... // Dependencies:  glcd_pixel(), glcd_line() 
.................... ///////////////////////////////////////////////////////////////////////// 
.................... #ifdef LARGE_LCD 
.................... void glcd_rect(int16 x1, int16 y1, int16 x2, int16 y2, int1 fill, int1 color) 
.................... #else 
.................... void glcd_rect(int8 x1, int8 y1, int8 x2, int8 y2, int1 fill, int1 color) 
.................... #endif 
.................... { 
....................    if(fill) 
04C28:  MOVLB  5
04C2A:  MOVF   xFF,F
04C2C:  BZ    4C90
....................    { 
....................       #ifdef LARGE_LCD 
....................       int16 i, xmin, xmax, ymin, ymax; 
....................       #else 
....................       int8  i, xmin, xmax, ymin, ymax; 
....................       #endif 
....................  
....................       if(x1 < x2)                            //  Find x min and max 
04C2E:  MOVF   xFD,W
04C30:  SUBWF  xFB,W
04C32:  BC    4C3E
....................       { 
....................          xmin = x1; 
04C34:  MOVFF  5FB,602
....................          xmax = x2; 
04C38:  MOVFF  5FD,603
....................       } 
....................       else 
04C3C:  BRA    4C46
....................       { 
....................          xmin = x2; 
04C3E:  MOVFF  5FD,602
....................          xmax = x1; 
04C42:  MOVFF  5FB,603
....................       } 
....................  
....................       if(y1 < y2)                            // Find the y min and max 
04C46:  MOVF   xFE,W
04C48:  SUBWF  xFC,W
04C4A:  BC    4C56
....................       { 
....................          ymin = y1; 
04C4C:  MOVFF  5FC,604
....................          ymax = y2; 
04C50:  MOVFF  5FE,605
....................       } 
....................       else 
04C54:  BRA    4C5E
....................       { 
....................          ymin = y2; 
04C56:  MOVFF  5FE,604
....................          ymax = y1; 
04C5A:  MOVFF  5FC,605
....................       } 
....................  
....................       for(; xmin <= xmax; ++xmin) 
04C5E:  MOVLB  6
04C60:  MOVF   x02,W
04C62:  SUBWF  x03,W
04C64:  BNC   4C8C
....................       { 
....................          for(i=ymin; i<=ymax; ++i) 
04C66:  MOVFF  604,601
04C6A:  MOVF   x01,W
04C6C:  SUBWF  x05,W
04C6E:  BNC   4C88
....................          { 
....................             glcd_pixel(xmin, i, color); 
04C70:  MOVFF  602,616
04C74:  MOVFF  601,617
04C78:  MOVFF  600,618
04C7C:  MOVLB  0
04C7E:  CALL   170E
....................          } 
04C82:  MOVLB  6
04C84:  INCF   x01,F
04C86:  BRA    4C6A
....................       } 
04C88:  INCF   x02,F
04C8A:  BRA    4C60
....................    } 
....................    else 
04C8C:  BRA    4CEC
04C8E:  MOVLB  5
....................    { 
....................       glcd_line(x1, y1, x2, y1, color);      // Draw the 4 sides 
04C90:  MOVFF  5FB,606
04C94:  MOVFF  5FC,607
04C98:  MOVFF  5FD,608
04C9C:  MOVFF  5FC,609
04CA0:  MOVFF  600,60A
04CA4:  MOVLB  0
04CA6:  RCALL  4AE6
....................       glcd_line(x1, y2, x2, y2, color); 
04CA8:  MOVFF  5FB,606
04CAC:  MOVFF  5FE,607
04CB0:  MOVFF  5FD,608
04CB4:  MOVFF  5FE,609
04CB8:  MOVFF  600,60A
04CBC:  RCALL  4AE6
....................       glcd_line(x1, y1, x1, y2, color); 
04CBE:  MOVFF  5FB,606
04CC2:  MOVFF  5FC,607
04CC6:  MOVFF  5FB,608
04CCA:  MOVFF  5FE,609
04CCE:  MOVFF  600,60A
04CD2:  RCALL  4AE6
....................       glcd_line(x2, y1, x2, y2, color); 
04CD4:  MOVFF  5FD,606
04CD8:  MOVFF  5FC,607
04CDC:  MOVFF  5FD,608
04CE0:  MOVFF  5FE,609
04CE4:  MOVFF  600,60A
04CE8:  RCALL  4AE6
04CEA:  MOVLB  6
....................    } 
.................... } 
04CEC:  MOVLB  0
04CEE:  RETLW  00
....................  
.................... ///////////////////////////////////////////////////////////////////////// 
.................... // Purpose:       Draw a bar (wide line) on a graphic LCD 
.................... // Inputs:        (x1, y1) - the start coordinate 
.................... //                (x2, y2) - the end coordinate 
.................... //                width  - The number of pixels wide 
.................... //                color - ON or OFF 
.................... ///////////////////////////////////////////////////////////////////////// 
.................... #ifdef LARGE_LCD 
.................... void glcd_bar(int16 x1, int16 y1, int16 x2, int16 y2, int8 width, int1 color) 
.................... #else 
.................... void glcd_bar(int8 x1, int8 y1, int8 x2, int8 y2, int8 width, int1 color) 
.................... #endif 
.................... { 
....................    int8         half_width; 
....................    signed int16 dy, dx; 
....................    signed int8  addx=1, addy=1, j; 
....................    signed int16 P, diff, c1, c2; 
....................  
....................    #ifdef LARGE_LCD 
....................    int16 i=0; 
....................    dx = abs((signed int16)(x2 - x1)); 
....................    dy = abs((signed int16)(y2 - y1)); 
....................    #else 
....................    int8 i=0; 
....................    dx = abs((signed int8)(x2 - x1)); 
....................    dy = abs((signed int8)(y2 - y1)); 
....................    #endif 
....................  
....................    half_width = width/2; 
....................    c1 = -(dx*x1 + dy*y1); 
....................    c2 = -(dx*x2 + dy*y2); 
....................  
....................    if(x1 > x2) 
....................    { 
....................       signed int16 temp; 
....................       temp = c1; 
....................       c1 = c2; 
....................       c2 = temp; 
....................       addx = -1; 
....................    } 
....................    if(y1 > y2) 
....................    { 
....................       signed int16 temp; 
....................       temp = c1; 
....................       c1 = c2; 
....................       c2 = temp; 
....................       addy = -1; 
....................    } 
....................  
....................    if(dx >= dy) 
....................    { 
....................       P = 2*dy - dx; 
....................       diff = P - dx; 
....................  
....................       for(i=0; i<=dx; ++i) 
....................       { 
....................          for(j=-half_width; j<half_width+width%2; ++j) 
....................          { 
....................             #ifdef LARGE_LCD 
....................             int16 temp; 
....................             #else 
....................             int8 temp; 
....................             #endif 
....................  
....................             temp = dx*x1+dy*(y1+j);    // Use more RAM to increase speed 
....................             if(temp+c1 >= 0 && temp+c2 <=0) 
....................                glcd_pixel(x1, y1+j, color); 
....................          } 
....................          if(P < 0) 
....................          { 
....................             P  += 2*dy; 
....................             x1 += addx; 
....................          } 
....................          else 
....................          { 
....................             P  += diff; 
....................             x1 += addx; 
....................             y1 += addy; 
....................          } 
....................       } 
....................    } 
....................    else 
....................    { 
....................       P = 2*dx - dy; 
....................       diff = P - dy; 
....................  
....................       for(i=0; i<=dy; ++i) 
....................       { 
....................          if(P < 0) 
....................          { 
....................             P  += 2*dx; 
....................             y1 += addy; 
....................          } 
....................          else 
....................          { 
....................             P  += diff; 
....................             x1 += addx; 
....................             y1 += addy; 
....................          } 
....................          for(j=-half_width; j<half_width+width%2; ++j) 
....................          { 
....................             #ifdef LARGE_LCD 
....................             int16 temp; 
....................             #else 
....................             int8 temp; 
....................             #endif 
....................  
....................             temp = dx*x1+dy*(y1+j);    // Use more RAM to increase speed 
....................             if(temp+c1 >= 0 && temp+c2 <=0) 
....................                glcd_pixel(x1+j, y1, color); 
....................          } 
....................       } 
....................    } 
.................... } 
....................  
....................  
.................... ///////////////////////////////////////////////////////////////////////// 
.................... // Purpose:       Draw a circle on a graphic LCD 
.................... // Inputs:        (x,y) - the center of the circle 
.................... //                radius - the radius of the circle 
.................... //                fill - YES or NO 
.................... //                color - ON or OFF 
.................... ///////////////////////////////////////////////////////////////////////// 
.................... #ifdef LARGE_LCD 
.................... void glcd_circle(int16 x, int16 y, int16 radius, int1 fill, int1 color) 
.................... #else 
.................... void glcd_circle(int8 x, int8 y, int8 radius, int1 fill, int1 color) 
.................... #endif 
.................... { 
....................    #ifdef LARGE_LCD 
....................    signed int16 a, b, P; 
....................    #else 
....................    signed int8  a, b, P; 
....................    #endif 
....................  
....................    a = 0; 
*
05926:  MOVLB  5
05928:  CLRF   xFE
....................    b = radius; 
0592A:  MOVFF  5FB,5FF
....................    P = 1 - radius; 
0592E:  MOVLW  01
05930:  BSF    FD8.0
05932:  SUBFWB xFB,W
05934:  MOVLB  6
05936:  MOVWF  x00
....................  
....................    do 
....................    { 
....................       if(fill) 
05938:  MOVLB  5
0593A:  MOVF   xFC,F
0593C:  BTFSC  FD8.2
0593E:  BRA    5A42
....................       { 
....................          glcd_line(x-a, y+b, x+a, y+b, color); 
05940:  MOVF   xFE,W
05942:  SUBWF  xF9,W
05944:  MOVLB  6
05946:  MOVWF  x01
05948:  MOVLB  5
0594A:  MOVF   xFF,W
0594C:  ADDWF  xFA,W
0594E:  MOVLB  6
05950:  MOVWF  x02
05952:  MOVLB  5
05954:  MOVF   xFE,W
05956:  ADDWF  xF9,W
05958:  MOVLB  6
0595A:  MOVWF  x03
0595C:  MOVLB  5
0595E:  MOVF   xFF,W
05960:  ADDWF  xFA,W
05962:  MOVLB  6
05964:  MOVWF  x04
05966:  MOVFF  601,606
0596A:  MOVFF  602,607
0596E:  MOVFF  603,608
05972:  MOVWF  x09
05974:  MOVFF  5FD,60A
05978:  MOVLB  0
0597A:  CALL   4AE6
....................          glcd_line(x-a, y-b, x+a, y-b, color); 
0597E:  MOVLB  5
05980:  MOVF   xFE,W
05982:  SUBWF  xF9,W
05984:  MOVLB  6
05986:  MOVWF  x01
05988:  MOVLB  5
0598A:  MOVF   xFF,W
0598C:  SUBWF  xFA,W
0598E:  MOVLB  6
05990:  MOVWF  x02
05992:  MOVLB  5
05994:  MOVF   xFE,W
05996:  ADDWF  xF9,W
05998:  MOVLB  6
0599A:  MOVWF  x03
0599C:  MOVLB  5
0599E:  MOVF   xFF,W
059A0:  SUBWF  xFA,W
059A2:  MOVLB  6
059A4:  MOVWF  x04
059A6:  MOVFF  601,606
059AA:  MOVFF  602,607
059AE:  MOVFF  603,608
059B2:  MOVWF  x09
059B4:  MOVFF  5FD,60A
059B8:  MOVLB  0
059BA:  CALL   4AE6
....................          glcd_line(x-b, y+a, x+b, y+a, color); 
059BE:  MOVLB  5
059C0:  MOVF   xFF,W
059C2:  SUBWF  xF9,W
059C4:  MOVLB  6
059C6:  MOVWF  x01
059C8:  MOVLB  5
059CA:  MOVF   xFE,W
059CC:  ADDWF  xFA,W
059CE:  MOVLB  6
059D0:  MOVWF  x02
059D2:  MOVLB  5
059D4:  MOVF   xFF,W
059D6:  ADDWF  xF9,W
059D8:  MOVLB  6
059DA:  MOVWF  x03
059DC:  MOVLB  5
059DE:  MOVF   xFE,W
059E0:  ADDWF  xFA,W
059E2:  MOVLB  6
059E4:  MOVWF  x04
059E6:  MOVFF  601,606
059EA:  MOVFF  602,607
059EE:  MOVFF  603,608
059F2:  MOVWF  x09
059F4:  MOVFF  5FD,60A
059F8:  MOVLB  0
059FA:  CALL   4AE6
....................          glcd_line(x-b, y-a, x+b, y-a, color); 
059FE:  MOVLB  5
05A00:  MOVF   xFF,W
05A02:  SUBWF  xF9,W
05A04:  MOVLB  6
05A06:  MOVWF  x01
05A08:  MOVLB  5
05A0A:  MOVF   xFE,W
05A0C:  SUBWF  xFA,W
05A0E:  MOVLB  6
05A10:  MOVWF  x02
05A12:  MOVLB  5
05A14:  MOVF   xFF,W
05A16:  ADDWF  xF9,W
05A18:  MOVLB  6
05A1A:  MOVWF  x03
05A1C:  MOVLB  5
05A1E:  MOVF   xFE,W
05A20:  SUBWF  xFA,W
05A22:  MOVLB  6
05A24:  MOVWF  x04
05A26:  MOVFF  601,606
05A2A:  MOVFF  602,607
05A2E:  MOVFF  603,608
05A32:  MOVWF  x09
05A34:  MOVFF  5FD,60A
05A38:  MOVLB  0
05A3A:  CALL   4AE6
....................       } 
....................       else 
05A3E:  BRA    5B60
05A40:  MOVLB  5
....................       { 
....................          glcd_pixel(a+x, b+y, color); 
05A42:  MOVF   xF9,W
05A44:  ADDWF  xFE,W
05A46:  MOVLB  6
05A48:  MOVWF  x01
05A4A:  MOVLB  5
05A4C:  MOVF   xFA,W
05A4E:  ADDWF  xFF,W
05A50:  MOVLB  6
05A52:  MOVWF  x02
05A54:  MOVFF  601,616
05A58:  MOVWF  x17
05A5A:  MOVFF  5FD,618
05A5E:  MOVLB  0
05A60:  CALL   170E
....................          glcd_pixel(b+x, a+y, color); 
05A64:  MOVLB  5
05A66:  MOVF   xF9,W
05A68:  ADDWF  xFF,W
05A6A:  MOVLB  6
05A6C:  MOVWF  x01
05A6E:  MOVLB  5
05A70:  MOVF   xFA,W
05A72:  ADDWF  xFE,W
05A74:  MOVLB  6
05A76:  MOVWF  x02
05A78:  MOVFF  601,616
05A7C:  MOVWF  x17
05A7E:  MOVFF  5FD,618
05A82:  MOVLB  0
05A84:  CALL   170E
....................          glcd_pixel(x-a, b+y, color); 
05A88:  MOVLB  5
05A8A:  MOVF   xFE,W
05A8C:  SUBWF  xF9,W
05A8E:  MOVLB  6
05A90:  MOVWF  x01
05A92:  MOVLB  5
05A94:  MOVF   xFA,W
05A96:  ADDWF  xFF,W
05A98:  MOVLB  6
05A9A:  MOVWF  x02
05A9C:  MOVFF  601,616
05AA0:  MOVWF  x17
05AA2:  MOVFF  5FD,618
05AA6:  MOVLB  0
05AA8:  CALL   170E
....................          glcd_pixel(x-b, a+y, color); 
05AAC:  MOVLB  5
05AAE:  MOVF   xFF,W
05AB0:  SUBWF  xF9,W
05AB2:  MOVLB  6
05AB4:  MOVWF  x01
05AB6:  MOVLB  5
05AB8:  MOVF   xFA,W
05ABA:  ADDWF  xFE,W
05ABC:  MOVLB  6
05ABE:  MOVWF  x02
05AC0:  MOVFF  601,616
05AC4:  MOVWF  x17
05AC6:  MOVFF  5FD,618
05ACA:  MOVLB  0
05ACC:  CALL   170E
....................          glcd_pixel(b+x, y-a, color); 
05AD0:  MOVLB  5
05AD2:  MOVF   xF9,W
05AD4:  ADDWF  xFF,W
05AD6:  MOVLB  6
05AD8:  MOVWF  x01
05ADA:  MOVLB  5
05ADC:  MOVF   xFE,W
05ADE:  SUBWF  xFA,W
05AE0:  MOVLB  6
05AE2:  MOVWF  x02
05AE4:  MOVFF  601,616
05AE8:  MOVWF  x17
05AEA:  MOVFF  5FD,618
05AEE:  MOVLB  0
05AF0:  CALL   170E
....................          glcd_pixel(a+x, y-b, color); 
05AF4:  MOVLB  5
05AF6:  MOVF   xF9,W
05AF8:  ADDWF  xFE,W
05AFA:  MOVLB  6
05AFC:  MOVWF  x01
05AFE:  MOVLB  5
05B00:  MOVF   xFF,W
05B02:  SUBWF  xFA,W
05B04:  MOVLB  6
05B06:  MOVWF  x02
05B08:  MOVFF  601,616
05B0C:  MOVWF  x17
05B0E:  MOVFF  5FD,618
05B12:  MOVLB  0
05B14:  CALL   170E
....................          glcd_pixel(x-a, y-b, color); 
05B18:  MOVLB  5
05B1A:  MOVF   xFE,W
05B1C:  SUBWF  xF9,W
05B1E:  MOVLB  6
05B20:  MOVWF  x01
05B22:  MOVLB  5
05B24:  MOVF   xFF,W
05B26:  SUBWF  xFA,W
05B28:  MOVLB  6
05B2A:  MOVWF  x02
05B2C:  MOVFF  601,616
05B30:  MOVWF  x17
05B32:  MOVFF  5FD,618
05B36:  MOVLB  0
05B38:  CALL   170E
....................          glcd_pixel(x-b, y-a, color); 
05B3C:  MOVLB  5
05B3E:  MOVF   xFF,W
05B40:  SUBWF  xF9,W
05B42:  MOVLB  6
05B44:  MOVWF  x01
05B46:  MOVLB  5
05B48:  MOVF   xFE,W
05B4A:  SUBWF  xFA,W
05B4C:  MOVLB  6
05B4E:  MOVWF  x02
05B50:  MOVFF  601,616
05B54:  MOVWF  x17
05B56:  MOVFF  5FD,618
05B5A:  MOVLB  0
05B5C:  CALL   170E
....................       } 
....................  
....................       if(P < 0) 
05B60:  MOVLB  6
05B62:  BTFSC  x00.7
05B64:  BRA    5B68
05B66:  BRA    5B88
....................          P += 3 + 2 * a++; 
05B68:  MOVLB  5
05B6A:  MOVF   xFE,W
05B6C:  INCF   xFE,F
05B6E:  MOVLB  6
05B70:  MOVWF  x01
05B72:  MOVLW  02
05B74:  MOVWF  x02
05B76:  MOVFF  601,603
05B7A:  MOVLB  0
05B7C:  RCALL  58D8
05B7E:  MOVF   01,W
05B80:  ADDLW  03
05B82:  MOVLB  6
05B84:  ADDWF  x00,F
....................       else 
05B86:  BRA    5BB2
....................          P += 5 + 2 * (a++ - b--); 
05B88:  MOVLB  5
05B8A:  MOVF   xFE,W
05B8C:  INCF   xFE,F
05B8E:  MOVLB  6
05B90:  MOVWF  x01
05B92:  MOVLB  5
05B94:  MOVF   xFF,W
05B96:  DECF   xFF,F
05B98:  MOVLB  6
05B9A:  SUBWF  x01,W
05B9C:  MOVWF  x01
05B9E:  MOVLW  02
05BA0:  MOVWF  x02
05BA2:  MOVFF  601,603
05BA6:  MOVLB  0
05BA8:  RCALL  58D8
05BAA:  MOVF   01,W
05BAC:  ADDLW  05
05BAE:  MOVLB  6
05BB0:  ADDWF  x00,F
....................     } while(a <= b); 
05BB2:  MOVLB  5
05BB4:  MOVF   xFE,W
05BB6:  XORLW  80
05BB8:  MOVWF  00
05BBA:  MOVF   xFF,W
05BBC:  XORLW  80
05BBE:  SUBWF  00,W
05BC0:  BTFSC  FD8.2
05BC2:  BRA    593A
05BC4:  BTFSS  FD8.0
05BC6:  BRA    593A
.................... } 
05BC8:  MOVLB  0
05BCA:  RETLW  00
....................  
....................  
.................... ///////////////////////////////////////////////////////////////////////// 
.................... // Purpose:       Write text on a graphic LCD 
.................... // Inputs:        (x,y) - The upper left coordinate of the first letter 
.................... //                textptr - A pointer to an array of text to display 
.................... //                size - The size of the text: 1 = 5x7, 2 = 10x14, ... 
.................... //                color - ON or OFF 
.................... ///////////////////////////////////////////////////////////////////////// 
.................... #ifdef LARGE_LCD 
.................... void glcd_text57(int16 x, int16 y, char* textptr, int8 size, int1 color) 
.................... #else 
.................... void glcd_text57(int8 x, int8 y, char* textptr, int8 size, int1 color) 
.................... #endif 
.................... { 
....................    int8 j, k, l, m;                       // Loop counters 
....................    int8 pixelData[5];                     // Stores character data 
....................  
....................    for(; *textptr != '\0'; ++textptr, ++x)// Loop through the passed string 
*
017CA:  MOVFF  5FE,03
017CE:  MOVLB  5
017D0:  MOVFF  5FD,FE9
017D4:  MOVFF  5FE,FEA
017D8:  MOVF   FEF,F
017DA:  BTFSC  FD8.2
017DC:  BRA    199C
....................    { 
....................       if(*textptr < 'S') // Checks if the letter is in the first font array 
017DE:  MOVFF  5FE,03
017E2:  MOVFF  5FD,FE9
017E6:  MOVFF  5FE,FEA
017EA:  MOVF   FEF,W
017EC:  SUBLW  52
017EE:  BNC   1840
....................          memcpy(pixelData, FONT[*textptr - ' '], 5); 
017F0:  MOVFF  5FE,03
017F4:  MOVFF  5FD,FE9
017F8:  MOVFF  5FE,FEA
017FC:  MOVLW  20
017FE:  SUBWF  FEF,W
01800:  MULLW  05
01802:  MOVF   FF3,W
01804:  CLRF   03
01806:  MOVLB  6
01808:  MOVWF  x0A
0180A:  MOVLW  06
0180C:  MOVWF  FEA
0180E:  MOVLW  05
01810:  MOVWF  FE9
01812:  CLRF   x0E
01814:  MOVFF  60A,60D
01818:  MOVFF  FF2,60B
0181C:  BCF    FF2.7
0181E:  MOVWF  01
01820:  CLRF   FF7
01822:  MOVF   x0A,W
01824:  MOVLB  0
01826:  CALL   0096
0182A:  TBLRD*-
0182C:  TBLRD*+
0182E:  MOVFF  FF5,FEE
01832:  DECFSZ 01,F
01834:  BRA    182C
01836:  MOVLB  6
01838:  BTFSC  x0B.7
0183A:  BSF    FF2.7
....................       else if(*textptr <= '~') // Check if the letter is in the second font array 
0183C:  BRA    18AC
0183E:  MOVLB  5
01840:  MOVFF  5FE,03
01844:  MOVFF  5FD,FE9
01848:  MOVFF  5FE,FEA
0184C:  MOVF   FEF,W
0184E:  SUBLW  7E
01850:  BNC   18A0
....................          memcpy(pixelData, FONT2[*textptr - 'S'], 5); 
01852:  MOVFF  5FE,03
01856:  MOVFF  5FD,FE9
0185A:  MOVFF  5FE,FEA
0185E:  MOVLW  53
01860:  SUBWF  FEF,W
01862:  MULLW  05
01864:  MOVF   FF3,W
01866:  CLRF   03
01868:  MOVLB  6
0186A:  MOVWF  x0A
0186C:  MOVLW  06
0186E:  MOVWF  FEA
01870:  MOVLW  05
01872:  MOVWF  FE9
01874:  CLRF   x0E
01876:  MOVFF  60A,60D
0187A:  MOVFF  FF2,60B
0187E:  BCF    FF2.7
01880:  MOVWF  01
01882:  CLRF   FF7
01884:  MOVF   x0A,W
01886:  MOVLB  0
01888:  CALL   01B0
0188C:  TBLRD*-
0188E:  TBLRD*+
01890:  MOVFF  FF5,FEE
01894:  DECFSZ 01,F
01896:  BRA    188E
01898:  MOVLB  6
0189A:  BTFSC  x0B.7
0189C:  BSF    FF2.7
....................       else 
0189E:  BRA    18AC
....................          memcpy(pixelData, FONT[0], 5);   // Default to space 
018A0:  MOVLB  6
018A2:  CLRF   x05
018A4:  CLRF   x06
018A6:  CLRF   x07
018A8:  CLRF   x08
018AA:  CLRF   x09
....................  
....................       // Handles newline and carriage returns 
....................       switch(*textptr) 
....................       { 
018AC:  MOVFF  5FE,03
018B0:  MOVLB  5
018B2:  MOVF   xFD,W
018B4:  MOVWF  FE9
018B6:  MOVFF  03,FEA
018BA:  MOVF   FEF,W
018BC:  XORLW  0A
018BE:  MOVLB  0
018C0:  BZ    18C8
018C2:  XORLW  07
018C4:  BZ    18D8
018C6:  BRA    18DE
....................          case '\n': 
....................             y += 7*size + 1; 
018C8:  MOVLB  5
018CA:  MOVF   xFF,W
018CC:  MULLW  07
018CE:  MOVF   FF3,W
018D0:  ADDLW  01
018D2:  ADDWF  xFC,F
....................             continue; 
018D4:  BRA    198E
018D6:  MOVLB  0
....................          case '\r': 
....................             x = 0; 
018D8:  MOVLB  5
018DA:  CLRF   xFB
....................             continue; 
018DC:  BRA    198E
....................       } 
....................  
....................       if(x+5*size >= GLCD_WIDTH)          // Performs character wrapping 
018DE:  MOVLB  5
018E0:  MOVF   xFF,W
018E2:  MULLW  05
018E4:  MOVF   FF3,W
018E6:  ADDWF  xFB,W
018E8:  SUBLW  7F
018EA:  BC    18F8
....................       { 
....................          x = 0;                           // Set x at far left position 
018EC:  CLRF   xFB
....................          y += 7*size + 1;                 // Set y at next position down 
018EE:  MOVF   xFF,W
018F0:  MULLW  07
018F2:  MOVF   FF3,W
018F4:  ADDLW  01
018F6:  ADDWF  xFC,F
....................       } 
....................       for(j=0; j<5; ++j, x+=size)         // Loop through character byte data 
018F8:  MOVLB  6
018FA:  CLRF   x01
018FC:  MOVF   x01,W
018FE:  SUBLW  04
01900:  BNC   198C
....................       { 
....................          for(k=0; k < 7; ++k)             // Loop through the vertical pixels 
01902:  CLRF   x02
01904:  MOVF   x02,W
01906:  SUBLW  06
01908:  BNC   1980
....................          { 
....................             if(bit_test(pixelData[j], k)) // Check if the pixel should be set 
0190A:  CLRF   03
0190C:  MOVF   x01,W
0190E:  ADDLW  05
01910:  MOVWF  FE9
01912:  MOVLW  06
01914:  ADDWFC 03,W
01916:  MOVWF  FEA
01918:  MOVFF  FEF,60A
0191C:  MOVFF  60A,00
01920:  MOVF   x02,W
01922:  MOVWF  01
01924:  BZ    192E
01926:  BCF    FD8.0
01928:  RRCF   00,F
0192A:  DECFSZ 01,F
0192C:  BRA    1926
0192E:  BTFSS  00.0
01930:  BRA    197C
....................             { 
....................                for(l=0; l < size; ++l)    // These two loops change the 
01932:  CLRF   x03
01934:  MOVLB  5
01936:  MOVF   xFF,W
01938:  MOVLB  6
0193A:  SUBWF  x03,W
0193C:  BC    197C
....................                {                          // character's size 
....................                   for(m=0; m < size; ++m) 
0193E:  CLRF   x04
01940:  MOVLB  5
01942:  MOVF   xFF,W
01944:  MOVLB  6
01946:  SUBWF  x04,W
01948:  BC    1978
....................                   { 
....................                      glcd_pixel(x+m, y+k*size+l, color); // Draws the pixel 
0194A:  MOVF   x04,W
0194C:  MOVLB  5
0194E:  ADDWF  xFB,W
01950:  MOVLB  6
01952:  MOVWF  x0A
01954:  MOVF   x02,W
01956:  MOVLB  5
01958:  MULWF  xFF
0195A:  MOVF   FF3,W
0195C:  ADDWF  xFC,W
0195E:  MOVLB  6
01960:  ADDWF  x03,W
01962:  MOVWF  x0B
01964:  MOVFF  60A,616
01968:  MOVWF  x17
0196A:  MOVFF  600,618
0196E:  MOVLB  0
01970:  RCALL  170E
....................                   } 
01972:  MOVLB  6
01974:  INCF   x04,F
01976:  BRA    1940
....................                } 
01978:  INCF   x03,F
0197A:  BRA    1934
....................             } 
....................          } 
0197C:  INCF   x02,F
0197E:  BRA    1904
....................       } 
01980:  INCF   x01,F
01982:  MOVLB  5
01984:  MOVF   xFF,W
01986:  ADDWF  xFB,F
01988:  MOVLB  6
0198A:  BRA    18FC
0198C:  MOVLB  5
....................    } 
0198E:  INCF   xFD,F
01990:  BTFSC  FD8.2
01992:  INCF   xFE,F
01994:  INCF   xFB,F
01996:  MOVLB  0
01998:  BRA    17CA
0199A:  MOVLB  5
.................... } 
0199C:  MOVLB  0
0199E:  RETLW  00
....................  
.................... #endif 
....................  
.................... #include "imagen.h" 
.................... const int8 Bombillo [64][16] = { 
.................... 0x00, 0x00, 0x00, 0x00, 0x00, 0x00, 0x00, 0x00, 0x00, 0x00, 0x00, 0x00, 0x00, 0x00, 0x00, 0x00, 
.................... 0x00, 0x00, 0x00, 0x00, 0x00, 0x00, 0x00, 0x00, 0x00, 0x00, 0x00, 0x00, 0x00, 0x00, 0x00, 0x00, 
.................... 0x00, 0x00, 0x00, 0x00, 0x00, 0x00, 0x00, 0x00, 0x00, 0x00, 0x00, 0x00, 0x00, 0x00, 0x00, 0x00, 
.................... 0x00, 0x00, 0x00, 0x00, 0x00, 0x00, 0x00, 0x00, 0x00, 0x00, 0x00, 0x00, 0x00, 0x00, 0x00, 0x00, 
.................... 0x00, 0x00, 0x00, 0x00, 0x00, 0x00, 0x00, 0x00, 0x00, 0x00, 0x00, 0x00, 0x00, 0x00, 0x00, 0x00, 
.................... 0x00, 0x00, 0x00, 0x00, 0x00, 0x00, 0x00, 0x00, 0x00, 0x00, 0x00, 0x00, 0x00, 0x00, 0x00, 0x00, 
.................... 0x00, 0x00, 0x00, 0x00, 0x00, 0x00, 0x00, 0x00, 0x00, 0x00, 0x00, 0x00, 0x00, 0x00, 0x00, 0x00, 
.................... 0x00, 0x00, 0x00, 0x00, 0x00, 0x00, 0x00, 0x00, 0x00, 0x00, 0x00, 0x00, 0x00, 0x00, 0x00, 0x00, 
.................... 0x00, 0x00, 0x00, 0x00, 0x00, 0x00, 0x00, 0x00, 0x00, 0x00, 0x00, 0x00, 0x00, 0x00, 0x00, 0x00, 
.................... 0x00, 0x00, 0x00, 0x00, 0x00, 0x00, 0x00, 0x00, 0x00, 0x00, 0x00, 0x00, 0x00, 0x00, 0x00, 0x00, 
.................... 0x00, 0x00, 0x00, 0x00, 0x00, 0x00, 0x00, 0x00, 0x00, 0x00, 0x00, 0x00, 0x00, 0x00, 0x00, 0x00, 
.................... 0x00, 0x00, 0x00, 0x00, 0x00, 0x00, 0x00, 0x00, 0x00, 0x00, 0x00, 0x00, 0x00, 0x00, 0x00, 0x00, 
.................... 0x00, 0x00, 0x00, 0x00, 0x00, 0x00, 0x00, 0x00, 0x00, 0x00, 0x00, 0x00, 0x00, 0x00, 0x00, 0x00, 
.................... 0x00, 0x00, 0x00, 0x00, 0x00, 0x00, 0x00, 0x00, 0x00, 0x00, 0x00, 0x00, 0x00, 0x00, 0x00, 0x00, 
.................... 0x00, 0x00, 0x00, 0x00, 0x00, 0x00, 0x00, 0x00, 0x00, 0x00, 0x00, 0x00, 0x00, 0x00, 0x00, 0x00, 
.................... 0x00, 0x00, 0x00, 0x00, 0x00, 0x00, 0x00, 0x00, 0x00, 0x00, 0x00, 0x00, 0x00, 0x08, 0x00, 0x80, 
.................... 0x00, 0x00, 0x00, 0x00, 0x00, 0x00, 0x00, 0x00, 0x00, 0x00, 0x00, 0x00, 0x00, 0x04, 0x01, 0x00, 
.................... 0x00, 0x00, 0x00, 0x00, 0x00, 0x00, 0x00, 0x00, 0x00, 0x00, 0x00, 0x00, 0x00, 0x02, 0x02, 0x00, 
.................... 0x00, 0x00, 0x00, 0x00, 0x00, 0x00, 0x00, 0x00, 0x00, 0x00, 0x00, 0x00, 0x00, 0x00, 0x78, 0x00, 
.................... 0x00, 0x00, 0x00, 0x00, 0x00, 0x00, 0x00, 0x00, 0x00, 0x00, 0x00, 0x00, 0x00, 0x00, 0x84, 0x00, 
.................... 0x00, 0x00, 0x00, 0x00, 0x00, 0x00, 0x00, 0x00, 0x00, 0x00, 0x00, 0x00, 0x00, 0x01, 0x02, 0x00, 
.................... 0x00, 0x00, 0x00, 0x00, 0x00, 0x00, 0x00, 0x00, 0x00, 0x00, 0x00, 0x00, 0x00, 0xF9, 0x02, 0xF8, 
.................... 0x00, 0x00, 0x00, 0x00, 0x00, 0x00, 0x00, 0x00, 0x00, 0x00, 0x00, 0x00, 0x00, 0x01, 0x02, 0x00, 
.................... 0x00, 0x00, 0x00, 0x00, 0x00, 0x00, 0x00, 0x00, 0x00, 0x00, 0x00, 0x00, 0x00, 0x01, 0x02, 0x00, 
.................... 0x00, 0x00, 0x00, 0x00, 0x00, 0x00, 0x00, 0x00, 0x00, 0x00, 0x00, 0x00, 0x00, 0x04, 0x84, 0x80, 
.................... 0x00, 0x00, 0x00, 0x00, 0x00, 0x00, 0x00, 0x00, 0x00, 0x00, 0x00, 0x00, 0x00, 0x08, 0x78, 0x40, 
.................... 0x00, 0x00, 0x00, 0x00, 0x00, 0x00, 0x00, 0x00, 0x00, 0x00, 0x00, 0x00, 0x00, 0x10, 0x48, 0x20, 
.................... 0x00, 0x00, 0x00, 0x00, 0x00, 0x00, 0x00, 0x00, 0x00, 0x00, 0x00, 0x00, 0x00, 0x20, 0x48, 0x10, 
.................... 0x00, 0x00, 0x00, 0x00, 0x00, 0x00, 0x00, 0x00, 0x00, 0x00, 0x00, 0x00, 0x00, 0x00, 0x78, 0x00, 
.................... 0x00, 0x00, 0x00, 0x00, 0x00, 0x00, 0x00, 0x00, 0x00, 0x00, 0x00, 0x00, 0x00, 0x00, 0x00, 0x00, 
.................... 0x00, 0x00, 0x00, 0x00, 0x00, 0x00, 0x00, 0x00, 0x00, 0x00, 0x00, 0x00, 0x00, 0x00, 0x00, 0x00, 
.................... 0x00, 0x00, 0x00, 0x00, 0x00, 0x00, 0x00, 0x00, 0x00, 0x00, 0x00, 0x00, 0x00, 0x00, 0x00, 0x00, 
.................... 0x00, 0x00, 0x00, 0x00, 0x00, 0x00, 0x00, 0x00, 0x00, 0x00, 0x00, 0x00, 0x00, 0x00, 0x00, 0x00, 
.................... 0x00, 0x00, 0x00, 0x00, 0x00, 0x00, 0x00, 0x00, 0x00, 0x00, 0x00, 0x00, 0x00, 0x00, 0x00, 0x00, 
.................... 0x00, 0x00, 0x00, 0x00, 0x00, 0x00, 0x00, 0x00, 0x00, 0x00, 0x00, 0x00, 0x00, 0x00, 0x00, 0x00, 
.................... 0x00, 0x00, 0x00, 0x00, 0x00, 0x00, 0x00, 0x00, 0x00, 0x00, 0x00, 0x00, 0x00, 0x00, 0x00, 0x00, 
.................... 0x00, 0x00, 0x00, 0x00, 0x00, 0x00, 0x00, 0x00, 0x00, 0x00, 0x00, 0x00, 0x00, 0x00, 0x00, 0x00, 
.................... 0x00, 0x00, 0x00, 0x00, 0x00, 0x00, 0x00, 0x00, 0x00, 0x00, 0x00, 0x00, 0x00, 0x00, 0x00, 0x00, 
.................... 0x00, 0x00, 0x00, 0x00, 0x00, 0x00, 0x00, 0x00, 0x00, 0x00, 0x00, 0x00, 0x00, 0x00, 0x00, 0x00, 
.................... 0x00, 0x00, 0x00, 0x00, 0x00, 0x00, 0x00, 0x00, 0x00, 0x00, 0x00, 0x00, 0x00, 0x00, 0x00, 0x00, 
.................... 0x00, 0x00, 0x00, 0x00, 0x00, 0x00, 0x00, 0x00, 0x00, 0x00, 0x00, 0x00, 0x00, 0x00, 0x00, 0x00, 
.................... 0x00, 0x00, 0x00, 0x00, 0x00, 0x00, 0x00, 0x00, 0x00, 0x00, 0x00, 0x00, 0x00, 0x00, 0x00, 0x00, 
.................... 0x00, 0x00, 0x00, 0x00, 0x00, 0x00, 0x00, 0x00, 0x00, 0x00, 0x00, 0x00, 0x00, 0x00, 0x00, 0x00, 
.................... 0x00, 0x00, 0x00, 0x00, 0x00, 0x00, 0x00, 0x00, 0x00, 0x00, 0x00, 0x00, 0x00, 0x00, 0x00, 0x00, 
.................... 0x00, 0x00, 0x00, 0x00, 0x00, 0x00, 0x00, 0x00, 0x00, 0x00, 0x00, 0x00, 0x00, 0x00, 0x00, 0x00, 
.................... 0x00, 0x00, 0x00, 0x00, 0x00, 0x00, 0x00, 0x00, 0x00, 0x00, 0x00, 0x00, 0x00, 0x00, 0x00, 0x00, 
.................... 0x00, 0x00, 0x00, 0x00, 0x00, 0x00, 0x00, 0x00, 0x00, 0x00, 0x00, 0x00, 0x00, 0x00, 0x00, 0x00, 
.................... 0x00, 0x00, 0x00, 0x00, 0x00, 0x00, 0x00, 0x00, 0x00, 0x00, 0x00, 0x00, 0x00, 0x00, 0x00, 0x00, 
.................... 0x00, 0x00, 0x00, 0x00, 0x00, 0x00, 0x00, 0x00, 0x00, 0x00, 0x00, 0x00, 0x00, 0x00, 0x00, 0x00, 
.................... 0x00, 0x00, 0x00, 0x00, 0x00, 0x00, 0x00, 0x00, 0x00, 0x00, 0x00, 0x00, 0x00, 0x00, 0x00, 0x00, 
.................... 0x00, 0x00, 0x00, 0x00, 0x00, 0x00, 0x00, 0x00, 0x00, 0x00, 0x00, 0x00, 0x00, 0x00, 0x00, 0x00, 
.................... 0x00, 0x00, 0x00, 0x00, 0x00, 0x00, 0x00, 0x00, 0x00, 0x00, 0x00, 0x00, 0x00, 0x00, 0x00, 0x00, 
.................... 0x00, 0x00, 0x00, 0x00, 0x00, 0x00, 0x00, 0x00, 0x00, 0x00, 0x00, 0x00, 0x00, 0x00, 0x00, 0x00, 
.................... 0x00, 0x00, 0x00, 0x00, 0x00, 0x00, 0x00, 0x00, 0x00, 0x00, 0x00, 0x00, 0x00, 0x00, 0x00, 0x00, 
.................... 0x00, 0x00, 0x00, 0x00, 0x00, 0x00, 0x00, 0x00, 0x00, 0x00, 0x00, 0x00, 0x00, 0x00, 0x00, 0x00, 
.................... 0x00, 0x00, 0x00, 0x00, 0x00, 0x00, 0x00, 0x00, 0x00, 0x00, 0x00, 0x00, 0x00, 0x00, 0x00, 0x00, 
.................... 0x00, 0x00, 0x00, 0x00, 0x00, 0x00, 0x00, 0x00, 0x00, 0x00, 0x00, 0x00, 0x00, 0x00, 0x00, 0x00, 
.................... 0x00, 0x00, 0x00, 0x00, 0x00, 0x00, 0x00, 0x00, 0x00, 0x00, 0x00, 0x00, 0x00, 0x00, 0x00, 0x00, 
.................... 0x00, 0x00, 0x00, 0x00, 0x00, 0x00, 0x00, 0x00, 0x00, 0x00, 0x00, 0x00, 0x00, 0x00, 0x00, 0x00, 
.................... 0x00, 0x00, 0x00, 0x00, 0x00, 0x00, 0x00, 0x00, 0x00, 0x00, 0x00, 0x00, 0x00, 0x00, 0x00, 0x00, 
.................... 0x00, 0x00, 0x00, 0x00, 0x00, 0x00, 0x00, 0x00, 0x00, 0x00, 0x00, 0x00, 0x00, 0x00, 0x00, 0x00, 
.................... 0x00, 0x00, 0x00, 0x00, 0x00, 0x00, 0x00, 0x00, 0x00, 0x00, 0x00, 0x00, 0x00, 0x00, 0x00, 0x00, 
.................... 0x00, 0x00, 0x00, 0x00, 0x00, 0x00, 0x00, 0x00, 0x00, 0x00, 0x00, 0x00, 0x00, 0x00, 0x00, 0x00, 
.................... 0x00, 0x00, 0x00, 0x00, 0x00, 0x00, 0x00, 0x00, 0x00, 0x00, 0x00, 0x00, 0x00, 0x00, 0x00, 0x00 
.................... }; 
....................  
.................... const int8 Tomai [64][16] = { 
.................... 0x00, 0x00, 0x00, 0x00, 0x00, 0x00, 0x00, 0x00, 0x00, 0x00, 0x00, 0x00, 0x00, 0x00, 0x00, 0x00, 
.................... 0x00, 0x00, 0x00, 0x00, 0x00, 0x00, 0x00, 0x00, 0x00, 0x00, 0x00, 0x00, 0x00, 0x00, 0x00, 0x00, 
.................... 0x00, 0x00, 0x00, 0x00, 0x00, 0x00, 0x00, 0x00, 0x00, 0x00, 0x00, 0x00, 0x00, 0x00, 0x00, 0x00, 
.................... 0x00, 0x00, 0x00, 0x00, 0x00, 0x00, 0x00, 0x00, 0x00, 0x00, 0x00, 0x00, 0x00, 0x00, 0x00, 0x00, 
.................... 0x00, 0x00, 0x00, 0x00, 0x00, 0x00, 0x00, 0x00, 0x00, 0x00, 0x00, 0x00, 0x00, 0x00, 0x00, 0x00, 
.................... 0x00, 0x00, 0x00, 0x00, 0x00, 0x00, 0x00, 0x00, 0x00, 0x00, 0x00, 0x00, 0x00, 0x00, 0x00, 0x00, 
.................... 0x00, 0x00, 0x00, 0x00, 0x00, 0x00, 0x00, 0x00, 0x00, 0x00, 0x00, 0x00, 0x00, 0x00, 0x00, 0x00, 
.................... 0x00, 0x00, 0x00, 0x00, 0x00, 0x00, 0x00, 0x00, 0x00, 0x00, 0x00, 0x00, 0x00, 0x00, 0x00, 0x00, 
.................... 0x00, 0x00, 0x00, 0x00, 0x00, 0x00, 0x00, 0x00, 0x00, 0x00, 0x00, 0x00, 0x00, 0x00, 0x00, 0x00, 
.................... 0x00, 0x00, 0x00, 0x00, 0x00, 0x00, 0x00, 0x00, 0x00, 0x00, 0x00, 0x00, 0x00, 0x00, 0x00, 0x00, 
.................... 0x00, 0x00, 0x00, 0x00, 0x00, 0x00, 0x00, 0x00, 0x00, 0x00, 0x00, 0x00, 0x00, 0x00, 0x00, 0x00, 
.................... 0x00, 0x00, 0x00, 0x00, 0x00, 0x00, 0x00, 0x00, 0x00, 0x00, 0x00, 0x00, 0x00, 0x00, 0x00, 0x00, 
.................... 0x00, 0x00, 0x00, 0x00, 0x00, 0x00, 0x00, 0x00, 0x00, 0x00, 0x00, 0x00, 0x00, 0x00, 0x00, 0x00, 
.................... 0x00, 0x00, 0x00, 0x00, 0x00, 0x00, 0x00, 0x00, 0x00, 0x00, 0x00, 0x00, 0x00, 0x00, 0x00, 0x00, 
.................... 0x00, 0x00, 0x00, 0x00, 0x00, 0x00, 0x00, 0x00, 0x00, 0x00, 0x00, 0x00, 0x00, 0x00, 0x00, 0x00, 
.................... 0x00, 0x00, 0x00, 0x00, 0x00, 0x00, 0x00, 0x00, 0x00, 0x00, 0x00, 0x00, 0x00, 0x00, 0x00, 0x00, 
.................... 0x00, 0x00, 0x00, 0x00, 0x00, 0x00, 0x00, 0x00, 0x00, 0x00, 0x00, 0x00, 0x00, 0x00, 0x00, 0x00, 
.................... 0x00, 0x00, 0x00, 0x00, 0x00, 0x00, 0x00, 0x00, 0x00, 0x00, 0x00, 0x00, 0x00, 0x00, 0x00, 0x00, 
.................... 0x00, 0x00, 0x00, 0x00, 0x00, 0x00, 0x00, 0x00, 0x00, 0x00, 0x00, 0x00, 0x00, 0x00, 0x00, 0x00, 
.................... 0x00, 0x00, 0x00, 0x00, 0x00, 0x00, 0x00, 0x00, 0x00, 0x00, 0x00, 0x00, 0x00, 0x00, 0x00, 0x00, 
.................... 0x00, 0x00, 0x00, 0x00, 0x00, 0x00, 0x00, 0x00, 0x00, 0x00, 0x00, 0x00, 0x00, 0x00, 0x00, 0x00, 
.................... 0x00, 0x00, 0x00, 0x00, 0x00, 0x00, 0x00, 0x00, 0x00, 0x00, 0x00, 0x00, 0x00, 0x00, 0x00, 0x00, 
.................... 0x00, 0x00, 0x00, 0x00, 0x00, 0x00, 0x00, 0x00, 0x00, 0x00, 0x00, 0x00, 0x00, 0x00, 0x00, 0x00, 
.................... 0x00, 0x00, 0x00, 0x00, 0x00, 0x00, 0x00, 0x00, 0x00, 0x00, 0x00, 0x00, 0x00, 0x00, 0x00, 0x00, 
.................... 0x00, 0x00, 0x00, 0x00, 0x00, 0x00, 0x00, 0x00, 0x00, 0x00, 0x00, 0x00, 0x00, 0x00, 0x00, 0x00, 
.................... 0x00, 0x00, 0x00, 0x00, 0x00, 0x00, 0x00, 0x00, 0x00, 0x00, 0x00, 0x00, 0x00, 0x00, 0x00, 0x00, 
.................... 0x00, 0x00, 0x00, 0x00, 0x00, 0x00, 0x00, 0x00, 0x00, 0x00, 0x00, 0x00, 0x00, 0x00, 0x00, 0x00, 
.................... 0x00, 0x00, 0x00, 0x00, 0x00, 0x00, 0x00, 0x00, 0x00, 0x00, 0x00, 0x00, 0x00, 0x00, 0x00, 0x00, 
.................... 0x00, 0x00, 0x00, 0x00, 0x00, 0x00, 0x00, 0x00, 0x00, 0x00, 0x00, 0x00, 0x00, 0x00, 0x00, 0x00, 
.................... 0x00, 0x00, 0x00, 0x00, 0x00, 0x00, 0x00, 0x00, 0x00, 0x00, 0x00, 0x00, 0x00, 0x00, 0x00, 0x00, 
.................... 0x00, 0x00, 0x00, 0x00, 0x00, 0x00, 0x00, 0x00, 0x00, 0x00, 0x00, 0x00, 0x00, 0x7F, 0xFF, 0xF8, 
.................... 0x00, 0x00, 0x00, 0x00, 0x00, 0x00, 0x00, 0x00, 0x00, 0x00, 0x00, 0x00, 0x00, 0x40, 0x00, 0x08, 
.................... 0x00, 0x00, 0x00, 0x00, 0x00, 0x00, 0x00, 0x00, 0x00, 0x00, 0x00, 0x00, 0x00, 0x47, 0x03, 0x88, 
.................... 0x00, 0x00, 0x00, 0x00, 0x00, 0x00, 0x00, 0x00, 0x00, 0x00, 0x00, 0x00, 0x00, 0x45, 0x02, 0x88, 
.................... 0x00, 0x00, 0x00, 0x00, 0x00, 0x00, 0x00, 0x00, 0x00, 0x00, 0x00, 0x00, 0x00, 0x45, 0x02, 0x88, 
.................... 0x00, 0x00, 0x00, 0x00, 0x00, 0x00, 0x00, 0x00, 0x00, 0x00, 0x00, 0x00, 0x00, 0x45, 0x02, 0x88, 
.................... 0x00, 0x00, 0x00, 0x00, 0x00, 0x00, 0x00, 0x00, 0x00, 0x00, 0x00, 0x00, 0x00, 0x45, 0x02, 0x88, 
.................... 0x00, 0x00, 0x00, 0x00, 0x00, 0x00, 0x00, 0x00, 0x00, 0x00, 0x00, 0x00, 0x00, 0x47, 0x03, 0x88, 
.................... 0x00, 0x00, 0x00, 0x00, 0x00, 0x00, 0x00, 0x00, 0x00, 0x00, 0x00, 0x00, 0x00, 0x40, 0x00, 0x08, 
.................... 0x00, 0x00, 0x00, 0x00, 0x00, 0x00, 0x00, 0x00, 0x00, 0x00, 0x00, 0x00, 0x00, 0x40, 0xFC, 0x08, 
.................... 0x00, 0x00, 0x00, 0x00, 0x00, 0x00, 0x00, 0x00, 0x00, 0x00, 0x00, 0x00, 0x00, 0x40, 0x84, 0x08, 
.................... 0x00, 0x00, 0x00, 0x00, 0x00, 0x00, 0x00, 0x00, 0x00, 0x00, 0x00, 0x00, 0x00, 0x40, 0x84, 0x08, 
.................... 0x00, 0x00, 0x00, 0x00, 0x00, 0x00, 0x00, 0x00, 0x00, 0x00, 0x00, 0x00, 0x00, 0x40, 0xFC, 0x08, 
.................... 0x00, 0x00, 0x00, 0x00, 0x00, 0x00, 0x00, 0x00, 0x00, 0x00, 0x00, 0x00, 0x00, 0x40, 0x00, 0x08, 
.................... 0x00, 0x00, 0x00, 0x00, 0x00, 0x00, 0x00, 0x00, 0x00, 0x00, 0x00, 0x00, 0x00, 0x7F, 0xFF, 0xF8, 
.................... 0x00, 0x00, 0x00, 0x00, 0x00, 0x00, 0x00, 0x00, 0x00, 0x00, 0x00, 0x00, 0x00, 0x00, 0x00, 0x00, 
.................... 0x00, 0x00, 0x00, 0x00, 0x00, 0x00, 0x00, 0x00, 0x00, 0x00, 0x00, 0x00, 0x00, 0x00, 0x00, 0x00, 
.................... 0x00, 0x00, 0x00, 0x00, 0x00, 0x00, 0x00, 0x00, 0x00, 0x00, 0x00, 0x00, 0x00, 0x00, 0x00, 0x00, 
.................... 0x00, 0x00, 0x00, 0x00, 0x00, 0x00, 0x00, 0x00, 0x00, 0x00, 0x00, 0x00, 0x00, 0x00, 0x00, 0x00, 
.................... 0x00, 0x00, 0x00, 0x00, 0x00, 0x00, 0x00, 0x00, 0x00, 0x00, 0x00, 0x00, 0x00, 0x00, 0x00, 0x00, 
.................... 0x00, 0x00, 0x00, 0x00, 0x00, 0x00, 0x00, 0x00, 0x00, 0x00, 0x00, 0x00, 0x00, 0x00, 0x00, 0x00, 
.................... 0x00, 0x00, 0x00, 0x00, 0x00, 0x00, 0x00, 0x00, 0x00, 0x00, 0x00, 0x00, 0x00, 0x00, 0x00, 0x00, 
.................... 0x00, 0x00, 0x00, 0x00, 0x00, 0x00, 0x00, 0x00, 0x00, 0x00, 0x00, 0x00, 0x00, 0x00, 0x00, 0x00, 
.................... 0x00, 0x00, 0x00, 0x00, 0x00, 0x00, 0x00, 0x00, 0x00, 0x00, 0x00, 0x00, 0x00, 0x00, 0x00, 0x00, 
.................... 0x00, 0x00, 0x00, 0x00, 0x00, 0x00, 0x00, 0x00, 0x00, 0x00, 0x00, 0x00, 0x00, 0x00, 0x00, 0x00, 
.................... 0x00, 0x00, 0x00, 0x00, 0x00, 0x00, 0x00, 0x00, 0x00, 0x00, 0x00, 0x00, 0x00, 0x00, 0x00, 0x00, 
.................... 0x00, 0x00, 0x00, 0x00, 0x00, 0x00, 0x00, 0x00, 0x00, 0x00, 0x00, 0x00, 0x00, 0x00, 0x00, 0x00, 
.................... 0x00, 0x00, 0x00, 0x00, 0x00, 0x00, 0x00, 0x00, 0x00, 0x00, 0x00, 0x00, 0x00, 0x00, 0x00, 0x00, 
.................... 0x00, 0x00, 0x00, 0x00, 0x00, 0x00, 0x00, 0x00, 0x00, 0x00, 0x00, 0x00, 0x00, 0x00, 0x00, 0x00, 
.................... 0x00, 0x00, 0x00, 0x00, 0x00, 0x00, 0x00, 0x00, 0x00, 0x00, 0x00, 0x00, 0x00, 0x00, 0x00, 0x00, 
.................... 0x00, 0x00, 0x00, 0x00, 0x00, 0x00, 0x00, 0x00, 0x00, 0x00, 0x00, 0x00, 0x00, 0x00, 0x00, 0x00, 
.................... 0x00, 0x00, 0x00, 0x00, 0x00, 0x00, 0x00, 0x00, 0x00, 0x00, 0x00, 0x00, 0x00, 0x00, 0x00, 0x00, 
.................... 0x00, 0x00, 0x00, 0x00, 0x00, 0x00, 0x00, 0x00, 0x00, 0x00, 0x00, 0x00, 0x00, 0x00, 0x00, 0x00, 
.................... 0x00, 0x00, 0x00, 0x00, 0x00, 0x00, 0x00, 0x00, 0x00, 0x00, 0x00, 0x00, 0x00, 0x00, 0x00, 0x00 
.................... }; 
....................  
.................... const int8 Ventilador [64][16] = { 
.................... 0x00, 0x00, 0x00, 0x00, 0x00, 0x00, 0x00, 0x00, 0x00, 0x00, 0x00, 0x00, 0x00, 0x00, 0x00, 0x00, 
.................... 0x00, 0x00, 0x00, 0x00, 0x00, 0x00, 0x00, 0x00, 0x00, 0x00, 0x00, 0x00, 0x00, 0x00, 0x00, 0x00, 
.................... 0x00, 0x00, 0x00, 0x00, 0x00, 0x00, 0x00, 0x00, 0x00, 0x00, 0x00, 0x00, 0x00, 0x00, 0x00, 0x00, 
.................... 0x00, 0x00, 0x00, 0x00, 0x00, 0x00, 0x00, 0x00, 0x00, 0x00, 0x00, 0x00, 0x00, 0x00, 0x00, 0x00, 
.................... 0x00, 0x00, 0x00, 0x00, 0x00, 0x00, 0x00, 0x00, 0x00, 0x00, 0x00, 0x00, 0x00, 0x00, 0x00, 0x00, 
.................... 0x00, 0x00, 0x00, 0x00, 0x00, 0x00, 0x00, 0x00, 0x00, 0x00, 0x00, 0x00, 0x00, 0x00, 0x00, 0x00, 
.................... 0x00, 0x00, 0x00, 0x00, 0x00, 0x00, 0x00, 0x00, 0x00, 0x00, 0x00, 0x00, 0x00, 0x00, 0x00, 0x00, 
.................... 0x00, 0x00, 0x00, 0x00, 0x00, 0x00, 0x00, 0x00, 0x00, 0x00, 0x00, 0x00, 0x00, 0x00, 0x00, 0x00, 
.................... 0x00, 0x00, 0x00, 0x00, 0x00, 0x00, 0x00, 0x00, 0x00, 0x00, 0x00, 0x00, 0x00, 0x00, 0x00, 0x00, 
.................... 0x00, 0x00, 0x00, 0x00, 0x00, 0x00, 0x00, 0x00, 0x00, 0x00, 0x00, 0x00, 0x00, 0x00, 0x00, 0x00, 
.................... 0x00, 0x00, 0x00, 0x00, 0x00, 0x00, 0x00, 0x00, 0x00, 0x00, 0x00, 0x00, 0x00, 0x00, 0x00, 0x00, 
.................... 0x00, 0x00, 0x00, 0x00, 0x00, 0x00, 0x00, 0x00, 0x00, 0x00, 0x00, 0x00, 0x00, 0x00, 0x00, 0x00, 
.................... 0x00, 0x00, 0x00, 0x00, 0x00, 0x00, 0x00, 0x00, 0x00, 0x00, 0x00, 0x00, 0x00, 0x00, 0x00, 0x00, 
.................... 0x00, 0x00, 0x00, 0x00, 0x00, 0x00, 0x00, 0x00, 0x00, 0x00, 0x00, 0x00, 0x00, 0x00, 0x00, 0x00, 
.................... 0x00, 0x00, 0x00, 0x00, 0x00, 0x00, 0x00, 0x00, 0x00, 0x00, 0x00, 0x00, 0x00, 0x00, 0x00, 0x00, 
.................... 0x00, 0x00, 0x00, 0x00, 0x00, 0x00, 0x00, 0x00, 0x00, 0x00, 0x00, 0x00, 0x00, 0x00, 0x00, 0x00, 
.................... 0x00, 0x00, 0x00, 0x00, 0x00, 0x00, 0x00, 0x00, 0x00, 0x00, 0x00, 0x00, 0x00, 0x00, 0x00, 0x00, 
.................... 0x00, 0x00, 0x00, 0x00, 0x00, 0x00, 0x00, 0x00, 0x00, 0x00, 0x00, 0x00, 0x00, 0x00, 0x00, 0x00, 
.................... 0x00, 0x00, 0x00, 0x00, 0x00, 0x00, 0x00, 0x00, 0x00, 0x00, 0x00, 0x00, 0x00, 0x00, 0x00, 0x00, 
.................... 0x00, 0x00, 0x00, 0x00, 0x00, 0x00, 0x00, 0x00, 0x00, 0x00, 0x00, 0x00, 0x00, 0x00, 0x00, 0x00, 
.................... 0x00, 0x00, 0x00, 0x00, 0x00, 0x00, 0x00, 0x00, 0x00, 0x00, 0x00, 0x00, 0x00, 0x00, 0x00, 0x00, 
.................... 0x00, 0x00, 0x00, 0x00, 0x00, 0x00, 0x00, 0x00, 0x00, 0x00, 0x00, 0x00, 0x00, 0x00, 0x00, 0x00, 
.................... 0x00, 0x00, 0x00, 0x00, 0x00, 0x00, 0x00, 0x00, 0x00, 0x00, 0x00, 0x00, 0x00, 0x00, 0x00, 0x00, 
.................... 0x00, 0x00, 0x00, 0x00, 0x00, 0x00, 0x00, 0x00, 0x00, 0x00, 0x00, 0x00, 0x00, 0x00, 0x00, 0x00, 
.................... 0x00, 0x00, 0x00, 0x00, 0x00, 0x00, 0x00, 0x00, 0x00, 0x00, 0x00, 0x00, 0x00, 0x00, 0x00, 0x00, 
.................... 0x00, 0x00, 0x00, 0x00, 0x00, 0x00, 0x00, 0x00, 0x00, 0x00, 0x00, 0x00, 0x00, 0x00, 0x00, 0x00, 
.................... 0x00, 0x00, 0x00, 0x00, 0x00, 0x00, 0x00, 0x00, 0x00, 0x00, 0x00, 0x00, 0x00, 0x00, 0x00, 0x00, 
.................... 0x00, 0x00, 0x00, 0x00, 0x00, 0x00, 0x00, 0x00, 0x00, 0x00, 0x00, 0x00, 0x00, 0x00, 0x00, 0x00, 
.................... 0x00, 0x00, 0x00, 0x00, 0x00, 0x00, 0x00, 0x00, 0x00, 0x00, 0x00, 0x00, 0x00, 0x00, 0x00, 0x00, 
.................... 0x00, 0x00, 0x00, 0x00, 0x00, 0x00, 0x00, 0x00, 0x00, 0x00, 0x00, 0x00, 0x00, 0x00, 0x00, 0x00, 
.................... 0x00, 0x00, 0x00, 0x00, 0x00, 0x00, 0x00, 0x00, 0x00, 0x00, 0x00, 0x00, 0x00, 0x00, 0x00, 0x00, 
.................... 0x00, 0x00, 0x00, 0x00, 0x00, 0x00, 0x00, 0x00, 0x00, 0x00, 0x00, 0x00, 0x00, 0x00, 0x00, 0x00, 
.................... 0x00, 0x00, 0x00, 0x00, 0x00, 0x00, 0x00, 0x00, 0x00, 0x00, 0x00, 0x00, 0x00, 0x00, 0x00, 0x00, 
.................... 0x00, 0x00, 0x00, 0x00, 0x00, 0x00, 0x00, 0x00, 0x00, 0x00, 0x00, 0x00, 0x00, 0x00, 0x00, 0x00, 
.................... 0x00, 0x00, 0x00, 0x00, 0x00, 0x00, 0x00, 0x00, 0x00, 0x00, 0x00, 0x00, 0x00, 0x00, 0x00, 0x00, 
.................... 0x00, 0x00, 0x00, 0x00, 0x00, 0x00, 0x00, 0x00, 0x00, 0x00, 0x00, 0x00, 0x00, 0x00, 0x00, 0x00, 
.................... 0x00, 0x00, 0x00, 0x00, 0x00, 0x00, 0x00, 0x00, 0x00, 0x00, 0x00, 0x00, 0x00, 0x00, 0x00, 0x00, 
.................... 0x00, 0x00, 0x00, 0x00, 0x00, 0x00, 0x00, 0x00, 0x00, 0x00, 0x00, 0x00, 0x00, 0x00, 0x00, 0x00, 
.................... 0x00, 0x00, 0x00, 0x00, 0x00, 0x00, 0x00, 0x00, 0x00, 0x00, 0x00, 0x00, 0x00, 0x00, 0x00, 0x00, 
.................... 0x00, 0x00, 0x00, 0x00, 0x00, 0x00, 0x00, 0x00, 0x00, 0x00, 0x00, 0x00, 0x00, 0x00, 0x00, 0x00, 
.................... 0x00, 0x00, 0x00, 0x00, 0x00, 0x00, 0x00, 0x00, 0x00, 0x00, 0x00, 0x00, 0x00, 0x00, 0x00, 0x00, 
.................... 0x00, 0x00, 0x00, 0x00, 0x00, 0x00, 0x00, 0x00, 0x00, 0x00, 0x00, 0x00, 0x00, 0x00, 0x00, 0x00, 
.................... 0x00, 0x00, 0x00, 0x00, 0x00, 0x00, 0x00, 0x00, 0x00, 0x00, 0x00, 0x00, 0x00, 0x00, 0x00, 0x00, 
.................... 0x00, 0x00, 0x00, 0x00, 0x00, 0x00, 0x00, 0x00, 0x00, 0x00, 0x00, 0x00, 0x00, 0x00, 0x00, 0x00, 
.................... 0x00, 0x00, 0x00, 0x00, 0x00, 0x00, 0x00, 0x00, 0x00, 0x00, 0x00, 0x00, 0x00, 0x00, 0x00, 0x00, 
.................... 0x00, 0x00, 0x00, 0x00, 0x00, 0x00, 0x00, 0x00, 0x00, 0x00, 0x00, 0x00, 0x00, 0x00, 0x00, 0x00, 
.................... 0x00, 0x00, 0x00, 0x00, 0x00, 0x00, 0x00, 0x00, 0x00, 0x00, 0x00, 0x00, 0x00, 0x00, 0x60, 0x00, 
.................... 0x00, 0x00, 0x00, 0x00, 0x00, 0x00, 0x00, 0x00, 0x00, 0x00, 0x00, 0x00, 0x00, 0x00, 0xF0, 0x00, 
.................... 0x00, 0x00, 0x00, 0x00, 0x00, 0x00, 0x00, 0x00, 0x00, 0x00, 0x00, 0x00, 0x00, 0x01, 0xF8, 0x00, 
.................... 0x00, 0x00, 0x00, 0x00, 0x00, 0x00, 0x00, 0x00, 0x00, 0x00, 0x00, 0x00, 0x00, 0x01, 0xF8, 0x00, 
.................... 0x00, 0x00, 0x00, 0x00, 0x00, 0x00, 0x00, 0x00, 0x00, 0x00, 0x00, 0x00, 0x00, 0x01, 0xF8, 0x00, 
.................... 0x00, 0x00, 0x00, 0x00, 0x00, 0x00, 0x00, 0x00, 0x00, 0x00, 0x00, 0x00, 0x00, 0x00, 0xF0, 0x00, 
.................... 0x00, 0x00, 0x00, 0x00, 0x00, 0x00, 0x00, 0x00, 0x00, 0x00, 0x00, 0x00, 0x00, 0x38, 0x71, 0xC0, 
.................... 0x00, 0x00, 0x00, 0x00, 0x00, 0x00, 0x00, 0x00, 0x00, 0x00, 0x00, 0x00, 0x00, 0x7C, 0x93, 0xE0, 
.................... 0x00, 0x00, 0x00, 0x00, 0x00, 0x00, 0x00, 0x00, 0x00, 0x00, 0x00, 0x00, 0x00, 0xFF, 0x0F, 0xF0, 
.................... 0x00, 0x00, 0x00, 0x00, 0x00, 0x00, 0x00, 0x00, 0x00, 0x00, 0x00, 0x00, 0x00, 0xFF, 0x0F, 0xF0, 
.................... 0x00, 0x00, 0x00, 0x00, 0x00, 0x00, 0x00, 0x00, 0x00, 0x00, 0x00, 0x00, 0x00, 0x7D, 0x93, 0xE0, 
.................... 0x00, 0x00, 0x00, 0x00, 0x00, 0x00, 0x00, 0x00, 0x00, 0x00, 0x00, 0x00, 0x00, 0x38, 0x61, 0xC0, 
.................... 0x00, 0x00, 0x00, 0x00, 0x00, 0x00, 0x00, 0x00, 0x00, 0x00, 0x00, 0x00, 0x00, 0x00, 0xF0, 0x00, 
.................... 0x00, 0x00, 0x00, 0x00, 0x00, 0x00, 0x00, 0x00, 0x00, 0x00, 0x00, 0x00, 0x00, 0x01, 0xF8, 0x00, 
.................... 0x00, 0x00, 0x00, 0x00, 0x00, 0x00, 0x00, 0x00, 0x00, 0x00, 0x00, 0x00, 0x00, 0x01, 0xF8, 0x00, 
.................... 0x00, 0x00, 0x00, 0x00, 0x00, 0x00, 0x00, 0x00, 0x00, 0x00, 0x00, 0x00, 0x00, 0x01, 0xF8, 0x00, 
.................... 0x00, 0x00, 0x00, 0x00, 0x00, 0x00, 0x00, 0x00, 0x00, 0x00, 0x00, 0x00, 0x00, 0x00, 0xF0, 0x00, 
.................... 0x00, 0x00, 0x00, 0x00, 0x00, 0x00, 0x00, 0x00, 0x00, 0x00, 0x00, 0x00, 0x00, 0x00, 0x60, 0x00 
.................... }; 
....................  
.................... #include "FuncionesDisplay.h" 
....................  
.................... typedef struct{ 
....................    char Letra[20]; 
.................... }MENUU; 
....................  
.................... MENUU Menus; 
....................   
.................... void displayContrasena(int digito, int x, int y, int sombreado) 
.................... { 
....................    char voltage[9]; 
....................    sprintf(voltage, "%i", digito); 
*
04CF0:  MOVLW  05
04CF2:  MOVLB  4
04CF4:  MOVWF  x2B
04CF6:  MOVLW  F0
04CF8:  MOVWF  x2A
04CFA:  MOVFF  5EC,5F9
04CFE:  MOVLW  1F
04D00:  MOVLB  5
04D02:  MOVWF  xFA
04D04:  MOVLB  0
04D06:  RCALL  4A04
....................     
....................    if(sombreado==1) 
04D08:  MOVLB  5
04D0A:  DECFSZ xEF,W
04D0C:  BRA    4D62
....................       {glcd_rect(x, y, x+18, y+24, YES, ON);glcd_text57(x+2, y+1, voltage, 2, OFF);} 
04D0E:  MOVLW  12
04D10:  ADDWF  xED,W
04D12:  MOVWF  xF9
04D14:  MOVLW  18
04D16:  ADDWF  xEE,W
04D18:  MOVWF  xFA
04D1A:  MOVFF  5ED,5FB
04D1E:  MOVFF  5EE,5FC
04D22:  MOVFF  5F9,5FD
04D26:  MOVWF  xFE
04D28:  MOVLW  01
04D2A:  MOVWF  xFF
04D2C:  MOVLB  6
04D2E:  MOVWF  x00
04D30:  MOVLB  0
04D32:  RCALL  4C28
04D34:  MOVLW  02
04D36:  MOVLB  5
04D38:  ADDWF  xED,W
04D3A:  MOVWF  xF9
04D3C:  MOVLW  01
04D3E:  ADDWF  xEE,W
04D40:  MOVWF  xFA
04D42:  MOVFF  5F9,5FB
04D46:  MOVWF  xFC
04D48:  MOVLW  05
04D4A:  MOVWF  xFE
04D4C:  MOVLW  F0
04D4E:  MOVWF  xFD
04D50:  MOVLW  02
04D52:  MOVWF  xFF
04D54:  MOVLB  6
04D56:  CLRF   x00
04D58:  MOVLB  0
04D5A:  CALL   17CA
....................    else    
04D5E:  BRA    4DB2
04D60:  MOVLB  5
....................       {glcd_rect(x, y, x+18, y+24, NO, OFF);glcd_text57(x+2, y+1, voltage, 2, ON);} 
04D62:  MOVLW  12
04D64:  ADDWF  xED,W
04D66:  MOVWF  xF9
04D68:  MOVLW  18
04D6A:  ADDWF  xEE,W
04D6C:  MOVWF  xFA
04D6E:  MOVFF  5ED,5FB
04D72:  MOVFF  5EE,5FC
04D76:  MOVFF  5F9,5FD
04D7A:  MOVWF  xFE
04D7C:  CLRF   xFF
04D7E:  MOVLB  6
04D80:  CLRF   x00
04D82:  MOVLB  0
04D84:  RCALL  4C28
04D86:  MOVLW  02
04D88:  MOVLB  5
04D8A:  ADDWF  xED,W
04D8C:  MOVWF  xF9
04D8E:  MOVLW  01
04D90:  ADDWF  xEE,W
04D92:  MOVWF  xFA
04D94:  MOVFF  5F9,5FB
04D98:  MOVWF  xFC
04D9A:  MOVLW  05
04D9C:  MOVWF  xFE
04D9E:  MOVLW  F0
04DA0:  MOVWF  xFD
04DA2:  MOVLW  02
04DA4:  MOVWF  xFF
04DA6:  MOVLW  01
04DA8:  MOVLB  6
04DAA:  MOVWF  x00
04DAC:  MOVLB  0
04DAE:  CALL   17CA
....................  
.................... } 
04DB2:  RETLW  00
....................  
.................... void displayTiempo(int digito, int x, int y, int sombreado, int tamano) 
.................... { 
....................    char voltage[9]; 
....................    sprintf(voltage, "%i", digito); 
*
05572:  MOVLW  05
05574:  MOVLB  4
05576:  MOVWF  x2B
05578:  MOVLW  E7
0557A:  MOVWF  x2A
0557C:  MOVFF  5E2,5F9
05580:  MOVLW  1F
05582:  MOVLB  5
05584:  MOVWF  xFA
05586:  MOVLB  0
05588:  CALL   4A04
....................     
....................    if(sombreado==1) 
0558C:  MOVLB  5
0558E:  DECFSZ xE5,W
05590:  BRA    55EE
....................       {glcd_rect(x, y, x+(tamano*6), y+(tamano*8), YES, ON);glcd_text57(x+2, y+1, voltage, tamano, OFF);} 
05592:  MOVF   xE6,W
05594:  MULLW  06
05596:  MOVF   FF3,W
05598:  ADDWF  xE3,W
0559A:  MOVWF  xF0
0559C:  MOVF   xE6,W
0559E:  MULLW  08
055A0:  MOVF   FF3,W
055A2:  ADDWF  xE4,W
055A4:  MOVWF  xF1
055A6:  MOVFF  5E3,5FB
055AA:  MOVFF  5E4,5FC
055AE:  MOVFF  5F0,5FD
055B2:  MOVWF  xFE
055B4:  MOVLW  01
055B6:  MOVWF  xFF
055B8:  MOVLB  6
055BA:  MOVWF  x00
055BC:  MOVLB  0
055BE:  CALL   4C28
055C2:  MOVLW  02
055C4:  MOVLB  5
055C6:  ADDWF  xE3,W
055C8:  MOVWF  xF0
055CA:  MOVLW  01
055CC:  ADDWF  xE4,W
055CE:  MOVWF  xF1
055D0:  MOVFF  5F0,5FB
055D4:  MOVWF  xFC
055D6:  MOVLW  05
055D8:  MOVWF  xFE
055DA:  MOVLW  E7
055DC:  MOVWF  xFD
055DE:  MOVFF  5E6,5FF
055E2:  MOVLB  6
055E4:  CLRF   x00
055E6:  MOVLB  0
055E8:  CALL   17CA
055EC:  MOVLB  5
....................    if(sombreado==0) 
055EE:  MOVF   xE5,F
055F0:  BNZ   5650
....................       {glcd_rect(x, y, x+(tamano*6), y+(tamano*8), YES, OFF);glcd_text57(x+2, y+1, voltage, tamano, ON);} 
055F2:  MOVF   xE6,W
055F4:  MULLW  06
055F6:  MOVF   FF3,W
055F8:  ADDWF  xE3,W
055FA:  MOVWF  xF0
055FC:  MOVF   xE6,W
055FE:  MULLW  08
05600:  MOVF   FF3,W
05602:  ADDWF  xE4,W
05604:  MOVWF  xF1
05606:  MOVFF  5E3,5FB
0560A:  MOVFF  5E4,5FC
0560E:  MOVFF  5F0,5FD
05612:  MOVWF  xFE
05614:  MOVLW  01
05616:  MOVWF  xFF
05618:  MOVLB  6
0561A:  CLRF   x00
0561C:  MOVLB  0
0561E:  CALL   4C28
05622:  MOVLW  02
05624:  MOVLB  5
05626:  ADDWF  xE3,W
05628:  MOVWF  xF0
0562A:  MOVLW  01
0562C:  ADDWF  xE4,W
0562E:  MOVWF  xF1
05630:  MOVFF  5F0,5FB
05634:  MOVWF  xFC
05636:  MOVLW  05
05638:  MOVWF  xFE
0563A:  MOVLW  E7
0563C:  MOVWF  xFD
0563E:  MOVFF  5E6,5FF
05642:  MOVLW  01
05644:  MOVLB  6
05646:  MOVWF  x00
05648:  MOVLB  0
0564A:  CALL   17CA
0564E:  MOVLB  5
....................  
.................... } 
05650:  MOVLB  0
05652:  RETLW  00
....................  
.................... void displayMenu(char palabra[100], int x, int y, int sombreado, int tamano) 
.................... { 
....................    strcpy(Menus.Letra,palabra); 
*
04DB4:  MOVLB  5
04DB6:  MOVFF  5EA,01
04DBA:  MOVFF  5EB,03
04DBE:  MOVFF  5EA,5F0
04DC2:  MOVFF  5EB,5F1
04DC6:  MOVLW  04
04DC8:  MOVWF  FEA
04DCA:  MOVLW  16
04DCC:  MOVWF  FE9
04DCE:  MOVFF  5EB,FE2
04DD2:  MOVFF  5EA,FE1
04DD6:  MOVF   FE7,F
04DD8:  MOVFF  FE6,FEE
04DDC:  BNZ   4DD6
....................    if(sombreado==1) 
04DDE:  DECFSZ xEE,W
04DE0:  BRA    4E32
....................       {glcd_rect(0, y, 127, y+(tamano*8), YES, ON);glcd_text57(x+1, y+1, Menus.Letra, tamano, OFF);} 
04DE2:  MOVF   xEF,W
04DE4:  MULLW  08
04DE6:  MOVF   FF3,W
04DE8:  ADDWF  xED,W
04DEA:  MOVWF  xF0
04DEC:  CLRF   xFB
04DEE:  MOVFF  5ED,5FC
04DF2:  MOVLW  7F
04DF4:  MOVWF  xFD
04DF6:  MOVFF  5F0,5FE
04DFA:  MOVLW  01
04DFC:  MOVWF  xFF
04DFE:  MOVLB  6
04E00:  MOVWF  x00
04E02:  MOVLB  0
04E04:  RCALL  4C28
04E06:  MOVLW  01
04E08:  MOVLB  5
04E0A:  ADDWF  xEC,W
04E0C:  MOVWF  xF0
04E0E:  MOVLW  01
04E10:  ADDWF  xED,W
04E12:  MOVWF  xF1
04E14:  MOVFF  5F0,5FB
04E18:  MOVWF  xFC
04E1A:  MOVLW  04
04E1C:  MOVWF  xFE
04E1E:  MOVLW  16
04E20:  MOVWF  xFD
04E22:  MOVFF  5EF,5FF
04E26:  MOVLB  6
04E28:  CLRF   x00
04E2A:  MOVLB  0
04E2C:  CALL   17CA
04E30:  MOVLB  5
....................    if(sombreado==0) 
04E32:  MOVF   xEE,F
04E34:  BNZ   4E88
....................       {glcd_rect(0, y, 127, y+(tamano*8), YES, OFF);glcd_text57(x+1, y+1, Menus.Letra, tamano, ON);} 
04E36:  MOVF   xEF,W
04E38:  MULLW  08
04E3A:  MOVF   FF3,W
04E3C:  ADDWF  xED,W
04E3E:  MOVWF  xF0
04E40:  CLRF   xFB
04E42:  MOVFF  5ED,5FC
04E46:  MOVLW  7F
04E48:  MOVWF  xFD
04E4A:  MOVFF  5F0,5FE
04E4E:  MOVLW  01
04E50:  MOVWF  xFF
04E52:  MOVLB  6
04E54:  CLRF   x00
04E56:  MOVLB  0
04E58:  RCALL  4C28
04E5A:  MOVLW  01
04E5C:  MOVLB  5
04E5E:  ADDWF  xEC,W
04E60:  MOVWF  xF0
04E62:  MOVLW  01
04E64:  ADDWF  xED,W
04E66:  MOVWF  xF1
04E68:  MOVFF  5F0,5FB
04E6C:  MOVWF  xFC
04E6E:  MOVLW  04
04E70:  MOVWF  xFE
04E72:  MOVLW  16
04E74:  MOVWF  xFD
04E76:  MOVFF  5EF,5FF
04E7A:  MOVLW  01
04E7C:  MOVLB  6
04E7E:  MOVWF  x00
04E80:  MOVLB  0
04E82:  CALL   17CA
04E86:  MOVLB  5
....................  
.................... } 
04E88:  MOVLB  0
04E8A:  RETLW  00
....................  
.................... void displayfloat2(float adc,int x,int y,int sombreado, int tamano) { 
....................    char voltage[9];     
....................       sprintf(voltage, "%2.0f C",adc); // Converts adc to text 
*
05BCC:  MOVLW  05
05BCE:  MOVLB  4
05BD0:  MOVWF  x2B
05BD2:  MOVLW  EE
05BD4:  MOVWF  x2A
05BD6:  MOVLW  01
05BD8:  MOVWF  FE9
05BDA:  MOVFF  5E9,5FA
05BDE:  MOVFF  5E8,5F9
05BE2:  MOVFF  5E7,5F8
05BE6:  MOVFF  5E6,5F7
05BEA:  MOVLB  5
05BEC:  CLRF   xFB
05BEE:  MOVLB  0
05BF0:  RCALL  5718
05BF2:  MOVLW  20
05BF4:  MOVLB  6
05BF6:  MOVWF  x04
05BF8:  MOVLB  0
05BFA:  CALL   49E2
05BFE:  MOVLW  43
05C00:  MOVLB  6
05C02:  MOVWF  x04
05C04:  MOVLB  0
05C06:  CALL   49E2
....................        
....................    if(sombreado==1) 
05C0A:  MOVLB  5
05C0C:  DECFSZ xEC,W
05C0E:  BRA    5C8C
....................       {glcd_rect(x, y, x+(tamano*20), y+(tamano*8), YES, ON);glcd_text57(x+2, y+1, voltage, tamano, OFF);glcd_circle(x+17,y+2,1,ON,OFF);} 
05C10:  MOVF   xED,W
05C12:  MULLW  14
05C14:  MOVF   FF3,W
05C16:  ADDWF  xEA,W
05C18:  MOVWF  xF7
05C1A:  MOVF   xED,W
05C1C:  MULLW  08
05C1E:  MOVF   FF3,W
05C20:  ADDWF  xEB,W
05C22:  MOVWF  xF8
05C24:  MOVFF  5EA,5FB
05C28:  MOVFF  5EB,5FC
05C2C:  MOVFF  5F7,5FD
05C30:  MOVWF  xFE
05C32:  MOVLW  01
05C34:  MOVWF  xFF
05C36:  MOVLB  6
05C38:  MOVWF  x00
05C3A:  MOVLB  0
05C3C:  CALL   4C28
05C40:  MOVLW  02
05C42:  MOVLB  5
05C44:  ADDWF  xEA,W
05C46:  MOVWF  xF7
05C48:  MOVLW  01
05C4A:  ADDWF  xEB,W
05C4C:  MOVWF  xF8
05C4E:  MOVFF  5F7,5FB
05C52:  MOVWF  xFC
05C54:  MOVLW  05
05C56:  MOVWF  xFE
05C58:  MOVLW  EE
05C5A:  MOVWF  xFD
05C5C:  MOVFF  5ED,5FF
05C60:  MOVLB  6
05C62:  CLRF   x00
05C64:  MOVLB  0
05C66:  CALL   17CA
05C6A:  MOVLW  11
05C6C:  MOVLB  5
05C6E:  ADDWF  xEA,W
05C70:  MOVWF  xF7
05C72:  MOVLW  02
05C74:  ADDWF  xEB,W
05C76:  MOVWF  xF8
05C78:  MOVFF  5F7,5F9
05C7C:  MOVWF  xFA
05C7E:  MOVLW  01
05C80:  MOVWF  xFB
05C82:  MOVWF  xFC
05C84:  CLRF   xFD
05C86:  MOVLB  0
05C88:  RCALL  5926
05C8A:  MOVLB  5
....................    if(sombreado==0) 
05C8C:  MOVF   xEC,F
05C8E:  BNZ   5D0E
....................       {glcd_rect(x, y, x+(tamano*20), y+(tamano*8), YES, OFF);glcd_text57(x+2, y+1, voltage, tamano, ON);glcd_circle(x+17,y+2,1,ON,ON);} 
05C90:  MOVF   xED,W
05C92:  MULLW  14
05C94:  MOVF   FF3,W
05C96:  ADDWF  xEA,W
05C98:  MOVWF  xF7
05C9A:  MOVF   xED,W
05C9C:  MULLW  08
05C9E:  MOVF   FF3,W
05CA0:  ADDWF  xEB,W
05CA2:  MOVWF  xF8
05CA4:  MOVFF  5EA,5FB
05CA8:  MOVFF  5EB,5FC
05CAC:  MOVFF  5F7,5FD
05CB0:  MOVWF  xFE
05CB2:  MOVLW  01
05CB4:  MOVWF  xFF
05CB6:  MOVLB  6
05CB8:  CLRF   x00
05CBA:  MOVLB  0
05CBC:  CALL   4C28
05CC0:  MOVLW  02
05CC2:  MOVLB  5
05CC4:  ADDWF  xEA,W
05CC6:  MOVWF  xF7
05CC8:  MOVLW  01
05CCA:  ADDWF  xEB,W
05CCC:  MOVWF  xF8
05CCE:  MOVFF  5F7,5FB
05CD2:  MOVWF  xFC
05CD4:  MOVLW  05
05CD6:  MOVWF  xFE
05CD8:  MOVLW  EE
05CDA:  MOVWF  xFD
05CDC:  MOVFF  5ED,5FF
05CE0:  MOVLW  01
05CE2:  MOVLB  6
05CE4:  MOVWF  x00
05CE6:  MOVLB  0
05CE8:  CALL   17CA
05CEC:  MOVLW  11
05CEE:  MOVLB  5
05CF0:  ADDWF  xEA,W
05CF2:  MOVWF  xF7
05CF4:  MOVLW  02
05CF6:  ADDWF  xEB,W
05CF8:  MOVWF  xF8
05CFA:  MOVFF  5F7,5F9
05CFE:  MOVWF  xFA
05D00:  MOVLW  01
05D02:  MOVWF  xFB
05D04:  MOVWF  xFC
05D06:  MOVWF  xFD
05D08:  MOVLB  0
05D0A:  RCALL  5926
05D0C:  MOVLB  5
....................        
.................... } 
05D0E:  MOVLB  0
05D10:  GOTO   740E (RETURN)
....................  
.................... void displayfloat(float adc,int x,int y,int sombreado, int tamano) { 
....................    char voltage[9];     
....................       sprintf(voltage, "%2.2f ",adc); // Converts adc to text 
*
05F40:  MOVLW  05
05F42:  MOVLB  4
05F44:  MOVWF  x2B
05F46:  MOVLW  EE
05F48:  MOVWF  x2A
05F4A:  MOVLW  89
05F4C:  MOVWF  FE9
05F4E:  MOVFF  5E9,5FA
05F52:  MOVFF  5E8,5F9
05F56:  MOVFF  5E7,5F8
05F5A:  MOVFF  5E6,5F7
05F5E:  MOVLW  02
05F60:  MOVLB  5
05F62:  MOVWF  xFB
05F64:  MOVLB  0
05F66:  CALL   5718
05F6A:  MOVLW  20
05F6C:  MOVLB  6
05F6E:  MOVWF  x04
05F70:  MOVLB  0
05F72:  CALL   49E2
....................        
....................    if(sombreado==1) 
05F76:  MOVLB  5
05F78:  DECFSZ xEC,W
05F7A:  BRA    5FD8
....................       {glcd_rect(x, y, x+(tamano*20), y+(tamano*8), YES, ON);glcd_text57(x+2, y+1, voltage, tamano, OFF);} 
05F7C:  MOVF   xED,W
05F7E:  MULLW  14
05F80:  MOVF   FF3,W
05F82:  ADDWF  xEA,W
05F84:  MOVWF  xF7
05F86:  MOVF   xED,W
05F88:  MULLW  08
05F8A:  MOVF   FF3,W
05F8C:  ADDWF  xEB,W
05F8E:  MOVWF  xF8
05F90:  MOVFF  5EA,5FB
05F94:  MOVFF  5EB,5FC
05F98:  MOVFF  5F7,5FD
05F9C:  MOVWF  xFE
05F9E:  MOVLW  01
05FA0:  MOVWF  xFF
05FA2:  MOVLB  6
05FA4:  MOVWF  x00
05FA6:  MOVLB  0
05FA8:  CALL   4C28
05FAC:  MOVLW  02
05FAE:  MOVLB  5
05FB0:  ADDWF  xEA,W
05FB2:  MOVWF  xF7
05FB4:  MOVLW  01
05FB6:  ADDWF  xEB,W
05FB8:  MOVWF  xF8
05FBA:  MOVFF  5F7,5FB
05FBE:  MOVWF  xFC
05FC0:  MOVLW  05
05FC2:  MOVWF  xFE
05FC4:  MOVLW  EE
05FC6:  MOVWF  xFD
05FC8:  MOVFF  5ED,5FF
05FCC:  MOVLB  6
05FCE:  CLRF   x00
05FD0:  MOVLB  0
05FD2:  CALL   17CA
05FD6:  MOVLB  5
....................    if(sombreado==0) 
05FD8:  MOVF   xEC,F
05FDA:  BNZ   603A
....................       {glcd_rect(x, y, x+(tamano*20), y+(tamano*8), YES, OFF);glcd_text57(x+2, y+1, voltage, tamano, ON);} 
05FDC:  MOVF   xED,W
05FDE:  MULLW  14
05FE0:  MOVF   FF3,W
05FE2:  ADDWF  xEA,W
05FE4:  MOVWF  xF7
05FE6:  MOVF   xED,W
05FE8:  MULLW  08
05FEA:  MOVF   FF3,W
05FEC:  ADDWF  xEB,W
05FEE:  MOVWF  xF8
05FF0:  MOVFF  5EA,5FB
05FF4:  MOVFF  5EB,5FC
05FF8:  MOVFF  5F7,5FD
05FFC:  MOVWF  xFE
05FFE:  MOVLW  01
06000:  MOVWF  xFF
06002:  MOVLB  6
06004:  CLRF   x00
06006:  MOVLB  0
06008:  CALL   4C28
0600C:  MOVLW  02
0600E:  MOVLB  5
06010:  ADDWF  xEA,W
06012:  MOVWF  xF7
06014:  MOVLW  01
06016:  ADDWF  xEB,W
06018:  MOVWF  xF8
0601A:  MOVFF  5F7,5FB
0601E:  MOVWF  xFC
06020:  MOVLW  05
06022:  MOVWF  xFE
06024:  MOVLW  EE
06026:  MOVWF  xFD
06028:  MOVFF  5ED,5FF
0602C:  MOVLW  01
0602E:  MOVLB  6
06030:  MOVWF  x00
06032:  MOVLB  0
06034:  CALL   17CA
06038:  MOVLB  5
....................        
.................... } 
0603A:  MOVLB  0
0603C:  RETLW  00
....................  
.................... // Funcion para conversor analogo-digital 
.................... unsigned int16 sensores(int x){ 
.................... unsigned int16 y;set_adc_channel(x);delay_ms(1);y=read_adc();return (y); 
*
02F3E:  MOVLB  5
02F40:  RLCF   xF3,W
02F42:  MOVWF  00
02F44:  RLCF   00,F
02F46:  MOVLW  FC
02F48:  ANDWF  00,F
02F4A:  MOVFF  00,01
02F4E:  MOVF   FC2,W
02F50:  ANDLW  C3
02F52:  IORWF  00,W
02F54:  MOVWF  FC2
02F56:  MOVLW  01
02F58:  MOVWF  xF6
02F5A:  MOVLB  0
02F5C:  CALL   1474
02F60:  BSF    FC2.1
02F62:  BTFSC  FC2.1
02F64:  BRA    2F62
02F66:  MOVFF  FC4,5F5
02F6A:  MOVLB  5
02F6C:  MOVFF  FC3,5F4
02F70:  MOVFF  5F4,01
02F74:  MOVFF  5F5,02
.................... } 
02F78:  MOVLB  0
02F7A:  RETLW  00
....................  
....................  
.................... #define   UP               !input(PIN_A5) 
.................... #define   DOWN             !input(PIN_E0) 
.................... #define   RIGHT            !input(PIN_E1) 
.................... #define   LEFT             !input(PIN_E2) 
.................... #define   VIDRIOUP         !input(PIN_A4) 
.................... #define   VIDRIODN         !input(PIN_A3) 
....................  
.................... #define   Alarma_on           output_bit(PIN_C7,1) 
.................... #define   Alarma_off          output_bit(PIN_C7,0) 
.................... #define   LuzBlanca_on        output_bit(PIN_C0,1) 
.................... #define   LuzBlanca_off       output_bit(PIN_C0,0) 
.................... #define   LuzUV_on            output_bit(PIN_C1,1) 
.................... #define   LuzUV_off           output_bit(PIN_C1,0) 
.................... #define   Motor_on            output_bit(PIN_C2,1) 
.................... #define   Motor_off           output_bit(PIN_C2,0) 
.................... #define   Display_on          output_bit(PIN_B1,1) 
.................... #define   Display_off         output_bit(PIN_B1,0) 
....................  
.................... #define   PresDownFlow 2 
....................  
.................... short Flanco=0,Flanco1=0,Flanco2=0,Flanco3=0,Flanco4=0,Flanco5=0,imprimir=0,flag_blower=0,flag_toma=0,flag_luz=0,flag_alarma=0,w=0; 
.................... short tiempo_purga=0,tiempo_trabajo=0,flag_latencia=0,flag_uv=0,tiempo_uv=0,guardauv=0,tiempocumplido=1; 
.................... short guardatrabajo=0,Lectura=0,n=0; 
.................... char  JP[] = "JP Inglobal", Cabina[] = "Cabina Flujo Laminar",Dos_puntos[]=":"; 
.................... char  Clase[] = "   PCR", Tiempo[] = "Tiempo de Purga",UV[]="UV"; 
.................... char  Inflowt[] = "Vel:",Downflowt[] = "T:", ZF[] = "Fabrica:208.0", ZA[] = "Actual:",AJ[]="Ajuste:"; 
.................... char  Vida_Filtro[] = "Filtro:",ZFP[] = "Fabrica:235.0", Perdida[]="!Filtro Saturado!", Tempo[]="Tempo UV:",Vida_UV[] = "UVLife:"; 
.................... int8 Menu=200, unidad=1, Opcion=1,negativo=10,G_l=0,G_h=0,tiemporeset=0; 
.................... int8 q=0,r=0,l=0,h=0,Entero=0,Decimal1=0,Alarma=10; 
....................  
.................... unsigned int16 Inflow_adc=0,Filtro_Downflow_adc=0,Temporal1=0,segundos_uv=0; 
....................  
.................... int16 t_latencia=0,minutos_uv=0,minutos_trabajo=0,G16=0; 
.................... signed int  Tpurga[4]={0,0,0,0};       // Tiempo de Purga transcurrido 
.................... signed int  Tpurgap[4]={9,0,0,0};      // Tiempo de Purga programado 
.................... signed int  Tppurgap[4]={9,0,0,0};     // Tiempo de Post-Purga programado 
.................... signed int  Tuv[4]={0,0,0,0};          // Tiempo de UV transcurrido(en Horas) 
.................... signed int  Tempouvp[4]={0,0,0,0};        // Tiempo de UV transcurrido 
.................... signed int  Tempouv[4]={0,0,0,0};         // Tiempo de UV transcurrido 
.................... signed int  Ttrabajo[4]={0,0,0,0};        // Tiempo de trabajo transcurrido (en Horas) 
.................... signed int  Contrasena[4]={0,0,0,0};      // Contrasena de 4 digitos 
.................... signed int  Password[4]={0,0,0,0};        // Contrasena Almacenada de 4 digitos 
.................... float Inflow=0.0,Downflow=0.0,Filtro_Downflow=0.0,Diferencia=0.0,barra=0.0,barra_old=0.0; 
.................... float Velocidad=0.0,x_uno=0.0,x_cuadrado=0.0,x_cubo=0.0,Ajuste1=0.0,Ajuste2=0.0; 
.................... float Temporal=0.0,Temporal2=0.0; 
.................... float a=0.00000957915546738639,b=-0.00727819571978831,c= 1.85375754678451,d= -156.816806902063; 
.................... //float t=378.463968402560,f=-18275.0402762787;//Sensor 2 Posible bueno 
....................  
.................... float promedio[8]={0.0,0.0,0.0,0.0,0.0,0.0,0.0,0.0}; 
.................... float promedio2[8]={0.0,0.0,0.0,0.0,0.0,0.0,0.0,0.0}; 
.................... float PromPresion[8]={0.0,0.0,0.0,0.0,0.0,0.0,0.0,0.0}; 
.................... float Flujo=0.0,zero_fabrica=208.0,zero_actual=0.0; 
.................... float V1=0.0,Presion=0.0,G=2.0; 
....................  
.................... int16 pulsos=0,retardo=0; 
.................... int8 i=0,l2=0,h2=0,Temperatura=0; 
.................... short Cruce=OFF,Purga=OFF; 
.................... int16 tiempocruce=0; 
.................... int8 Porcentaje=0,VelMotor=0; 
.................... float Tcruce=0.0,Tcruce2=0; 
....................  
.................... #include "Funciones.h" 
.................... float Leer_Sensor_Presion(int media){ 
*
0479A:  MOVLB  5
0479C:  CLRF   xE6
0479E:  CLRF   xE5
047A0:  CLRF   xE4
047A2:  CLRF   xE3
....................    float promediopresion=0.0; 
....................     
....................    Filtro_Downflow_adc=sensores(PresDownFlow); 
047A4:  MOVLW  02
047A6:  MOVWF  xF3
047A8:  MOVLB  0
047AA:  CALL   2F3E
047AE:  MOVFF  02,4DD
047B2:  MOVFF  01,4DC
....................    V1=Filtro_Downflow_adc;  
047B6:  MOVFF  4DD,618
047BA:  MOVFF  4DC,617
047BE:  CALL   19A0
047C2:  MOVFF  03,5C5
047C6:  MOVFF  02,5C4
047CA:  MOVFF  01,5C3
047CE:  MOVFF  00,5C2
....................    //V1 = (x_uno*5.0)/1023.0;   //Lectura de Divisor de Voltaje de PT100 con resistencia de 1k (+-10%) 
....................    Presion=(V1/G)-1.0;// Presion=(Voltaje/Ganancia)-1 
047D2:  MOVFF  5C5,616
047D6:  MOVFF  5C4,615
047DA:  MOVFF  5C3,614
047DE:  MOVFF  5C2,613
047E2:  MOVFF  5CD,61A
047E6:  MOVFF  5CC,619
047EA:  MOVFF  5CB,618
047EE:  MOVFF  5CA,617
047F2:  CALL   19D6
047F6:  MOVFF  00,5E7
047FA:  MOVFF  01,5E8
047FE:  MOVFF  02,5E9
04802:  MOVFF  03,5EA
04806:  BSF    FD8.1
04808:  MOVFF  03,61A
0480C:  MOVFF  02,619
04810:  MOVFF  01,618
04814:  MOVFF  00,617
04818:  MOVLB  6
0481A:  CLRF   x1E
0481C:  CLRF   x1D
0481E:  CLRF   x1C
04820:  MOVLW  7F
04822:  MOVWF  x1B
04824:  MOVLB  0
04826:  CALL   1B34
0482A:  MOVFF  03,5C9
0482E:  MOVFF  02,5C8
04832:  MOVFF  01,5C7
04836:  MOVFF  00,5C6
....................     
....................    if(Presion<0.0) 
0483A:  MOVFF  5C9,616
0483E:  MOVFF  5C8,615
04842:  MOVFF  5C7,614
04846:  MOVFF  5C6,613
0484A:  MOVLB  6
0484C:  CLRF   x1A
0484E:  CLRF   x19
04850:  CLRF   x18
04852:  CLRF   x17
04854:  MOVLB  0
04856:  CALL   2538
0485A:  BNC   4866
....................    { 
....................       Presion=0.0; 
0485C:  MOVLB  5
0485E:  CLRF   xC9
04860:  CLRF   xC8
04862:  CLRF   xC7
04864:  CLRF   xC6
....................    } 
....................  
....................    if(r>media-1) 
04866:  MOVLW  01
04868:  MOVLB  5
0486A:  SUBWF  xE2,W
0486C:  MOVLB  4
0486E:  SUBWF  xD4,W
04870:  BZ    4876
04872:  BNC   4876
....................    {r=0;} 
04874:  CLRF   xD4
....................    PromPresion[r]=Presion*4.02;r++; 
04876:  MOVF   xD4,W
04878:  MULLW  04
0487A:  MOVF   FF3,W
0487C:  CLRF   03
0487E:  ADDLW  96
04880:  MOVWF  FE9
04882:  MOVLW  05
04884:  ADDWFC 03,W
04886:  MOVWF  FEA
04888:  MOVFF  5C9,616
0488C:  MOVFF  5C8,615
04890:  MOVFF  5C7,614
04894:  MOVFF  5C6,613
04898:  MOVLW  D7
0489A:  MOVLB  6
0489C:  MOVWF  x1A
0489E:  MOVLW  A3
048A0:  MOVWF  x19
048A2:  CLRF   x18
048A4:  MOVLW  81
048A6:  MOVWF  x17
048A8:  MOVLB  0
048AA:  CALL   2FB8
048AE:  MOVFF  00,FEF
048B2:  MOVFF  01,FEC
048B6:  MOVFF  02,FEC
048BA:  MOVFF  03,FEC
048BE:  MOVLB  4
048C0:  INCF   xD4,F
....................           
....................    for(q=0;q<=(media-1);q++) 
048C2:  CLRF   xD3
048C4:  MOVLW  01
048C6:  MOVLB  5
048C8:  SUBWF  xE2,W
048CA:  MOVLB  4
048CC:  SUBWF  xD3,W
048CE:  BZ    48D2
048D0:  BC    4942
....................    { 
....................       promediopresion+=PromPresion[q]; 
048D2:  MOVF   xD3,W
048D4:  MULLW  04
048D6:  MOVF   FF3,W
048D8:  CLRF   03
048DA:  ADDLW  96
048DC:  MOVWF  FE9
048DE:  MOVLW  05
048E0:  ADDWFC 03,W
048E2:  MOVWF  FEA
048E4:  MOVFF  FEF,00
048E8:  MOVFF  FEC,01
048EC:  MOVFF  FEC,02
048F0:  MOVFF  FEC,03
048F4:  MOVFF  FEA,5E8
048F8:  MOVFF  FE9,5E7
048FC:  BCF    FD8.1
048FE:  MOVFF  5E6,61A
04902:  MOVFF  5E5,619
04906:  MOVFF  5E4,618
0490A:  MOVFF  5E3,617
0490E:  MOVFF  03,61E
04912:  MOVFF  02,61D
04916:  MOVFF  01,61C
0491A:  MOVFF  00,61B
0491E:  MOVLB  0
04920:  CALL   1B34
04924:  MOVFF  5E8,FEA
04928:  MOVFF  5E7,FE9
0492C:  MOVFF  03,5E6
04930:  MOVFF  02,5E5
04934:  MOVFF  01,5E4
04938:  MOVFF  00,5E3
....................    }  
0493C:  MOVLB  4
0493E:  INCF   xD3,F
04940:  BRA    48C4
....................    promediopresion=promediopresion/media;    
04942:  MOVLB  6
04944:  CLRF   x18
04946:  MOVFF  5E2,617
0494A:  MOVLB  0
0494C:  CALL   19A0
04950:  MOVFF  5E6,616
04954:  MOVFF  5E5,615
04958:  MOVFF  5E4,614
0495C:  MOVFF  5E3,613
04960:  MOVFF  03,61A
04964:  MOVFF  02,619
04968:  MOVFF  01,618
0496C:  MOVFF  00,617
04970:  CALL   19D6
04974:  MOVFF  03,5E6
04978:  MOVFF  02,5E5
0497C:  MOVFF  01,5E4
04980:  MOVFF  00,5E3
....................     
....................    return promediopresion*Ajuste2; 
04984:  MOVFF  5E6,616
04988:  MOVFF  5E5,615
0498C:  MOVFF  5E4,614
04990:  MOVFF  5E3,613
04994:  MOVFF  53D,61A
04998:  MOVFF  53C,619
0499C:  MOVFF  53B,618
049A0:  MOVFF  53A,617
049A4:  CALL   2FB8
.................... } 
049A8:  GOTO   66BC (RETURN)
....................  
.................... float leeTemperatura(int8 media){ 
*
045CA:  MOVLB  5
045CC:  CLRF   xE6
045CE:  CLRF   xE5
045D0:  CLRF   xE4
045D2:  CLRF   xE3
045D4:  CLRF   xEA
045D6:  CLRF   xE9
045D8:  CLRF   xE8
045DA:  CLRF   xE7
045DC:  CLRF   xEE
045DE:  CLRF   xED
045E0:  CLRF   xEC
045E2:  CLRF   xEB
045E4:  CLRF   xF2
045E6:  CLRF   xF1
045E8:  CLRF   xF0
045EA:  CLRF   xEF
....................    float ADC=0,V=0,T=0,Tempera=0; 
....................    ADC=sensores(0); 
045EC:  CLRF   xF3
045EE:  MOVLB  0
045F0:  CALL   2F3E
045F4:  MOVFF  02,618
045F8:  MOVFF  01,617
045FC:  CALL   19A0
04600:  MOVFF  03,5E6
04604:  MOVFF  02,5E5
04608:  MOVFF  01,5E4
0460C:  MOVFF  00,5E3
....................    V=5*ADC/1023; 
04610:  MOVLB  6
04612:  CLRF   x16
04614:  CLRF   x15
04616:  MOVLW  20
04618:  MOVWF  x14
0461A:  MOVLW  81
0461C:  MOVWF  x13
0461E:  MOVFF  5E6,61A
04622:  MOVFF  5E5,619
04626:  MOVFF  5E4,618
0462A:  MOVFF  5E3,617
0462E:  MOVLB  0
04630:  CALL   2FB8
04634:  MOVFF  00,5F3
04638:  MOVFF  01,5F4
0463C:  MOVFF  02,5F5
04640:  MOVFF  03,5F6
04644:  MOVFF  03,616
04648:  MOVFF  02,615
0464C:  MOVFF  01,614
04650:  MOVFF  00,613
04654:  MOVLB  6
04656:  CLRF   x1A
04658:  MOVLW  C0
0465A:  MOVWF  x19
0465C:  MOVLW  7F
0465E:  MOVWF  x18
04660:  MOVLW  88
04662:  MOVWF  x17
04664:  MOVLB  0
04666:  CALL   19D6
0466A:  MOVFF  03,5EA
0466E:  MOVFF  02,5E9
04672:  MOVFF  01,5E8
04676:  MOVFF  00,5E7
....................    T=V/0.01; 
0467A:  MOVFF  5EA,616
0467E:  MOVFF  5E9,615
04682:  MOVFF  5E8,614
04686:  MOVFF  5E7,613
0468A:  MOVLW  0A
0468C:  MOVLB  6
0468E:  MOVWF  x1A
04690:  MOVLW  D7
04692:  MOVWF  x19
04694:  MOVLW  23
04696:  MOVWF  x18
04698:  MOVLW  78
0469A:  MOVWF  x17
0469C:  MOVLB  0
0469E:  CALL   19D6
046A2:  MOVFF  03,5EE
046A6:  MOVFF  02,5ED
046AA:  MOVFF  01,5EC
046AE:  MOVFF  00,5EB
....................    if(l2>media) 
046B2:  MOVLB  5
046B4:  MOVF   xD3,W
046B6:  SUBWF  xE2,W
046B8:  BC    46BC
....................       l2=0; 
046BA:  CLRF   xD3
....................        
....................    promedio2[l2]=T;l2++; 
046BC:  MOVF   xD3,W
046BE:  MULLW  04
046C0:  MOVF   FF3,W
046C2:  CLRF   03
046C4:  ADDLW  76
046C6:  MOVWF  FE9
046C8:  MOVLW  05
046CA:  ADDWFC 03,W
046CC:  MOVWF  FEA
046CE:  MOVFF  5EB,FEF
046D2:  MOVFF  5EC,FEC
046D6:  MOVFF  5ED,FEC
046DA:  MOVFF  5EE,FEC
046DE:  INCF   xD3,F
....................    Tempera=0; 
046E0:  CLRF   xF2
046E2:  CLRF   xF1
046E4:  CLRF   xF0
046E6:  CLRF   xEF
....................       
....................      for(h2=0;h2<=(media-1);h2++){ 
046E8:  CLRF   xD4
046EA:  MOVLW  01
046EC:  SUBWF  xE2,W
046EE:  SUBWF  xD4,W
046F0:  BZ    46F4
046F2:  BC    4764
....................         Tempera+=promedio2[h2]; 
046F4:  MOVF   xD4,W
046F6:  MULLW  04
046F8:  MOVF   FF3,W
046FA:  CLRF   03
046FC:  ADDLW  76
046FE:  MOVWF  FE9
04700:  MOVLW  05
04702:  ADDWFC 03,W
04704:  MOVWF  FEA
04706:  MOVFF  FEF,00
0470A:  MOVFF  FEC,01
0470E:  MOVFF  FEC,02
04712:  MOVFF  FEC,03
04716:  MOVFF  FEA,5F4
0471A:  MOVFF  FE9,5F3
0471E:  BCF    FD8.1
04720:  MOVFF  5F2,61A
04724:  MOVFF  5F1,619
04728:  MOVFF  5F0,618
0472C:  MOVFF  5EF,617
04730:  MOVFF  03,61E
04734:  MOVFF  02,61D
04738:  MOVFF  01,61C
0473C:  MOVFF  00,61B
04740:  MOVLB  0
04742:  CALL   1B34
04746:  MOVFF  5F4,FEA
0474A:  MOVFF  5F3,FE9
0474E:  MOVFF  03,5F2
04752:  MOVFF  02,5F1
04756:  MOVFF  01,5F0
0475A:  MOVFF  00,5EF
....................      }       
0475E:  MOVLB  5
04760:  INCF   xD4,F
04762:  BRA    46EA
....................    return Tempera/media; 
04764:  MOVLB  6
04766:  CLRF   x18
04768:  MOVFF  5E2,617
0476C:  MOVLB  0
0476E:  CALL   19A0
04772:  MOVFF  5F2,616
04776:  MOVFF  5F1,615
0477A:  MOVFF  5F0,614
0477E:  MOVFF  5EF,613
04782:  MOVFF  03,61A
04786:  MOVFF  02,619
0478A:  MOVFF  01,618
0478E:  MOVFF  00,617
04792:  CALL   19D6
.................... } 
04796:  GOTO   6698 (RETURN)
....................  
.................... void LeeEEPROM(void){ 
....................    Password[0]=read_eeprom(0); 
*
01DAC:  MOVFF  FF2,5E2
01DB0:  BCF    FF2.7
01DB2:  CLRF   FAA
01DB4:  CLRF   FA9
01DB6:  BCF    FA6.6
01DB8:  BCF    FA6.7
01DBA:  BSF    FA6.0
01DBC:  MOVF   FA8,W
01DBE:  MOVLB  5
01DC0:  BTFSC  xE2.7
01DC2:  BSF    FF2.7
01DC4:  MOVWF  x0A
....................    delay_ms(10); 
01DC6:  MOVLW  0A
01DC8:  MOVWF  xF6
01DCA:  MOVLB  0
01DCC:  CALL   1474
....................    Password[1]=read_eeprom(1); 
01DD0:  MOVFF  FF2,5E2
01DD4:  BCF    FF2.7
01DD6:  CLRF   FAA
01DD8:  MOVLW  01
01DDA:  MOVWF  FA9
01DDC:  BCF    FA6.6
01DDE:  BCF    FA6.7
01DE0:  BSF    FA6.0
01DE2:  MOVF   FA8,W
01DE4:  MOVLB  5
01DE6:  BTFSC  xE2.7
01DE8:  BSF    FF2.7
01DEA:  MOVWF  x0B
....................    delay_ms(10); 
01DEC:  MOVLW  0A
01DEE:  MOVWF  xF6
01DF0:  MOVLB  0
01DF2:  CALL   1474
....................    Password[2]=read_eeprom(2); 
01DF6:  MOVFF  FF2,5E2
01DFA:  BCF    FF2.7
01DFC:  CLRF   FAA
01DFE:  MOVLW  02
01E00:  MOVWF  FA9
01E02:  BCF    FA6.6
01E04:  BCF    FA6.7
01E06:  BSF    FA6.0
01E08:  MOVF   FA8,W
01E0A:  MOVLB  5
01E0C:  BTFSC  xE2.7
01E0E:  BSF    FF2.7
01E10:  MOVWF  x0C
....................    delay_ms(10); 
01E12:  MOVLW  0A
01E14:  MOVWF  xF6
01E16:  MOVLB  0
01E18:  CALL   1474
....................    Password[3]=read_eeprom(3); 
01E1C:  MOVFF  FF2,5E2
01E20:  BCF    FF2.7
01E22:  CLRF   FAA
01E24:  MOVLW  03
01E26:  MOVWF  FA9
01E28:  BCF    FA6.6
01E2A:  BCF    FA6.7
01E2C:  BSF    FA6.0
01E2E:  MOVF   FA8,W
01E30:  MOVLB  5
01E32:  BTFSC  xE2.7
01E34:  BSF    FF2.7
01E36:  MOVWF  x0D
....................    delay_ms(10); 
01E38:  MOVLW  0A
01E3A:  MOVWF  xF6
01E3C:  MOVLB  0
01E3E:  CALL   1474
....................    Tpurgap[0]=read_eeprom(4); 
01E42:  MOVFF  FF2,5E2
01E46:  BCF    FF2.7
01E48:  CLRF   FAA
01E4A:  MOVLW  04
01E4C:  MOVWF  FA9
01E4E:  BCF    FA6.6
01E50:  BCF    FA6.7
01E52:  BSF    FA6.0
01E54:  MOVF   FA8,W
01E56:  MOVLB  5
01E58:  BTFSC  xE2.7
01E5A:  BSF    FF2.7
01E5C:  MOVLB  4
01E5E:  MOVWF  xEE
....................    delay_ms(10); 
01E60:  MOVLW  0A
01E62:  MOVLB  5
01E64:  MOVWF  xF6
01E66:  MOVLB  0
01E68:  CALL   1474
....................    Tpurgap[1]=read_eeprom(5); 
01E6C:  MOVFF  FF2,5E2
01E70:  BCF    FF2.7
01E72:  CLRF   FAA
01E74:  MOVLW  05
01E76:  MOVWF  FA9
01E78:  BCF    FA6.6
01E7A:  BCF    FA6.7
01E7C:  BSF    FA6.0
01E7E:  MOVF   FA8,W
01E80:  MOVLB  5
01E82:  BTFSC  xE2.7
01E84:  BSF    FF2.7
01E86:  MOVLB  4
01E88:  MOVWF  xEF
....................    delay_ms(10); 
01E8A:  MOVLW  0A
01E8C:  MOVLB  5
01E8E:  MOVWF  xF6
01E90:  MOVLB  0
01E92:  CALL   1474
....................    Tpurgap[2]=read_eeprom(6); 
01E96:  MOVFF  FF2,5E2
01E9A:  BCF    FF2.7
01E9C:  CLRF   FAA
01E9E:  MOVLW  06
01EA0:  MOVWF  FA9
01EA2:  BCF    FA6.6
01EA4:  BCF    FA6.7
01EA6:  BSF    FA6.0
01EA8:  MOVF   FA8,W
01EAA:  MOVLB  5
01EAC:  BTFSC  xE2.7
01EAE:  BSF    FF2.7
01EB0:  MOVLB  4
01EB2:  MOVWF  xF0
....................    delay_ms(10); 
01EB4:  MOVLW  0A
01EB6:  MOVLB  5
01EB8:  MOVWF  xF6
01EBA:  MOVLB  0
01EBC:  CALL   1474
....................    Tpurgap[3]=read_eeprom(7); 
01EC0:  MOVFF  FF2,5E2
01EC4:  BCF    FF2.7
01EC6:  CLRF   FAA
01EC8:  MOVLW  07
01ECA:  MOVWF  FA9
01ECC:  BCF    FA6.6
01ECE:  BCF    FA6.7
01ED0:  BSF    FA6.0
01ED2:  MOVF   FA8,W
01ED4:  MOVLB  5
01ED6:  BTFSC  xE2.7
01ED8:  BSF    FF2.7
01EDA:  MOVLB  4
01EDC:  MOVWF  xF1
....................    delay_ms(10); 
01EDE:  MOVLW  0A
01EE0:  MOVLB  5
01EE2:  MOVWF  xF6
01EE4:  MOVLB  0
01EE6:  CALL   1474
....................    Tppurgap[0]=read_eeprom(8); 
01EEA:  MOVFF  FF2,5E2
01EEE:  BCF    FF2.7
01EF0:  CLRF   FAA
01EF2:  MOVLW  08
01EF4:  MOVWF  FA9
01EF6:  BCF    FA6.6
01EF8:  BCF    FA6.7
01EFA:  BSF    FA6.0
01EFC:  MOVF   FA8,W
01EFE:  MOVLB  5
01F00:  BTFSC  xE2.7
01F02:  BSF    FF2.7
01F04:  MOVLB  4
01F06:  MOVWF  xF2
....................    delay_ms(10); 
01F08:  MOVLW  0A
01F0A:  MOVLB  5
01F0C:  MOVWF  xF6
01F0E:  MOVLB  0
01F10:  CALL   1474
....................    Tppurgap[1]=read_eeprom(9); 
01F14:  MOVFF  FF2,5E2
01F18:  BCF    FF2.7
01F1A:  CLRF   FAA
01F1C:  MOVLW  09
01F1E:  MOVWF  FA9
01F20:  BCF    FA6.6
01F22:  BCF    FA6.7
01F24:  BSF    FA6.0
01F26:  MOVF   FA8,W
01F28:  MOVLB  5
01F2A:  BTFSC  xE2.7
01F2C:  BSF    FF2.7
01F2E:  MOVLB  4
01F30:  MOVWF  xF3
....................    delay_ms(10); 
01F32:  MOVLW  0A
01F34:  MOVLB  5
01F36:  MOVWF  xF6
01F38:  MOVLB  0
01F3A:  CALL   1474
....................    Tppurgap[2]=read_eeprom(10); 
01F3E:  MOVFF  FF2,5E2
01F42:  BCF    FF2.7
01F44:  CLRF   FAA
01F46:  MOVLW  0A
01F48:  MOVWF  FA9
01F4A:  BCF    FA6.6
01F4C:  BCF    FA6.7
01F4E:  BSF    FA6.0
01F50:  MOVF   FA8,W
01F52:  MOVLB  5
01F54:  BTFSC  xE2.7
01F56:  BSF    FF2.7
01F58:  MOVLB  4
01F5A:  MOVWF  xF4
....................    delay_ms(10); 
01F5C:  MOVLW  0A
01F5E:  MOVLB  5
01F60:  MOVWF  xF6
01F62:  MOVLB  0
01F64:  CALL   1474
....................    Tppurgap[3]=read_eeprom(11); 
01F68:  MOVFF  FF2,5E2
01F6C:  BCF    FF2.7
01F6E:  CLRF   FAA
01F70:  MOVLW  0B
01F72:  MOVWF  FA9
01F74:  BCF    FA6.6
01F76:  BCF    FA6.7
01F78:  BSF    FA6.0
01F7A:  MOVF   FA8,W
01F7C:  MOVLB  5
01F7E:  BTFSC  xE2.7
01F80:  BSF    FF2.7
01F82:  MOVLB  4
01F84:  MOVWF  xF5
....................    delay_ms(10); 
01F86:  MOVLW  0A
01F88:  MOVLB  5
01F8A:  MOVWF  xF6
01F8C:  MOVLB  0
01F8E:  CALL   1474
....................    Tuv[0]=read_eeprom(12); 
01F92:  MOVFF  FF2,5E2
01F96:  BCF    FF2.7
01F98:  CLRF   FAA
01F9A:  MOVLW  0C
01F9C:  MOVWF  FA9
01F9E:  BCF    FA6.6
01FA0:  BCF    FA6.7
01FA2:  BSF    FA6.0
01FA4:  MOVF   FA8,W
01FA6:  MOVLB  5
01FA8:  BTFSC  xE2.7
01FAA:  BSF    FF2.7
01FAC:  MOVLB  4
01FAE:  MOVWF  xF6
....................    delay_ms(10); 
01FB0:  MOVLW  0A
01FB2:  MOVLB  5
01FB4:  MOVWF  xF6
01FB6:  MOVLB  0
01FB8:  CALL   1474
....................    Tuv[1]=read_eeprom(13); 
01FBC:  MOVFF  FF2,5E2
01FC0:  BCF    FF2.7
01FC2:  CLRF   FAA
01FC4:  MOVLW  0D
01FC6:  MOVWF  FA9
01FC8:  BCF    FA6.6
01FCA:  BCF    FA6.7
01FCC:  BSF    FA6.0
01FCE:  MOVF   FA8,W
01FD0:  MOVLB  5
01FD2:  BTFSC  xE2.7
01FD4:  BSF    FF2.7
01FD6:  MOVLB  4
01FD8:  MOVWF  xF7
....................    delay_ms(10); 
01FDA:  MOVLW  0A
01FDC:  MOVLB  5
01FDE:  MOVWF  xF6
01FE0:  MOVLB  0
01FE2:  CALL   1474
....................    Tuv[2]=read_eeprom(14); 
01FE6:  MOVFF  FF2,5E2
01FEA:  BCF    FF2.7
01FEC:  CLRF   FAA
01FEE:  MOVLW  0E
01FF0:  MOVWF  FA9
01FF2:  BCF    FA6.6
01FF4:  BCF    FA6.7
01FF6:  BSF    FA6.0
01FF8:  MOVF   FA8,W
01FFA:  MOVLB  5
01FFC:  BTFSC  xE2.7
01FFE:  BSF    FF2.7
02000:  MOVLB  4
02002:  MOVWF  xF8
....................    delay_ms(10); 
02004:  MOVLW  0A
02006:  MOVLB  5
02008:  MOVWF  xF6
0200A:  MOVLB  0
0200C:  CALL   1474
....................    Tuv[3]=read_eeprom(15); 
02010:  MOVFF  FF2,5E2
02014:  BCF    FF2.7
02016:  CLRF   FAA
02018:  MOVLW  0F
0201A:  MOVWF  FA9
0201C:  BCF    FA6.6
0201E:  BCF    FA6.7
02020:  BSF    FA6.0
02022:  MOVF   FA8,W
02024:  MOVLB  5
02026:  BTFSC  xE2.7
02028:  BSF    FF2.7
0202A:  MOVLB  4
0202C:  MOVWF  xF9
....................    delay_ms(10); 
0202E:  MOVLW  0A
02030:  MOVLB  5
02032:  MOVWF  xF6
02034:  MOVLB  0
02036:  CALL   1474
....................    Ttrabajo[0]=read_eeprom(16); 
0203A:  MOVFF  FF2,5E2
0203E:  BCF    FF2.7
02040:  CLRF   FAA
02042:  MOVLW  10
02044:  MOVWF  FA9
02046:  BCF    FA6.6
02048:  BCF    FA6.7
0204A:  BSF    FA6.0
0204C:  MOVF   FA8,W
0204E:  MOVLB  5
02050:  BTFSC  xE2.7
02052:  BSF    FF2.7
02054:  MOVWF  x02
....................    delay_ms(10); 
02056:  MOVLW  0A
02058:  MOVWF  xF6
0205A:  MOVLB  0
0205C:  CALL   1474
....................    Ttrabajo[1]=read_eeprom(17); 
02060:  MOVFF  FF2,5E2
02064:  BCF    FF2.7
02066:  CLRF   FAA
02068:  MOVLW  11
0206A:  MOVWF  FA9
0206C:  BCF    FA6.6
0206E:  BCF    FA6.7
02070:  BSF    FA6.0
02072:  MOVF   FA8,W
02074:  MOVLB  5
02076:  BTFSC  xE2.7
02078:  BSF    FF2.7
0207A:  MOVWF  x03
....................    delay_ms(10); 
0207C:  MOVLW  0A
0207E:  MOVWF  xF6
02080:  MOVLB  0
02082:  CALL   1474
....................    Ttrabajo[2]=read_eeprom(18); 
02086:  MOVFF  FF2,5E2
0208A:  BCF    FF2.7
0208C:  CLRF   FAA
0208E:  MOVLW  12
02090:  MOVWF  FA9
02092:  BCF    FA6.6
02094:  BCF    FA6.7
02096:  BSF    FA6.0
02098:  MOVF   FA8,W
0209A:  MOVLB  5
0209C:  BTFSC  xE2.7
0209E:  BSF    FF2.7
020A0:  MOVWF  x04
....................    delay_ms(10); 
020A2:  MOVLW  0A
020A4:  MOVWF  xF6
020A6:  MOVLB  0
020A8:  CALL   1474
....................    Ttrabajo[3]=read_eeprom(19); 
020AC:  MOVFF  FF2,5E2
020B0:  BCF    FF2.7
020B2:  CLRF   FAA
020B4:  MOVLW  13
020B6:  MOVWF  FA9
020B8:  BCF    FA6.6
020BA:  BCF    FA6.7
020BC:  BSF    FA6.0
020BE:  MOVF   FA8,W
020C0:  MOVLB  5
020C2:  BTFSC  xE2.7
020C4:  BSF    FF2.7
020C6:  MOVWF  x05
....................    delay_ms(10); 
020C8:  MOVLW  0A
020CA:  MOVWF  xF6
020CC:  MOVLB  0
020CE:  CALL   1474
....................    //flag_alarma=read_eeprom(20); 
....................    //delay_ms(10); 
....................    Tempouvp[0]=read_eeprom(21); 
020D2:  MOVFF  FF2,5E2
020D6:  BCF    FF2.7
020D8:  CLRF   FAA
020DA:  MOVLW  15
020DC:  MOVWF  FA9
020DE:  BCF    FA6.6
020E0:  BCF    FA6.7
020E2:  BSF    FA6.0
020E4:  MOVF   FA8,W
020E6:  MOVLB  5
020E8:  BTFSC  xE2.7
020EA:  BSF    FF2.7
020EC:  MOVLB  4
020EE:  MOVWF  xFA
....................    delay_ms(10); 
020F0:  MOVLW  0A
020F2:  MOVLB  5
020F4:  MOVWF  xF6
020F6:  MOVLB  0
020F8:  CALL   1474
....................    Tempouvp[1]=read_eeprom(22); 
020FC:  MOVFF  FF2,5E2
02100:  BCF    FF2.7
02102:  CLRF   FAA
02104:  MOVLW  16
02106:  MOVWF  FA9
02108:  BCF    FA6.6
0210A:  BCF    FA6.7
0210C:  BSF    FA6.0
0210E:  MOVF   FA8,W
02110:  MOVLB  5
02112:  BTFSC  xE2.7
02114:  BSF    FF2.7
02116:  MOVLB  4
02118:  MOVWF  xFB
....................    delay_ms(10); 
0211A:  MOVLW  0A
0211C:  MOVLB  5
0211E:  MOVWF  xF6
02120:  MOVLB  0
02122:  CALL   1474
....................    Tempouvp[2]=read_eeprom(23); 
02126:  MOVFF  FF2,5E2
0212A:  BCF    FF2.7
0212C:  CLRF   FAA
0212E:  MOVLW  17
02130:  MOVWF  FA9
02132:  BCF    FA6.6
02134:  BCF    FA6.7
02136:  BSF    FA6.0
02138:  MOVF   FA8,W
0213A:  MOVLB  5
0213C:  BTFSC  xE2.7
0213E:  BSF    FF2.7
02140:  MOVLB  4
02142:  MOVWF  xFC
....................    delay_ms(10); 
02144:  MOVLW  0A
02146:  MOVLB  5
02148:  MOVWF  xF6
0214A:  MOVLB  0
0214C:  CALL   1474
....................    Tempouvp[3]=read_eeprom(24); 
02150:  MOVFF  FF2,5E2
02154:  BCF    FF2.7
02156:  CLRF   FAA
02158:  MOVLW  18
0215A:  MOVWF  FA9
0215C:  BCF    FA6.6
0215E:  BCF    FA6.7
02160:  BSF    FA6.0
02162:  MOVF   FA8,W
02164:  MOVLB  5
02166:  BTFSC  xE2.7
02168:  BSF    FF2.7
0216A:  MOVLB  4
0216C:  MOVWF  xFD
....................     
....................    delay_ms(10); 
0216E:  MOVLW  0A
02170:  MOVLB  5
02172:  MOVWF  xF6
02174:  MOVLB  0
02176:  CALL   1474
....................    Entero=read_eeprom(25);//Decimal1=read_eeprom(26); 
0217A:  MOVFF  FF2,5E2
0217E:  BCF    FF2.7
02180:  CLRF   FAA
02182:  MOVLW  19
02184:  MOVWF  FA9
02186:  BCF    FA6.6
02188:  BCF    FA6.7
0218A:  BSF    FA6.0
0218C:  MOVF   FA8,W
0218E:  MOVLB  5
02190:  BTFSC  xE2.7
02192:  BSF    FF2.7
02194:  MOVLB  4
02196:  MOVWF  xD7
....................    delay_ms(10); 
02198:  MOVLW  0A
0219A:  MOVLB  5
0219C:  MOVWF  xF6
0219E:  MOVLB  0
021A0:  CALL   1474
....................    Temporal=read_eeprom(26); 
021A4:  MOVFF  FF2,5E2
021A8:  BCF    FF2.7
021AA:  CLRF   FAA
021AC:  MOVLW  1A
021AE:  MOVWF  FA9
021B0:  BCF    FA6.6
021B2:  BCF    FA6.7
021B4:  BSF    FA6.0
021B6:  MOVF   FA8,W
021B8:  MOVLB  5
021BA:  BTFSC  xE2.7
021BC:  BSF    FF2.7
021BE:  MOVLB  6
021C0:  CLRF   x18
021C2:  MOVWF  x17
021C4:  MOVLB  0
021C6:  CALL   19A0
021CA:  MOVFF  03,541
021CE:  MOVFF  02,540
021D2:  MOVFF  01,53F
021D6:  MOVFF  00,53E
....................    delay_ms(10); 
021DA:  MOVLW  0A
021DC:  MOVLB  5
021DE:  MOVWF  xF6
021E0:  MOVLB  0
021E2:  CALL   1474
....................    Temporal=Temporal/10.0; 
021E6:  MOVFF  541,616
021EA:  MOVFF  540,615
021EE:  MOVFF  53F,614
021F2:  MOVFF  53E,613
021F6:  MOVLB  6
021F8:  CLRF   x1A
021FA:  CLRF   x19
021FC:  MOVLW  20
021FE:  MOVWF  x18
02200:  MOVLW  82
02202:  MOVWF  x17
02204:  MOVLB  0
02206:  CALL   19D6
0220A:  MOVFF  03,541
0220E:  MOVFF  02,540
02212:  MOVFF  01,53F
02216:  MOVFF  00,53E
....................    Ajuste1=Entero+Temporal; 
0221A:  MOVLB  6
0221C:  CLRF   x18
0221E:  MOVFF  4D7,617
02222:  MOVLB  0
02224:  CALL   19A0
02228:  BCF    FD8.1
0222A:  MOVFF  03,61A
0222E:  MOVFF  02,619
02232:  MOVFF  01,618
02236:  MOVFF  00,617
0223A:  MOVFF  541,61E
0223E:  MOVFF  540,61D
02242:  MOVFF  53F,61C
02246:  MOVFF  53E,61B
0224A:  RCALL  1B34
0224C:  MOVFF  03,539
02250:  MOVFF  02,538
02254:  MOVFF  01,537
02258:  MOVFF  00,536
....................     
....................     
....................    Entero=read_eeprom(27);//Decimal1=read_eeprom(26); 
0225C:  MOVFF  FF2,5E2
02260:  BCF    FF2.7
02262:  CLRF   FAA
02264:  MOVLW  1B
02266:  MOVWF  FA9
02268:  BCF    FA6.6
0226A:  BCF    FA6.7
0226C:  BSF    FA6.0
0226E:  MOVF   FA8,W
02270:  MOVLB  5
02272:  BTFSC  xE2.7
02274:  BSF    FF2.7
02276:  MOVLB  4
02278:  MOVWF  xD7
....................    delay_ms(10); 
0227A:  MOVLW  0A
0227C:  MOVLB  5
0227E:  MOVWF  xF6
02280:  MOVLB  0
02282:  CALL   1474
....................    Temporal=read_eeprom(28); 
02286:  MOVFF  FF2,5E2
0228A:  BCF    FF2.7
0228C:  CLRF   FAA
0228E:  MOVLW  1C
02290:  MOVWF  FA9
02292:  BCF    FA6.6
02294:  BCF    FA6.7
02296:  BSF    FA6.0
02298:  MOVF   FA8,W
0229A:  MOVLB  5
0229C:  BTFSC  xE2.7
0229E:  BSF    FF2.7
022A0:  MOVLB  6
022A2:  CLRF   x18
022A4:  MOVWF  x17
022A6:  MOVLB  0
022A8:  CALL   19A0
022AC:  MOVFF  03,541
022B0:  MOVFF  02,540
022B4:  MOVFF  01,53F
022B8:  MOVFF  00,53E
....................    delay_ms(10); 
022BC:  MOVLW  0A
022BE:  MOVLB  5
022C0:  MOVWF  xF6
022C2:  MOVLB  0
022C4:  CALL   1474
....................    Temporal=Temporal/10.0; 
022C8:  MOVFF  541,616
022CC:  MOVFF  540,615
022D0:  MOVFF  53F,614
022D4:  MOVFF  53E,613
022D8:  MOVLB  6
022DA:  CLRF   x1A
022DC:  CLRF   x19
022DE:  MOVLW  20
022E0:  MOVWF  x18
022E2:  MOVLW  82
022E4:  MOVWF  x17
022E6:  MOVLB  0
022E8:  CALL   19D6
022EC:  MOVFF  03,541
022F0:  MOVFF  02,540
022F4:  MOVFF  01,53F
022F8:  MOVFF  00,53E
....................    Ajuste2=Entero+Temporal; 
022FC:  MOVLB  6
022FE:  CLRF   x18
02300:  MOVFF  4D7,617
02304:  MOVLB  0
02306:  CALL   19A0
0230A:  BCF    FD8.1
0230C:  MOVFF  03,61A
02310:  MOVFF  02,619
02314:  MOVFF  01,618
02318:  MOVFF  00,617
0231C:  MOVFF  541,61E
02320:  MOVFF  540,61D
02324:  MOVFF  53F,61C
02328:  MOVFF  53E,61B
0232C:  RCALL  1B34
0232E:  MOVFF  03,53D
02332:  MOVFF  02,53C
02336:  MOVFF  01,53B
0233A:  MOVFF  00,53A
....................     
....................    zero_actual=make16(read_eeprom(30),read_eeprom(29)); 
0233E:  MOVFF  FF2,5E2
02342:  BCF    FF2.7
02344:  CLRF   FAA
02346:  MOVLW  1E
02348:  MOVWF  FA9
0234A:  BCF    FA6.6
0234C:  BCF    FA6.7
0234E:  BSF    FA6.0
02350:  MOVF   FA8,W
02352:  MOVLB  5
02354:  BTFSC  xE2.7
02356:  BSF    FF2.7
02358:  MOVWF  xE3
0235A:  MOVFF  FF2,5E4
0235E:  BCF    FF2.7
02360:  CLRF   FAA
02362:  MOVLW  1D
02364:  MOVWF  FA9
02366:  BCF    FA6.6
02368:  BCF    FA6.7
0236A:  BSF    FA6.0
0236C:  MOVF   FA8,W
0236E:  BTFSC  xE4.7
02370:  BSF    FF2.7
02372:  MOVWF  xE5
02374:  MOVFF  5E3,03
02378:  MOVF   xE5,W
0237A:  MOVLB  6
0237C:  MOVWF  x17
0237E:  MOVFF  03,618
02382:  MOVLB  0
02384:  CALL   19A0
02388:  MOVFF  03,5C1
0238C:  MOVFF  02,5C0
02390:  MOVFF  01,5BF
02394:  MOVFF  00,5BE
....................    delay_ms(10); 
02398:  MOVLW  0A
0239A:  MOVLB  5
0239C:  MOVWF  xF6
0239E:  MOVLB  0
023A0:  CALL   1474
....................    minutos_trabajo=make16(read_eeprom(34),read_eeprom(33)); 
023A4:  MOVFF  FF2,5E2
023A8:  BCF    FF2.7
023AA:  CLRF   FAA
023AC:  MOVLW  22
023AE:  MOVWF  FA9
023B0:  BCF    FA6.6
023B2:  BCF    FA6.7
023B4:  BSF    FA6.0
023B6:  MOVF   FA8,W
023B8:  MOVLB  5
023BA:  BTFSC  xE2.7
023BC:  BSF    FF2.7
023BE:  MOVWF  xE3
023C0:  MOVFF  FF2,5E4
023C4:  BCF    FF2.7
023C6:  CLRF   FAA
023C8:  MOVLW  21
023CA:  MOVWF  FA9
023CC:  BCF    FA6.6
023CE:  BCF    FA6.7
023D0:  BSF    FA6.0
023D2:  MOVF   FA8,W
023D4:  BTFSC  xE4.7
023D6:  BSF    FF2.7
023D8:  MOVWF  xE5
023DA:  MOVFF  5E3,4E7
023DE:  MOVFF  5E5,4E6
....................    delay_ms(10); 
023E2:  MOVLW  0A
023E4:  MOVWF  xF6
023E6:  MOVLB  0
023E8:  CALL   1474
....................    minutos_uv=read_eeprom(31); 
023EC:  MOVFF  FF2,5E2
023F0:  BCF    FF2.7
023F2:  CLRF   FAA
023F4:  MOVLW  1F
023F6:  MOVWF  FA9
023F8:  BCF    FA6.6
023FA:  BCF    FA6.7
023FC:  BSF    FA6.0
023FE:  MOVF   FA8,W
02400:  MOVLB  5
02402:  BTFSC  xE2.7
02404:  BSF    FF2.7
02406:  MOVLB  4
02408:  CLRF   xE5
0240A:  MOVWF  xE4
....................    delay_ms(10); 
0240C:  MOVLW  0A
0240E:  MOVLB  5
02410:  MOVWF  xF6
02412:  MOVLB  0
02414:  CALL   1474
....................    VelMotor=read_eeprom(32); 
02418:  MOVFF  FF2,5E2
0241C:  BCF    FF2.7
0241E:  CLRF   FAA
02420:  MOVLW  20
02422:  MOVWF  FA9
02424:  BCF    FA6.6
02426:  BCF    FA6.7
02428:  BSF    FA6.0
0242A:  MOVF   FA8,W
0242C:  MOVLB  5
0242E:  BTFSC  xE2.7
02430:  BSF    FF2.7
02432:  MOVWF  xD9
....................    delay_ms(10); 
02434:  MOVLW  0A
02436:  MOVWF  xF6
02438:  MOVLB  0
0243A:  CALL   1474
....................     
....................    Diferencia=make16(read_eeprom(61),read_eeprom(60)); 
0243E:  MOVFF  FF2,5E2
02442:  BCF    FF2.7
02444:  CLRF   FAA
02446:  MOVLW  3D
02448:  MOVWF  FA9
0244A:  BCF    FA6.6
0244C:  BCF    FA6.7
0244E:  BSF    FA6.0
02450:  MOVF   FA8,W
02452:  MOVLB  5
02454:  BTFSC  xE2.7
02456:  BSF    FF2.7
02458:  MOVWF  xE3
0245A:  MOVFF  FF2,5E4
0245E:  BCF    FF2.7
02460:  CLRF   FAA
02462:  MOVLW  3C
02464:  MOVWF  FA9
02466:  BCF    FA6.6
02468:  BCF    FA6.7
0246A:  BSF    FA6.0
0246C:  MOVF   FA8,W
0246E:  BTFSC  xE4.7
02470:  BSF    FF2.7
02472:  MOVWF  xE5
02474:  MOVFF  5E3,03
02478:  MOVF   xE5,W
0247A:  MOVLB  6
0247C:  MOVWF  x17
0247E:  MOVFF  03,618
02482:  MOVLB  0
02484:  CALL   19A0
02488:  MOVFF  03,51D
0248C:  MOVFF  02,51C
02490:  MOVFF  01,51B
02494:  MOVFF  00,51A
....................    delay_ms(10); 
02498:  MOVLW  0A
0249A:  MOVLB  5
0249C:  MOVWF  xF6
0249E:  MOVLB  0
024A0:  CALL   1474
....................    G=make16(read_eeprom(63),read_eeprom(62)); 
024A4:  MOVFF  FF2,5E2
024A8:  BCF    FF2.7
024AA:  CLRF   FAA
024AC:  MOVLW  3F
024AE:  MOVWF  FA9
024B0:  BCF    FA6.6
024B2:  BCF    FA6.7
024B4:  BSF    FA6.0
024B6:  MOVF   FA8,W
024B8:  MOVLB  5
024BA:  BTFSC  xE2.7
024BC:  BSF    FF2.7
024BE:  MOVWF  xE3
024C0:  MOVFF  FF2,5E4
024C4:  BCF    FF2.7
024C6:  CLRF   FAA
024C8:  MOVLW  3E
024CA:  MOVWF  FA9
024CC:  BCF    FA6.6
024CE:  BCF    FA6.7
024D0:  BSF    FA6.0
024D2:  MOVF   FA8,W
024D4:  BTFSC  xE4.7
024D6:  BSF    FF2.7
024D8:  MOVWF  xE5
024DA:  MOVFF  5E3,03
024DE:  MOVF   xE5,W
024E0:  MOVLB  6
024E2:  MOVWF  x17
024E4:  MOVFF  03,618
024E8:  MOVLB  0
024EA:  CALL   19A0
024EE:  MOVFF  03,5CD
024F2:  MOVFF  02,5CC
024F6:  MOVFF  01,5CB
024FA:  MOVFF  00,5CA
....................    delay_ms(10); 
024FE:  MOVLW  0A
02500:  MOVLB  5
02502:  MOVWF  xF6
02504:  MOVLB  0
02506:  CALL   1474
....................    negativo=read_eeprom(50); 
0250A:  MOVFF  FF2,5E2
0250E:  BCF    FF2.7
02510:  CLRF   FAA
02512:  MOVLW  32
02514:  MOVWF  FA9
02516:  BCF    FA6.6
02518:  BCF    FA6.7
0251A:  BSF    FA6.0
0251C:  MOVF   FA8,W
0251E:  MOVLB  5
02520:  BTFSC  xE2.7
02522:  BSF    FF2.7
02524:  MOVLB  4
02526:  MOVWF  xCF
....................    delay_ms(10); 
02528:  MOVLW  0A
0252A:  MOVLB  5
0252C:  MOVWF  xF6
0252E:  MOVLB  0
02530:  CALL   1474
....................  
.................... } 
02534:  GOTO   6660 (RETURN)
....................  
.................... void LimitaValores(void){ 
....................    if(Password[0]>9 || Password[0]<0){ 
*
025B2:  MOVLB  5
025B4:  BTFSC  x0A.7
025B6:  BRA    25BE
025B8:  MOVF   x0A,W
025BA:  SUBLW  09
025BC:  BNC   25C4
025BE:  BTFSC  x0A.7
025C0:  BRA    25C4
025C2:  BRA    25F0
....................       Password[0]=0;write_eeprom(0,0); 
025C4:  CLRF   x0A
025C6:  CLRF   FAA
025C8:  CLRF   FA9
025CA:  CLRF   FA8
025CC:  BCF    FA6.6
025CE:  BCF    FA6.7
025D0:  BSF    FA6.2
025D2:  MOVF   FF2,W
025D4:  MOVWF  00
025D6:  BCF    FF2.7
025D8:  MOVLB  F
025DA:  MOVLW  55
025DC:  MOVWF  FA7
025DE:  MOVLW  AA
025E0:  MOVWF  FA7
025E2:  BSF    FA6.1
025E4:  BTFSC  FA6.1
025E6:  BRA    25E4
025E8:  BCF    FA6.2
025EA:  MOVF   00,W
025EC:  IORWF  FF2,F
025EE:  MOVLB  5
....................    } 
....................    if(Password[1]>9 || Password[1]<0){ 
025F0:  BTFSC  x0B.7
025F2:  BRA    25FA
025F4:  MOVF   x0B,W
025F6:  SUBLW  09
025F8:  BNC   2600
025FA:  BTFSC  x0B.7
025FC:  BRA    2600
025FE:  BRA    262E
....................       Password[1]=0;write_eeprom(1,0); 
02600:  CLRF   x0B
02602:  CLRF   FAA
02604:  MOVLW  01
02606:  MOVWF  FA9
02608:  CLRF   FA8
0260A:  BCF    FA6.6
0260C:  BCF    FA6.7
0260E:  BSF    FA6.2
02610:  MOVF   FF2,W
02612:  MOVWF  00
02614:  BCF    FF2.7
02616:  MOVLB  F
02618:  MOVLW  55
0261A:  MOVWF  FA7
0261C:  MOVLW  AA
0261E:  MOVWF  FA7
02620:  BSF    FA6.1
02622:  BTFSC  FA6.1
02624:  BRA    2622
02626:  BCF    FA6.2
02628:  MOVF   00,W
0262A:  IORWF  FF2,F
0262C:  MOVLB  5
....................    } 
....................    if(Password[2]>9 || Password[2]<0){ 
0262E:  BTFSC  x0C.7
02630:  BRA    2638
02632:  MOVF   x0C,W
02634:  SUBLW  09
02636:  BNC   263E
02638:  BTFSC  x0C.7
0263A:  BRA    263E
0263C:  BRA    266C
....................       Password[2]=0;write_eeprom(2,0); 
0263E:  CLRF   x0C
02640:  CLRF   FAA
02642:  MOVLW  02
02644:  MOVWF  FA9
02646:  CLRF   FA8
02648:  BCF    FA6.6
0264A:  BCF    FA6.7
0264C:  BSF    FA6.2
0264E:  MOVF   FF2,W
02650:  MOVWF  00
02652:  BCF    FF2.7
02654:  MOVLB  F
02656:  MOVLW  55
02658:  MOVWF  FA7
0265A:  MOVLW  AA
0265C:  MOVWF  FA7
0265E:  BSF    FA6.1
02660:  BTFSC  FA6.1
02662:  BRA    2660
02664:  BCF    FA6.2
02666:  MOVF   00,W
02668:  IORWF  FF2,F
0266A:  MOVLB  5
....................    } 
....................    if(Password[3]>9 || Password[3]<0){ 
0266C:  BTFSC  x0D.7
0266E:  BRA    2676
02670:  MOVF   x0D,W
02672:  SUBLW  09
02674:  BNC   267C
02676:  BTFSC  x0D.7
02678:  BRA    267C
0267A:  BRA    26A8
....................       Password[3]=0;write_eeprom(3,0); 
0267C:  CLRF   x0D
0267E:  CLRF   FAA
02680:  MOVLW  03
02682:  MOVWF  FA9
02684:  CLRF   FA8
02686:  BCF    FA6.6
02688:  BCF    FA6.7
0268A:  BSF    FA6.2
0268C:  MOVF   FF2,W
0268E:  MOVWF  00
02690:  BCF    FF2.7
02692:  MOVLB  F
02694:  MOVLW  55
02696:  MOVWF  FA7
02698:  MOVLW  AA
0269A:  MOVWF  FA7
0269C:  BSF    FA6.1
0269E:  BTFSC  FA6.1
026A0:  BRA    269E
026A2:  BCF    FA6.2
026A4:  MOVF   00,W
026A6:  IORWF  FF2,F
....................    } 
....................    if(Tpurgap[0]>9 || Tpurgap[0]<0){ 
026A8:  MOVLB  4
026AA:  BTFSC  xEE.7
026AC:  BRA    26B4
026AE:  MOVF   xEE,W
026B0:  SUBLW  09
026B2:  BNC   26BA
026B4:  BTFSC  xEE.7
026B6:  BRA    26BA
026B8:  BRA    26E8
....................       Tpurgap[0]=0;write_eeprom(4,0); 
026BA:  CLRF   xEE
026BC:  CLRF   FAA
026BE:  MOVLW  04
026C0:  MOVWF  FA9
026C2:  CLRF   FA8
026C4:  BCF    FA6.6
026C6:  BCF    FA6.7
026C8:  BSF    FA6.2
026CA:  MOVF   FF2,W
026CC:  MOVWF  00
026CE:  BCF    FF2.7
026D0:  MOVLB  F
026D2:  MOVLW  55
026D4:  MOVWF  FA7
026D6:  MOVLW  AA
026D8:  MOVWF  FA7
026DA:  BSF    FA6.1
026DC:  BTFSC  FA6.1
026DE:  BRA    26DC
026E0:  BCF    FA6.2
026E2:  MOVF   00,W
026E4:  IORWF  FF2,F
026E6:  MOVLB  4
....................    } 
....................    if(Tpurgap[1]>9 || Tpurgap[1]<0){ 
026E8:  BTFSC  xEF.7
026EA:  BRA    26F2
026EC:  MOVF   xEF,W
026EE:  SUBLW  09
026F0:  BNC   26F8
026F2:  BTFSC  xEF.7
026F4:  BRA    26F8
026F6:  BRA    2726
....................       Tpurgap[1]=0;write_eeprom(5,0); 
026F8:  CLRF   xEF
026FA:  CLRF   FAA
026FC:  MOVLW  05
026FE:  MOVWF  FA9
02700:  CLRF   FA8
02702:  BCF    FA6.6
02704:  BCF    FA6.7
02706:  BSF    FA6.2
02708:  MOVF   FF2,W
0270A:  MOVWF  00
0270C:  BCF    FF2.7
0270E:  MOVLB  F
02710:  MOVLW  55
02712:  MOVWF  FA7
02714:  MOVLW  AA
02716:  MOVWF  FA7
02718:  BSF    FA6.1
0271A:  BTFSC  FA6.1
0271C:  BRA    271A
0271E:  BCF    FA6.2
02720:  MOVF   00,W
02722:  IORWF  FF2,F
02724:  MOVLB  4
....................    } 
....................    if(Tpurgap[2]>9 || Tpurgap[2]<0){ 
02726:  BTFSC  xF0.7
02728:  BRA    2730
0272A:  MOVF   xF0,W
0272C:  SUBLW  09
0272E:  BNC   2736
02730:  BTFSC  xF0.7
02732:  BRA    2736
02734:  BRA    2768
....................       Tpurgap[2]=2;write_eeprom(6,2); 
02736:  MOVLW  02
02738:  MOVWF  xF0
0273A:  CLRF   FAA
0273C:  MOVLW  06
0273E:  MOVWF  FA9
02740:  MOVLW  02
02742:  MOVWF  FA8
02744:  BCF    FA6.6
02746:  BCF    FA6.7
02748:  BSF    FA6.2
0274A:  MOVF   FF2,W
0274C:  MOVWF  00
0274E:  BCF    FF2.7
02750:  MOVLB  F
02752:  MOVLW  55
02754:  MOVWF  FA7
02756:  MOVLW  AA
02758:  MOVWF  FA7
0275A:  BSF    FA6.1
0275C:  BTFSC  FA6.1
0275E:  BRA    275C
02760:  BCF    FA6.2
02762:  MOVF   00,W
02764:  IORWF  FF2,F
02766:  MOVLB  4
....................    } 
....................    if(Tpurgap[3]>9 || Tpurgap[3]<0){ 
02768:  BTFSC  xF1.7
0276A:  BRA    2772
0276C:  MOVF   xF1,W
0276E:  SUBLW  09
02770:  BNC   2778
02772:  BTFSC  xF1.7
02774:  BRA    2778
02776:  BRA    27A6
....................       Tpurgap[3]=0;write_eeprom(7,0); 
02778:  CLRF   xF1
0277A:  CLRF   FAA
0277C:  MOVLW  07
0277E:  MOVWF  FA9
02780:  CLRF   FA8
02782:  BCF    FA6.6
02784:  BCF    FA6.7
02786:  BSF    FA6.2
02788:  MOVF   FF2,W
0278A:  MOVWF  00
0278C:  BCF    FF2.7
0278E:  MOVLB  F
02790:  MOVLW  55
02792:  MOVWF  FA7
02794:  MOVLW  AA
02796:  MOVWF  FA7
02798:  BSF    FA6.1
0279A:  BTFSC  FA6.1
0279C:  BRA    279A
0279E:  BCF    FA6.2
027A0:  MOVF   00,W
027A2:  IORWF  FF2,F
027A4:  MOVLB  4
....................    } 
....................    if(Tppurgap[0]>9 || Tppurgap[0]<0){ 
027A6:  BTFSC  xF2.7
027A8:  BRA    27B0
027AA:  MOVF   xF2,W
027AC:  SUBLW  09
027AE:  BNC   27B6
027B0:  BTFSC  xF2.7
027B2:  BRA    27B6
027B4:  BRA    27E4
....................       Tppurgap[0]=0;write_eeprom(8,0); 
027B6:  CLRF   xF2
027B8:  CLRF   FAA
027BA:  MOVLW  08
027BC:  MOVWF  FA9
027BE:  CLRF   FA8
027C0:  BCF    FA6.6
027C2:  BCF    FA6.7
027C4:  BSF    FA6.2
027C6:  MOVF   FF2,W
027C8:  MOVWF  00
027CA:  BCF    FF2.7
027CC:  MOVLB  F
027CE:  MOVLW  55
027D0:  MOVWF  FA7
027D2:  MOVLW  AA
027D4:  MOVWF  FA7
027D6:  BSF    FA6.1
027D8:  BTFSC  FA6.1
027DA:  BRA    27D8
027DC:  BCF    FA6.2
027DE:  MOVF   00,W
027E0:  IORWF  FF2,F
027E2:  MOVLB  4
....................    } 
....................    if(Tppurgap[1]>9 || Tppurgap[1]<0){ 
027E4:  BTFSC  xF3.7
027E6:  BRA    27EE
027E8:  MOVF   xF3,W
027EA:  SUBLW  09
027EC:  BNC   27F4
027EE:  BTFSC  xF3.7
027F0:  BRA    27F4
027F2:  BRA    2822
....................       Tppurgap[1]=0;write_eeprom(9,0); 
027F4:  CLRF   xF3
027F6:  CLRF   FAA
027F8:  MOVLW  09
027FA:  MOVWF  FA9
027FC:  CLRF   FA8
027FE:  BCF    FA6.6
02800:  BCF    FA6.7
02802:  BSF    FA6.2
02804:  MOVF   FF2,W
02806:  MOVWF  00
02808:  BCF    FF2.7
0280A:  MOVLB  F
0280C:  MOVLW  55
0280E:  MOVWF  FA7
02810:  MOVLW  AA
02812:  MOVWF  FA7
02814:  BSF    FA6.1
02816:  BTFSC  FA6.1
02818:  BRA    2816
0281A:  BCF    FA6.2
0281C:  MOVF   00,W
0281E:  IORWF  FF2,F
02820:  MOVLB  4
....................    } 
....................    if(Tppurgap[2]>9 || Tppurgap[2]<0){ 
02822:  BTFSC  xF4.7
02824:  BRA    282C
02826:  MOVF   xF4,W
02828:  SUBLW  09
0282A:  BNC   2832
0282C:  BTFSC  xF4.7
0282E:  BRA    2832
02830:  BRA    2864
....................       Tppurgap[2]=2;write_eeprom(10,2); 
02832:  MOVLW  02
02834:  MOVWF  xF4
02836:  CLRF   FAA
02838:  MOVLW  0A
0283A:  MOVWF  FA9
0283C:  MOVLW  02
0283E:  MOVWF  FA8
02840:  BCF    FA6.6
02842:  BCF    FA6.7
02844:  BSF    FA6.2
02846:  MOVF   FF2,W
02848:  MOVWF  00
0284A:  BCF    FF2.7
0284C:  MOVLB  F
0284E:  MOVLW  55
02850:  MOVWF  FA7
02852:  MOVLW  AA
02854:  MOVWF  FA7
02856:  BSF    FA6.1
02858:  BTFSC  FA6.1
0285A:  BRA    2858
0285C:  BCF    FA6.2
0285E:  MOVF   00,W
02860:  IORWF  FF2,F
02862:  MOVLB  4
....................    } 
....................    if(Tppurgap[3]>9 || Tppurgap[3]<0){ 
02864:  BTFSC  xF5.7
02866:  BRA    286E
02868:  MOVF   xF5,W
0286A:  SUBLW  09
0286C:  BNC   2874
0286E:  BTFSC  xF5.7
02870:  BRA    2874
02872:  BRA    28A2
....................       Tppurgap[3]=0;write_eeprom(11,0); 
02874:  CLRF   xF5
02876:  CLRF   FAA
02878:  MOVLW  0B
0287A:  MOVWF  FA9
0287C:  CLRF   FA8
0287E:  BCF    FA6.6
02880:  BCF    FA6.7
02882:  BSF    FA6.2
02884:  MOVF   FF2,W
02886:  MOVWF  00
02888:  BCF    FF2.7
0288A:  MOVLB  F
0288C:  MOVLW  55
0288E:  MOVWF  FA7
02890:  MOVLW  AA
02892:  MOVWF  FA7
02894:  BSF    FA6.1
02896:  BTFSC  FA6.1
02898:  BRA    2896
0289A:  BCF    FA6.2
0289C:  MOVF   00,W
0289E:  IORWF  FF2,F
028A0:  MOVLB  4
....................    } 
....................    if(Tuv[0]>9 || Tuv[0]<0){ 
028A2:  BTFSC  xF6.7
028A4:  BRA    28AC
028A6:  MOVF   xF6,W
028A8:  SUBLW  09
028AA:  BNC   28B2
028AC:  BTFSC  xF6.7
028AE:  BRA    28B2
028B0:  BRA    28E0
....................       Tuv[0]=0;write_eeprom(12,0); 
028B2:  CLRF   xF6
028B4:  CLRF   FAA
028B6:  MOVLW  0C
028B8:  MOVWF  FA9
028BA:  CLRF   FA8
028BC:  BCF    FA6.6
028BE:  BCF    FA6.7
028C0:  BSF    FA6.2
028C2:  MOVF   FF2,W
028C4:  MOVWF  00
028C6:  BCF    FF2.7
028C8:  MOVLB  F
028CA:  MOVLW  55
028CC:  MOVWF  FA7
028CE:  MOVLW  AA
028D0:  MOVWF  FA7
028D2:  BSF    FA6.1
028D4:  BTFSC  FA6.1
028D6:  BRA    28D4
028D8:  BCF    FA6.2
028DA:  MOVF   00,W
028DC:  IORWF  FF2,F
028DE:  MOVLB  4
....................    } 
....................    if(Tuv[1]>9 || Tuv[1]<0){ 
028E0:  BTFSC  xF7.7
028E2:  BRA    28EA
028E4:  MOVF   xF7,W
028E6:  SUBLW  09
028E8:  BNC   28F0
028EA:  BTFSC  xF7.7
028EC:  BRA    28F0
028EE:  BRA    291E
....................       Tuv[1]=0;write_eeprom(13,0); 
028F0:  CLRF   xF7
028F2:  CLRF   FAA
028F4:  MOVLW  0D
028F6:  MOVWF  FA9
028F8:  CLRF   FA8
028FA:  BCF    FA6.6
028FC:  BCF    FA6.7
028FE:  BSF    FA6.2
02900:  MOVF   FF2,W
02902:  MOVWF  00
02904:  BCF    FF2.7
02906:  MOVLB  F
02908:  MOVLW  55
0290A:  MOVWF  FA7
0290C:  MOVLW  AA
0290E:  MOVWF  FA7
02910:  BSF    FA6.1
02912:  BTFSC  FA6.1
02914:  BRA    2912
02916:  BCF    FA6.2
02918:  MOVF   00,W
0291A:  IORWF  FF2,F
0291C:  MOVLB  4
....................    } 
....................    if(Tuv[2]>9 || Tuv[2]<0){ 
0291E:  BTFSC  xF8.7
02920:  BRA    2928
02922:  MOVF   xF8,W
02924:  SUBLW  09
02926:  BNC   292E
02928:  BTFSC  xF8.7
0292A:  BRA    292E
0292C:  BRA    295C
....................       Tuv[2]=0;write_eeprom(14,0); 
0292E:  CLRF   xF8
02930:  CLRF   FAA
02932:  MOVLW  0E
02934:  MOVWF  FA9
02936:  CLRF   FA8
02938:  BCF    FA6.6
0293A:  BCF    FA6.7
0293C:  BSF    FA6.2
0293E:  MOVF   FF2,W
02940:  MOVWF  00
02942:  BCF    FF2.7
02944:  MOVLB  F
02946:  MOVLW  55
02948:  MOVWF  FA7
0294A:  MOVLW  AA
0294C:  MOVWF  FA7
0294E:  BSF    FA6.1
02950:  BTFSC  FA6.1
02952:  BRA    2950
02954:  BCF    FA6.2
02956:  MOVF   00,W
02958:  IORWF  FF2,F
0295A:  MOVLB  4
....................    } 
....................    if(Tuv[3]>9 || Tuv[3]<0){ 
0295C:  BTFSC  xF9.7
0295E:  BRA    2966
02960:  MOVF   xF9,W
02962:  SUBLW  09
02964:  BNC   296C
02966:  BTFSC  xF9.7
02968:  BRA    296C
0296A:  BRA    2998
....................       Tuv[3]=0;write_eeprom(15,0); 
0296C:  CLRF   xF9
0296E:  CLRF   FAA
02970:  MOVLW  0F
02972:  MOVWF  FA9
02974:  CLRF   FA8
02976:  BCF    FA6.6
02978:  BCF    FA6.7
0297A:  BSF    FA6.2
0297C:  MOVF   FF2,W
0297E:  MOVWF  00
02980:  BCF    FF2.7
02982:  MOVLB  F
02984:  MOVLW  55
02986:  MOVWF  FA7
02988:  MOVLW  AA
0298A:  MOVWF  FA7
0298C:  BSF    FA6.1
0298E:  BTFSC  FA6.1
02990:  BRA    298E
02992:  BCF    FA6.2
02994:  MOVF   00,W
02996:  IORWF  FF2,F
....................    } 
....................    if(Ttrabajo[0]>9 || Ttrabajo[0]<0){ 
02998:  MOVLB  5
0299A:  BTFSC  x02.7
0299C:  BRA    29A4
0299E:  MOVF   x02,W
029A0:  SUBLW  09
029A2:  BNC   29AA
029A4:  BTFSC  x02.7
029A6:  BRA    29AA
029A8:  BRA    29D8
....................       Ttrabajo[0]=0;write_eeprom(16,0); 
029AA:  CLRF   x02
029AC:  CLRF   FAA
029AE:  MOVLW  10
029B0:  MOVWF  FA9
029B2:  CLRF   FA8
029B4:  BCF    FA6.6
029B6:  BCF    FA6.7
029B8:  BSF    FA6.2
029BA:  MOVF   FF2,W
029BC:  MOVWF  00
029BE:  BCF    FF2.7
029C0:  MOVLB  F
029C2:  MOVLW  55
029C4:  MOVWF  FA7
029C6:  MOVLW  AA
029C8:  MOVWF  FA7
029CA:  BSF    FA6.1
029CC:  BTFSC  FA6.1
029CE:  BRA    29CC
029D0:  BCF    FA6.2
029D2:  MOVF   00,W
029D4:  IORWF  FF2,F
029D6:  MOVLB  5
....................    } 
....................    if(Ttrabajo[1]>9 || Ttrabajo[1]<0){ 
029D8:  BTFSC  x03.7
029DA:  BRA    29E2
029DC:  MOVF   x03,W
029DE:  SUBLW  09
029E0:  BNC   29E8
029E2:  BTFSC  x03.7
029E4:  BRA    29E8
029E6:  BRA    2A16
....................       Ttrabajo[1]=0;write_eeprom(17,0); 
029E8:  CLRF   x03
029EA:  CLRF   FAA
029EC:  MOVLW  11
029EE:  MOVWF  FA9
029F0:  CLRF   FA8
029F2:  BCF    FA6.6
029F4:  BCF    FA6.7
029F6:  BSF    FA6.2
029F8:  MOVF   FF2,W
029FA:  MOVWF  00
029FC:  BCF    FF2.7
029FE:  MOVLB  F
02A00:  MOVLW  55
02A02:  MOVWF  FA7
02A04:  MOVLW  AA
02A06:  MOVWF  FA7
02A08:  BSF    FA6.1
02A0A:  BTFSC  FA6.1
02A0C:  BRA    2A0A
02A0E:  BCF    FA6.2
02A10:  MOVF   00,W
02A12:  IORWF  FF2,F
02A14:  MOVLB  5
....................    } 
....................    if(Ttrabajo[2]>9 || Ttrabajo[2]<0){ 
02A16:  BTFSC  x04.7
02A18:  BRA    2A20
02A1A:  MOVF   x04,W
02A1C:  SUBLW  09
02A1E:  BNC   2A26
02A20:  BTFSC  x04.7
02A22:  BRA    2A26
02A24:  BRA    2A54
....................       Ttrabajo[2]=0;write_eeprom(18,0); 
02A26:  CLRF   x04
02A28:  CLRF   FAA
02A2A:  MOVLW  12
02A2C:  MOVWF  FA9
02A2E:  CLRF   FA8
02A30:  BCF    FA6.6
02A32:  BCF    FA6.7
02A34:  BSF    FA6.2
02A36:  MOVF   FF2,W
02A38:  MOVWF  00
02A3A:  BCF    FF2.7
02A3C:  MOVLB  F
02A3E:  MOVLW  55
02A40:  MOVWF  FA7
02A42:  MOVLW  AA
02A44:  MOVWF  FA7
02A46:  BSF    FA6.1
02A48:  BTFSC  FA6.1
02A4A:  BRA    2A48
02A4C:  BCF    FA6.2
02A4E:  MOVF   00,W
02A50:  IORWF  FF2,F
02A52:  MOVLB  5
....................    } 
....................    if(Ttrabajo[3]>9 || Ttrabajo[3]<0){ 
02A54:  BTFSC  x05.7
02A56:  BRA    2A5E
02A58:  MOVF   x05,W
02A5A:  SUBLW  09
02A5C:  BNC   2A64
02A5E:  BTFSC  x05.7
02A60:  BRA    2A64
02A62:  BRA    2A90
....................       Ttrabajo[3]=0;write_eeprom(19,0); 
02A64:  CLRF   x05
02A66:  CLRF   FAA
02A68:  MOVLW  13
02A6A:  MOVWF  FA9
02A6C:  CLRF   FA8
02A6E:  BCF    FA6.6
02A70:  BCF    FA6.7
02A72:  BSF    FA6.2
02A74:  MOVF   FF2,W
02A76:  MOVWF  00
02A78:  BCF    FF2.7
02A7A:  MOVLB  F
02A7C:  MOVLW  55
02A7E:  MOVWF  FA7
02A80:  MOVLW  AA
02A82:  MOVWF  FA7
02A84:  BSF    FA6.1
02A86:  BTFSC  FA6.1
02A88:  BRA    2A86
02A8A:  BCF    FA6.2
02A8C:  MOVF   00,W
02A8E:  IORWF  FF2,F
....................    } 
....................    if(Tempouvp[0]>9 || Tempouvp[0]<0){ 
02A90:  MOVLB  4
02A92:  BTFSC  xFA.7
02A94:  BRA    2A9C
02A96:  MOVF   xFA,W
02A98:  SUBLW  09
02A9A:  BNC   2AA2
02A9C:  BTFSC  xFA.7
02A9E:  BRA    2AA2
02AA0:  BRA    2AD0
....................       Tempouvp[0]=0;write_eeprom(21,0); 
02AA2:  CLRF   xFA
02AA4:  CLRF   FAA
02AA6:  MOVLW  15
02AA8:  MOVWF  FA9
02AAA:  CLRF   FA8
02AAC:  BCF    FA6.6
02AAE:  BCF    FA6.7
02AB0:  BSF    FA6.2
02AB2:  MOVF   FF2,W
02AB4:  MOVWF  00
02AB6:  BCF    FF2.7
02AB8:  MOVLB  F
02ABA:  MOVLW  55
02ABC:  MOVWF  FA7
02ABE:  MOVLW  AA
02AC0:  MOVWF  FA7
02AC2:  BSF    FA6.1
02AC4:  BTFSC  FA6.1
02AC6:  BRA    2AC4
02AC8:  BCF    FA6.2
02ACA:  MOVF   00,W
02ACC:  IORWF  FF2,F
02ACE:  MOVLB  4
....................    } 
....................    if(Tempouvp[1]>9 || Tempouvp[1]<0){ 
02AD0:  BTFSC  xFB.7
02AD2:  BRA    2ADA
02AD4:  MOVF   xFB,W
02AD6:  SUBLW  09
02AD8:  BNC   2AE0
02ADA:  BTFSC  xFB.7
02ADC:  BRA    2AE0
02ADE:  BRA    2B0E
....................       Tempouvp[1]=0;write_eeprom(22,0); 
02AE0:  CLRF   xFB
02AE2:  CLRF   FAA
02AE4:  MOVLW  16
02AE6:  MOVWF  FA9
02AE8:  CLRF   FA8
02AEA:  BCF    FA6.6
02AEC:  BCF    FA6.7
02AEE:  BSF    FA6.2
02AF0:  MOVF   FF2,W
02AF2:  MOVWF  00
02AF4:  BCF    FF2.7
02AF6:  MOVLB  F
02AF8:  MOVLW  55
02AFA:  MOVWF  FA7
02AFC:  MOVLW  AA
02AFE:  MOVWF  FA7
02B00:  BSF    FA6.1
02B02:  BTFSC  FA6.1
02B04:  BRA    2B02
02B06:  BCF    FA6.2
02B08:  MOVF   00,W
02B0A:  IORWF  FF2,F
02B0C:  MOVLB  4
....................    } 
....................    if(Tempouvp[2]>9 || Tempouvp[2]<0){ 
02B0E:  BTFSC  xFC.7
02B10:  BRA    2B18
02B12:  MOVF   xFC,W
02B14:  SUBLW  09
02B16:  BNC   2B1E
02B18:  BTFSC  xFC.7
02B1A:  BRA    2B1E
02B1C:  BRA    2B4C
....................       Tempouvp[2]=0;write_eeprom(23,0); 
02B1E:  CLRF   xFC
02B20:  CLRF   FAA
02B22:  MOVLW  17
02B24:  MOVWF  FA9
02B26:  CLRF   FA8
02B28:  BCF    FA6.6
02B2A:  BCF    FA6.7
02B2C:  BSF    FA6.2
02B2E:  MOVF   FF2,W
02B30:  MOVWF  00
02B32:  BCF    FF2.7
02B34:  MOVLB  F
02B36:  MOVLW  55
02B38:  MOVWF  FA7
02B3A:  MOVLW  AA
02B3C:  MOVWF  FA7
02B3E:  BSF    FA6.1
02B40:  BTFSC  FA6.1
02B42:  BRA    2B40
02B44:  BCF    FA6.2
02B46:  MOVF   00,W
02B48:  IORWF  FF2,F
02B4A:  MOVLB  4
....................    } 
....................    if(Tempouvp[3]>9 || Tempouvp[3]<0){ 
02B4C:  BTFSC  xFD.7
02B4E:  BRA    2B56
02B50:  MOVF   xFD,W
02B52:  SUBLW  09
02B54:  BNC   2B5C
02B56:  BTFSC  xFD.7
02B58:  BRA    2B5C
02B5A:  BRA    2B8C
....................       Tempouvp[3]=1;write_eeprom(24,1); 
02B5C:  MOVLW  01
02B5E:  MOVWF  xFD
02B60:  CLRF   FAA
02B62:  MOVLW  18
02B64:  MOVWF  FA9
02B66:  MOVLW  01
02B68:  MOVWF  FA8
02B6A:  BCF    FA6.6
02B6C:  BCF    FA6.7
02B6E:  BSF    FA6.2
02B70:  MOVF   FF2,W
02B72:  MOVWF  00
02B74:  BCF    FF2.7
02B76:  MOVLB  F
02B78:  MOVLW  55
02B7A:  MOVWF  FA7
02B7C:  MOVLW  AA
02B7E:  MOVWF  FA7
02B80:  BSF    FA6.1
02B82:  BTFSC  FA6.1
02B84:  BRA    2B82
02B86:  BCF    FA6.2
02B88:  MOVF   00,W
02B8A:  IORWF  FF2,F
....................    } 
....................    if(Ajuste1>2.0){ 
02B8C:  MOVLB  6
02B8E:  CLRF   x16
02B90:  CLRF   x15
02B92:  CLRF   x14
02B94:  MOVLW  80
02B96:  MOVWF  x13
02B98:  MOVFF  539,61A
02B9C:  MOVFF  538,619
02BA0:  MOVFF  537,618
02BA4:  MOVFF  536,617
02BA8:  MOVLB  0
02BAA:  RCALL  2538
02BAC:  BNC   2C12
....................       Ajuste1=1.5;write_eeprom(25,1);write_eeprom(26,5); 
02BAE:  MOVLB  5
02BB0:  CLRF   x39
02BB2:  CLRF   x38
02BB4:  MOVLW  40
02BB6:  MOVWF  x37
02BB8:  MOVLW  7F
02BBA:  MOVWF  x36
02BBC:  CLRF   FAA
02BBE:  MOVLW  19
02BC0:  MOVWF  FA9
02BC2:  MOVLW  01
02BC4:  MOVWF  FA8
02BC6:  BCF    FA6.6
02BC8:  BCF    FA6.7
02BCA:  BSF    FA6.2
02BCC:  MOVF   FF2,W
02BCE:  MOVWF  00
02BD0:  BCF    FF2.7
02BD2:  MOVLB  F
02BD4:  MOVLW  55
02BD6:  MOVWF  FA7
02BD8:  MOVLW  AA
02BDA:  MOVWF  FA7
02BDC:  BSF    FA6.1
02BDE:  BTFSC  FA6.1
02BE0:  BRA    2BDE
02BE2:  BCF    FA6.2
02BE4:  MOVF   00,W
02BE6:  IORWF  FF2,F
02BE8:  CLRF   FAA
02BEA:  MOVLW  1A
02BEC:  MOVWF  FA9
02BEE:  MOVLW  05
02BF0:  MOVWF  FA8
02BF2:  BCF    FA6.6
02BF4:  BCF    FA6.7
02BF6:  BSF    FA6.2
02BF8:  MOVF   FF2,W
02BFA:  MOVWF  00
02BFC:  BCF    FF2.7
02BFE:  MOVLW  55
02C00:  MOVWF  FA7
02C02:  MOVLW  AA
02C04:  MOVWF  FA7
02C06:  BSF    FA6.1
02C08:  BTFSC  FA6.1
02C0A:  BRA    2C08
02C0C:  BCF    FA6.2
02C0E:  MOVF   00,W
02C10:  IORWF  FF2,F
....................    } 
....................    if(Ajuste2>2.0){ 
02C12:  MOVLB  6
02C14:  CLRF   x16
02C16:  CLRF   x15
02C18:  CLRF   x14
02C1A:  MOVLW  80
02C1C:  MOVWF  x13
02C1E:  MOVFF  53D,61A
02C22:  MOVFF  53C,619
02C26:  MOVFF  53B,618
02C2A:  MOVFF  53A,617
02C2E:  MOVLB  0
02C30:  RCALL  2538
02C32:  BNC   2C94
....................       Ajuste2=1.0;write_eeprom(27,1);write_eeprom(28,0); 
02C34:  MOVLB  5
02C36:  CLRF   x3D
02C38:  CLRF   x3C
02C3A:  CLRF   x3B
02C3C:  MOVLW  7F
02C3E:  MOVWF  x3A
02C40:  CLRF   FAA
02C42:  MOVLW  1B
02C44:  MOVWF  FA9
02C46:  MOVLW  01
02C48:  MOVWF  FA8
02C4A:  BCF    FA6.6
02C4C:  BCF    FA6.7
02C4E:  BSF    FA6.2
02C50:  MOVF   FF2,W
02C52:  MOVWF  00
02C54:  BCF    FF2.7
02C56:  MOVLB  F
02C58:  MOVLW  55
02C5A:  MOVWF  FA7
02C5C:  MOVLW  AA
02C5E:  MOVWF  FA7
02C60:  BSF    FA6.1
02C62:  BTFSC  FA6.1
02C64:  BRA    2C62
02C66:  BCF    FA6.2
02C68:  MOVF   00,W
02C6A:  IORWF  FF2,F
02C6C:  CLRF   FAA
02C6E:  MOVLW  1C
02C70:  MOVWF  FA9
02C72:  CLRF   FA8
02C74:  BCF    FA6.6
02C76:  BCF    FA6.7
02C78:  BSF    FA6.2
02C7A:  MOVF   FF2,W
02C7C:  MOVWF  00
02C7E:  BCF    FF2.7
02C80:  MOVLW  55
02C82:  MOVWF  FA7
02C84:  MOVLW  AA
02C86:  MOVWF  FA7
02C88:  BSF    FA6.1
02C8A:  BTFSC  FA6.1
02C8C:  BRA    2C8A
02C8E:  BCF    FA6.2
02C90:  MOVF   00,W
02C92:  IORWF  FF2,F
....................    } 
....................    if(zero_actual>300){ 
02C94:  MOVLB  6
02C96:  CLRF   x16
02C98:  CLRF   x15
02C9A:  MOVLW  16
02C9C:  MOVWF  x14
02C9E:  MOVLW  87
02CA0:  MOVWF  x13
02CA2:  MOVFF  5C1,61A
02CA6:  MOVFF  5C0,619
02CAA:  MOVFF  5BF,618
02CAE:  MOVFF  5BE,617
02CB2:  MOVLB  0
02CB4:  RCALL  2538
02CB6:  BNC   2D1A
....................       zero_actual=203;write_eeprom(29,203);write_eeprom(30,0); 
02CB8:  MOVLB  5
02CBA:  CLRF   xC1
02CBC:  CLRF   xC0
02CBE:  MOVLW  4B
02CC0:  MOVWF  xBF
02CC2:  MOVLW  86
02CC4:  MOVWF  xBE
02CC6:  CLRF   FAA
02CC8:  MOVLW  1D
02CCA:  MOVWF  FA9
02CCC:  MOVLW  CB
02CCE:  MOVWF  FA8
02CD0:  BCF    FA6.6
02CD2:  BCF    FA6.7
02CD4:  BSF    FA6.2
02CD6:  MOVF   FF2,W
02CD8:  MOVWF  00
02CDA:  BCF    FF2.7
02CDC:  MOVLB  F
02CDE:  MOVLW  55
02CE0:  MOVWF  FA7
02CE2:  MOVLW  AA
02CE4:  MOVWF  FA7
02CE6:  BSF    FA6.1
02CE8:  BTFSC  FA6.1
02CEA:  BRA    2CE8
02CEC:  BCF    FA6.2
02CEE:  MOVF   00,W
02CF0:  IORWF  FF2,F
02CF2:  CLRF   FAA
02CF4:  MOVLW  1E
02CF6:  MOVWF  FA9
02CF8:  CLRF   FA8
02CFA:  BCF    FA6.6
02CFC:  BCF    FA6.7
02CFE:  BSF    FA6.2
02D00:  MOVF   FF2,W
02D02:  MOVWF  00
02D04:  BCF    FF2.7
02D06:  MOVLW  55
02D08:  MOVWF  FA7
02D0A:  MOVLW  AA
02D0C:  MOVWF  FA7
02D0E:  BSF    FA6.1
02D10:  BTFSC  FA6.1
02D12:  BRA    2D10
02D14:  BCF    FA6.2
02D16:  MOVF   00,W
02D18:  IORWF  FF2,F
....................    } 
....................    if(minutos_uv>60){ 
02D1A:  MOVLB  4
02D1C:  MOVF   xE5,F
02D1E:  BNZ   2D26
02D20:  MOVF   xE4,W
02D22:  SUBLW  3C
02D24:  BC    2D54
....................       minutos_uv=0;write_eeprom(31,0); 
02D26:  CLRF   xE5
02D28:  CLRF   xE4
02D2A:  CLRF   FAA
02D2C:  MOVLW  1F
02D2E:  MOVWF  FA9
02D30:  CLRF   FA8
02D32:  BCF    FA6.6
02D34:  BCF    FA6.7
02D36:  BSF    FA6.2
02D38:  MOVF   FF2,W
02D3A:  MOVWF  00
02D3C:  BCF    FF2.7
02D3E:  MOVLB  F
02D40:  MOVLW  55
02D42:  MOVWF  FA7
02D44:  MOVLW  AA
02D46:  MOVWF  FA7
02D48:  BSF    FA6.1
02D4A:  BTFSC  FA6.1
02D4C:  BRA    2D4A
02D4E:  BCF    FA6.2
02D50:  MOVF   00,W
02D52:  IORWF  FF2,F
....................    } 
....................    if(VelMotor>6){ 
02D54:  MOVLB  5
02D56:  MOVF   xD9,W
02D58:  SUBLW  06
02D5A:  BC    2D8C
....................       VelMotor=2;write_eeprom(32,2); 
02D5C:  MOVLW  02
02D5E:  MOVWF  xD9
02D60:  CLRF   FAA
02D62:  MOVLW  20
02D64:  MOVWF  FA9
02D66:  MOVLW  02
02D68:  MOVWF  FA8
02D6A:  BCF    FA6.6
02D6C:  BCF    FA6.7
02D6E:  BSF    FA6.2
02D70:  MOVF   FF2,W
02D72:  MOVWF  00
02D74:  BCF    FF2.7
02D76:  MOVLB  F
02D78:  MOVLW  55
02D7A:  MOVWF  FA7
02D7C:  MOVLW  AA
02D7E:  MOVWF  FA7
02D80:  BSF    FA6.1
02D82:  BTFSC  FA6.1
02D84:  BRA    2D82
02D86:  BCF    FA6.2
02D88:  MOVF   00,W
02D8A:  IORWF  FF2,F
....................    }    
....................    if(minutos_trabajo>3600){ 
02D8C:  MOVLB  4
02D8E:  MOVF   xE7,W
02D90:  SUBLW  0D
02D92:  BC    2DF4
02D94:  XORLW  FF
02D96:  BNZ   2D9E
02D98:  MOVF   xE6,W
02D9A:  SUBLW  10
02D9C:  BC    2DF4
....................       minutos_trabajo=0;write_eeprom(33,0);write_eeprom(34,0); 
02D9E:  CLRF   xE7
02DA0:  CLRF   xE6
02DA2:  CLRF   FAA
02DA4:  MOVLW  21
02DA6:  MOVWF  FA9
02DA8:  CLRF   FA8
02DAA:  BCF    FA6.6
02DAC:  BCF    FA6.7
02DAE:  BSF    FA6.2
02DB0:  MOVF   FF2,W
02DB2:  MOVWF  00
02DB4:  BCF    FF2.7
02DB6:  MOVLB  F
02DB8:  MOVLW  55
02DBA:  MOVWF  FA7
02DBC:  MOVLW  AA
02DBE:  MOVWF  FA7
02DC0:  BSF    FA6.1
02DC2:  BTFSC  FA6.1
02DC4:  BRA    2DC2
02DC6:  BCF    FA6.2
02DC8:  MOVF   00,W
02DCA:  IORWF  FF2,F
02DCC:  CLRF   FAA
02DCE:  MOVLW  22
02DD0:  MOVWF  FA9
02DD2:  CLRF   FA8
02DD4:  BCF    FA6.6
02DD6:  BCF    FA6.7
02DD8:  BSF    FA6.2
02DDA:  MOVF   FF2,W
02DDC:  MOVWF  00
02DDE:  BCF    FF2.7
02DE0:  MOVLW  55
02DE2:  MOVWF  FA7
02DE4:  MOVLW  AA
02DE6:  MOVWF  FA7
02DE8:  BSF    FA6.1
02DEA:  BTFSC  FA6.1
02DEC:  BRA    2DEA
02DEE:  BCF    FA6.2
02DF0:  MOVF   00,W
02DF2:  IORWF  FF2,F
....................    } 
....................    //if(Relacion>2.0){ 
....................       //Relacion=0.57;write_eeprom(35,0);write_eeprom(36,57); 
....................    //} 
....................    if(Diferencia>200){ 
02DF4:  MOVLB  6
02DF6:  CLRF   x16
02DF8:  CLRF   x15
02DFA:  MOVLW  48
02DFC:  MOVWF  x14
02DFE:  MOVLW  86
02E00:  MOVWF  x13
02E02:  MOVFF  51D,61A
02E06:  MOVFF  51C,619
02E0A:  MOVFF  51B,618
02E0E:  MOVFF  51A,617
02E12:  MOVLB  0
02E14:  CALL   2538
02E18:  BNC   2E76
....................       Diferencia=0;write_eeprom(60,0);write_eeprom(61,0); 
02E1A:  MOVLB  5
02E1C:  CLRF   x1D
02E1E:  CLRF   x1C
02E20:  CLRF   x1B
02E22:  CLRF   x1A
02E24:  CLRF   FAA
02E26:  MOVLW  3C
02E28:  MOVWF  FA9
02E2A:  CLRF   FA8
02E2C:  BCF    FA6.6
02E2E:  BCF    FA6.7
02E30:  BSF    FA6.2
02E32:  MOVF   FF2,W
02E34:  MOVWF  00
02E36:  BCF    FF2.7
02E38:  MOVLB  F
02E3A:  MOVLW  55
02E3C:  MOVWF  FA7
02E3E:  MOVLW  AA
02E40:  MOVWF  FA7
02E42:  BSF    FA6.1
02E44:  BTFSC  FA6.1
02E46:  BRA    2E44
02E48:  BCF    FA6.2
02E4A:  MOVF   00,W
02E4C:  IORWF  FF2,F
02E4E:  CLRF   FAA
02E50:  MOVLW  3D
02E52:  MOVWF  FA9
02E54:  CLRF   FA8
02E56:  BCF    FA6.6
02E58:  BCF    FA6.7
02E5A:  BSF    FA6.2
02E5C:  MOVF   FF2,W
02E5E:  MOVWF  00
02E60:  BCF    FF2.7
02E62:  MOVLW  55
02E64:  MOVWF  FA7
02E66:  MOVLW  AA
02E68:  MOVWF  FA7
02E6A:  BSF    FA6.1
02E6C:  BTFSC  FA6.1
02E6E:  BRA    2E6C
02E70:  BCF    FA6.2
02E72:  MOVF   00,W
02E74:  IORWF  FF2,F
....................    } 
....................    if(G>240){ 
02E76:  MOVLB  6
02E78:  CLRF   x16
02E7A:  CLRF   x15
02E7C:  MOVLW  70
02E7E:  MOVWF  x14
02E80:  MOVLW  86
02E82:  MOVWF  x13
02E84:  MOVFF  5CD,61A
02E88:  MOVFF  5CC,619
02E8C:  MOVFF  5CB,618
02E90:  MOVFF  5CA,617
02E94:  MOVLB  0
02E96:  CALL   2538
02E9A:  BNC   2EFE
....................       G=240;write_eeprom(62,240);write_eeprom(63,0); 
02E9C:  MOVLB  5
02E9E:  CLRF   xCD
02EA0:  CLRF   xCC
02EA2:  MOVLW  70
02EA4:  MOVWF  xCB
02EA6:  MOVLW  86
02EA8:  MOVWF  xCA
02EAA:  CLRF   FAA
02EAC:  MOVLW  3E
02EAE:  MOVWF  FA9
02EB0:  MOVLW  F0
02EB2:  MOVWF  FA8
02EB4:  BCF    FA6.6
02EB6:  BCF    FA6.7
02EB8:  BSF    FA6.2
02EBA:  MOVF   FF2,W
02EBC:  MOVWF  00
02EBE:  BCF    FF2.7
02EC0:  MOVLB  F
02EC2:  MOVLW  55
02EC4:  MOVWF  FA7
02EC6:  MOVLW  AA
02EC8:  MOVWF  FA7
02ECA:  BSF    FA6.1
02ECC:  BTFSC  FA6.1
02ECE:  BRA    2ECC
02ED0:  BCF    FA6.2
02ED2:  MOVF   00,W
02ED4:  IORWF  FF2,F
02ED6:  CLRF   FAA
02ED8:  MOVLW  3F
02EDA:  MOVWF  FA9
02EDC:  CLRF   FA8
02EDE:  BCF    FA6.6
02EE0:  BCF    FA6.7
02EE2:  BSF    FA6.2
02EE4:  MOVF   FF2,W
02EE6:  MOVWF  00
02EE8:  BCF    FF2.7
02EEA:  MOVLW  55
02EEC:  MOVWF  FA7
02EEE:  MOVLW  AA
02EF0:  MOVWF  FA7
02EF2:  BSF    FA6.1
02EF4:  BTFSC  FA6.1
02EF6:  BRA    2EF4
02EF8:  BCF    FA6.2
02EFA:  MOVF   00,W
02EFC:  IORWF  FF2,F
....................    } 
....................    if(negativo>20){ 
02EFE:  MOVLB  4
02F00:  MOVF   xCF,W
02F02:  SUBLW  14
02F04:  BC    2F38
....................       negativo=10;write_eeprom(50,10); 
02F06:  MOVLW  0A
02F08:  MOVWF  xCF
02F0A:  CLRF   FAA
02F0C:  MOVLW  32
02F0E:  MOVWF  FA9
02F10:  MOVLW  0A
02F12:  MOVWF  FA8
02F14:  BCF    FA6.6
02F16:  BCF    FA6.7
02F18:  BSF    FA6.2
02F1A:  MOVF   FF2,W
02F1C:  MOVWF  00
02F1E:  BCF    FF2.7
02F20:  MOVLB  F
02F22:  MOVLW  55
02F24:  MOVWF  FA7
02F26:  MOVLW  AA
02F28:  MOVWF  FA7
02F2A:  BSF    FA6.1
02F2C:  BTFSC  FA6.1
02F2E:  BRA    2F2C
02F30:  BCF    FA6.2
02F32:  MOVF   00,W
02F34:  IORWF  FF2,F
02F36:  MOVLB  4
....................    } 
.................... } 
02F38:  MOVLB  0
02F3A:  GOTO   6664 (RETURN)
....................  
.................... void VelocidadMotor(int8 Vel){ 
....................    if(Vel==6){ 
*
0149C:  MOVLB  5
0149E:  MOVF   xE2,W
014A0:  SUBLW  06
014A2:  BNZ   14AC
....................       Porcentaje=0; 
014A4:  CLRF   xD8
....................       Motor_on; 
014A6:  BSF    F8B.2
014A8:  BCF    F94.2
....................    }else if(Vel==5){ 
014AA:  BRA    151A
014AC:  MOVF   xE2,W
014AE:  SUBLW  05
014B0:  BNZ   14C0
....................       Porcentaje=15; 
014B2:  MOVLW  0F
014B4:  MOVWF  xD8
....................       retardo=2000; 
014B6:  MOVLW  07
014B8:  MOVWF  xD1
014BA:  MOVLW  D0
014BC:  MOVWF  xD0
....................    }else if(Vel==4){ 
014BE:  BRA    151A
014C0:  MOVF   xE2,W
014C2:  SUBLW  04
014C4:  BNZ   14D4
....................       Porcentaje=25; 
014C6:  MOVLW  19
014C8:  MOVWF  xD8
....................       retardo=3000; 
014CA:  MOVLW  0B
014CC:  MOVWF  xD1
014CE:  MOVLW  B8
014D0:  MOVWF  xD0
....................    }else if(Vel==3){ 
014D2:  BRA    151A
014D4:  MOVF   xE2,W
014D6:  SUBLW  03
014D8:  BNZ   14E8
....................       Porcentaje=35; 
014DA:  MOVLW  23
014DC:  MOVWF  xD8
....................       retardo=3600; 
014DE:  MOVLW  0E
014E0:  MOVWF  xD1
014E2:  MOVLW  10
014E4:  MOVWF  xD0
....................    }else if(Vel==2){ 
014E6:  BRA    151A
014E8:  MOVF   xE2,W
014EA:  SUBLW  02
014EC:  BNZ   14FC
....................       Porcentaje=45; 
014EE:  MOVLW  2D
014F0:  MOVWF  xD8
....................       retardo=4300; 
014F2:  MOVLW  10
014F4:  MOVWF  xD1
014F6:  MOVLW  CC
014F8:  MOVWF  xD0
....................    }else if(Vel==1){ 
014FA:  BRA    151A
014FC:  DECFSZ xE2,W
014FE:  BRA    150E
....................       Porcentaje=50; 
01500:  MOVLW  32
01502:  MOVWF  xD8
....................       retardo=5000; 
01504:  MOVLW  13
01506:  MOVWF  xD1
01508:  MOVLW  88
0150A:  MOVWF  xD0
....................    }else if(Vel==0){ 
0150C:  BRA    151A
0150E:  MOVF   xE2,F
01510:  BNZ   151A
....................       Porcentaje=100; 
01512:  MOVLW  64
01514:  MOVWF  xD8
....................       Motor_off; 
01516:  BCF    F8B.2
01518:  BCF    F94.2
....................    } 
.................... } 
0151A:  MOVLB  0
0151C:  RETLW  00
....................  
.................... short PidePassword(int8 MenuAnt, int8 MenuActual, int8 MenuPost, int8 clave0,int8 clave1, int8 clave2,int8 clave3){ 
....................       if(n==0) 
*
04E8C:  MOVLB  4
04E8E:  BTFSC  x2E.5
04E90:  BRA    4F28
....................       { 
....................          displayContrasena(Contrasena[0],20,30,1);displayContrasena(Contrasena[1],40,30,0); 
04E92:  MOVFF  506,5EC
04E96:  MOVLW  14
04E98:  MOVLB  5
04E9A:  MOVWF  xED
04E9C:  MOVLW  1E
04E9E:  MOVWF  xEE
04EA0:  MOVLW  01
04EA2:  MOVWF  xEF
04EA4:  MOVLB  0
04EA6:  RCALL  4CF0
04EA8:  MOVFF  507,5EC
04EAC:  MOVLW  28
04EAE:  MOVLB  5
04EB0:  MOVWF  xED
04EB2:  MOVLW  1E
04EB4:  MOVWF  xEE
04EB6:  CLRF   xEF
04EB8:  MOVLB  0
04EBA:  RCALL  4CF0
....................          displayContrasena(Contrasena[2],60,30,0);displayContrasena(Contrasena[0],80,30,0); 
04EBC:  MOVFF  508,5EC
04EC0:  MOVLW  3C
04EC2:  MOVLB  5
04EC4:  MOVWF  xED
04EC6:  MOVLW  1E
04EC8:  MOVWF  xEE
04ECA:  CLRF   xEF
04ECC:  MOVLB  0
04ECE:  RCALL  4CF0
04ED0:  MOVFF  506,5EC
04ED4:  MOVLW  50
04ED6:  MOVLB  5
04ED8:  MOVWF  xED
04EDA:  MOVLW  1E
04EDC:  MOVWF  xEE
04EDE:  CLRF   xEF
04EE0:  MOVLB  0
04EE2:  RCALL  4CF0
....................          strcpy(Menus.Letra,"Clave"); 
04EE4:  MOVLW  04
04EE6:  MOVWF  FEA
04EE8:  MOVLW  16
04EEA:  MOVWF  FE9
04EEC:  MOVFF  FF2,5EA
04EF0:  BCF    FF2.7
04EF2:  MOVLW  00
04EF4:  CALL   0EEE
04EF8:  TBLRD*-
04EFA:  TBLRD*+
04EFC:  MOVF   FF5,W
04EFE:  MOVWF  FEE
04F00:  IORLW  00
04F02:  BNZ   4EFA
04F04:  MOVLB  5
04F06:  BTFSC  xEA.7
04F08:  BSF    FF2.7
....................          displayMenu(Menus.Letra,20,0,1,3); 
04F0A:  MOVLW  04
04F0C:  MOVWF  xEB
04F0E:  MOVLW  16
04F10:  MOVWF  xEA
04F12:  MOVLW  14
04F14:  MOVWF  xEC
04F16:  CLRF   xED
04F18:  MOVLW  01
04F1A:  MOVWF  xEE
04F1C:  MOVLW  03
04F1E:  MOVWF  xEF
04F20:  MOVLB  0
04F22:  RCALL  4DB4
....................          n=1; 
04F24:  MOVLB  4
04F26:  BSF    x2E.5
....................       } 
....................        
....................       if(UP){ 
04F28:  BSF    F92.5
04F2A:  BTFSC  F80.5
04F2C:  BRA    5008
....................          flag_latencia=0;t_latencia=0; 
04F2E:  BCF    x2D.6
04F30:  CLRF   xE3
04F32:  CLRF   xE2
....................          if(Flanco == 0){ 
04F34:  BTFSC  x2C.0
04F36:  BRA    5006
....................             Flanco = 1;delay_ms(5); 
04F38:  BSF    x2C.0
04F3A:  MOVLW  05
04F3C:  MOVLB  5
04F3E:  MOVWF  xF6
04F40:  MOVLB  0
04F42:  CALL   1474
....................             for(i=1;i<=4;i++){ 
04F46:  MOVLW  01
04F48:  MOVLB  5
04F4A:  MOVWF  xD2
04F4C:  MOVF   xD2,W
04F4E:  SUBLW  04
04F50:  BNC   5004
....................                if(unidad==i){ 
04F52:  MOVF   xD2,W
04F54:  MOVLB  4
04F56:  SUBWF  xCD,W
04F58:  BNZ   4FCE
....................                   Contrasena[i-1]++; 
04F5A:  MOVLW  01
04F5C:  MOVLB  5
04F5E:  SUBWF  xD2,W
04F60:  CLRF   03
04F62:  ADDLW  06
04F64:  MOVWF  FE9
04F66:  MOVLW  05
04F68:  ADDWFC 03,W
04F6A:  MOVWF  FEA
04F6C:  INCF   FEF,F
....................                   if(Contrasena[i-1]>9){ 
04F6E:  MOVLW  01
04F70:  SUBWF  xD2,W
04F72:  CLRF   03
04F74:  ADDLW  06
04F76:  MOVWF  FE9
04F78:  MOVLW  05
04F7A:  ADDWFC 03,W
04F7C:  MOVWF  FEA
04F7E:  BTFSC  FEF.7
04F80:  BRA    4F9A
04F82:  MOVF   FEF,W
04F84:  SUBLW  09
04F86:  BC    4F9A
....................                      Contrasena[i-1]=0; 
04F88:  MOVLW  01
04F8A:  SUBWF  xD2,W
04F8C:  CLRF   03
04F8E:  ADDLW  06
04F90:  MOVWF  FE9
04F92:  MOVLW  05
04F94:  ADDWFC 03,W
04F96:  MOVWF  FEA
04F98:  CLRF   FEF
....................                   } 
....................                   displayContrasena(Contrasena[i-1],i*20,30,1); 
04F9A:  MOVLW  01
04F9C:  SUBWF  xD2,W
04F9E:  CLRF   03
04FA0:  ADDLW  06
04FA2:  MOVWF  FE9
04FA4:  MOVLW  05
04FA6:  ADDWFC 03,W
04FA8:  MOVWF  FEA
04FAA:  MOVFF  FEF,5EA
04FAE:  MOVF   xD2,W
04FB0:  MULLW  14
04FB2:  MOVFF  FF3,5EB
04FB6:  MOVFF  5EA,5EC
04FBA:  MOVFF  5EB,5ED
04FBE:  MOVLW  1E
04FC0:  MOVWF  xEE
04FC2:  MOVLW  01
04FC4:  MOVWF  xEF
04FC6:  MOVLB  0
04FC8:  RCALL  4CF0
....................                }else{ 
04FCA:  BRA    4FFE
04FCC:  MOVLB  4
....................                   displayContrasena(Contrasena[i-1],i*20,30,0); 
04FCE:  MOVLW  01
04FD0:  MOVLB  5
04FD2:  SUBWF  xD2,W
04FD4:  CLRF   03
04FD6:  ADDLW  06
04FD8:  MOVWF  FE9
04FDA:  MOVLW  05
04FDC:  ADDWFC 03,W
04FDE:  MOVWF  FEA
04FE0:  MOVFF  FEF,5EA
04FE4:  MOVF   xD2,W
04FE6:  MULLW  14
04FE8:  MOVFF  FF3,5EB
04FEC:  MOVFF  5EA,5EC
04FF0:  MOVFF  5EB,5ED
04FF4:  MOVLW  1E
04FF6:  MOVWF  xEE
04FF8:  CLRF   xEF
04FFA:  MOVLB  0
04FFC:  RCALL  4CF0
....................                } 
....................             } 
04FFE:  MOVLB  5
05000:  INCF   xD2,F
05002:  BRA    4F4C
05004:  MOVLB  4
....................          } 
....................       }else{ 
05006:  BRA    500A
....................          Flanco = 0; 
05008:  BCF    x2C.0
....................       } 
....................              
....................       if(DOWN){ 
0500A:  BSF    F96.0
0500C:  BTFSC  F84.0
0500E:  BRA    50E8
....................          flag_latencia=0;t_latencia=0; 
05010:  BCF    x2D.6
05012:  CLRF   xE3
05014:  CLRF   xE2
....................          if(Flanco2 == 0){ 
05016:  BTFSC  x2C.2
05018:  BRA    50E6
....................             Flanco2 = 1;delay_ms(5); 
0501A:  BSF    x2C.2
0501C:  MOVLW  05
0501E:  MOVLB  5
05020:  MOVWF  xF6
05022:  MOVLB  0
05024:  CALL   1474
....................             for(i=1;i<=4;i++){ 
05028:  MOVLW  01
0502A:  MOVLB  5
0502C:  MOVWF  xD2
0502E:  MOVF   xD2,W
05030:  SUBLW  04
05032:  BNC   50E4
....................                if(unidad==i){ 
05034:  MOVF   xD2,W
05036:  MOVLB  4
05038:  SUBWF  xCD,W
0503A:  BNZ   50AE
....................                   Contrasena[i-1]--; 
0503C:  MOVLW  01
0503E:  MOVLB  5
05040:  SUBWF  xD2,W
05042:  CLRF   03
05044:  ADDLW  06
05046:  MOVWF  FE9
05048:  MOVLW  05
0504A:  ADDWFC 03,W
0504C:  MOVWF  FEA
0504E:  DECF   FEF,F
....................                   if(Contrasena[i-1]<0){ 
05050:  MOVLW  01
05052:  SUBWF  xD2,W
05054:  CLRF   03
05056:  ADDLW  06
05058:  MOVWF  FE9
0505A:  MOVLW  05
0505C:  ADDWFC 03,W
0505E:  MOVWF  FEA
05060:  BTFSC  FEF.7
05062:  BRA    5066
05064:  BRA    507A
....................                      Contrasena[i-1]=9; 
05066:  MOVLW  01
05068:  SUBWF  xD2,W
0506A:  CLRF   03
0506C:  ADDLW  06
0506E:  MOVWF  FE9
05070:  MOVLW  05
05072:  ADDWFC 03,W
05074:  MOVWF  FEA
05076:  MOVLW  09
05078:  MOVWF  FEF
....................                   } 
....................                   displayContrasena(Contrasena[i-1],i*20,30,1); 
0507A:  MOVLW  01
0507C:  SUBWF  xD2,W
0507E:  CLRF   03
05080:  ADDLW  06
05082:  MOVWF  FE9
05084:  MOVLW  05
05086:  ADDWFC 03,W
05088:  MOVWF  FEA
0508A:  MOVFF  FEF,5EA
0508E:  MOVF   xD2,W
05090:  MULLW  14
05092:  MOVFF  FF3,5EB
05096:  MOVFF  5EA,5EC
0509A:  MOVFF  5EB,5ED
0509E:  MOVLW  1E
050A0:  MOVWF  xEE
050A2:  MOVLW  01
050A4:  MOVWF  xEF
050A6:  MOVLB  0
050A8:  RCALL  4CF0
....................                }else{ 
050AA:  BRA    50DE
050AC:  MOVLB  4
....................                   displayContrasena(Contrasena[i-1],i*20,30,0); 
050AE:  MOVLW  01
050B0:  MOVLB  5
050B2:  SUBWF  xD2,W
050B4:  CLRF   03
050B6:  ADDLW  06
050B8:  MOVWF  FE9
050BA:  MOVLW  05
050BC:  ADDWFC 03,W
050BE:  MOVWF  FEA
050C0:  MOVFF  FEF,5EA
050C4:  MOVF   xD2,W
050C6:  MULLW  14
050C8:  MOVFF  FF3,5EB
050CC:  MOVFF  5EA,5EC
050D0:  MOVFF  5EB,5ED
050D4:  MOVLW  1E
050D6:  MOVWF  xEE
050D8:  CLRF   xEF
050DA:  MOVLB  0
050DC:  RCALL  4CF0
....................                } 
....................             }       
050DE:  MOVLB  5
050E0:  INCF   xD2,F
050E2:  BRA    502E
050E4:  MOVLB  4
....................          }      
....................       }else{ 
050E6:  BRA    50EA
....................          Flanco2 = 0; 
050E8:  BCF    x2C.2
....................       } 
....................              
....................       if(RIGHT){ 
050EA:  BSF    F96.1
050EC:  BTFSC  F84.1
050EE:  BRA    5190
....................          flag_latencia=0;t_latencia=0; 
050F0:  BCF    x2D.6
050F2:  CLRF   xE3
050F4:  CLRF   xE2
....................          if(Flanco1 == 0){ 
050F6:  BTFSC  x2C.1
050F8:  BRA    518E
....................             Flanco1 = 1;delay_ms(5);unidad++; 
050FA:  BSF    x2C.1
050FC:  MOVLW  05
050FE:  MOVLB  5
05100:  MOVWF  xF6
05102:  MOVLB  0
05104:  CALL   1474
05108:  MOVLB  4
0510A:  INCF   xCD,F
....................             for(i=1;i<=4;i++){ 
0510C:  MOVLW  01
0510E:  MOVLB  5
05110:  MOVWF  xD2
05112:  MOVF   xD2,W
05114:  SUBLW  04
05116:  BNC   518C
....................                if(unidad==i){ 
05118:  MOVF   xD2,W
0511A:  MOVLB  4
0511C:  SUBWF  xCD,W
0511E:  BNZ   5156
....................                   displayContrasena(Contrasena[i-1],i*20,30,1); 
05120:  MOVLW  01
05122:  MOVLB  5
05124:  SUBWF  xD2,W
05126:  CLRF   03
05128:  ADDLW  06
0512A:  MOVWF  FE9
0512C:  MOVLW  05
0512E:  ADDWFC 03,W
05130:  MOVWF  FEA
05132:  MOVFF  FEF,5EA
05136:  MOVF   xD2,W
05138:  MULLW  14
0513A:  MOVFF  FF3,5EB
0513E:  MOVFF  5EA,5EC
05142:  MOVFF  5EB,5ED
05146:  MOVLW  1E
05148:  MOVWF  xEE
0514A:  MOVLW  01
0514C:  MOVWF  xEF
0514E:  MOVLB  0
05150:  RCALL  4CF0
....................                }else{ 
05152:  BRA    5186
05154:  MOVLB  4
....................                   displayContrasena(Contrasena[i-1],i*20,30,0); 
05156:  MOVLW  01
05158:  MOVLB  5
0515A:  SUBWF  xD2,W
0515C:  CLRF   03
0515E:  ADDLW  06
05160:  MOVWF  FE9
05162:  MOVLW  05
05164:  ADDWFC 03,W
05166:  MOVWF  FEA
05168:  MOVFF  FEF,5EA
0516C:  MOVF   xD2,W
0516E:  MULLW  14
05170:  MOVFF  FF3,5EB
05174:  MOVFF  5EA,5EC
05178:  MOVFF  5EB,5ED
0517C:  MOVLW  1E
0517E:  MOVWF  xEE
05180:  CLRF   xEF
05182:  MOVLB  0
05184:  RCALL  4CF0
....................                } 
....................             } 
05186:  MOVLB  5
05188:  INCF   xD2,F
0518A:  BRA    5112
0518C:  MOVLB  4
....................          } 
....................       }else{ 
0518E:  BRA    5192
....................          Flanco1 = 0; 
05190:  BCF    x2C.1
....................       } 
....................        
....................       if(LEFT){ 
05192:  BSF    F96.2
05194:  BTFSC  F84.2
05196:  BRA    51E0
....................          delay_ms(100); 
05198:  MOVLW  64
0519A:  MOVLB  5
0519C:  MOVWF  xF6
0519E:  MOVLB  0
051A0:  CALL   1474
....................          if(LEFT){ 
051A4:  BSF    F96.2
051A6:  BTFSC  F84.2
051A8:  BRA    51DE
....................             Menu=MenuAnt;glcd_fillScreen(OFF);n=0;Opcion=1;unidad=1; 
051AA:  MOVFF  5E3,4CC
051AE:  MOVLB  5
051B0:  CLRF   xEA
051B2:  MOVLB  0
051B4:  CALL   1554
051B8:  MOVLB  4
051BA:  BCF    x2E.5
051BC:  MOVLW  01
051BE:  MOVWF  xCE
051C0:  MOVWF  xCD
....................             Contrasena[0]=0;Contrasena[1]=0;Contrasena[2]=0;Contrasena[3]=0; 
051C2:  MOVLB  5
051C4:  CLRF   x06
051C6:  CLRF   x07
051C8:  CLRF   x08
051CA:  CLRF   x09
....................             glcd_fillScreen(OFF);glcd_update(); 
051CC:  CLRF   xEA
051CE:  MOVLB  0
051D0:  CALL   1554
051D4:  CALL   15AE
....................             return 1; 
051D8:  MOVLW  01
051DA:  MOVWF  01
051DC:  BRA    556C
051DE:  MOVLB  4
....................          } 
....................       } 
....................      
....................       if(unidad>4){ 
051E0:  MOVF   xCD,W
051E2:  SUBLW  04
051E4:  BTFSC  FD8.0
051E6:  BRA    556E
....................          glcd_fillScreen(OFF);unidad=1;flag_latencia=0;t_latencia=0; 
051E8:  MOVLB  5
051EA:  CLRF   xEA
051EC:  MOVLB  0
051EE:  CALL   1554
051F2:  MOVLW  01
051F4:  MOVLB  4
051F6:  MOVWF  xCD
051F8:  BCF    x2D.6
051FA:  CLRF   xE3
051FC:  CLRF   xE2
....................           
....................          if(Contrasena[0]==3&&Contrasena[1]==8&&Contrasena[2]==9&&Contrasena[3]==2 && MenuActual==0){ // Si Ingresa clave para reset general del sistema. 
051FE:  MOVLB  5
05200:  MOVF   x06,W
05202:  SUBLW  03
05204:  BTFSS  FD8.2
05206:  BRA    52FA
05208:  MOVF   x07,W
0520A:  SUBLW  08
0520C:  BTFSS  FD8.2
0520E:  BRA    52FA
05210:  MOVF   x08,W
05212:  SUBLW  09
05214:  BNZ   52FA
05216:  MOVF   x09,W
05218:  SUBLW  02
0521A:  BNZ   52FA
0521C:  MOVF   xE4,F
0521E:  BNZ   52FA
....................             write_eeprom(0,0);delay_ms(20);write_eeprom(1,0);delay_ms(20);// Reestablece a contrasea de Fabrica y reinicia Programa. 
05220:  CLRF   FAA
05222:  CLRF   FA9
05224:  CLRF   FA8
05226:  BCF    FA6.6
05228:  BCF    FA6.7
0522A:  BSF    FA6.2
0522C:  MOVF   FF2,W
0522E:  MOVWF  00
05230:  BCF    FF2.7
05232:  MOVLB  F
05234:  MOVLW  55
05236:  MOVWF  FA7
05238:  MOVLW  AA
0523A:  MOVWF  FA7
0523C:  BSF    FA6.1
0523E:  BTFSC  FA6.1
05240:  BRA    523E
05242:  BCF    FA6.2
05244:  MOVF   00,W
05246:  IORWF  FF2,F
05248:  MOVLW  14
0524A:  MOVLB  5
0524C:  MOVWF  xF6
0524E:  MOVLB  0
05250:  CALL   1474
05254:  CLRF   FAA
05256:  MOVLW  01
05258:  MOVWF  FA9
0525A:  CLRF   FA8
0525C:  BCF    FA6.6
0525E:  BCF    FA6.7
05260:  BSF    FA6.2
05262:  MOVF   FF2,W
05264:  MOVWF  00
05266:  BCF    FF2.7
05268:  MOVLB  F
0526A:  MOVLW  55
0526C:  MOVWF  FA7
0526E:  MOVLW  AA
05270:  MOVWF  FA7
05272:  BSF    FA6.1
05274:  BTFSC  FA6.1
05276:  BRA    5274
05278:  BCF    FA6.2
0527A:  MOVF   00,W
0527C:  IORWF  FF2,F
0527E:  MOVLW  14
05280:  MOVLB  5
05282:  MOVWF  xF6
05284:  MOVLB  0
05286:  CALL   1474
....................             write_eeprom(2,0);delay_ms(20);write_eeprom(3,0);delay_ms(20); 
0528A:  CLRF   FAA
0528C:  MOVLW  02
0528E:  MOVWF  FA9
05290:  CLRF   FA8
05292:  BCF    FA6.6
05294:  BCF    FA6.7
05296:  BSF    FA6.2
05298:  MOVF   FF2,W
0529A:  MOVWF  00
0529C:  BCF    FF2.7
0529E:  MOVLB  F
052A0:  MOVLW  55
052A2:  MOVWF  FA7
052A4:  MOVLW  AA
052A6:  MOVWF  FA7
052A8:  BSF    FA6.1
052AA:  BTFSC  FA6.1
052AC:  BRA    52AA
052AE:  BCF    FA6.2
052B0:  MOVF   00,W
052B2:  IORWF  FF2,F
052B4:  MOVLW  14
052B6:  MOVLB  5
052B8:  MOVWF  xF6
052BA:  MOVLB  0
052BC:  CALL   1474
052C0:  CLRF   FAA
052C2:  MOVLW  03
052C4:  MOVWF  FA9
052C6:  CLRF   FA8
052C8:  BCF    FA6.6
052CA:  BCF    FA6.7
052CC:  BSF    FA6.2
052CE:  MOVF   FF2,W
052D0:  MOVWF  00
052D2:  BCF    FF2.7
052D4:  MOVLB  F
052D6:  MOVLW  55
052D8:  MOVWF  FA7
052DA:  MOVLW  AA
052DC:  MOVWF  FA7
052DE:  BSF    FA6.1
052E0:  BTFSC  FA6.1
052E2:  BRA    52E0
052E4:  BCF    FA6.2
052E6:  MOVF   00,W
052E8:  IORWF  FF2,F
052EA:  MOVLW  14
052EC:  MOVLB  5
052EE:  MOVWF  xF6
052F0:  MOVLB  0
052F2:  CALL   1474
....................             reset_cpu(); 
052F6:  RESET
052F8:  MOVLB  5
....................          } 
....................        
....................          if((Contrasena[0]==clave0)&&(Contrasena[1]==clave1)&&(Contrasena[2]==clave2)&&(Contrasena[3]==clave3)){ 
052FA:  MOVF   xE6,W
052FC:  SUBWF  x06,W
052FE:  BTFSS  FD8.2
05300:  BRA    53E2
05302:  MOVF   xE7,W
05304:  SUBWF  x07,W
05306:  BNZ   53E2
05308:  MOVF   xE8,W
0530A:  SUBWF  x08,W
0530C:  BNZ   53E2
0530E:  MOVF   xE9,W
05310:  SUBWF  x09,W
05312:  BNZ   53E2
....................             glcd_fillScreen(OFF); 
05314:  CLRF   xEA
05316:  MOVLB  0
05318:  CALL   1554
....................             strcpy(Menus.Letra,"Clave"); 
0531C:  MOVLW  04
0531E:  MOVWF  FEA
05320:  MOVLW  16
05322:  MOVWF  FE9
05324:  MOVFF  FF2,5EA
05328:  BCF    FF2.7
0532A:  MOVLW  00
0532C:  CALL   0EEE
05330:  TBLRD*-
05332:  TBLRD*+
05334:  MOVF   FF5,W
05336:  MOVWF  FEE
05338:  IORLW  00
0533A:  BNZ   5332
0533C:  MOVLB  5
0533E:  BTFSC  xEA.7
05340:  BSF    FF2.7
....................             displayMenu(Menus.Letra,30,0,0,2); 
05342:  MOVLW  04
05344:  MOVWF  xEB
05346:  MOVLW  16
05348:  MOVWF  xEA
0534A:  MOVLW  1E
0534C:  MOVWF  xEC
0534E:  CLRF   xED
05350:  CLRF   xEE
05352:  MOVLW  02
05354:  MOVWF  xEF
05356:  MOVLB  0
05358:  RCALL  4DB4
....................             strcpy(Menus.Letra,"Correcta"); 
0535A:  MOVLW  04
0535C:  MOVWF  FEA
0535E:  MOVLW  16
05360:  MOVWF  FE9
05362:  MOVFF  FF2,5EA
05366:  BCF    FF2.7
05368:  MOVLW  00
0536A:  CALL   0F0E
0536E:  TBLRD*-
05370:  TBLRD*+
05372:  MOVF   FF5,W
05374:  MOVWF  FEE
05376:  IORLW  00
05378:  BNZ   5370
0537A:  MOVLB  5
0537C:  BTFSC  xEA.7
0537E:  BSF    FF2.7
....................             displayMenu(Menus.Letra,15,30,0,2); 
05380:  MOVLW  04
05382:  MOVWF  xEB
05384:  MOVLW  16
05386:  MOVWF  xEA
05388:  MOVLW  0F
0538A:  MOVWF  xEC
0538C:  MOVLW  1E
0538E:  MOVWF  xED
05390:  CLRF   xEE
05392:  MOVLW  02
05394:  MOVWF  xEF
05396:  MOVLB  0
05398:  RCALL  4DB4
....................             Menu=MenuPost;glcd_update();delay_ms(1000);glcd_fillScreen(OFF); 
0539A:  MOVFF  5E5,4CC
0539E:  CALL   15AE
053A2:  MOVLW  04
053A4:  MOVLB  5
053A6:  MOVWF  xEA
053A8:  MOVLW  FA
053AA:  MOVWF  xF6
053AC:  MOVLB  0
053AE:  CALL   1474
053B2:  MOVLB  5
053B4:  DECFSZ xEA,F
053B6:  BRA    53A8
053B8:  CLRF   xEA
053BA:  MOVLB  0
053BC:  CALL   1554
....................             Contrasena[0]=0;Contrasena[1]=0;Contrasena[2]=0;Contrasena[3]=0; 
053C0:  MOVLB  5
053C2:  CLRF   x06
053C4:  CLRF   x07
053C6:  CLRF   x08
053C8:  CLRF   x09
....................             if(MenuActual==0)tiempo_purga=1;n=0; 
053CA:  MOVF   xE4,F
053CC:  BNZ   53D2
053CE:  MOVLB  4
053D0:  BSF    x2D.4
053D2:  MOVLB  4
053D4:  BCF    x2E.5
....................             return 1; 
053D6:  MOVLW  01
053D8:  MOVWF  01
053DA:  MOVLB  0
053DC:  BRA    556C
....................          }else{ 
053DE:  BRA    556C
053E0:  MOVLB  5
....................             glcd_fillScreen(OFF); 
053E2:  CLRF   xEA
053E4:  MOVLB  0
053E6:  CALL   1554
....................             strcpy(Menus.Letra,"Clave"); 
053EA:  MOVLW  04
053EC:  MOVWF  FEA
053EE:  MOVLW  16
053F0:  MOVWF  FE9
053F2:  MOVFF  FF2,5EA
053F6:  BCF    FF2.7
053F8:  MOVLW  00
053FA:  CALL   0EEE
053FE:  TBLRD*-
05400:  TBLRD*+
05402:  MOVF   FF5,W
05404:  MOVWF  FEE
05406:  IORLW  00
05408:  BNZ   5400
0540A:  MOVLB  5
0540C:  BTFSC  xEA.7
0540E:  BSF    FF2.7
....................             displayMenu(Menus.Letra,30,0,0,2); 
05410:  MOVLW  04
05412:  MOVWF  xEB
05414:  MOVLW  16
05416:  MOVWF  xEA
05418:  MOVLW  1E
0541A:  MOVWF  xEC
0541C:  CLRF   xED
0541E:  CLRF   xEE
05420:  MOVLW  02
05422:  MOVWF  xEF
05424:  MOVLB  0
05426:  RCALL  4DB4
....................             strcpy(Menus.Letra,"Incorrecta"); 
05428:  MOVLW  04
0542A:  MOVWF  FEA
0542C:  MOVLW  16
0542E:  MOVWF  FE9
05430:  MOVFF  FF2,5EA
05434:  BCF    FF2.7
05436:  MOVLW  00
05438:  CALL   0F32
0543C:  TBLRD*-
0543E:  TBLRD*+
05440:  MOVF   FF5,W
05442:  MOVWF  FEE
05444:  IORLW  00
05446:  BNZ   543E
05448:  MOVLB  5
0544A:  BTFSC  xEA.7
0544C:  BSF    FF2.7
....................             displayMenu(Menus.Letra,0,30,0,2); 
0544E:  MOVLW  04
05450:  MOVWF  xEB
05452:  MOVLW  16
05454:  MOVWF  xEA
05456:  CLRF   xEC
05458:  MOVLW  1E
0545A:  MOVWF  xED
0545C:  CLRF   xEE
0545E:  MOVLW  02
05460:  MOVWF  xEF
05462:  MOVLB  0
05464:  RCALL  4DB4
....................             unidad=1;glcd_update();delay_ms(1000);Contrasena[0]=0;Contrasena[1]=0;Contrasena[2]=0;Contrasena[3]=0;glcd_fillScreen(OFF); 
05466:  MOVLW  01
05468:  MOVLB  4
0546A:  MOVWF  xCD
0546C:  MOVLB  0
0546E:  CALL   15AE
05472:  MOVLW  04
05474:  MOVLB  5
05476:  MOVWF  xEA
05478:  MOVLW  FA
0547A:  MOVWF  xF6
0547C:  MOVLB  0
0547E:  CALL   1474
05482:  MOVLB  5
05484:  DECFSZ xEA,F
05486:  BRA    5478
05488:  CLRF   x06
0548A:  CLRF   x07
0548C:  CLRF   x08
0548E:  CLRF   x09
05490:  CLRF   xEA
05492:  MOVLB  0
05494:  CALL   1554
....................             glcd_rect(0, 0, 127, 25, YES, ON);strcpy(Menus.Letra,"Clave");glcd_text57(25, 1, Menus.Letra, 3, OFF);displayContrasena(Contrasena[0],20,30,1); 
05498:  MOVLB  5
0549A:  CLRF   xFB
0549C:  CLRF   xFC
0549E:  MOVLW  7F
054A0:  MOVWF  xFD
054A2:  MOVLW  19
054A4:  MOVWF  xFE
054A6:  MOVLW  01
054A8:  MOVWF  xFF
054AA:  MOVLB  6
054AC:  MOVWF  x00
054AE:  MOVLB  0
054B0:  CALL   4C28
054B4:  MOVLW  04
054B6:  MOVWF  FEA
054B8:  MOVLW  16
054BA:  MOVWF  FE9
054BC:  MOVFF  FF2,5EA
054C0:  BCF    FF2.7
054C2:  MOVLW  00
054C4:  CALL   0EEE
054C8:  TBLRD*-
054CA:  TBLRD*+
054CC:  MOVF   FF5,W
054CE:  MOVWF  FEE
054D0:  IORLW  00
054D2:  BNZ   54CA
054D4:  MOVLB  5
054D6:  BTFSC  xEA.7
054D8:  BSF    FF2.7
054DA:  MOVLW  19
054DC:  MOVWF  xFB
054DE:  MOVLW  01
054E0:  MOVWF  xFC
054E2:  MOVLW  04
054E4:  MOVWF  xFE
054E6:  MOVLW  16
054E8:  MOVWF  xFD
054EA:  MOVLW  03
054EC:  MOVWF  xFF
054EE:  MOVLB  6
054F0:  CLRF   x00
054F2:  MOVLB  0
054F4:  CALL   17CA
054F8:  MOVFF  506,5EC
054FC:  MOVLW  14
054FE:  MOVLB  5
05500:  MOVWF  xED
05502:  MOVLW  1E
05504:  MOVWF  xEE
05506:  MOVLW  01
05508:  MOVWF  xEF
0550A:  MOVLB  0
0550C:  CALL   4CF0
....................             displayContrasena(Contrasena[1],40,30,0);displayContrasena(Contrasena[2],60,30,0);displayContrasena(Contrasena[0],80,30,0); 
05510:  MOVFF  507,5EC
05514:  MOVLW  28
05516:  MOVLB  5
05518:  MOVWF  xED
0551A:  MOVLW  1E
0551C:  MOVWF  xEE
0551E:  CLRF   xEF
05520:  MOVLB  0
05522:  CALL   4CF0
05526:  MOVFF  508,5EC
0552A:  MOVLW  3C
0552C:  MOVLB  5
0552E:  MOVWF  xED
05530:  MOVLW  1E
05532:  MOVWF  xEE
05534:  CLRF   xEF
05536:  MOVLB  0
05538:  CALL   4CF0
0553C:  MOVFF  506,5EC
05540:  MOVLW  50
05542:  MOVLB  5
05544:  MOVWF  xED
05546:  MOVLW  1E
05548:  MOVWF  xEE
0554A:  CLRF   xEF
0554C:  MOVLB  0
0554E:  CALL   4CF0
....................             Menu=MenuAnt;glcd_fillScreen(OFF);n=0; 
05552:  MOVFF  5E3,4CC
05556:  MOVLB  5
05558:  CLRF   xEA
0555A:  MOVLB  0
0555C:  CALL   1554
05560:  MOVLB  4
05562:  BCF    x2E.5
....................             return 0; 
05564:  MOVLW  00
05566:  MOVWF  01
05568:  MOVLB  0
0556A:  BRA    556C
0556C:  MOVLB  4
....................          } 
....................       } 
.................... } 
0556E:  MOVLB  0
05570:  RETLW  00
....................  
....................  
.................... #int_EXT            // Interrupcin de encoder para control. 
.................... void ext0() {       // 6 pulsos por vuelta. 
....................    pulsos++; 
*
0135A:  MOVLB  5
0135C:  INCF   xCE,F
0135E:  BTFSC  FD8.2
01360:  INCF   xCF,F
....................    if(pulsos>=120){ 
01362:  MOVF   xCF,F
01364:  BNZ   136C
01366:  MOVF   xCE,W
01368:  SUBLW  77
0136A:  BC    141C
....................       pulsos=0; 
0136C:  CLRF   xCF
0136E:  CLRF   xCE
....................       imprimir=1;Lectura=1;tiemporeset++; 
01370:  MOVLB  4
01372:  BSF    x2C.6
01374:  BSF    x2E.4
01376:  INCF   xD2,F
....................     
....................       if(flag_blower==1) 
01378:  BTFSS  x2C.7
0137A:  BRA    1382
....................          minutos_trabajo++;  
0137C:  INCF   xE6,F
0137E:  BTFSC  FD8.2
01380:  INCF   xE7,F
....................        
....................       if(tiempo_uv==1){ 
01382:  BTFSS  x2E.0
01384:  BRA    13D6
....................          segundos_uv++; 
01386:  INCF   xE0,F
01388:  BTFSC  FD8.2
0138A:  INCF   xE1,F
....................        
....................          if(Tempouv[0]>0){ 
0138C:  BTFSC  xFE.7
0138E:  BRA    139A
01390:  MOVF   xFE,W
01392:  SUBLW  00
01394:  BC    139A
....................             Tempouv[0]--; 
01396:  DECF   xFE,F
....................          }else{ 
01398:  BRA    13D6
....................             Tempouv[0]=9; 
0139A:  MOVLW  09
0139C:  MOVWF  xFE
....................             if(Tempouv[1]>0){ 
0139E:  BTFSC  xFF.7
013A0:  BRA    13AC
013A2:  MOVF   xFF,W
013A4:  SUBLW  00
013A6:  BC    13AC
....................                Tempouv[1]--; 
013A8:  DECF   xFF,F
....................             }else{ 
013AA:  BRA    13D6
....................                Tempouv[1]=5; 
013AC:  MOVLW  05
013AE:  MOVWF  xFF
....................                if(Tempouv[2]>0){ 
013B0:  MOVLB  5
013B2:  BTFSC  x00.7
013B4:  BRA    13C0
013B6:  MOVF   x00,W
013B8:  SUBLW  00
013BA:  BC    13C0
....................                   Tempouv[2]--; 
013BC:  DECF   x00,F
....................                }else{ 
013BE:  BRA    13D8
....................                   Tempouv[2]=9; 
013C0:  MOVLW  09
013C2:  MOVWF  x00
....................                   if(Tempouv[3]>0){ 
013C4:  BTFSC  x01.7
013C6:  BRA    13D2
013C8:  MOVF   x01,W
013CA:  SUBLW  00
013CC:  BC    13D2
....................                      Tempouv[3]--; 
013CE:  DECF   x01,F
....................                   }else{ 
013D0:  BRA    13D8
....................                      tiempocumplido=1; 
013D2:  MOVLB  4
013D4:  BSF    x2E.2
013D6:  MOVLB  5
....................                   } 
....................                } 
....................             } 
....................          }     
....................       } 
....................    
....................       if(tiempo_purga==1 || Purga){                   
013D8:  MOVLB  4
013DA:  BTFSC  x2D.4
013DC:  BRA    13E2
013DE:  BTFSS  x2E.7
013E0:  BRA    141A
....................          Tpurga[0]++; 
013E2:  INCF   xEA,F
....................          if(Tpurga[0]>9){ 
013E4:  BTFSC  xEA.7
013E6:  BRA    13F2
013E8:  MOVF   xEA,W
013EA:  SUBLW  09
013EC:  BC    13F2
....................             Tpurga[0]=0; 
013EE:  CLRF   xEA
....................             Tpurga[1]++; 
013F0:  INCF   xEB,F
....................          } 
....................          if(Tpurga[1]>5){ 
013F2:  BTFSC  xEB.7
013F4:  BRA    1400
013F6:  MOVF   xEB,W
013F8:  SUBLW  05
013FA:  BC    1400
....................             Tpurga[1]=0; 
013FC:  CLRF   xEB
....................             Tpurga[2]++; 
013FE:  INCF   xEC,F
....................          } 
....................          if(Tpurga[2]>9){ 
01400:  BTFSC  xEC.7
01402:  BRA    140E
01404:  MOVF   xEC,W
01406:  SUBLW  09
01408:  BC    140E
....................             Tpurga[2]=0; 
0140A:  CLRF   xEC
....................             Tpurga[3]++; 
0140C:  INCF   xED,F
....................          } 
....................          if(Tpurga[3]>5){ 
0140E:  BTFSC  xED.7
01410:  BRA    141A
01412:  MOVF   xED,W
01414:  SUBLW  05
01416:  BC    141A
....................             Tpurga[3]=0; 
01418:  CLRF   xED
0141A:  MOVLB  5
....................          } 
....................       }  
....................    } 
....................    tiempocruce=0; 
0141C:  CLRF   xD7
0141E:  CLRF   xD6
....................    Cruce=ON; 
01420:  MOVLB  4
01422:  BSF    x2E.6
....................    if(VelMotor<6){ 
01424:  MOVLB  5
01426:  MOVF   xD9,W
01428:  SUBLW  05
0142A:  BNC   146C
....................       if(VelMotor>0 && Porcentaje<100){ 
0142C:  MOVF   xD9,F
0142E:  BZ    1468
01430:  MOVF   xD8,W
01432:  SUBLW  63
01434:  BNC   1468
....................          delay_us(retardo);       
01436:  MOVFF  5D1,627
0143A:  MOVLB  6
0143C:  INCF   x27,F
0143E:  DECF   x27,F
01440:  BTFSC  FD8.2
01442:  BRA    1450
01444:  MOVLW  FF
01446:  MOVWF  x28
01448:  MOVLB  0
0144A:  RCALL  133A
0144C:  MOVLB  6
0144E:  BRA    143E
01450:  MOVFF  5D0,628
01454:  MOVLB  0
01456:  RCALL  133A
....................          Motor_on; 
01458:  BSF    F8B.2
0145A:  BCF    F94.2
....................          delay_us(100);       
0145C:  MOVLW  A6
0145E:  MOVWF  00
01460:  DECFSZ 00,F
01462:  BRA    1460
01464:  NOP   
01466:  MOVLB  5
....................       } 
....................       Motor_off; 
01468:  BCF    F8B.2
0146A:  BCF    F94.2
....................    } 
.................... } 
....................  
0146C:  BCF    FF2.1
0146E:  MOVLB  0
01470:  GOTO   0054
.................... void glcd_imagen(int8 x) 
.................... { 
....................    char i,j; 
....................    signed char k;  
....................       
....................    if(x==3){ 
*
05D36:  MOVLB  5
05D38:  MOVF   xE2,W
05D3A:  SUBLW  03
05D3C:  BNZ   5DE4
....................    for( i = 0 ; i < 64 ; i ++ ) 
05D3E:  CLRF   xE3
05D40:  MOVF   xE3,W
05D42:  SUBLW  3F
05D44:  BNC   5DE4
....................    {  for( j = 0 ; j < 16 ; j ++) 
05D46:  CLRF   xE4
05D48:  MOVF   xE4,W
05D4A:  SUBLW  0F
05D4C:  BNC   5DE0
....................       {  for(k=7;k>-1;k--) 
05D4E:  MOVLW  07
05D50:  MOVWF  xE5
05D52:  MOVF   xE5,W
05D54:  XORLW  80
05D56:  SUBLW  7F
05D58:  BC    5DDC
....................          {       
....................             if( bit_test(Bombillo[i][j] ,7-k ))  
05D5A:  CLRF   xE7
05D5C:  MOVFF  5E3,5E6
05D60:  CLRF   xE9
05D62:  MOVLW  10
05D64:  MOVWF  xE8
05D66:  MOVLB  0
05D68:  RCALL  5D14
05D6A:  MOVFF  02,5E7
05D6E:  MOVFF  01,5E6
05D72:  MOVLB  5
05D74:  MOVF   xE4,W
05D76:  ADDWF  01,W
05D78:  MOVWF  01
05D7A:  MOVLW  00
05D7C:  ADDWFC 02,W
05D7E:  MOVWF  03
05D80:  MOVF   01,W
05D82:  MOVFF  FF2,5E6
05D86:  BCF    FF2.7
05D88:  MOVFF  03,FF7
05D8C:  MOVLB  0
05D8E:  CALL   02A6
05D92:  MOVLB  5
05D94:  BTFSC  xE6.7
05D96:  BSF    FF2.7
05D98:  MOVWF  xE6
05D9A:  MOVLW  07
05D9C:  BSF    FD8.0
05D9E:  SUBFWB xE5,W
05DA0:  MOVWF  xE7
05DA2:  MOVFF  5E6,00
05DA6:  MOVF   xE7,W
05DA8:  MOVWF  01
05DAA:  BZ    5DB4
05DAC:  BCF    FD8.0
05DAE:  RRCF   00,F
05DB0:  DECFSZ 01,F
05DB2:  BRA    5DAC
05DB4:  BTFSS  00.0
05DB6:  BRA    5DD8
....................                glcd_pixel( j*8+k,i, ON ); 
05DB8:  MOVF   xE4,W
05DBA:  MULLW  08
05DBC:  MOVF   FF3,W
05DBE:  ADDWF  xE5,W
05DC0:  MOVWF  xE6
05DC2:  MOVFF  FE8,616
05DC6:  MOVFF  5E3,617
05DCA:  MOVLW  01
05DCC:  MOVLB  6
05DCE:  MOVWF  x18
05DD0:  MOVLB  0
05DD2:  CALL   170E
05DD6:  MOVLB  5
....................          }   
05DD8:  DECF   xE5,F
05DDA:  BRA    5D52
....................       } 
05DDC:  INCF   xE4,F
05DDE:  BRA    5D48
....................    } 
05DE0:  INCF   xE3,F
05DE2:  BRA    5D40
....................    } 
....................     
....................    if(x==4){ 
05DE4:  MOVF   xE2,W
05DE6:  SUBLW  04
05DE8:  BNZ   5E90
....................    for( i = 0 ; i < 64 ; i ++ ) 
05DEA:  CLRF   xE3
05DEC:  MOVF   xE3,W
05DEE:  SUBLW  3F
05DF0:  BNC   5E90
....................    {  for( j = 0 ; j < 16 ; j ++) 
05DF2:  CLRF   xE4
05DF4:  MOVF   xE4,W
05DF6:  SUBLW  0F
05DF8:  BNC   5E8C
....................       {  for(k=7;k>-1;k--) 
05DFA:  MOVLW  07
05DFC:  MOVWF  xE5
05DFE:  MOVF   xE5,W
05E00:  XORLW  80
05E02:  SUBLW  7F
05E04:  BC    5E88
....................          {       
....................             if( bit_test(Tomai[i][j] ,7-k ))  
05E06:  CLRF   xE7
05E08:  MOVFF  5E3,5E6
05E0C:  CLRF   xE9
05E0E:  MOVLW  10
05E10:  MOVWF  xE8
05E12:  MOVLB  0
05E14:  RCALL  5D14
05E16:  MOVFF  02,5E7
05E1A:  MOVFF  01,5E6
05E1E:  MOVLB  5
05E20:  MOVF   xE4,W
05E22:  ADDWF  01,W
05E24:  MOVWF  01
05E26:  MOVLW  00
05E28:  ADDWFC 02,W
05E2A:  MOVWF  03
05E2C:  MOVF   01,W
05E2E:  MOVFF  FF2,5E6
05E32:  BCF    FF2.7
05E34:  MOVFF  03,FF7
05E38:  MOVLB  0
05E3A:  CALL   06BE
05E3E:  MOVLB  5
05E40:  BTFSC  xE6.7
05E42:  BSF    FF2.7
05E44:  MOVWF  xE6
05E46:  MOVLW  07
05E48:  BSF    FD8.0
05E4A:  SUBFWB xE5,W
05E4C:  MOVWF  xE7
05E4E:  MOVFF  5E6,00
05E52:  MOVF   xE7,W
05E54:  MOVWF  01
05E56:  BZ    5E60
05E58:  BCF    FD8.0
05E5A:  RRCF   00,F
05E5C:  DECFSZ 01,F
05E5E:  BRA    5E58
05E60:  BTFSS  00.0
05E62:  BRA    5E84
....................                glcd_pixel( j*8+k,i, ON ); 
05E64:  MOVF   xE4,W
05E66:  MULLW  08
05E68:  MOVF   FF3,W
05E6A:  ADDWF  xE5,W
05E6C:  MOVWF  xE6
05E6E:  MOVFF  FE8,616
05E72:  MOVFF  5E3,617
05E76:  MOVLW  01
05E78:  MOVLB  6
05E7A:  MOVWF  x18
05E7C:  MOVLB  0
05E7E:  CALL   170E
05E82:  MOVLB  5
....................          }   
05E84:  DECF   xE5,F
05E86:  BRA    5DFE
....................       } 
05E88:  INCF   xE4,F
05E8A:  BRA    5DF4
....................    } 
05E8C:  INCF   xE3,F
05E8E:  BRA    5DEC
....................    } 
....................     
....................    if(x==5){ 
05E90:  MOVF   xE2,W
05E92:  SUBLW  05
05E94:  BNZ   5F3C
....................    for( i = 0 ; i < 64 ; i ++ ) 
05E96:  CLRF   xE3
05E98:  MOVF   xE3,W
05E9A:  SUBLW  3F
05E9C:  BNC   5F3C
....................    {  for( j = 0 ; j < 16 ; j ++) 
05E9E:  CLRF   xE4
05EA0:  MOVF   xE4,W
05EA2:  SUBLW  0F
05EA4:  BNC   5F38
....................       {  for(k=7;k>-1;k--) 
05EA6:  MOVLW  07
05EA8:  MOVWF  xE5
05EAA:  MOVF   xE5,W
05EAC:  XORLW  80
05EAE:  SUBLW  7F
05EB0:  BC    5F34
....................          {       
....................             if( bit_test(Ventilador[i][j] ,7-k ))  
05EB2:  CLRF   xE7
05EB4:  MOVFF  5E3,5E6
05EB8:  CLRF   xE9
05EBA:  MOVLW  10
05EBC:  MOVWF  xE8
05EBE:  MOVLB  0
05EC0:  RCALL  5D14
05EC2:  MOVFF  02,5E7
05EC6:  MOVFF  01,5E6
05ECA:  MOVLB  5
05ECC:  MOVF   xE4,W
05ECE:  ADDWF  01,W
05ED0:  MOVWF  01
05ED2:  MOVLW  00
05ED4:  ADDWFC 02,W
05ED6:  MOVWF  03
05ED8:  MOVF   01,W
05EDA:  MOVFF  FF2,5E6
05EDE:  BCF    FF2.7
05EE0:  MOVFF  03,FF7
05EE4:  MOVLB  0
05EE6:  CALL   0AD6
05EEA:  MOVLB  5
05EEC:  BTFSC  xE6.7
05EEE:  BSF    FF2.7
05EF0:  MOVWF  xE6
05EF2:  MOVLW  07
05EF4:  BSF    FD8.0
05EF6:  SUBFWB xE5,W
05EF8:  MOVWF  xE7
05EFA:  MOVFF  5E6,00
05EFE:  MOVF   xE7,W
05F00:  MOVWF  01
05F02:  BZ    5F0C
05F04:  BCF    FD8.0
05F06:  RRCF   00,F
05F08:  DECFSZ 01,F
05F0A:  BRA    5F04
05F0C:  BTFSS  00.0
05F0E:  BRA    5F30
....................                glcd_pixel( j*8+k,i, ON ); 
05F10:  MOVF   xE4,W
05F12:  MULLW  08
05F14:  MOVF   FF3,W
05F16:  ADDWF  xE5,W
05F18:  MOVWF  xE6
05F1A:  MOVFF  FE8,616
05F1E:  MOVFF  5E3,617
05F22:  MOVLW  01
05F24:  MOVLB  6
05F26:  MOVWF  x18
05F28:  MOVLB  0
05F2A:  CALL   170E
05F2E:  MOVLB  5
....................          }   
05F30:  DECF   xE5,F
05F32:  BRA    5EAA
....................       } 
05F34:  INCF   xE4,F
05F36:  BRA    5EA0
....................    } 
05F38:  INCF   xE3,F
05F3A:  BRA    5E98
....................    } 
.................... } 
05F3C:  MOVLB  0
05F3E:  RETLW  00
....................  
....................  
.................... Float LeerFlujoInFlow(int media) 
.................... { 
....................     InFlow_adc=sensores(1); 
*
041FC:  MOVLW  01
041FE:  MOVLB  5
04200:  MOVWF  xF3
04202:  MOVLB  0
04204:  CALL   2F3E
04208:  MOVFF  02,4DB
0420C:  MOVFF  01,4DA
....................        
....................     if(negativo==10) 
04210:  MOVLB  4
04212:  MOVF   xCF,W
04214:  SUBLW  0A
04216:  BNZ   425E
....................     { 
....................       x_uno=Inflow_adc+Diferencia; 
04218:  MOVFF  4DB,618
0421C:  MOVFF  4DA,617
04220:  MOVLB  0
04222:  CALL   19A0
04226:  BCF    FD8.1
04228:  MOVFF  03,61A
0422C:  MOVFF  02,619
04230:  MOVFF  01,618
04234:  MOVFF  00,617
04238:  MOVFF  51D,61E
0423C:  MOVFF  51C,61D
04240:  MOVFF  51B,61C
04244:  MOVFF  51A,61B
04248:  CALL   1B34
0424C:  MOVFF  03,52D
04250:  MOVFF  02,52C
04254:  MOVFF  01,52B
04258:  MOVFF  00,52A
0425C:  MOVLB  4
....................     } 
....................     if(negativo==20) 
0425E:  MOVF   xCF,W
04260:  SUBLW  14
04262:  BNZ   42A8
....................     { 
....................       x_uno=Inflow_adc-Diferencia; 
04264:  MOVFF  4DB,618
04268:  MOVFF  4DA,617
0426C:  MOVLB  0
0426E:  CALL   19A0
04272:  BSF    FD8.1
04274:  MOVFF  03,61A
04278:  MOVFF  02,619
0427C:  MOVFF  01,618
04280:  MOVFF  00,617
04284:  MOVFF  51D,61E
04288:  MOVFF  51C,61D
0428C:  MOVFF  51B,61C
04290:  MOVFF  51A,61B
04294:  CALL   1B34
04298:  MOVFF  03,52D
0429C:  MOVFF  02,52C
042A0:  MOVFF  01,52B
042A4:  MOVFF  00,52A
....................     } 
....................     Velocidad=(pow(x_uno,3)*a)+(pow(x_uno,2)*b)+(x_uno*c)+(d); 
042A8:  MOVFF  52D,5EA
042AC:  MOVFF  52C,5E9
042B0:  MOVFF  52B,5E8
042B4:  MOVFF  52A,5E7
042B8:  MOVLB  5
042BA:  CLRF   xEE
042BC:  CLRF   xED
042BE:  MOVLW  40
042C0:  MOVWF  xEC
042C2:  MOVLW  80
042C4:  MOVWF  xEB
042C6:  MOVLB  0
042C8:  RCALL  3EF0
042CA:  MOVFF  00,5E3
042CE:  MOVFF  01,5E4
042D2:  MOVFF  02,5E5
042D6:  MOVFF  03,5E6
042DA:  MOVFF  03,616
042DE:  MOVFF  02,615
042E2:  MOVFF  01,614
042E6:  MOVFF  00,613
042EA:  MOVFF  549,61A
042EE:  MOVFF  548,619
042F2:  MOVFF  547,618
042F6:  MOVFF  546,617
042FA:  CALL   2FB8
042FE:  MOVFF  00,5E3
04302:  MOVFF  01,5E4
04306:  MOVFF  02,5E5
0430A:  MOVFF  03,5E6
0430E:  MOVFF  52D,5EA
04312:  MOVFF  52C,5E9
04316:  MOVFF  52B,5E8
0431A:  MOVFF  52A,5E7
0431E:  MOVLB  5
04320:  CLRF   xEE
04322:  CLRF   xED
04324:  CLRF   xEC
04326:  MOVLW  80
04328:  MOVWF  xEB
0432A:  MOVLB  0
0432C:  RCALL  3EF0
0432E:  MOVFF  00,5E7
04332:  MOVFF  01,5E8
04336:  MOVFF  02,5E9
0433A:  MOVFF  03,5EA
0433E:  MOVFF  03,616
04342:  MOVFF  02,615
04346:  MOVFF  01,614
0434A:  MOVFF  00,613
0434E:  MOVFF  54D,61A
04352:  MOVFF  54C,619
04356:  MOVFF  54B,618
0435A:  MOVFF  54A,617
0435E:  CALL   2FB8
04362:  MOVFF  FEA,5E8
04366:  MOVFF  FE9,5E7
0436A:  BCF    FD8.1
0436C:  MOVFF  5E6,61A
04370:  MOVFF  5E5,619
04374:  MOVFF  5E4,618
04378:  MOVFF  5E3,617
0437C:  MOVFF  03,61E
04380:  MOVFF  02,61D
04384:  MOVFF  01,61C
04388:  MOVFF  00,61B
0438C:  CALL   1B34
04390:  MOVFF  5E8,FEA
04394:  MOVFF  5E7,FE9
04398:  MOVFF  00,5E3
0439C:  MOVFF  01,5E4
043A0:  MOVFF  02,5E5
043A4:  MOVFF  03,5E6
043A8:  MOVFF  52D,616
043AC:  MOVFF  52C,615
043B0:  MOVFF  52B,614
043B4:  MOVFF  52A,613
043B8:  MOVFF  551,61A
043BC:  MOVFF  550,619
043C0:  MOVFF  54F,618
043C4:  MOVFF  54E,617
043C8:  CALL   2FB8
043CC:  MOVFF  FEA,5EA
043D0:  MOVFF  FE9,5E9
043D4:  BCF    FD8.1
043D6:  MOVFF  5E6,61A
043DA:  MOVFF  5E5,619
043DE:  MOVFF  5E4,618
043E2:  MOVFF  5E3,617
043E6:  MOVFF  03,61E
043EA:  MOVFF  02,61D
043EE:  MOVFF  01,61C
043F2:  MOVFF  00,61B
043F6:  CALL   1B34
043FA:  MOVFF  5EA,FEA
043FE:  MOVFF  5E9,FE9
04402:  MOVFF  00,5E3
04406:  MOVFF  01,5E4
0440A:  MOVFF  02,5E5
0440E:  MOVFF  03,5E6
04412:  MOVFF  FEA,5EC
04416:  MOVFF  FE9,5EB
0441A:  BCF    FD8.1
0441C:  MOVFF  03,61A
04420:  MOVFF  02,619
04424:  MOVFF  01,618
04428:  MOVFF  00,617
0442C:  MOVFF  555,61E
04430:  MOVFF  554,61D
04434:  MOVFF  553,61C
04438:  MOVFF  552,61B
0443C:  CALL   1B34
04440:  MOVFF  5EC,FEA
04444:  MOVFF  5EB,FE9
04448:  MOVFF  03,529
0444C:  MOVFF  02,528
04450:  MOVFF  01,527
04454:  MOVFF  00,526
....................     //Velocidad=Velocidad*correccion;//Ajuste de Temperatura 
....................      
....................     if(Velocidad<0.0) 
04458:  MOVFF  529,616
0445C:  MOVFF  528,615
04460:  MOVFF  527,614
04464:  MOVFF  526,613
04468:  MOVLB  6
0446A:  CLRF   x1A
0446C:  CLRF   x19
0446E:  CLRF   x18
04470:  CLRF   x17
04472:  MOVLB  0
04474:  CALL   2538
04478:  BNC   4484
....................      {Velocidad=0.0;} 
0447A:  MOVLB  5
0447C:  CLRF   x29
0447E:  CLRF   x28
04480:  CLRF   x27
04482:  CLRF   x26
....................       
....................      if(l>=media) 
04484:  MOVLB  5
04486:  MOVF   xE2,W
04488:  MOVLB  4
0448A:  SUBWF  xD5,W
0448C:  BNC   4490
....................        {l=0;} 
0448E:  CLRF   xD5
....................       
....................      promedio[l]=Velocidad;l++; 
04490:  MOVF   xD5,W
04492:  MULLW  04
04494:  MOVF   FF3,W
04496:  CLRF   03
04498:  ADDLW  56
0449A:  MOVWF  FE9
0449C:  MOVLW  05
0449E:  ADDWFC 03,W
044A0:  MOVWF  FEA
044A2:  MOVFF  526,FEF
044A6:  MOVFF  527,FEC
044AA:  MOVFF  528,FEC
044AE:  MOVFF  529,FEC
044B2:  INCF   xD5,F
....................      Flujo=0; 
044B4:  MOVLB  5
044B6:  CLRF   xB9
044B8:  CLRF   xB8
044BA:  CLRF   xB7
044BC:  CLRF   xB6
....................         for(h=0;h<=(media-1);h++) 
044BE:  MOVLB  4
044C0:  CLRF   xD6
044C2:  MOVLW  01
044C4:  MOVLB  5
044C6:  SUBWF  xE2,W
044C8:  MOVLB  4
044CA:  SUBWF  xD6,W
044CC:  BZ    44D0
044CE:  BC    4540
....................         { 
....................            Flujo+=promedio[h]; 
044D0:  MOVF   xD6,W
044D2:  MULLW  04
044D4:  MOVF   FF3,W
044D6:  CLRF   03
044D8:  ADDLW  56
044DA:  MOVWF  FE9
044DC:  MOVLW  05
044DE:  ADDWFC 03,W
044E0:  MOVWF  FEA
044E2:  MOVFF  FEF,00
044E6:  MOVFF  FEC,01
044EA:  MOVFF  FEC,02
044EE:  MOVFF  FEC,03
044F2:  MOVFF  FEA,5E4
044F6:  MOVFF  FE9,5E3
044FA:  BCF    FD8.1
044FC:  MOVFF  5B9,61A
04500:  MOVFF  5B8,619
04504:  MOVFF  5B7,618
04508:  MOVFF  5B6,617
0450C:  MOVFF  03,61E
04510:  MOVFF  02,61D
04514:  MOVFF  01,61C
04518:  MOVFF  00,61B
0451C:  MOVLB  0
0451E:  CALL   1B34
04522:  MOVFF  5E4,FEA
04526:  MOVFF  5E3,FE9
0452A:  MOVFF  03,5B9
0452E:  MOVFF  02,5B8
04532:  MOVFF  01,5B7
04536:  MOVFF  00,5B6
....................         }  
0453A:  MOVLB  4
0453C:  INCF   xD6,F
0453E:  BRA    44C2
....................            Flujo=(Flujo/media)*Ajuste1;  
04540:  MOVLB  6
04542:  CLRF   x18
04544:  MOVFF  5E2,617
04548:  MOVLB  0
0454A:  CALL   19A0
0454E:  MOVFF  5B9,616
04552:  MOVFF  5B8,615
04556:  MOVFF  5B7,614
0455A:  MOVFF  5B6,613
0455E:  MOVFF  03,61A
04562:  MOVFF  02,619
04566:  MOVFF  01,618
0456A:  MOVFF  00,617
0456E:  CALL   19D6
04572:  MOVFF  00,5E3
04576:  MOVFF  01,5E4
0457A:  MOVFF  02,5E5
0457E:  MOVFF  03,5E6
04582:  MOVFF  03,616
04586:  MOVFF  02,615
0458A:  MOVFF  01,614
0458E:  MOVFF  00,613
04592:  MOVFF  539,61A
04596:  MOVFF  538,619
0459A:  MOVFF  537,618
0459E:  MOVFF  536,617
045A2:  CALL   2FB8
045A6:  MOVFF  03,5B9
045AA:  MOVFF  02,5B8
045AE:  MOVFF  01,5B7
045B2:  MOVFF  00,5B6
....................            return Flujo; 
045B6:  MOVFF  5B6,00
045BA:  MOVFF  5B7,01
045BE:  MOVFF  5B8,02
045C2:  MOVFF  5B9,03
.................... } 
045C6:  GOTO   667C (RETURN)
....................  
.................... void main(){ 
*
0603E:  CLRF   FF8
06040:  BCF    FD0.7
06042:  BSF    07.7
06044:  CLRF   FEA
06046:  CLRF   FE9
06048:  MOVLB  4
0604A:  BCF    x2C.0
0604C:  BCF    x2C.1
0604E:  BCF    x2C.2
06050:  BCF    x2C.3
06052:  BCF    x2C.4
06054:  BCF    x2C.5
06056:  BCF    x2C.6
06058:  BCF    x2C.7
0605A:  BCF    x2D.0
0605C:  BCF    x2D.1
0605E:  BCF    x2D.2
06060:  BCF    x2D.3
06062:  BCF    x2D.4
06064:  BCF    x2D.5
06066:  BCF    x2D.6
06068:  BCF    x2D.7
0606A:  BCF    x2E.0
0606C:  BCF    x2E.1
0606E:  BSF    x2E.2
06070:  BCF    x2E.3
06072:  BCF    x2E.4
06074:  BCF    x2E.5
06076:  MOVLW  C8
06078:  MOVWF  xCC
0607A:  MOVLW  01
0607C:  MOVWF  xCD
0607E:  MOVWF  xCE
06080:  MOVLW  0A
06082:  MOVWF  xCF
06084:  CLRF   xD0
06086:  CLRF   xD1
06088:  CLRF   xD2
0608A:  CLRF   xD3
0608C:  CLRF   xD4
0608E:  CLRF   xD5
06090:  CLRF   xD6
06092:  CLRF   xD7
06094:  CLRF   xD8
06096:  MOVWF  xD9
06098:  CLRF   xDB
0609A:  CLRF   xDA
0609C:  CLRF   xDD
0609E:  CLRF   xDC
060A0:  CLRF   xDF
060A2:  CLRF   xDE
060A4:  CLRF   xE1
060A6:  CLRF   xE0
060A8:  CLRF   xE3
060AA:  CLRF   xE2
060AC:  CLRF   xE5
060AE:  CLRF   xE4
060B0:  CLRF   xE7
060B2:  CLRF   xE6
060B4:  CLRF   xE9
060B6:  CLRF   xE8
060B8:  MOVLB  5
060BA:  CLRF   x11
060BC:  CLRF   x10
060BE:  CLRF   x0F
060C0:  CLRF   x0E
060C2:  CLRF   x15
060C4:  CLRF   x14
060C6:  CLRF   x13
060C8:  CLRF   x12
060CA:  CLRF   x19
060CC:  CLRF   x18
060CE:  CLRF   x17
060D0:  CLRF   x16
060D2:  CLRF   x1D
060D4:  CLRF   x1C
060D6:  CLRF   x1B
060D8:  CLRF   x1A
060DA:  CLRF   x21
060DC:  CLRF   x20
060DE:  CLRF   x1F
060E0:  CLRF   x1E
060E2:  CLRF   x25
060E4:  CLRF   x24
060E6:  CLRF   x23
060E8:  CLRF   x22
060EA:  CLRF   x29
060EC:  CLRF   x28
060EE:  CLRF   x27
060F0:  CLRF   x26
060F2:  CLRF   x2D
060F4:  CLRF   x2C
060F6:  CLRF   x2B
060F8:  CLRF   x2A
060FA:  CLRF   x31
060FC:  CLRF   x30
060FE:  CLRF   x2F
06100:  CLRF   x2E
06102:  CLRF   x35
06104:  CLRF   x34
06106:  CLRF   x33
06108:  CLRF   x32
0610A:  CLRF   x39
0610C:  CLRF   x38
0610E:  CLRF   x37
06110:  CLRF   x36
06112:  CLRF   x3D
06114:  CLRF   x3C
06116:  CLRF   x3B
06118:  CLRF   x3A
0611A:  CLRF   x41
0611C:  CLRF   x40
0611E:  CLRF   x3F
06120:  CLRF   x3E
06122:  CLRF   x45
06124:  CLRF   x44
06126:  CLRF   x43
06128:  CLRF   x42
0612A:  MOVLW  29
0612C:  MOVWF  x49
0612E:  MOVLW  B6
06130:  MOVWF  x48
06132:  MOVLW  20
06134:  MOVWF  x47
06136:  MOVLW  6E
06138:  MOVWF  x46
0613A:  MOVLW  EE
0613C:  MOVWF  x4D
0613E:  MOVLW  7D
06140:  MOVWF  x4C
06142:  MOVLW  EE
06144:  MOVWF  x4B
06146:  MOVLW  77
06148:  MOVWF  x4A
0614A:  MOVLW  ED
0614C:  MOVWF  x51
0614E:  MOVLW  47
06150:  MOVWF  x50
06152:  MOVLW  6D
06154:  MOVWF  x4F
06156:  MOVLW  7F
06158:  MOVWF  x4E
0615A:  MOVLW  1A
0615C:  MOVWF  x55
0615E:  MOVLW  D1
06160:  MOVWF  x54
06162:  MOVLW  9C
06164:  MOVWF  x53
06166:  MOVLW  86
06168:  MOVWF  x52
0616A:  CLRF   xB9
0616C:  CLRF   xB8
0616E:  CLRF   xB7
06170:  CLRF   xB6
06172:  CLRF   xBD
06174:  CLRF   xBC
06176:  MOVLW  50
06178:  MOVWF  xBB
0617A:  MOVLW  86
0617C:  MOVWF  xBA
0617E:  CLRF   xC1
06180:  CLRF   xC0
06182:  CLRF   xBF
06184:  CLRF   xBE
06186:  CLRF   xC5
06188:  CLRF   xC4
0618A:  CLRF   xC3
0618C:  CLRF   xC2
0618E:  CLRF   xC9
06190:  CLRF   xC8
06192:  CLRF   xC7
06194:  CLRF   xC6
06196:  CLRF   xCD
06198:  CLRF   xCC
0619A:  CLRF   xCB
0619C:  MOVLW  80
0619E:  MOVWF  xCA
061A0:  CLRF   xCF
061A2:  CLRF   xCE
061A4:  CLRF   xD1
061A6:  CLRF   xD0
061A8:  CLRF   xD2
061AA:  CLRF   xD3
061AC:  CLRF   xD4
061AE:  CLRF   xD5
061B0:  MOVLB  4
061B2:  BCF    x2E.6
061B4:  BCF    x2E.7
061B6:  MOVLB  5
061B8:  CLRF   xD7
061BA:  CLRF   xD6
061BC:  CLRF   xD8
061BE:  CLRF   xD9
061C0:  CLRF   xDD
061C2:  CLRF   xDC
061C4:  CLRF   xDB
061C6:  CLRF   xDA
061C8:  CLRF   xE1
061CA:  CLRF   xE0
061CC:  CLRF   xDF
061CE:  CLRF   xDE
061D0:  MOVF   FC1,W
061D2:  ANDLW  C0
061D4:  IORLW  0F
061D6:  MOVWF  FC1
061D8:  MOVLW  07
061DA:  MOVWF  FB4
061DC:  MOVLB  4
061DE:  CLRF   x2A
061E0:  CLRF   x2B
061E2:  MOVLW  4A
061E4:  MOVWF  x2F
061E6:  MOVLW  50
061E8:  MOVWF  x30
061EA:  MOVLW  20
061EC:  MOVWF  x31
061EE:  MOVLW  49
061F0:  MOVWF  x32
061F2:  MOVLW  6E
061F4:  MOVWF  x33
061F6:  MOVLW  67
061F8:  MOVWF  x34
061FA:  MOVLW  6C
061FC:  MOVWF  x35
061FE:  MOVLW  6F
06200:  MOVWF  x36
06202:  MOVLW  62
06204:  MOVWF  x37
06206:  MOVLW  61
06208:  MOVWF  x38
0620A:  MOVLW  6C
0620C:  MOVWF  x39
0620E:  CLRF   x3A
06210:  MOVLW  43
06212:  MOVWF  x3B
06214:  MOVLW  61
06216:  MOVWF  x3C
06218:  MOVLW  62
0621A:  MOVWF  x3D
0621C:  MOVLW  69
0621E:  MOVWF  x3E
06220:  MOVLW  6E
06222:  MOVWF  x3F
06224:  MOVLW  61
06226:  MOVWF  x40
06228:  MOVLW  20
0622A:  MOVWF  x41
0622C:  MOVLW  46
0622E:  MOVWF  x42
06230:  MOVLW  6C
06232:  MOVWF  x43
06234:  MOVLW  75
06236:  MOVWF  x44
06238:  MOVLW  6A
0623A:  MOVWF  x45
0623C:  MOVLW  6F
0623E:  MOVWF  x46
06240:  MOVLW  20
06242:  MOVWF  x47
06244:  MOVLW  4C
06246:  MOVWF  x48
06248:  MOVLW  61
0624A:  MOVWF  x49
0624C:  MOVLW  6D
0624E:  MOVWF  x4A
06250:  MOVLW  69
06252:  MOVWF  x4B
06254:  MOVLW  6E
06256:  MOVWF  x4C
06258:  MOVLW  61
0625A:  MOVWF  x4D
0625C:  MOVLW  72
0625E:  MOVWF  x4E
06260:  CLRF   x4F
06262:  MOVLW  3A
06264:  MOVWF  x50
06266:  CLRF   x51
06268:  MOVLW  20
0626A:  MOVWF  x52
0626C:  MOVWF  x53
0626E:  MOVWF  x54
06270:  MOVLW  50
06272:  MOVWF  x55
06274:  MOVLW  43
06276:  MOVWF  x56
06278:  MOVLW  52
0627A:  MOVWF  x57
0627C:  CLRF   x58
0627E:  MOVLW  54
06280:  MOVWF  x59
06282:  MOVLW  69
06284:  MOVWF  x5A
06286:  MOVLW  65
06288:  MOVWF  x5B
0628A:  MOVLW  6D
0628C:  MOVWF  x5C
0628E:  MOVLW  70
06290:  MOVWF  x5D
06292:  MOVLW  6F
06294:  MOVWF  x5E
06296:  MOVLW  20
06298:  MOVWF  x5F
0629A:  MOVLW  64
0629C:  MOVWF  x60
0629E:  MOVLW  65
062A0:  MOVWF  x61
062A2:  MOVLW  20
062A4:  MOVWF  x62
062A6:  MOVLW  50
062A8:  MOVWF  x63
062AA:  MOVLW  75
062AC:  MOVWF  x64
062AE:  MOVLW  72
062B0:  MOVWF  x65
062B2:  MOVLW  67
062B4:  MOVWF  x66
062B6:  MOVLW  61
062B8:  MOVWF  x67
062BA:  CLRF   x68
062BC:  MOVLW  55
062BE:  MOVWF  x69
062C0:  MOVLW  56
062C2:  MOVWF  x6A
062C4:  CLRF   x6B
062C6:  MOVWF  x6C
062C8:  MOVLW  65
062CA:  MOVWF  x6D
062CC:  MOVLW  6C
062CE:  MOVWF  x6E
062D0:  MOVLW  3A
062D2:  MOVWF  x6F
062D4:  CLRF   x70
062D6:  MOVLW  54
062D8:  MOVWF  x71
062DA:  MOVLW  3A
062DC:  MOVWF  x72
062DE:  CLRF   x73
062E0:  MOVLW  46
062E2:  MOVWF  x74
062E4:  MOVLW  61
062E6:  MOVWF  x75
062E8:  MOVLW  62
062EA:  MOVWF  x76
062EC:  MOVLW  72
062EE:  MOVWF  x77
062F0:  MOVLW  69
062F2:  MOVWF  x78
062F4:  MOVLW  63
062F6:  MOVWF  x79
062F8:  MOVLW  61
062FA:  MOVWF  x7A
062FC:  MOVLW  3A
062FE:  MOVWF  x7B
06300:  MOVLW  32
06302:  MOVWF  x7C
06304:  MOVLW  30
06306:  MOVWF  x7D
06308:  MOVLW  38
0630A:  MOVWF  x7E
0630C:  MOVLW  2E
0630E:  MOVWF  x7F
06310:  MOVLW  30
06312:  MOVWF  x80
06314:  CLRF   x81
06316:  MOVLW  41
06318:  MOVWF  x82
0631A:  MOVLW  63
0631C:  MOVWF  x83
0631E:  MOVLW  74
06320:  MOVWF  x84
06322:  MOVLW  75
06324:  MOVWF  x85
06326:  MOVLW  61
06328:  MOVWF  x86
0632A:  MOVLW  6C
0632C:  MOVWF  x87
0632E:  MOVLW  3A
06330:  MOVWF  x88
06332:  CLRF   x89
06334:  MOVLW  41
06336:  MOVWF  x8A
06338:  MOVLW  6A
0633A:  MOVWF  x8B
0633C:  MOVLW  75
0633E:  MOVWF  x8C
06340:  MOVLW  73
06342:  MOVWF  x8D
06344:  MOVLW  74
06346:  MOVWF  x8E
06348:  MOVLW  65
0634A:  MOVWF  x8F
0634C:  MOVLW  3A
0634E:  MOVWF  x90
06350:  CLRF   x91
06352:  MOVLW  46
06354:  MOVWF  x92
06356:  MOVLW  69
06358:  MOVWF  x93
0635A:  MOVLW  6C
0635C:  MOVWF  x94
0635E:  MOVLW  74
06360:  MOVWF  x95
06362:  MOVLW  72
06364:  MOVWF  x96
06366:  MOVLW  6F
06368:  MOVWF  x97
0636A:  MOVLW  3A
0636C:  MOVWF  x98
0636E:  CLRF   x99
06370:  MOVLW  46
06372:  MOVWF  x9A
06374:  MOVLW  61
06376:  MOVWF  x9B
06378:  MOVLW  62
0637A:  MOVWF  x9C
0637C:  MOVLW  72
0637E:  MOVWF  x9D
06380:  MOVLW  69
06382:  MOVWF  x9E
06384:  MOVLW  63
06386:  MOVWF  x9F
06388:  MOVLW  61
0638A:  MOVWF  xA0
0638C:  MOVLW  3A
0638E:  MOVWF  xA1
06390:  MOVLW  32
06392:  MOVWF  xA2
06394:  MOVLW  33
06396:  MOVWF  xA3
06398:  MOVLW  35
0639A:  MOVWF  xA4
0639C:  MOVLW  2E
0639E:  MOVWF  xA5
063A0:  MOVLW  30
063A2:  MOVWF  xA6
063A4:  CLRF   xA7
063A6:  MOVLW  21
063A8:  MOVWF  xA8
063AA:  MOVLW  46
063AC:  MOVWF  xA9
063AE:  MOVLW  69
063B0:  MOVWF  xAA
063B2:  MOVLW  6C
063B4:  MOVWF  xAB
063B6:  MOVLW  74
063B8:  MOVWF  xAC
063BA:  MOVLW  72
063BC:  MOVWF  xAD
063BE:  MOVLW  6F
063C0:  MOVWF  xAE
063C2:  MOVLW  20
063C4:  MOVWF  xAF
063C6:  MOVLW  53
063C8:  MOVWF  xB0
063CA:  MOVLW  61
063CC:  MOVWF  xB1
063CE:  MOVLW  74
063D0:  MOVWF  xB2
063D2:  MOVLW  75
063D4:  MOVWF  xB3
063D6:  MOVLW  72
063D8:  MOVWF  xB4
063DA:  MOVLW  61
063DC:  MOVWF  xB5
063DE:  MOVLW  64
063E0:  MOVWF  xB6
063E2:  MOVLW  6F
063E4:  MOVWF  xB7
063E6:  MOVLW  21
063E8:  MOVWF  xB8
063EA:  CLRF   xB9
063EC:  MOVLW  54
063EE:  MOVWF  xBA
063F0:  MOVLW  65
063F2:  MOVWF  xBB
063F4:  MOVLW  6D
063F6:  MOVWF  xBC
063F8:  MOVLW  70
063FA:  MOVWF  xBD
063FC:  MOVLW  6F
063FE:  MOVWF  xBE
06400:  MOVLW  20
06402:  MOVWF  xBF
06404:  MOVLW  55
06406:  MOVWF  xC0
06408:  MOVLW  56
0640A:  MOVWF  xC1
0640C:  MOVLW  3A
0640E:  MOVWF  xC2
06410:  CLRF   xC3
06412:  MOVLW  55
06414:  MOVWF  xC4
06416:  MOVLW  56
06418:  MOVWF  xC5
0641A:  MOVLW  4C
0641C:  MOVWF  xC6
0641E:  MOVLW  69
06420:  MOVWF  xC7
06422:  MOVLW  66
06424:  MOVWF  xC8
06426:  MOVLW  65
06428:  MOVWF  xC9
0642A:  MOVLW  3A
0642C:  MOVWF  xCA
0642E:  CLRF   xCB
06430:  CLRF   xEA
06432:  CLRF   xEB
06434:  CLRF   xEC
06436:  CLRF   xED
06438:  MOVLW  09
0643A:  MOVWF  xEE
0643C:  CLRF   xEF
0643E:  CLRF   xF0
06440:  CLRF   xF1
06442:  MOVWF  xF2
06444:  CLRF   xF3
06446:  CLRF   xF4
06448:  CLRF   xF5
0644A:  CLRF   xF6
0644C:  CLRF   xF7
0644E:  CLRF   xF8
06450:  CLRF   xF9
06452:  CLRF   xFA
06454:  CLRF   xFB
06456:  CLRF   xFC
06458:  CLRF   xFD
0645A:  CLRF   xFE
0645C:  CLRF   xFF
0645E:  MOVLB  5
06460:  CLRF   x00
06462:  CLRF   x01
06464:  CLRF   x02
06466:  CLRF   x03
06468:  CLRF   x04
0646A:  CLRF   x05
0646C:  CLRF   x06
0646E:  CLRF   x07
06470:  CLRF   x08
06472:  CLRF   x09
06474:  CLRF   x0A
06476:  CLRF   x0B
06478:  CLRF   x0C
0647A:  CLRF   x0D
0647C:  CLRF   x56
0647E:  CLRF   x57
06480:  CLRF   x58
06482:  CLRF   x59
06484:  CLRF   x5A
06486:  CLRF   x5B
06488:  CLRF   x5C
0648A:  CLRF   x5D
0648C:  CLRF   x5E
0648E:  CLRF   x5F
06490:  CLRF   x60
06492:  CLRF   x61
06494:  CLRF   x62
06496:  CLRF   x63
06498:  CLRF   x64
0649A:  CLRF   x65
0649C:  CLRF   x66
0649E:  CLRF   x67
064A0:  CLRF   x68
064A2:  CLRF   x69
064A4:  CLRF   x6A
064A6:  CLRF   x6B
064A8:  CLRF   x6C
064AA:  CLRF   x6D
064AC:  CLRF   x6E
064AE:  CLRF   x6F
064B0:  CLRF   x70
064B2:  CLRF   x71
064B4:  CLRF   x72
064B6:  CLRF   x73
064B8:  CLRF   x74
064BA:  CLRF   x75
064BC:  CLRF   x76
064BE:  CLRF   x77
064C0:  CLRF   x78
064C2:  CLRF   x79
064C4:  CLRF   x7A
064C6:  CLRF   x7B
064C8:  CLRF   x7C
064CA:  CLRF   x7D
064CC:  CLRF   x7E
064CE:  CLRF   x7F
064D0:  CLRF   x80
064D2:  CLRF   x81
064D4:  CLRF   x82
064D6:  CLRF   x83
064D8:  CLRF   x84
064DA:  CLRF   x85
064DC:  CLRF   x86
064DE:  CLRF   x87
064E0:  CLRF   x88
064E2:  CLRF   x89
064E4:  CLRF   x8A
064E6:  CLRF   x8B
064E8:  CLRF   x8C
064EA:  CLRF   x8D
064EC:  CLRF   x8E
064EE:  CLRF   x8F
064F0:  CLRF   x90
064F2:  CLRF   x91
064F4:  CLRF   x92
064F6:  CLRF   x93
064F8:  CLRF   x94
064FA:  CLRF   x95
064FC:  CLRF   x96
064FE:  CLRF   x97
06500:  CLRF   x98
06502:  CLRF   x99
06504:  CLRF   x9A
06506:  CLRF   x9B
06508:  CLRF   x9C
0650A:  CLRF   x9D
0650C:  CLRF   x9E
0650E:  CLRF   x9F
06510:  CLRF   xA0
06512:  CLRF   xA1
06514:  CLRF   xA2
06516:  CLRF   xA3
06518:  CLRF   xA4
0651A:  CLRF   xA5
0651C:  CLRF   xA6
0651E:  CLRF   xA7
06520:  CLRF   xA8
06522:  CLRF   xA9
06524:  CLRF   xAA
06526:  CLRF   xAB
06528:  CLRF   xAC
0652A:  CLRF   xAD
0652C:  CLRF   xAE
0652E:  CLRF   xAF
06530:  CLRF   xB0
06532:  CLRF   xB1
06534:  CLRF   xB2
06536:  CLRF   xB3
06538:  CLRF   xB4
0653A:  CLRF   xB5
....................    delay_ms(1000); 
0653C:  MOVLW  04
0653E:  MOVWF  xE2
06540:  MOVLW  FA
06542:  MOVWF  xF6
06544:  MOVLB  0
06546:  CALL   1474
0654A:  MOVLB  5
0654C:  DECFSZ xE2,F
0654E:  BRA    6540
....................    Cruce=OFF; 
06550:  MOVLB  4
06552:  BCF    x2E.6
....................    VelocidadMotor(0); 
06554:  MOVLB  5
06556:  CLRF   xE2
06558:  MOVLB  0
0655A:  CALL   149C
....................    Tcruce2=83; 
0655E:  MOVLB  5
06560:  CLRF   xE1
06562:  CLRF   xE0
06564:  MOVLW  26
06566:  MOVWF  xDF
06568:  MOVLW  85
0656A:  MOVWF  xDE
....................    Tcruce=8300; 
0656C:  CLRF   xDD
0656E:  MOVLW  B0
06570:  MOVWF  xDC
06572:  MOVLW  01
06574:  MOVWF  xDB
06576:  MOVLW  8C
06578:  MOVWF  xDA
....................    Motor_off; 
0657A:  BCF    F8B.2
0657C:  BCF    F94.2
....................    //setup_timer_1(T1_INTERNAL|T1_DIV_BY_1); 
....................    //enable_interrupts(INT_TIMER1); 
....................    enable_interrupts(INT_EXT_L2H); 
0657E:  BSF    FF2.4
06580:  BSF    FF1.6
....................    setup_adc_ports(AN0_TO_AN1); 
06582:  MOVF   FC1,W
06584:  ANDLW  C0
06586:  IORLW  0D
06588:  MOVWF  FC1
....................    setup_adc(ADC_CLOCK_DIV_32 ); 
0658A:  MOVF   FC0,W
0658C:  ANDLW  C0
0658E:  IORLW  02
06590:  MOVWF  FC0
06592:  BSF    FC0.7
06594:  BSF    FC2.0
....................    enable_interrupts(global);   
06596:  MOVLW  C0
06598:  IORWF  FF2,F
....................    VelocidadMotor(0); 
0659A:  CLRF   xE2
0659C:  MOVLB  0
0659E:  CALL   149C
....................    Motor_off; 
065A2:  BCF    F8B.2
065A4:  BCF    F94.2
.................... //-------Inicio de Cabina-------------------------------------------------------------------------// 
....................    Display_on; 
065A6:  BSF    F8A.1
065A8:  BCF    F93.1
....................    glcd_init(ON);             //Inicializa la glcd 
065AA:  MOVLW  01
065AC:  MOVLB  5
065AE:  MOVWF  xE2
065B0:  MOVLB  0
065B2:  CALL   1666
....................    glcd_fillScreen(OFF);      //Limpia la pantalla 
065B6:  MOVLB  5
065B8:  CLRF   xEA
065BA:  MOVLB  0
065BC:  CALL   1554
....................    glcd_text57(0, 0, JP, 2, ON);glcd_text57(5, 20, Cabina, 1, ON);glcd_text57(10, 40, Clase, 2, ON);              
065C0:  MOVLB  5
065C2:  CLRF   xFB
065C4:  CLRF   xFC
065C6:  MOVLW  04
065C8:  MOVWF  xFE
065CA:  MOVLW  2F
065CC:  MOVWF  xFD
065CE:  MOVLW  02
065D0:  MOVWF  xFF
065D2:  MOVLW  01
065D4:  MOVLB  6
065D6:  MOVWF  x00
065D8:  MOVLB  0
065DA:  CALL   17CA
065DE:  MOVLW  05
065E0:  MOVLB  5
065E2:  MOVWF  xFB
065E4:  MOVLW  14
065E6:  MOVWF  xFC
065E8:  MOVLW  04
065EA:  MOVWF  xFE
065EC:  MOVLW  3B
065EE:  MOVWF  xFD
065F0:  MOVLW  01
065F2:  MOVWF  xFF
065F4:  MOVLB  6
065F6:  MOVWF  x00
065F8:  MOVLB  0
065FA:  CALL   17CA
065FE:  MOVLW  0A
06600:  MOVLB  5
06602:  MOVWF  xFB
06604:  MOVLW  28
06606:  MOVWF  xFC
06608:  MOVLW  04
0660A:  MOVWF  xFE
0660C:  MOVLW  52
0660E:  MOVWF  xFD
06610:  MOVLW  02
06612:  MOVWF  xFF
06614:  MOVLW  01
06616:  MOVLB  6
06618:  MOVWF  x00
0661A:  MOVLB  0
0661C:  CALL   17CA
....................    glcd_update(); 
06620:  CALL   15AE
....................    delay_ms(3000); 
06624:  MOVLW  0C
06626:  MOVLB  5
06628:  MOVWF  xE2
0662A:  MOVLW  FA
0662C:  MOVWF  xF6
0662E:  MOVLB  0
06630:  CALL   1474
06634:  MOVLB  5
06636:  DECFSZ xE2,F
06638:  BRA    662A
....................                         
....................    glcd_fillScreen(OFF);      //Limpia la pantalla 
0663A:  CLRF   xEA
0663C:  MOVLB  0
0663E:  CALL   1554
....................    Menu=0; 
06642:  MOVLB  4
06644:  CLRF   xCC
....................    LuzBlanca_off;Alarma_off; 
06646:  BCF    F8B.0
06648:  BCF    F94.0
0664A:  BCF    F8B.7
0664C:  BCF    F94.7
.................... //-------Inicio de Cabina-------------------------------------------------------------------------// 
....................    VelocidadMotor(0); 
0664E:  MOVLB  5
06650:  CLRF   xE2
06652:  MOVLB  0
06654:  CALL   149C
....................    Motor_off; 
06658:  BCF    F8B.2
0665A:  BCF    F94.2
....................    LeeEEPROM(); // Lectura de variables almacenadas en la EEPROM  
0665C:  GOTO   1DAC
....................    LimitaValores(); 
06660:  GOTO   25B2
....................    //Menu=2; 
....................    while(true){  
....................    glcd_update(); 
06664:  CALL   15AE
.................... //**Actualizacin de Lectura de Sensores**//    
....................    if(Lectura==1){ 
06668:  MOVLB  4
0666A:  BTFSS  x2E.4
0666C:  BRA    66CE
....................       Lectura=0; 
0666E:  BCF    x2E.4
....................       InFlow=LeerFlujoInFlow(8); 
06670:  MOVLW  08
06672:  MOVLB  5
06674:  MOVWF  xE2
06676:  MOVLB  0
06678:  GOTO   41FC
0667C:  MOVFF  03,511
06680:  MOVFF  02,510
06684:  MOVFF  01,50F
06688:  MOVFF  00,50E
....................       Temperatura=leeTemperatura(5); 
0668C:  MOVLW  05
0668E:  MOVLB  5
06690:  MOVWF  xE2
06692:  MOVLB  0
06694:  GOTO   45CA
06698:  MOVFF  03,616
0669C:  MOVFF  02,615
066A0:  MOVFF  01,614
066A4:  MOVFF  00,613
066A8:  CALL   2F7C
066AC:  MOVFF  01,5D5
....................       Filtro_DownFlow=Leer_Sensor_Presion(8); 
066B0:  MOVLW  08
066B2:  MOVLB  5
066B4:  MOVWF  xE2
066B6:  MOVLB  0
066B8:  GOTO   479A
066BC:  MOVFF  03,519
066C0:  MOVFF  02,518
066C4:  MOVFF  01,517
066C8:  MOVFF  00,516
066CC:  MOVLB  4
....................    } 
.................... //----------------------------------------// 
....................  
.................... //**Contador de Tiempo de Trabajo del filtro**// 
....................    if(minutos_trabajo>=3600){ // Tiempo de Trabajo 
066CE:  MOVF   xE7,W
066D0:  SUBLW  0D
066D2:  BTFSC  FD8.0
066D4:  BRA    687C
066D6:  XORLW  FF
066D8:  BNZ   66E2
066DA:  MOVF   xE6,W
066DC:  SUBLW  0F
066DE:  BTFSC  FD8.0
066E0:  BRA    687C
....................       minutos_trabajo=0; //Minutos Trabajo realmente son segundos. 
066E2:  CLRF   xE7
066E4:  CLRF   xE6
....................       write_eeprom(33,make8(minutos_trabajo,0)); 
066E6:  MOVFF  4E6,5E2
066EA:  CLRF   FAA
066EC:  MOVLW  21
066EE:  MOVWF  FA9
066F0:  MOVFF  5E2,FA8
066F4:  BCF    FA6.6
066F6:  BCF    FA6.7
066F8:  BSF    FA6.2
066FA:  MOVF   FF2,W
066FC:  MOVWF  00
066FE:  BCF    FF2.7
06700:  MOVLB  F
06702:  MOVLW  55
06704:  MOVWF  FA7
06706:  MOVLW  AA
06708:  MOVWF  FA7
0670A:  BSF    FA6.1
0670C:  BTFSC  FA6.1
0670E:  BRA    670C
06710:  BCF    FA6.2
06712:  MOVF   00,W
06714:  IORWF  FF2,F
....................       delay_ms(20); 
06716:  MOVLW  14
06718:  MOVLB  5
0671A:  MOVWF  xF6
0671C:  MOVLB  0
0671E:  CALL   1474
....................       write_eeprom(34,make8(minutos_trabajo,1)); 
06722:  MOVFF  4E7,5E2
06726:  CLRF   FAA
06728:  MOVLW  22
0672A:  MOVWF  FA9
0672C:  MOVFF  5E2,FA8
06730:  BCF    FA6.6
06732:  BCF    FA6.7
06734:  BSF    FA6.2
06736:  MOVF   FF2,W
06738:  MOVWF  00
0673A:  BCF    FF2.7
0673C:  MOVLB  F
0673E:  MOVLW  55
06740:  MOVWF  FA7
06742:  MOVLW  AA
06744:  MOVWF  FA7
06746:  BSF    FA6.1
06748:  BTFSC  FA6.1
0674A:  BRA    6748
0674C:  BCF    FA6.2
0674E:  MOVF   00,W
06750:  IORWF  FF2,F
....................       delay_ms(20); 
06752:  MOVLW  14
06754:  MOVLB  5
06756:  MOVWF  xF6
06758:  MOVLB  0
0675A:  CALL   1474
....................       Ttrabajo[0]++; 
0675E:  MOVLB  5
06760:  INCF   x02,F
....................       if(Ttrabajo[0]>9){ 
06762:  BTFSC  x02.7
06764:  BRA    6770
06766:  MOVF   x02,W
06768:  SUBLW  09
0676A:  BC    6770
....................          Ttrabajo[0]=0; 
0676C:  CLRF   x02
....................          Ttrabajo[1]++; 
0676E:  INCF   x03,F
....................       } 
....................       if(Ttrabajo[1]>9){ 
06770:  BTFSC  x03.7
06772:  BRA    677E
06774:  MOVF   x03,W
06776:  SUBLW  09
06778:  BC    677E
....................          Ttrabajo[1]=0; 
0677A:  CLRF   x03
....................          Ttrabajo[2]++; 
0677C:  INCF   x04,F
....................       } 
....................       if(Ttrabajo[2]>9){ 
0677E:  BTFSC  x04.7
06780:  BRA    678C
06782:  MOVF   x04,W
06784:  SUBLW  09
06786:  BC    678C
....................          Ttrabajo[2]=0; 
06788:  CLRF   x04
....................          Ttrabajo[3]++; 
0678A:  INCF   x05,F
....................       } 
....................       if(Ttrabajo[3]>9){ 
0678C:  BTFSC  x05.7
0678E:  BRA    6798
06790:  MOVF   x05,W
06792:  SUBLW  09
06794:  BC    6798
....................          Ttrabajo[3]=0; 
06796:  CLRF   x05
....................       } 
....................       write_eeprom(16,Ttrabajo[0]); 
06798:  CLRF   FAA
0679A:  MOVLW  10
0679C:  MOVWF  FA9
0679E:  MOVFF  502,FA8
067A2:  BCF    FA6.6
067A4:  BCF    FA6.7
067A6:  BSF    FA6.2
067A8:  MOVF   FF2,W
067AA:  MOVWF  00
067AC:  BCF    FF2.7
067AE:  MOVLB  F
067B0:  MOVLW  55
067B2:  MOVWF  FA7
067B4:  MOVLW  AA
067B6:  MOVWF  FA7
067B8:  BSF    FA6.1
067BA:  BTFSC  FA6.1
067BC:  BRA    67BA
067BE:  BCF    FA6.2
067C0:  MOVF   00,W
067C2:  IORWF  FF2,F
....................       delay_ms(20); 
067C4:  MOVLW  14
067C6:  MOVLB  5
067C8:  MOVWF  xF6
067CA:  MOVLB  0
067CC:  CALL   1474
....................       write_eeprom(17,Ttrabajo[1]); 
067D0:  CLRF   FAA
067D2:  MOVLW  11
067D4:  MOVWF  FA9
067D6:  MOVFF  503,FA8
067DA:  BCF    FA6.6
067DC:  BCF    FA6.7
067DE:  BSF    FA6.2
067E0:  MOVF   FF2,W
067E2:  MOVWF  00
067E4:  BCF    FF2.7
067E6:  MOVLB  F
067E8:  MOVLW  55
067EA:  MOVWF  FA7
067EC:  MOVLW  AA
067EE:  MOVWF  FA7
067F0:  BSF    FA6.1
067F2:  BTFSC  FA6.1
067F4:  BRA    67F2
067F6:  BCF    FA6.2
067F8:  MOVF   00,W
067FA:  IORWF  FF2,F
....................       delay_ms(20); 
067FC:  MOVLW  14
067FE:  MOVLB  5
06800:  MOVWF  xF6
06802:  MOVLB  0
06804:  CALL   1474
....................       write_eeprom(18,Ttrabajo[2]); 
06808:  CLRF   FAA
0680A:  MOVLW  12
0680C:  MOVWF  FA9
0680E:  MOVFF  504,FA8
06812:  BCF    FA6.6
06814:  BCF    FA6.7
06816:  BSF    FA6.2
06818:  MOVF   FF2,W
0681A:  MOVWF  00
0681C:  BCF    FF2.7
0681E:  MOVLB  F
06820:  MOVLW  55
06822:  MOVWF  FA7
06824:  MOVLW  AA
06826:  MOVWF  FA7
06828:  BSF    FA6.1
0682A:  BTFSC  FA6.1
0682C:  BRA    682A
0682E:  BCF    FA6.2
06830:  MOVF   00,W
06832:  IORWF  FF2,F
....................       delay_ms(20); 
06834:  MOVLW  14
06836:  MOVLB  5
06838:  MOVWF  xF6
0683A:  MOVLB  0
0683C:  CALL   1474
....................       write_eeprom(19,Ttrabajo[3]); 
06840:  CLRF   FAA
06842:  MOVLW  13
06844:  MOVWF  FA9
06846:  MOVFF  505,FA8
0684A:  BCF    FA6.6
0684C:  BCF    FA6.7
0684E:  BSF    FA6.2
06850:  MOVF   FF2,W
06852:  MOVWF  00
06854:  BCF    FF2.7
06856:  MOVLB  F
06858:  MOVLW  55
0685A:  MOVWF  FA7
0685C:  MOVLW  AA
0685E:  MOVWF  FA7
06860:  BSF    FA6.1
06862:  BTFSC  FA6.1
06864:  BRA    6862
06866:  BCF    FA6.2
06868:  MOVF   00,W
0686A:  IORWF  FF2,F
....................       delay_ms(20); 
0686C:  MOVLW  14
0686E:  MOVLB  5
06870:  MOVWF  xF6
06872:  MOVLB  0
06874:  CALL   1474
....................    }else if(minutos_trabajo==900 || minutos_trabajo==1800 || minutos_trabajo==2700 ){ 
06878:  BRA    6918
0687A:  MOVLB  4
0687C:  MOVF   xE6,W
0687E:  SUBLW  84
06880:  BNZ   6888
06882:  MOVF   xE7,W
06884:  SUBLW  03
06886:  BZ    68A0
06888:  MOVF   xE6,W
0688A:  SUBLW  08
0688C:  BNZ   6894
0688E:  MOVF   xE7,W
06890:  SUBLW  07
06892:  BZ    68A0
06894:  MOVF   xE6,W
06896:  SUBLW  8C
06898:  BNZ   691A
0689A:  MOVF   xE7,W
0689C:  SUBLW  0A
0689E:  BNZ   691A
....................       write_eeprom(33,make8(minutos_trabajo,0)); 
068A0:  MOVFF  4E6,5E2
068A4:  CLRF   FAA
068A6:  MOVLW  21
068A8:  MOVWF  FA9
068AA:  MOVFF  5E2,FA8
068AE:  BCF    FA6.6
068B0:  BCF    FA6.7
068B2:  BSF    FA6.2
068B4:  MOVF   FF2,W
068B6:  MOVWF  00
068B8:  BCF    FF2.7
068BA:  MOVLB  F
068BC:  MOVLW  55
068BE:  MOVWF  FA7
068C0:  MOVLW  AA
068C2:  MOVWF  FA7
068C4:  BSF    FA6.1
068C6:  BTFSC  FA6.1
068C8:  BRA    68C6
068CA:  BCF    FA6.2
068CC:  MOVF   00,W
068CE:  IORWF  FF2,F
....................       delay_ms(20); 
068D0:  MOVLW  14
068D2:  MOVLB  5
068D4:  MOVWF  xF6
068D6:  MOVLB  0
068D8:  CALL   1474
....................       write_eeprom(34,make8(minutos_trabajo,1)); 
068DC:  MOVFF  4E7,5E2
068E0:  CLRF   FAA
068E2:  MOVLW  22
068E4:  MOVWF  FA9
068E6:  MOVFF  5E2,FA8
068EA:  BCF    FA6.6
068EC:  BCF    FA6.7
068EE:  BSF    FA6.2
068F0:  MOVF   FF2,W
068F2:  MOVWF  00
068F4:  BCF    FF2.7
068F6:  MOVLB  F
068F8:  MOVLW  55
068FA:  MOVWF  FA7
068FC:  MOVLW  AA
068FE:  MOVWF  FA7
06900:  BSF    FA6.1
06902:  BTFSC  FA6.1
06904:  BRA    6902
06906:  BCF    FA6.2
06908:  MOVF   00,W
0690A:  IORWF  FF2,F
....................       delay_ms(20); 
0690C:  MOVLW  14
0690E:  MOVLB  5
06910:  MOVWF  xF6
06912:  MOVLB  0
06914:  CALL   1474
06918:  MOVLB  4
....................    } 
.................... //----------------------------------------//       
....................  
.................... //**Contador de Tiempo de Trabajo de UV**// 
....................          if(segundos_uv>=60){ 
0691A:  MOVF   xE1,F
0691C:  BNZ   6924
0691E:  MOVF   xE0,W
06920:  SUBLW  3B
06922:  BC    692E
....................             segundos_uv=0; 
06924:  CLRF   xE1
06926:  CLRF   xE0
....................             minutos_uv++; 
06928:  INCF   xE4,F
0692A:  BTFSC  FD8.2
0692C:  INCF   xE5,F
....................          } 
....................           
....................          if(minutos_uv>=60){ 
0692E:  MOVF   xE5,F
06930:  BNZ   693A
06932:  MOVF   xE4,W
06934:  SUBLW  3B
06936:  BTFSC  FD8.0
06938:  BRA    6A92
....................             minutos_uv=0; 
0693A:  CLRF   xE5
0693C:  CLRF   xE4
....................             Tuv[0]++; 
0693E:  INCF   xF6,F
....................             if(Tuv[0]>9){ 
06940:  BTFSC  xF6.7
06942:  BRA    694E
06944:  MOVF   xF6,W
06946:  SUBLW  09
06948:  BC    694E
....................                Tuv[0]=0; 
0694A:  CLRF   xF6
....................                Tuv[1]++; 
0694C:  INCF   xF7,F
....................             } 
....................             if(Tuv[1]>9){ 
0694E:  BTFSC  xF7.7
06950:  BRA    695C
06952:  MOVF   xF7,W
06954:  SUBLW  09
06956:  BC    695C
....................                Tuv[1]=0; 
06958:  CLRF   xF7
....................                Tuv[2]++; 
0695A:  INCF   xF8,F
....................             } 
....................             if(Tuv[2]>9){ 
0695C:  BTFSC  xF8.7
0695E:  BRA    696A
06960:  MOVF   xF8,W
06962:  SUBLW  09
06964:  BC    696A
....................                Tuv[2]=0; 
06966:  CLRF   xF8
....................                Tuv[3]++; 
06968:  INCF   xF9,F
....................             } 
....................             if(Tuv[3]>9){ 
0696A:  BTFSC  xF9.7
0696C:  BRA    6976
0696E:  MOVF   xF9,W
06970:  SUBLW  09
06972:  BC    6976
....................                Tuv[3]=0; 
06974:  CLRF   xF9
....................             } 
....................             write_eeprom(31,minutos_uv); 
06976:  CLRF   FAA
06978:  MOVLW  1F
0697A:  MOVWF  FA9
0697C:  MOVFF  4E4,FA8
06980:  BCF    FA6.6
06982:  BCF    FA6.7
06984:  BSF    FA6.2
06986:  MOVF   FF2,W
06988:  MOVWF  00
0698A:  BCF    FF2.7
0698C:  MOVLB  F
0698E:  MOVLW  55
06990:  MOVWF  FA7
06992:  MOVLW  AA
06994:  MOVWF  FA7
06996:  BSF    FA6.1
06998:  BTFSC  FA6.1
0699A:  BRA    6998
0699C:  BCF    FA6.2
0699E:  MOVF   00,W
069A0:  IORWF  FF2,F
....................             delay_ms(20); 
069A2:  MOVLW  14
069A4:  MOVLB  5
069A6:  MOVWF  xF6
069A8:  MOVLB  0
069AA:  CALL   1474
....................             write_eeprom(12,Tuv[0]); 
069AE:  CLRF   FAA
069B0:  MOVLW  0C
069B2:  MOVWF  FA9
069B4:  MOVFF  4F6,FA8
069B8:  BCF    FA6.6
069BA:  BCF    FA6.7
069BC:  BSF    FA6.2
069BE:  MOVF   FF2,W
069C0:  MOVWF  00
069C2:  BCF    FF2.7
069C4:  MOVLB  F
069C6:  MOVLW  55
069C8:  MOVWF  FA7
069CA:  MOVLW  AA
069CC:  MOVWF  FA7
069CE:  BSF    FA6.1
069D0:  BTFSC  FA6.1
069D2:  BRA    69D0
069D4:  BCF    FA6.2
069D6:  MOVF   00,W
069D8:  IORWF  FF2,F
....................             delay_ms(20); 
069DA:  MOVLW  14
069DC:  MOVLB  5
069DE:  MOVWF  xF6
069E0:  MOVLB  0
069E2:  CALL   1474
....................             write_eeprom(13,Tuv[1]); 
069E6:  CLRF   FAA
069E8:  MOVLW  0D
069EA:  MOVWF  FA9
069EC:  MOVFF  4F7,FA8
069F0:  BCF    FA6.6
069F2:  BCF    FA6.7
069F4:  BSF    FA6.2
069F6:  MOVF   FF2,W
069F8:  MOVWF  00
069FA:  BCF    FF2.7
069FC:  MOVLB  F
069FE:  MOVLW  55
06A00:  MOVWF  FA7
06A02:  MOVLW  AA
06A04:  MOVWF  FA7
06A06:  BSF    FA6.1
06A08:  BTFSC  FA6.1
06A0A:  BRA    6A08
06A0C:  BCF    FA6.2
06A0E:  MOVF   00,W
06A10:  IORWF  FF2,F
....................             delay_ms(20); 
06A12:  MOVLW  14
06A14:  MOVLB  5
06A16:  MOVWF  xF6
06A18:  MOVLB  0
06A1A:  CALL   1474
....................             write_eeprom(14,Tuv[2]); 
06A1E:  CLRF   FAA
06A20:  MOVLW  0E
06A22:  MOVWF  FA9
06A24:  MOVFF  4F8,FA8
06A28:  BCF    FA6.6
06A2A:  BCF    FA6.7
06A2C:  BSF    FA6.2
06A2E:  MOVF   FF2,W
06A30:  MOVWF  00
06A32:  BCF    FF2.7
06A34:  MOVLB  F
06A36:  MOVLW  55
06A38:  MOVWF  FA7
06A3A:  MOVLW  AA
06A3C:  MOVWF  FA7
06A3E:  BSF    FA6.1
06A40:  BTFSC  FA6.1
06A42:  BRA    6A40
06A44:  BCF    FA6.2
06A46:  MOVF   00,W
06A48:  IORWF  FF2,F
....................             delay_ms(20); 
06A4A:  MOVLW  14
06A4C:  MOVLB  5
06A4E:  MOVWF  xF6
06A50:  MOVLB  0
06A52:  CALL   1474
....................             write_eeprom(15,Tuv[3]); 
06A56:  CLRF   FAA
06A58:  MOVLW  0F
06A5A:  MOVWF  FA9
06A5C:  MOVFF  4F9,FA8
06A60:  BCF    FA6.6
06A62:  BCF    FA6.7
06A64:  BSF    FA6.2
06A66:  MOVF   FF2,W
06A68:  MOVWF  00
06A6A:  BCF    FF2.7
06A6C:  MOVLB  F
06A6E:  MOVLW  55
06A70:  MOVWF  FA7
06A72:  MOVLW  AA
06A74:  MOVWF  FA7
06A76:  BSF    FA6.1
06A78:  BTFSC  FA6.1
06A7A:  BRA    6A78
06A7C:  BCF    FA6.2
06A7E:  MOVF   00,W
06A80:  IORWF  FF2,F
....................             delay_ms(20); 
06A82:  MOVLW  14
06A84:  MOVLB  5
06A86:  MOVWF  xF6
06A88:  MOVLB  0
06A8A:  CALL   1474
....................          }else if(minutos_uv==15 || minutos_uv==30 || minutos_uv==45){ 
06A8E:  BRA    6AE8
06A90:  MOVLB  4
06A92:  MOVF   xE4,W
06A94:  SUBLW  0F
06A96:  BNZ   6A9C
06A98:  MOVF   xE5,F
06A9A:  BZ    6AB0
06A9C:  MOVF   xE4,W
06A9E:  SUBLW  1E
06AA0:  BNZ   6AA6
06AA2:  MOVF   xE5,F
06AA4:  BZ    6AB0
06AA6:  MOVF   xE4,W
06AA8:  SUBLW  2D
06AAA:  BNZ   6AEA
06AAC:  MOVF   xE5,F
06AAE:  BNZ   6AEA
....................             write_eeprom(31,minutos_uv); 
06AB0:  CLRF   FAA
06AB2:  MOVLW  1F
06AB4:  MOVWF  FA9
06AB6:  MOVFF  4E4,FA8
06ABA:  BCF    FA6.6
06ABC:  BCF    FA6.7
06ABE:  BSF    FA6.2
06AC0:  MOVF   FF2,W
06AC2:  MOVWF  00
06AC4:  BCF    FF2.7
06AC6:  MOVLB  F
06AC8:  MOVLW  55
06ACA:  MOVWF  FA7
06ACC:  MOVLW  AA
06ACE:  MOVWF  FA7
06AD0:  BSF    FA6.1
06AD2:  BTFSC  FA6.1
06AD4:  BRA    6AD2
06AD6:  BCF    FA6.2
06AD8:  MOVF   00,W
06ADA:  IORWF  FF2,F
....................             delay_ms(20); 
06ADC:  MOVLW  14
06ADE:  MOVLB  5
06AE0:  MOVWF  xF6
06AE2:  MOVLB  0
06AE4:  CALL   1474
06AE8:  MOVLB  4
....................          } 
.................... //----------------------------------------// 
....................  
....................    if(Menu!=2){// Si no esta en el menu de estados apaga la alarma 
06AEA:  MOVF   xCC,W
06AEC:  SUBLW  02
06AEE:  BZ    6AF8
....................       Alarma_off; 
06AF0:  BCF    F8B.7
06AF2:  BCF    F94.7
....................       Alarma=10; 
06AF4:  MOVLW  0A
06AF6:  MOVWF  xD9
....................    } 
....................     
.................... //_-------------------------------------------------------------------------------------------------------------------------------------------------------- 
....................    if(Menu==0){ //Menu de Contrasea. 
06AF8:  MOVF   xCC,F
06AFA:  BNZ   6B32
....................       while(PidePassword(0,0,1,Password[0],Password[1],Password[2],Password[3])==0){ 
06AFC:  MOVLB  5
06AFE:  CLRF   xE3
06B00:  CLRF   xE4
06B02:  MOVLW  01
06B04:  MOVWF  xE5
06B06:  MOVFF  50A,5E6
06B0A:  MOVFF  50B,5E7
06B0E:  MOVFF  50C,5E8
06B12:  MOVFF  50D,5E9
06B16:  MOVLB  0
06B18:  CALL   4E8C
06B1C:  MOVF   01,F
06B1E:  BNZ   6B34
....................          VelocidadMotor(0); 
06B20:  MOVLB  5
06B22:  CLRF   xE2
06B24:  MOVLB  0
06B26:  CALL   149C
....................          glcd_update(); 
06B2A:  CALL   15AE
....................       }        
06B2E:  MOVLB  4
06B30:  BRA    6AFC
06B32:  MOVLB  0
....................    } 
.................... //_--------------------------------------------------------------------------------------------------------------------------------------------------------        
....................  
.................... //_-------------------------------------------------------------------------------------------------------------------------------------------------------- 
....................       if(Menu==1){//Menu de Purga. 
06B34:  MOVLB  4
06B36:  DECFSZ xCC,W
06B38:  BRA    6DB8
....................          glcd_text57(15, 1, Tiempo, 1, ON); 
06B3A:  MOVLW  0F
06B3C:  MOVLB  5
06B3E:  MOVWF  xFB
06B40:  MOVLW  01
06B42:  MOVWF  xFC
06B44:  MOVLW  04
06B46:  MOVWF  xFE
06B48:  MOVLW  59
06B4A:  MOVWF  xFD
06B4C:  MOVLW  01
06B4E:  MOVWF  xFF
06B50:  MOVLB  6
06B52:  MOVWF  x00
06B54:  MOVLB  0
06B56:  CALL   17CA
....................          LuzBlanca_off;//Alarma_off; 
06B5A:  BCF    F8B.0
06B5C:  BCF    F94.0
....................          glcd_rect(9, 54, 120, 64, YES, OFF);          
06B5E:  MOVLW  09
06B60:  MOVLB  5
06B62:  MOVWF  xFB
06B64:  MOVLW  36
06B66:  MOVWF  xFC
06B68:  MOVLW  78
06B6A:  MOVWF  xFD
06B6C:  MOVLW  40
06B6E:  MOVWF  xFE
06B70:  MOVLW  01
06B72:  MOVWF  xFF
06B74:  MOVLB  6
06B76:  CLRF   x00
06B78:  MOVLB  0
06B7A:  CALL   4C28
....................          displayTiempo(Tpurga[3],20,20,0,2);displayTiempo(Tpurga[2],40,20,0,2);glcd_text57(60, 22, Dos_puntos, 2, ON); 
06B7E:  MOVFF  4ED,5E2
06B82:  MOVLW  14
06B84:  MOVLB  5
06B86:  MOVWF  xE3
06B88:  MOVWF  xE4
06B8A:  CLRF   xE5
06B8C:  MOVLW  02
06B8E:  MOVWF  xE6
06B90:  MOVLB  0
06B92:  CALL   5572
06B96:  MOVFF  4EC,5E2
06B9A:  MOVLW  28
06B9C:  MOVLB  5
06B9E:  MOVWF  xE3
06BA0:  MOVLW  14
06BA2:  MOVWF  xE4
06BA4:  CLRF   xE5
06BA6:  MOVLW  02
06BA8:  MOVWF  xE6
06BAA:  MOVLB  0
06BAC:  CALL   5572
06BB0:  MOVLW  3C
06BB2:  MOVLB  5
06BB4:  MOVWF  xFB
06BB6:  MOVLW  16
06BB8:  MOVWF  xFC
06BBA:  MOVLW  04
06BBC:  MOVWF  xFE
06BBE:  MOVLW  50
06BC0:  MOVWF  xFD
06BC2:  MOVLW  02
06BC4:  MOVWF  xFF
06BC6:  MOVLW  01
06BC8:  MOVLB  6
06BCA:  MOVWF  x00
06BCC:  MOVLB  0
06BCE:  CALL   17CA
....................          displayTiempo(Tpurga[1],70,20,0,2);displayTiempo(Tpurga[0],90,20,0,2);         
06BD2:  MOVFF  4EB,5E2
06BD6:  MOVLW  46
06BD8:  MOVLB  5
06BDA:  MOVWF  xE3
06BDC:  MOVLW  14
06BDE:  MOVWF  xE4
06BE0:  CLRF   xE5
06BE2:  MOVLW  02
06BE4:  MOVWF  xE6
06BE6:  MOVLB  0
06BE8:  CALL   5572
06BEC:  MOVFF  4EA,5E2
06BF0:  MOVLW  5A
06BF2:  MOVLB  5
06BF4:  MOVWF  xE3
06BF6:  MOVLW  14
06BF8:  MOVWF  xE4
06BFA:  CLRF   xE5
06BFC:  MOVLW  02
06BFE:  MOVWF  xE6
06C00:  MOVLB  0
06C02:  CALL   5572
....................           
....................          if(VIDRIODN){ 
06C06:  BSF    F92.3
06C08:  BTFSC  F80.3
06C0A:  BRA    6C96
....................             strcpy(Menus.Letra,"  !Abra Proteccion"); 
06C0C:  MOVLW  04
06C0E:  MOVWF  FEA
06C10:  MOVLW  16
06C12:  MOVWF  FE9
06C14:  MOVFF  FF2,5E2
06C18:  BCF    FF2.7
06C1A:  MOVLW  00
06C1C:  CALL   0F58
06C20:  TBLRD*-
06C22:  TBLRD*+
06C24:  MOVF   FF5,W
06C26:  MOVWF  FEE
06C28:  IORLW  00
06C2A:  BNZ   6C22
06C2C:  MOVLB  5
06C2E:  BTFSC  xE2.7
06C30:  BSF    FF2.7
....................             displayMenu(Menus.Letra,0,46,1,1); 
06C32:  MOVLW  04
06C34:  MOVWF  xEB
06C36:  MOVLW  16
06C38:  MOVWF  xEA
06C3A:  CLRF   xEC
06C3C:  MOVLW  2E
06C3E:  MOVWF  xED
06C40:  MOVLW  01
06C42:  MOVWF  xEE
06C44:  MOVWF  xEF
06C46:  MOVLB  0
06C48:  CALL   4DB4
....................             strcpy(Menus.Letra,"      Frontal!    "); 
06C4C:  MOVLW  04
06C4E:  MOVWF  FEA
06C50:  MOVLW  16
06C52:  MOVWF  FE9
06C54:  MOVFF  FF2,5E2
06C58:  BCF    FF2.7
06C5A:  MOVLW  00
06C5C:  CALL   0F86
06C60:  TBLRD*-
06C62:  TBLRD*+
06C64:  MOVF   FF5,W
06C66:  MOVWF  FEE
06C68:  IORLW  00
06C6A:  BNZ   6C62
06C6C:  MOVLB  5
06C6E:  BTFSC  xE2.7
06C70:  BSF    FF2.7
....................             displayMenu(Menus.Letra,0,55,1,1); 
06C72:  MOVLW  04
06C74:  MOVWF  xEB
06C76:  MOVLW  16
06C78:  MOVWF  xEA
06C7A:  CLRF   xEC
06C7C:  MOVLW  37
06C7E:  MOVWF  xED
06C80:  MOVLW  01
06C82:  MOVWF  xEE
06C84:  MOVWF  xEF
06C86:  MOVLB  0
06C88:  CALL   4DB4
....................             tiempo_purga=0; 
06C8C:  MOVLB  4
06C8E:  BCF    x2D.4
....................             Purga=OFF; 
06C90:  BCF    x2E.7
....................          }else{ 
06C92:  BRA    6D1E
06C94:  MOVLB  0
....................             tiempo_purga=1; 
06C96:  MOVLB  4
06C98:  BSF    x2D.4
....................             Purga=ON; 
06C9A:  BSF    x2E.7
....................             strcpy(Menus.Letra,"                  "); 
06C9C:  MOVLW  04
06C9E:  MOVWF  FEA
06CA0:  MOVLW  16
06CA2:  MOVWF  FE9
06CA4:  MOVFF  FF2,5E2
06CA8:  BCF    FF2.7
06CAA:  MOVLW  00
06CAC:  MOVLB  0
06CAE:  CALL   0FB4
06CB2:  TBLRD*-
06CB4:  TBLRD*+
06CB6:  MOVF   FF5,W
06CB8:  MOVWF  FEE
06CBA:  IORLW  00
06CBC:  BNZ   6CB4
06CBE:  MOVLB  5
06CC0:  BTFSC  xE2.7
06CC2:  BSF    FF2.7
....................             displayMenu(Menus.Letra,0,46,0,1); 
06CC4:  MOVLW  04
06CC6:  MOVWF  xEB
06CC8:  MOVLW  16
06CCA:  MOVWF  xEA
06CCC:  CLRF   xEC
06CCE:  MOVLW  2E
06CD0:  MOVWF  xED
06CD2:  CLRF   xEE
06CD4:  MOVLW  01
06CD6:  MOVWF  xEF
06CD8:  MOVLB  0
06CDA:  CALL   4DB4
....................             strcpy(Menus.Letra,"                  "); 
06CDE:  MOVLW  04
06CE0:  MOVWF  FEA
06CE2:  MOVLW  16
06CE4:  MOVWF  FE9
06CE6:  MOVFF  FF2,5E2
06CEA:  BCF    FF2.7
06CEC:  MOVLW  00
06CEE:  CALL   0FB4
06CF2:  TBLRD*-
06CF4:  TBLRD*+
06CF6:  MOVF   FF5,W
06CF8:  MOVWF  FEE
06CFA:  IORLW  00
06CFC:  BNZ   6CF4
06CFE:  MOVLB  5
06D00:  BTFSC  xE2.7
06D02:  BSF    FF2.7
....................             displayMenu(Menus.Letra,0,55,0,1); 
06D04:  MOVLW  04
06D06:  MOVWF  xEB
06D08:  MOVLW  16
06D0A:  MOVWF  xEA
06D0C:  CLRF   xEC
06D0E:  MOVLW  37
06D10:  MOVWF  xED
06D12:  CLRF   xEE
06D14:  MOVLW  01
06D16:  MOVWF  xEF
06D18:  MOVLB  0
06D1A:  CALL   4DB4
....................          } 
....................           
....................          VelocidadMotor(VelMotor); 
06D1E:  MOVFF  5D9,5E2
06D22:  MOVLB  0
06D24:  CALL   149C
....................           
....................          if(RIGHT){ 
06D28:  BSF    F96.1
06D2A:  BTFSC  F84.1
06D2C:  BRA    6D5C
....................             delay_ms(500); 
06D2E:  MOVLW  02
06D30:  MOVLB  5
06D32:  MOVWF  xE2
06D34:  MOVLW  FA
06D36:  MOVWF  xF6
06D38:  MOVLB  0
06D3A:  CALL   1474
06D3E:  MOVLB  5
06D40:  DECFSZ xE2,F
06D42:  BRA    6D34
....................             if(RIGHT){ 
06D44:  BSF    F96.1
06D46:  BTFSC  F84.1
06D48:  BRA    6D5E
....................                tiempo_purga=0;Menu=2;glcd_fillScreen(OFF); 
06D4A:  MOVLB  4
06D4C:  BCF    x2D.4
06D4E:  MOVLW  02
06D50:  MOVWF  xCC
06D52:  MOVLB  5
06D54:  CLRF   xEA
06D56:  MOVLB  0
06D58:  CALL   1554
06D5C:  MOVLB  5
....................             } 
....................          } 
....................         
....................          if((Tpurga[0]>=Tpurgap[0])&&(Tpurga[1]>=Tpurgap[1])&&(Tpurga[2]>=Tpurgap[2])&&(Tpurga[3]>=Tpurgap[3])){ 
06D5E:  MOVLB  4
06D60:  MOVF   xEE,W
06D62:  XORLW  80
06D64:  MOVWF  00
06D66:  MOVF   xEA,W
06D68:  XORLW  80
06D6A:  SUBWF  00,W
06D6C:  BZ    6D70
06D6E:  BC    6DB8
06D70:  MOVF   xEF,W
06D72:  XORLW  80
06D74:  MOVWF  00
06D76:  MOVF   xEB,W
06D78:  XORLW  80
06D7A:  SUBWF  00,W
06D7C:  BZ    6D80
06D7E:  BC    6DB8
06D80:  MOVF   xF0,W
06D82:  XORLW  80
06D84:  MOVWF  00
06D86:  MOVF   xEC,W
06D88:  XORLW  80
06D8A:  SUBWF  00,W
06D8C:  BZ    6D90
06D8E:  BC    6DB8
06D90:  MOVF   xF1,W
06D92:  XORLW  80
06D94:  MOVWF  00
06D96:  MOVF   xED,W
06D98:  XORLW  80
06D9A:  SUBWF  00,W
06D9C:  BZ    6DA0
06D9E:  BC    6DB8
....................             tiempo_purga=0;Menu=2;glcd_fillScreen(OFF);flag_luz=1;flag_blower=1;flag_toma=1; 
06DA0:  BCF    x2D.4
06DA2:  MOVLW  02
06DA4:  MOVWF  xCC
06DA6:  MOVLB  5
06DA8:  CLRF   xEA
06DAA:  MOVLB  0
06DAC:  CALL   1554
06DB0:  MOVLB  4
06DB2:  BSF    x2D.1
06DB4:  BSF    x2C.7
06DB6:  BSF    x2D.0
....................          }       
....................       } 
.................... //_--------------------------------------------------------------------------------------------------------------------------------------------------------        
....................  
.................... //_-------------------------------------------------------------------------------------------------------------------------------------------------------- 
....................       if(Menu==2){ //Menu General. 
06DB8:  MOVF   xCC,W
06DBA:  SUBLW  02
06DBC:  BTFSS  FD8.2
06DBE:  GOTO   7D6A
....................          Purga=OFF; 
06DC2:  BCF    x2E.7
....................          w=0; 
06DC4:  BCF    x2D.3
....................          //glcd_imagen(4); 
....................           
....................          if(VelMotor==1){ 
06DC6:  MOVLB  5
06DC8:  DECFSZ xD9,W
06DCA:  BRA    6E8C
....................             glcd_rect(0, 29, 13, 39, YES, ON); 
06DCC:  CLRF   xFB
06DCE:  MOVLW  1D
06DD0:  MOVWF  xFC
06DD2:  MOVLW  0D
06DD4:  MOVWF  xFD
06DD6:  MOVLW  27
06DD8:  MOVWF  xFE
06DDA:  MOVLW  01
06DDC:  MOVWF  xFF
06DDE:  MOVLB  6
06DE0:  MOVWF  x00
06DE2:  MOVLB  0
06DE4:  CALL   4C28
....................             glcd_rect(15, 26, 28, 39, NO, ON); 
06DE8:  MOVLW  0F
06DEA:  MOVLB  5
06DEC:  MOVWF  xFB
06DEE:  MOVLW  1A
06DF0:  MOVWF  xFC
06DF2:  MOVLW  1C
06DF4:  MOVWF  xFD
06DF6:  MOVLW  27
06DF8:  MOVWF  xFE
06DFA:  CLRF   xFF
06DFC:  MOVLW  01
06DFE:  MOVLB  6
06E00:  MOVWF  x00
06E02:  MOVLB  0
06E04:  CALL   4C28
....................             glcd_rect(30, 23, 43, 39, NO, ON); 
06E08:  MOVLW  1E
06E0A:  MOVLB  5
06E0C:  MOVWF  xFB
06E0E:  MOVLW  17
06E10:  MOVWF  xFC
06E12:  MOVLW  2B
06E14:  MOVWF  xFD
06E16:  MOVLW  27
06E18:  MOVWF  xFE
06E1A:  CLRF   xFF
06E1C:  MOVLW  01
06E1E:  MOVLB  6
06E20:  MOVWF  x00
06E22:  MOVLB  0
06E24:  CALL   4C28
....................             glcd_rect(45, 20, 58, 39, NO, ON); 
06E28:  MOVLW  2D
06E2A:  MOVLB  5
06E2C:  MOVWF  xFB
06E2E:  MOVLW  14
06E30:  MOVWF  xFC
06E32:  MOVLW  3A
06E34:  MOVWF  xFD
06E36:  MOVLW  27
06E38:  MOVWF  xFE
06E3A:  CLRF   xFF
06E3C:  MOVLW  01
06E3E:  MOVLB  6
06E40:  MOVWF  x00
06E42:  MOVLB  0
06E44:  CALL   4C28
....................             glcd_rect(60, 17, 73, 39, NO, ON); 
06E48:  MOVLW  3C
06E4A:  MOVLB  5
06E4C:  MOVWF  xFB
06E4E:  MOVLW  11
06E50:  MOVWF  xFC
06E52:  MOVLW  49
06E54:  MOVWF  xFD
06E56:  MOVLW  27
06E58:  MOVWF  xFE
06E5A:  CLRF   xFF
06E5C:  MOVLW  01
06E5E:  MOVLB  6
06E60:  MOVWF  x00
06E62:  MOVLB  0
06E64:  CALL   4C28
....................             glcd_rect(75, 14, 88, 39, NO, ON); 
06E68:  MOVLW  4B
06E6A:  MOVLB  5
06E6C:  MOVWF  xFB
06E6E:  MOVLW  0E
06E70:  MOVWF  xFC
06E72:  MOVLW  58
06E74:  MOVWF  xFD
06E76:  MOVLW  27
06E78:  MOVWF  xFE
06E7A:  CLRF   xFF
06E7C:  MOVLW  01
06E7E:  MOVLB  6
06E80:  MOVWF  x00
06E82:  MOVLB  0
06E84:  CALL   4C28
....................          }else if(VelMotor==2){ 
06E88:  BRA    7266
06E8A:  MOVLB  5
06E8C:  MOVF   xD9,W
06E8E:  SUBLW  02
06E90:  BNZ   6F52
....................             glcd_rect(0, 29, 13, 39, YES, ON); 
06E92:  CLRF   xFB
06E94:  MOVLW  1D
06E96:  MOVWF  xFC
06E98:  MOVLW  0D
06E9A:  MOVWF  xFD
06E9C:  MOVLW  27
06E9E:  MOVWF  xFE
06EA0:  MOVLW  01
06EA2:  MOVWF  xFF
06EA4:  MOVLB  6
06EA6:  MOVWF  x00
06EA8:  MOVLB  0
06EAA:  CALL   4C28
....................             glcd_rect(15, 26, 28, 39, YES, ON); 
06EAE:  MOVLW  0F
06EB0:  MOVLB  5
06EB2:  MOVWF  xFB
06EB4:  MOVLW  1A
06EB6:  MOVWF  xFC
06EB8:  MOVLW  1C
06EBA:  MOVWF  xFD
06EBC:  MOVLW  27
06EBE:  MOVWF  xFE
06EC0:  MOVLW  01
06EC2:  MOVWF  xFF
06EC4:  MOVLB  6
06EC6:  MOVWF  x00
06EC8:  MOVLB  0
06ECA:  CALL   4C28
....................             glcd_rect(30, 23, 43, 39, NO, ON); 
06ECE:  MOVLW  1E
06ED0:  MOVLB  5
06ED2:  MOVWF  xFB
06ED4:  MOVLW  17
06ED6:  MOVWF  xFC
06ED8:  MOVLW  2B
06EDA:  MOVWF  xFD
06EDC:  MOVLW  27
06EDE:  MOVWF  xFE
06EE0:  CLRF   xFF
06EE2:  MOVLW  01
06EE4:  MOVLB  6
06EE6:  MOVWF  x00
06EE8:  MOVLB  0
06EEA:  CALL   4C28
....................             glcd_rect(45, 20, 58, 39, NO, ON); 
06EEE:  MOVLW  2D
06EF0:  MOVLB  5
06EF2:  MOVWF  xFB
06EF4:  MOVLW  14
06EF6:  MOVWF  xFC
06EF8:  MOVLW  3A
06EFA:  MOVWF  xFD
06EFC:  MOVLW  27
06EFE:  MOVWF  xFE
06F00:  CLRF   xFF
06F02:  MOVLW  01
06F04:  MOVLB  6
06F06:  MOVWF  x00
06F08:  MOVLB  0
06F0A:  CALL   4C28
....................             glcd_rect(60, 17, 73, 39, NO, ON); 
06F0E:  MOVLW  3C
06F10:  MOVLB  5
06F12:  MOVWF  xFB
06F14:  MOVLW  11
06F16:  MOVWF  xFC
06F18:  MOVLW  49
06F1A:  MOVWF  xFD
06F1C:  MOVLW  27
06F1E:  MOVWF  xFE
06F20:  CLRF   xFF
06F22:  MOVLW  01
06F24:  MOVLB  6
06F26:  MOVWF  x00
06F28:  MOVLB  0
06F2A:  CALL   4C28
....................             glcd_rect(75, 14, 88, 39, NO, ON); 
06F2E:  MOVLW  4B
06F30:  MOVLB  5
06F32:  MOVWF  xFB
06F34:  MOVLW  0E
06F36:  MOVWF  xFC
06F38:  MOVLW  58
06F3A:  MOVWF  xFD
06F3C:  MOVLW  27
06F3E:  MOVWF  xFE
06F40:  CLRF   xFF
06F42:  MOVLW  01
06F44:  MOVLB  6
06F46:  MOVWF  x00
06F48:  MOVLB  0
06F4A:  CALL   4C28
....................          }else if(VelMotor==3){ 
06F4E:  BRA    7266
06F50:  MOVLB  5
06F52:  MOVF   xD9,W
06F54:  SUBLW  03
06F56:  BNZ   7018
....................             glcd_rect(0, 29, 13, 39, YES, ON); 
06F58:  CLRF   xFB
06F5A:  MOVLW  1D
06F5C:  MOVWF  xFC
06F5E:  MOVLW  0D
06F60:  MOVWF  xFD
06F62:  MOVLW  27
06F64:  MOVWF  xFE
06F66:  MOVLW  01
06F68:  MOVWF  xFF
06F6A:  MOVLB  6
06F6C:  MOVWF  x00
06F6E:  MOVLB  0
06F70:  CALL   4C28
....................             glcd_rect(15, 26, 28, 39, YES, ON); 
06F74:  MOVLW  0F
06F76:  MOVLB  5
06F78:  MOVWF  xFB
06F7A:  MOVLW  1A
06F7C:  MOVWF  xFC
06F7E:  MOVLW  1C
06F80:  MOVWF  xFD
06F82:  MOVLW  27
06F84:  MOVWF  xFE
06F86:  MOVLW  01
06F88:  MOVWF  xFF
06F8A:  MOVLB  6
06F8C:  MOVWF  x00
06F8E:  MOVLB  0
06F90:  CALL   4C28
....................             glcd_rect(30, 23, 43, 39, YES, ON); 
06F94:  MOVLW  1E
06F96:  MOVLB  5
06F98:  MOVWF  xFB
06F9A:  MOVLW  17
06F9C:  MOVWF  xFC
06F9E:  MOVLW  2B
06FA0:  MOVWF  xFD
06FA2:  MOVLW  27
06FA4:  MOVWF  xFE
06FA6:  MOVLW  01
06FA8:  MOVWF  xFF
06FAA:  MOVLB  6
06FAC:  MOVWF  x00
06FAE:  MOVLB  0
06FB0:  CALL   4C28
....................             glcd_rect(45, 20, 58, 39, NO, ON); 
06FB4:  MOVLW  2D
06FB6:  MOVLB  5
06FB8:  MOVWF  xFB
06FBA:  MOVLW  14
06FBC:  MOVWF  xFC
06FBE:  MOVLW  3A
06FC0:  MOVWF  xFD
06FC2:  MOVLW  27
06FC4:  MOVWF  xFE
06FC6:  CLRF   xFF
06FC8:  MOVLW  01
06FCA:  MOVLB  6
06FCC:  MOVWF  x00
06FCE:  MOVLB  0
06FD0:  CALL   4C28
....................             glcd_rect(60, 17, 73, 39, NO, ON); 
06FD4:  MOVLW  3C
06FD6:  MOVLB  5
06FD8:  MOVWF  xFB
06FDA:  MOVLW  11
06FDC:  MOVWF  xFC
06FDE:  MOVLW  49
06FE0:  MOVWF  xFD
06FE2:  MOVLW  27
06FE4:  MOVWF  xFE
06FE6:  CLRF   xFF
06FE8:  MOVLW  01
06FEA:  MOVLB  6
06FEC:  MOVWF  x00
06FEE:  MOVLB  0
06FF0:  CALL   4C28
....................             glcd_rect(75, 14, 88, 39, NO, ON); 
06FF4:  MOVLW  4B
06FF6:  MOVLB  5
06FF8:  MOVWF  xFB
06FFA:  MOVLW  0E
06FFC:  MOVWF  xFC
06FFE:  MOVLW  58
07000:  MOVWF  xFD
07002:  MOVLW  27
07004:  MOVWF  xFE
07006:  CLRF   xFF
07008:  MOVLW  01
0700A:  MOVLB  6
0700C:  MOVWF  x00
0700E:  MOVLB  0
07010:  CALL   4C28
....................          }else if(VelMotor==4){ 
07014:  BRA    7266
07016:  MOVLB  5
07018:  MOVF   xD9,W
0701A:  SUBLW  04
0701C:  BNZ   70DE
....................             glcd_rect(0, 29, 13, 39, YES, ON); 
0701E:  CLRF   xFB
07020:  MOVLW  1D
07022:  MOVWF  xFC
07024:  MOVLW  0D
07026:  MOVWF  xFD
07028:  MOVLW  27
0702A:  MOVWF  xFE
0702C:  MOVLW  01
0702E:  MOVWF  xFF
07030:  MOVLB  6
07032:  MOVWF  x00
07034:  MOVLB  0
07036:  CALL   4C28
....................             glcd_rect(15, 26, 28, 39, YES, ON); 
0703A:  MOVLW  0F
0703C:  MOVLB  5
0703E:  MOVWF  xFB
07040:  MOVLW  1A
07042:  MOVWF  xFC
07044:  MOVLW  1C
07046:  MOVWF  xFD
07048:  MOVLW  27
0704A:  MOVWF  xFE
0704C:  MOVLW  01
0704E:  MOVWF  xFF
07050:  MOVLB  6
07052:  MOVWF  x00
07054:  MOVLB  0
07056:  CALL   4C28
....................             glcd_rect(30, 23, 43, 39, YES, ON); 
0705A:  MOVLW  1E
0705C:  MOVLB  5
0705E:  MOVWF  xFB
07060:  MOVLW  17
07062:  MOVWF  xFC
07064:  MOVLW  2B
07066:  MOVWF  xFD
07068:  MOVLW  27
0706A:  MOVWF  xFE
0706C:  MOVLW  01
0706E:  MOVWF  xFF
07070:  MOVLB  6
07072:  MOVWF  x00
07074:  MOVLB  0
07076:  CALL   4C28
....................             glcd_rect(45, 20, 58, 39, YES, ON); 
0707A:  MOVLW  2D
0707C:  MOVLB  5
0707E:  MOVWF  xFB
07080:  MOVLW  14
07082:  MOVWF  xFC
07084:  MOVLW  3A
07086:  MOVWF  xFD
07088:  MOVLW  27
0708A:  MOVWF  xFE
0708C:  MOVLW  01
0708E:  MOVWF  xFF
07090:  MOVLB  6
07092:  MOVWF  x00
07094:  MOVLB  0
07096:  CALL   4C28
....................             glcd_rect(60, 17, 73, 39, NO, ON); 
0709A:  MOVLW  3C
0709C:  MOVLB  5
0709E:  MOVWF  xFB
070A0:  MOVLW  11
070A2:  MOVWF  xFC
070A4:  MOVLW  49
070A6:  MOVWF  xFD
070A8:  MOVLW  27
070AA:  MOVWF  xFE
070AC:  CLRF   xFF
070AE:  MOVLW  01
070B0:  MOVLB  6
070B2:  MOVWF  x00
070B4:  MOVLB  0
070B6:  CALL   4C28
....................             glcd_rect(75, 14, 88, 39, NO, ON); 
070BA:  MOVLW  4B
070BC:  MOVLB  5
070BE:  MOVWF  xFB
070C0:  MOVLW  0E
070C2:  MOVWF  xFC
070C4:  MOVLW  58
070C6:  MOVWF  xFD
070C8:  MOVLW  27
070CA:  MOVWF  xFE
070CC:  CLRF   xFF
070CE:  MOVLW  01
070D0:  MOVLB  6
070D2:  MOVWF  x00
070D4:  MOVLB  0
070D6:  CALL   4C28
....................          }else if(VelMotor==5){ 
070DA:  BRA    7266
070DC:  MOVLB  5
070DE:  MOVF   xD9,W
070E0:  SUBLW  05
070E2:  BNZ   71A4
....................             glcd_rect(0, 29, 13, 39, YES, ON); 
070E4:  CLRF   xFB
070E6:  MOVLW  1D
070E8:  MOVWF  xFC
070EA:  MOVLW  0D
070EC:  MOVWF  xFD
070EE:  MOVLW  27
070F0:  MOVWF  xFE
070F2:  MOVLW  01
070F4:  MOVWF  xFF
070F6:  MOVLB  6
070F8:  MOVWF  x00
070FA:  MOVLB  0
070FC:  CALL   4C28
....................             glcd_rect(15, 26, 28, 39, YES, ON); 
07100:  MOVLW  0F
07102:  MOVLB  5
07104:  MOVWF  xFB
07106:  MOVLW  1A
07108:  MOVWF  xFC
0710A:  MOVLW  1C
0710C:  MOVWF  xFD
0710E:  MOVLW  27
07110:  MOVWF  xFE
07112:  MOVLW  01
07114:  MOVWF  xFF
07116:  MOVLB  6
07118:  MOVWF  x00
0711A:  MOVLB  0
0711C:  CALL   4C28
....................             glcd_rect(30, 23, 43, 39, YES, ON); 
07120:  MOVLW  1E
07122:  MOVLB  5
07124:  MOVWF  xFB
07126:  MOVLW  17
07128:  MOVWF  xFC
0712A:  MOVLW  2B
0712C:  MOVWF  xFD
0712E:  MOVLW  27
07130:  MOVWF  xFE
07132:  MOVLW  01
07134:  MOVWF  xFF
07136:  MOVLB  6
07138:  MOVWF  x00
0713A:  MOVLB  0
0713C:  CALL   4C28
....................             glcd_rect(45, 20, 58, 39, YES, ON); 
07140:  MOVLW  2D
07142:  MOVLB  5
07144:  MOVWF  xFB
07146:  MOVLW  14
07148:  MOVWF  xFC
0714A:  MOVLW  3A
0714C:  MOVWF  xFD
0714E:  MOVLW  27
07150:  MOVWF  xFE
07152:  MOVLW  01
07154:  MOVWF  xFF
07156:  MOVLB  6
07158:  MOVWF  x00
0715A:  MOVLB  0
0715C:  CALL   4C28
....................             glcd_rect(60, 17, 73, 39, YES, ON); 
07160:  MOVLW  3C
07162:  MOVLB  5
07164:  MOVWF  xFB
07166:  MOVLW  11
07168:  MOVWF  xFC
0716A:  MOVLW  49
0716C:  MOVWF  xFD
0716E:  MOVLW  27
07170:  MOVWF  xFE
07172:  MOVLW  01
07174:  MOVWF  xFF
07176:  MOVLB  6
07178:  MOVWF  x00
0717A:  MOVLB  0
0717C:  CALL   4C28
....................             glcd_rect(75, 14, 88, 39, NO, ON); 
07180:  MOVLW  4B
07182:  MOVLB  5
07184:  MOVWF  xFB
07186:  MOVLW  0E
07188:  MOVWF  xFC
0718A:  MOVLW  58
0718C:  MOVWF  xFD
0718E:  MOVLW  27
07190:  MOVWF  xFE
07192:  CLRF   xFF
07194:  MOVLW  01
07196:  MOVLB  6
07198:  MOVWF  x00
0719A:  MOVLB  0
0719C:  CALL   4C28
....................          }else if(VelMotor==6){ 
071A0:  BRA    7266
071A2:  MOVLB  5
071A4:  MOVF   xD9,W
071A6:  SUBLW  06
071A8:  BNZ   7266
....................             glcd_rect(0, 29, 13, 39, YES, ON); 
071AA:  CLRF   xFB
071AC:  MOVLW  1D
071AE:  MOVWF  xFC
071B0:  MOVLW  0D
071B2:  MOVWF  xFD
071B4:  MOVLW  27
071B6:  MOVWF  xFE
071B8:  MOVLW  01
071BA:  MOVWF  xFF
071BC:  MOVLB  6
071BE:  MOVWF  x00
071C0:  MOVLB  0
071C2:  CALL   4C28
....................             glcd_rect(15, 26, 28, 39, YES, ON); 
071C6:  MOVLW  0F
071C8:  MOVLB  5
071CA:  MOVWF  xFB
071CC:  MOVLW  1A
071CE:  MOVWF  xFC
071D0:  MOVLW  1C
071D2:  MOVWF  xFD
071D4:  MOVLW  27
071D6:  MOVWF  xFE
071D8:  MOVLW  01
071DA:  MOVWF  xFF
071DC:  MOVLB  6
071DE:  MOVWF  x00
071E0:  MOVLB  0
071E2:  CALL   4C28
....................             glcd_rect(30, 23, 43, 39, YES, ON); 
071E6:  MOVLW  1E
071E8:  MOVLB  5
071EA:  MOVWF  xFB
071EC:  MOVLW  17
071EE:  MOVWF  xFC
071F0:  MOVLW  2B
071F2:  MOVWF  xFD
071F4:  MOVLW  27
071F6:  MOVWF  xFE
071F8:  MOVLW  01
071FA:  MOVWF  xFF
071FC:  MOVLB  6
071FE:  MOVWF  x00
07200:  MOVLB  0
07202:  CALL   4C28
....................             glcd_rect(45, 20, 58, 39, YES, ON); 
07206:  MOVLW  2D
07208:  MOVLB  5
0720A:  MOVWF  xFB
0720C:  MOVLW  14
0720E:  MOVWF  xFC
07210:  MOVLW  3A
07212:  MOVWF  xFD
07214:  MOVLW  27
07216:  MOVWF  xFE
07218:  MOVLW  01
0721A:  MOVWF  xFF
0721C:  MOVLB  6
0721E:  MOVWF  x00
07220:  MOVLB  0
07222:  CALL   4C28
....................             glcd_rect(60, 17, 73, 39, YES, ON); 
07226:  MOVLW  3C
07228:  MOVLB  5
0722A:  MOVWF  xFB
0722C:  MOVLW  11
0722E:  MOVWF  xFC
07230:  MOVLW  49
07232:  MOVWF  xFD
07234:  MOVLW  27
07236:  MOVWF  xFE
07238:  MOVLW  01
0723A:  MOVWF  xFF
0723C:  MOVLB  6
0723E:  MOVWF  x00
07240:  MOVLB  0
07242:  CALL   4C28
....................             glcd_rect(75, 14, 88, 39, YES, ON); 
07246:  MOVLW  4B
07248:  MOVLB  5
0724A:  MOVWF  xFB
0724C:  MOVLW  0E
0724E:  MOVWF  xFC
07250:  MOVLW  58
07252:  MOVWF  xFD
07254:  MOVLW  27
07256:  MOVWF  xFE
07258:  MOVLW  01
0725A:  MOVWF  xFF
0725C:  MOVLB  6
0725E:  MOVWF  x00
07260:  MOVLB  0
07262:  CALL   4C28
....................          } 
....................           
....................          if(imprimir==1){ 
07266:  MOVLB  4
07268:  BTFSS  x2C.6
0726A:  BRA    74BA
....................             glcd_text57(2, 12, Inflowt, 1, ON); 
0726C:  MOVLW  02
0726E:  MOVLB  5
07270:  MOVWF  xFB
07272:  MOVLW  0C
07274:  MOVWF  xFC
07276:  MOVLW  04
07278:  MOVWF  xFE
0727A:  MOVLW  6C
0727C:  MOVWF  xFD
0727E:  MOVLW  01
07280:  MOVWF  xFF
07282:  MOVLB  6
07284:  MOVWF  x00
07286:  MOVLB  0
07288:  CALL   17CA
....................             displayTiempo(VelMotor,23,11,0,1);   
0728C:  MOVFF  5D9,5E2
07290:  MOVLW  17
07292:  MOVLB  5
07294:  MOVWF  xE3
07296:  MOVLW  0B
07298:  MOVWF  xE4
0729A:  CLRF   xE5
0729C:  MOVLW  01
0729E:  MOVWF  xE6
072A0:  MOVLB  0
072A2:  CALL   5572
....................             glcd_rect(0, 10, 95, 63, NO, ON); 
072A6:  MOVLB  5
072A8:  CLRF   xFB
072AA:  MOVLW  0A
072AC:  MOVWF  xFC
072AE:  MOVLW  5F
072B0:  MOVWF  xFD
072B2:  MOVLW  3F
072B4:  MOVWF  xFE
072B6:  CLRF   xFF
072B8:  MOVLW  01
072BA:  MOVLB  6
072BC:  MOVWF  x00
072BE:  MOVLB  0
072C0:  CALL   4C28
....................             glcd_rect(100, 10, 127, 63, NO, ON); 
072C4:  MOVLW  64
072C6:  MOVLB  5
072C8:  MOVWF  xFB
072CA:  MOVLW  0A
072CC:  MOVWF  xFC
072CE:  MOVLW  7F
072D0:  MOVWF  xFD
072D2:  MOVLW  3F
072D4:  MOVWF  xFE
072D6:  CLRF   xFF
072D8:  MOVLW  01
072DA:  MOVLB  6
072DC:  MOVWF  x00
072DE:  MOVLB  0
072E0:  CALL   4C28
....................             //glcd_text57(35, 12, Downflowt, 1, ON); 
....................             glcd_text57(2, 41, Vida_Filtro, 1, ON); 
072E4:  MOVLW  02
072E6:  MOVLB  5
072E8:  MOVWF  xFB
072EA:  MOVLW  29
072EC:  MOVWF  xFC
072EE:  MOVLW  04
072F0:  MOVWF  xFE
072F2:  MOVLW  92
072F4:  MOVWF  xFD
072F6:  MOVLW  01
072F8:  MOVWF  xFF
072FA:  MOVLB  6
072FC:  MOVWF  x00
072FE:  MOVLB  0
07300:  CALL   17CA
....................             //displayTiempo(Ttrabajo[3],60,41,0,1);displayTiempo(Ttrabajo[2],67,41,0,1);displayTiempo(Ttrabajo[1],74,41,0,1);displayTiempo(Ttrabajo[0],82,41,0,1); 
....................             if(Filtro_Downflow>=0.9){ 
07304:  MOVLW  66
07306:  MOVLB  6
07308:  MOVWF  x16
0730A:  MOVWF  x15
0730C:  MOVWF  x14
0730E:  MOVLW  7E
07310:  MOVWF  x13
07312:  MOVFF  519,61A
07316:  MOVFF  518,619
0731A:  MOVFF  517,618
0731E:  MOVFF  516,617
07322:  MOVLB  0
07324:  CALL   2538
07328:  BC    732C
0732A:  BNZ   738C
....................                strcpy(Menus.Letra,"Filtro Saturado"); 
0732C:  MOVLW  04
0732E:  MOVWF  FEA
07330:  MOVLW  16
07332:  MOVWF  FE9
07334:  MOVFF  FF2,5E2
07338:  BCF    FF2.7
0733A:  MOVLW  00
0733C:  CALL   0FE2
07340:  TBLRD*-
07342:  TBLRD*+
07344:  MOVF   FF5,W
07346:  MOVWF  FEE
07348:  IORLW  00
0734A:  BNZ   7342
0734C:  MOVLB  5
0734E:  BTFSC  xE2.7
07350:  BSF    FF2.7
....................                displayMenu(Menus.Letra,0,0,1,1); 
07352:  MOVLW  04
07354:  MOVWF  xEB
07356:  MOVLW  16
07358:  MOVWF  xEA
0735A:  CLRF   xEC
0735C:  CLRF   xED
0735E:  MOVLW  01
07360:  MOVWF  xEE
07362:  MOVWF  xEF
07364:  MOVLB  0
07366:  CALL   4DB4
....................                Alarma_on; 
0736A:  BSF    F8B.7
0736C:  BCF    F94.7
....................                delay_ms(50); 
0736E:  MOVLW  32
07370:  MOVLB  5
07372:  MOVWF  xF6
07374:  MOVLB  0
07376:  CALL   1474
....................                Alarma_off; 
0737A:  BCF    F8B.7
0737C:  BCF    F94.7
....................                delay_ms(50); 
0737E:  MOVLW  32
07380:  MOVLB  5
07382:  MOVWF  xF6
07384:  MOVLB  0
07386:  CALL   1474
....................             }else{ 
0738A:  BRA    73CC
....................                strcpy(Menus.Letra,"JPCV24-PCR-EC"); 
0738C:  MOVLW  04
0738E:  MOVWF  FEA
07390:  MOVLW  16
07392:  MOVWF  FE9
07394:  MOVFF  FF2,5E2
07398:  BCF    FF2.7
0739A:  MOVLW  00
0739C:  CALL   100C
073A0:  TBLRD*-
073A2:  TBLRD*+
073A4:  MOVF   FF5,W
073A6:  MOVWF  FEE
073A8:  IORLW  00
073AA:  BNZ   73A2
073AC:  MOVLB  5
073AE:  BTFSC  xE2.7
073B0:  BSF    FF2.7
....................                displayMenu(Menus.Letra,2,0,1,1); 
073B2:  MOVLW  04
073B4:  MOVWF  xEB
073B6:  MOVLW  16
073B8:  MOVWF  xEA
073BA:  MOVLW  02
073BC:  MOVWF  xEC
073BE:  CLRF   xED
073C0:  MOVLW  01
073C2:  MOVWF  xEE
073C4:  MOVWF  xEF
073C6:  MOVLB  0
073C8:  CALL   4DB4
....................             } 
....................             displayfloat2(Temperatura,90,0,1,1); 
073CC:  MOVLB  6
073CE:  CLRF   x18
073D0:  MOVFF  5D5,617
073D4:  MOVLB  0
073D6:  CALL   19A0
073DA:  MOVFF  00,5E2
073DE:  MOVFF  01,5E3
073E2:  MOVFF  02,5E4
073E6:  MOVFF  03,5E5
073EA:  MOVFF  03,5E9
073EE:  MOVFF  02,5E8
073F2:  MOVFF  01,5E7
073F6:  MOVFF  00,5E6
073FA:  MOVLW  5A
073FC:  MOVLB  5
073FE:  MOVWF  xEA
07400:  CLRF   xEB
07402:  MOVLW  01
07404:  MOVWF  xEC
07406:  MOVWF  xED
07408:  MOVLB  0
0740A:  GOTO   5BCC
....................              
....................             glcd_text57(2, 52, Tempo, 1, ON); 
0740E:  MOVLW  02
07410:  MOVLB  5
07412:  MOVWF  xFB
07414:  MOVLW  34
07416:  MOVWF  xFC
07418:  MOVLW  04
0741A:  MOVWF  xFE
0741C:  MOVLW  BA
0741E:  MOVWF  xFD
07420:  MOVLW  01
07422:  MOVWF  xFF
07424:  MOVLB  6
07426:  MOVWF  x00
07428:  MOVLB  0
0742A:  CALL   17CA
....................             displayTiempo(Tempouv[3],59,51,0,1); 
0742E:  MOVFF  501,5E2
07432:  MOVLW  3B
07434:  MOVLB  5
07436:  MOVWF  xE3
07438:  MOVLW  33
0743A:  MOVWF  xE4
0743C:  CLRF   xE5
0743E:  MOVLW  01
07440:  MOVWF  xE6
07442:  MOVLB  0
07444:  CALL   5572
....................             displayTiempo(Tempouv[2],67,51,0,1); 
07448:  MOVFF  500,5E2
0744C:  MOVLW  43
0744E:  MOVLB  5
07450:  MOVWF  xE3
07452:  MOVLW  33
07454:  MOVWF  xE4
07456:  CLRF   xE5
07458:  MOVLW  01
0745A:  MOVWF  xE6
0745C:  MOVLB  0
0745E:  CALL   5572
....................             glcd_text57(75, 52, Dos_puntos, 1, ON); 
07462:  MOVLW  4B
07464:  MOVLB  5
07466:  MOVWF  xFB
07468:  MOVLW  34
0746A:  MOVWF  xFC
0746C:  MOVLW  04
0746E:  MOVWF  xFE
07470:  MOVLW  50
07472:  MOVWF  xFD
07474:  MOVLW  01
07476:  MOVWF  xFF
07478:  MOVLB  6
0747A:  MOVWF  x00
0747C:  MOVLB  0
0747E:  CALL   17CA
....................             displayTiempo(Tempouv[1],79,51,0,1); 
07482:  MOVFF  4FF,5E2
07486:  MOVLW  4F
07488:  MOVLB  5
0748A:  MOVWF  xE3
0748C:  MOVLW  33
0748E:  MOVWF  xE4
07490:  CLRF   xE5
07492:  MOVLW  01
07494:  MOVWF  xE6
07496:  MOVLB  0
07498:  CALL   5572
....................             displayTiempo(Tempouv[0],87,51,0,1); 
0749C:  MOVFF  4FE,5E2
074A0:  MOVLW  57
074A2:  MOVLB  5
074A4:  MOVWF  xE3
074A6:  MOVLW  33
074A8:  MOVWF  xE4
074AA:  CLRF   xE5
074AC:  MOVLW  01
074AE:  MOVWF  xE6
074B0:  MOVLB  0
074B2:  CALL   5572
....................             imprimir=0; 
074B6:  MOVLB  4
074B8:  BCF    x2C.6
....................          } 
....................           
....................          // Dibujo de barra de estado de filtro                   
....................          barra=100.0*(Filtro_Downflow/1); 
074BA:  MOVFF  519,616
074BE:  MOVFF  518,615
074C2:  MOVFF  517,614
074C6:  MOVFF  516,613
074CA:  MOVLB  6
074CC:  CLRF   x1A
074CE:  CLRF   x19
074D0:  CLRF   x18
074D2:  MOVLW  7F
074D4:  MOVWF  x17
074D6:  MOVLB  0
074D8:  CALL   19D6
074DC:  MOVLB  6
074DE:  CLRF   x16
074E0:  CLRF   x15
074E2:  MOVLW  48
074E4:  MOVWF  x14
074E6:  MOVLW  85
074E8:  MOVWF  x13
074EA:  MOVFF  03,61A
074EE:  MOVFF  02,619
074F2:  MOVFF  01,618
074F6:  MOVFF  00,617
074FA:  MOVLB  0
074FC:  CALL   2FB8
07500:  MOVFF  03,521
07504:  MOVFF  02,520
07508:  MOVFF  01,51F
0750C:  MOVFF  00,51E
....................          if(barra>100.0) 
07510:  MOVLB  6
07512:  CLRF   x16
07514:  CLRF   x15
07516:  MOVLW  48
07518:  MOVWF  x14
0751A:  MOVLW  85
0751C:  MOVWF  x13
0751E:  MOVFF  521,61A
07522:  MOVFF  520,619
07526:  MOVFF  51F,618
0752A:  MOVFF  51E,617
0752E:  MOVLB  0
07530:  CALL   2538
07534:  BNC   7544
....................             barra=100.0; 
07536:  MOVLB  5
07538:  CLRF   x21
0753A:  CLRF   x20
0753C:  MOVLW  48
0753E:  MOVWF  x1F
07540:  MOVLW  85
07542:  MOVWF  x1E
....................          barra=barra/2; 
07544:  MOVFF  521,616
07548:  MOVFF  520,615
0754C:  MOVFF  51F,614
07550:  MOVFF  51E,613
07554:  MOVLB  6
07556:  CLRF   x1A
07558:  CLRF   x19
0755A:  CLRF   x18
0755C:  MOVLW  80
0755E:  MOVWF  x17
07560:  MOVLB  0
07562:  CALL   19D6
07566:  MOVFF  03,521
0756A:  MOVFF  02,520
0756E:  MOVFF  01,51F
07572:  MOVFF  00,51E
....................          glcd_rect(42, 41, (int8)(barra_old)+42, 48, YES, OFF);  // Clears the old bar 
07576:  MOVFF  525,616
0757A:  MOVFF  524,615
0757E:  MOVFF  523,614
07582:  MOVFF  522,613
07586:  CALL   2F7C
0758A:  MOVLW  2A
0758C:  ADDWF  01,W
0758E:  MOVLB  5
07590:  MOVWF  xE2
07592:  MOVLW  2A
07594:  MOVWF  xFB
07596:  MOVLW  29
07598:  MOVWF  xFC
0759A:  MOVFF  5E2,5FD
0759E:  MOVLW  30
075A0:  MOVWF  xFE
075A2:  MOVLW  01
075A4:  MOVWF  xFF
075A6:  MOVLB  6
075A8:  CLRF   x00
075AA:  MOVLB  0
075AC:  CALL   4C28
....................          glcd_rect(42, 41, (int8)(barra)+42, 48, YES, ON);             // Draws a new bar 
075B0:  MOVFF  521,616
075B4:  MOVFF  520,615
075B8:  MOVFF  51F,614
075BC:  MOVFF  51E,613
075C0:  CALL   2F7C
075C4:  MOVLW  2A
075C6:  ADDWF  01,W
075C8:  MOVLB  5
075CA:  MOVWF  xE2
075CC:  MOVLW  2A
075CE:  MOVWF  xFB
075D0:  MOVLW  29
075D2:  MOVWF  xFC
075D4:  MOVFF  5E2,5FD
075D8:  MOVLW  30
075DA:  MOVWF  xFE
075DC:  MOVLW  01
075DE:  MOVWF  xFF
075E0:  MOVLB  6
075E2:  MOVWF  x00
075E4:  MOVLB  0
075E6:  CALL   4C28
....................          glcd_rect(42, 41, 94, 48, NO, ON);             // Draws a new bar 
075EA:  MOVLW  2A
075EC:  MOVLB  5
075EE:  MOVWF  xFB
075F0:  MOVLW  29
075F2:  MOVWF  xFC
075F4:  MOVLW  5E
075F6:  MOVWF  xFD
075F8:  MOVLW  30
075FA:  MOVWF  xFE
075FC:  CLRF   xFF
075FE:  MOVLW  01
07600:  MOVLB  6
07602:  MOVWF  x00
07604:  MOVLB  0
07606:  CALL   4C28
....................          barra_old=barra; 
0760A:  MOVFF  521,525
0760E:  MOVFF  520,524
07612:  MOVFF  51F,523
07616:  MOVFF  51E,522
.................... // Fin de Dibujo de barra de estado de Filtro 
....................           
....................          if(VIDRIODN){ 
0761A:  BSF    F92.3
0761C:  BTFSC  F80.3
0761E:  BRA    762A
....................            flag_blower=0; 
07620:  MOVLB  4
07622:  BCF    x2C.7
....................            flag_luz=0; 
07624:  BCF    x2D.1
....................          }else{ 
07626:  BRA    762E
07628:  MOVLB  0
....................            flag_uv=0;  
0762A:  MOVLB  4
0762C:  BCF    x2D.7
....................          } 
....................           
....................          if(flag_blower==1 && flag_uv==0){ 
0762E:  BTFSS  x2C.7
07630:  BRA    77DA
07632:  BTFSC  x2D.7
07634:  BRA    77DA
....................             glcd_imagen(5);tiempo_trabajo=1; 
07636:  MOVLW  05
07638:  MOVLB  5
0763A:  MOVWF  xE2
0763C:  MOVLB  0
0763E:  CALL   5D36
07642:  MOVLB  4
07644:  BSF    x2D.5
....................             if(guardatrabajo==1){ 
07646:  BTFSS  x2E.3
07648:  BRA    77CC
....................                VelocidadMotor(6); 
0764A:  MOVLW  06
0764C:  MOVLB  5
0764E:  MOVWF  xE2
07650:  MOVLB  0
07652:  CALL   149C
....................                guardatrabajo=0; 
07656:  MOVLB  4
07658:  BCF    x2E.3
....................                write_eeprom(33,make8(minutos_trabajo,0)); 
0765A:  MOVFF  4E6,5E2
0765E:  CLRF   FAA
07660:  MOVLW  21
07662:  MOVWF  FA9
07664:  MOVFF  5E2,FA8
07668:  BCF    FA6.6
0766A:  BCF    FA6.7
0766C:  BSF    FA6.2
0766E:  MOVF   FF2,W
07670:  MOVWF  00
07672:  BCF    FF2.7
07674:  MOVLB  F
07676:  MOVLW  55
07678:  MOVWF  FA7
0767A:  MOVLW  AA
0767C:  MOVWF  FA7
0767E:  BSF    FA6.1
07680:  BTFSC  FA6.1
07682:  BRA    7680
07684:  BCF    FA6.2
07686:  MOVF   00,W
07688:  IORWF  FF2,F
....................                delay_ms(20); 
0768A:  MOVLW  14
0768C:  MOVLB  5
0768E:  MOVWF  xF6
07690:  MOVLB  0
07692:  CALL   1474
....................                write_eeprom(34,make8(minutos_trabajo,1)); 
07696:  MOVFF  4E7,5E2
0769A:  CLRF   FAA
0769C:  MOVLW  22
0769E:  MOVWF  FA9
076A0:  MOVFF  5E2,FA8
076A4:  BCF    FA6.6
076A6:  BCF    FA6.7
076A8:  BSF    FA6.2
076AA:  MOVF   FF2,W
076AC:  MOVWF  00
076AE:  BCF    FF2.7
076B0:  MOVLB  F
076B2:  MOVLW  55
076B4:  MOVWF  FA7
076B6:  MOVLW  AA
076B8:  MOVWF  FA7
076BA:  BSF    FA6.1
076BC:  BTFSC  FA6.1
076BE:  BRA    76BC
076C0:  BCF    FA6.2
076C2:  MOVF   00,W
076C4:  IORWF  FF2,F
....................                delay_ms(20); 
076C6:  MOVLW  14
076C8:  MOVLB  5
076CA:  MOVWF  xF6
076CC:  MOVLB  0
076CE:  CALL   1474
....................                write_eeprom(16,Ttrabajo[0]); 
076D2:  CLRF   FAA
076D4:  MOVLW  10
076D6:  MOVWF  FA9
076D8:  MOVFF  502,FA8
076DC:  BCF    FA6.6
076DE:  BCF    FA6.7
076E0:  BSF    FA6.2
076E2:  MOVF   FF2,W
076E4:  MOVWF  00
076E6:  BCF    FF2.7
076E8:  MOVLB  F
076EA:  MOVLW  55
076EC:  MOVWF  FA7
076EE:  MOVLW  AA
076F0:  MOVWF  FA7
076F2:  BSF    FA6.1
076F4:  BTFSC  FA6.1
076F6:  BRA    76F4
076F8:  BCF    FA6.2
076FA:  MOVF   00,W
076FC:  IORWF  FF2,F
....................                delay_ms(20); 
076FE:  MOVLW  14
07700:  MOVLB  5
07702:  MOVWF  xF6
07704:  MOVLB  0
07706:  CALL   1474
....................                write_eeprom(17,Ttrabajo[1]); 
0770A:  CLRF   FAA
0770C:  MOVLW  11
0770E:  MOVWF  FA9
07710:  MOVFF  503,FA8
07714:  BCF    FA6.6
07716:  BCF    FA6.7
07718:  BSF    FA6.2
0771A:  MOVF   FF2,W
0771C:  MOVWF  00
0771E:  BCF    FF2.7
07720:  MOVLB  F
07722:  MOVLW  55
07724:  MOVWF  FA7
07726:  MOVLW  AA
07728:  MOVWF  FA7
0772A:  BSF    FA6.1
0772C:  BTFSC  FA6.1
0772E:  BRA    772C
07730:  BCF    FA6.2
07732:  MOVF   00,W
07734:  IORWF  FF2,F
....................                delay_ms(20); 
07736:  MOVLW  14
07738:  MOVLB  5
0773A:  MOVWF  xF6
0773C:  MOVLB  0
0773E:  CALL   1474
....................                write_eeprom(18,Ttrabajo[2]); 
07742:  CLRF   FAA
07744:  MOVLW  12
07746:  MOVWF  FA9
07748:  MOVFF  504,FA8
0774C:  BCF    FA6.6
0774E:  BCF    FA6.7
07750:  BSF    FA6.2
07752:  MOVF   FF2,W
07754:  MOVWF  00
07756:  BCF    FF2.7
07758:  MOVLB  F
0775A:  MOVLW  55
0775C:  MOVWF  FA7
0775E:  MOVLW  AA
07760:  MOVWF  FA7
07762:  BSF    FA6.1
07764:  BTFSC  FA6.1
07766:  BRA    7764
07768:  BCF    FA6.2
0776A:  MOVF   00,W
0776C:  IORWF  FF2,F
....................                delay_ms(20); 
0776E:  MOVLW  14
07770:  MOVLB  5
07772:  MOVWF  xF6
07774:  MOVLB  0
07776:  CALL   1474
....................                write_eeprom(19,Ttrabajo[3]); 
0777A:  CLRF   FAA
0777C:  MOVLW  13
0777E:  MOVWF  FA9
07780:  MOVFF  505,FA8
07784:  BCF    FA6.6
07786:  BCF    FA6.7
07788:  BSF    FA6.2
0778A:  MOVF   FF2,W
0778C:  MOVWF  00
0778E:  BCF    FF2.7
07790:  MOVLB  F
07792:  MOVLW  55
07794:  MOVWF  FA7
07796:  MOVLW  AA
07798:  MOVWF  FA7
0779A:  BSF    FA6.1
0779C:  BTFSC  FA6.1
0779E:  BRA    779C
077A0:  BCF    FA6.2
077A2:  MOVF   00,W
077A4:  IORWF  FF2,F
....................                delay_ms(20); 
077A6:  MOVLW  14
077A8:  MOVLB  5
077AA:  MOVWF  xF6
077AC:  MOVLB  0
077AE:  CALL   1474
....................                glcd_init(ON);             //Inicializa la glcd 
077B2:  MOVLW  01
077B4:  MOVLB  5
077B6:  MOVWF  xE2
077B8:  MOVLB  0
077BA:  CALL   1666
....................                glcd_fillScreen(OFF);      //Limpia la pantalla 
077BE:  MOVLB  5
077C0:  CLRF   xEA
077C2:  MOVLB  0
077C4:  CALL   1554
....................                glcd_update();   
077C8:  CALL   15AE
....................             } 
....................             VelocidadMotor(VelMotor); 
077CC:  MOVFF  5D9,5E2
077D0:  MOVLB  0
077D2:  CALL   149C
....................          }else{ 
077D6:  BRA    7974
077D8:  MOVLB  4
....................             Filtro_Downflow=0; 
077DA:  MOVLB  5
077DC:  CLRF   x19
077DE:  CLRF   x18
077E0:  CLRF   x17
077E2:  CLRF   x16
....................             glcd_rect(102, 45, 126, 62, YES, OFF);tiempo_trabajo=0;VelocidadMotor(0); 
077E4:  MOVLW  66
077E6:  MOVWF  xFB
077E8:  MOVLW  2D
077EA:  MOVWF  xFC
077EC:  MOVLW  7E
077EE:  MOVWF  xFD
077F0:  MOVLW  3E
077F2:  MOVWF  xFE
077F4:  MOVLW  01
077F6:  MOVWF  xFF
077F8:  MOVLB  6
077FA:  CLRF   x00
077FC:  MOVLB  0
077FE:  CALL   4C28
07802:  MOVLB  4
07804:  BCF    x2D.5
07806:  MOVLB  5
07808:  CLRF   xE2
0780A:  MOVLB  0
0780C:  CALL   149C
....................             if(guardatrabajo==0){ 
07810:  MOVLB  4
07812:  BTFSC  x2E.3
07814:  BRA    7976
....................                guardatrabajo=1; 
07816:  BSF    x2E.3
....................                write_eeprom(33,make8(minutos_trabajo,0)); 
07818:  MOVFF  4E6,5E2
0781C:  CLRF   FAA
0781E:  MOVLW  21
07820:  MOVWF  FA9
07822:  MOVFF  5E2,FA8
07826:  BCF    FA6.6
07828:  BCF    FA6.7
0782A:  BSF    FA6.2
0782C:  MOVF   FF2,W
0782E:  MOVWF  00
07830:  BCF    FF2.7
07832:  MOVLB  F
07834:  MOVLW  55
07836:  MOVWF  FA7
07838:  MOVLW  AA
0783A:  MOVWF  FA7
0783C:  BSF    FA6.1
0783E:  BTFSC  FA6.1
07840:  BRA    783E
07842:  BCF    FA6.2
07844:  MOVF   00,W
07846:  IORWF  FF2,F
....................                delay_ms(20); 
07848:  MOVLW  14
0784A:  MOVLB  5
0784C:  MOVWF  xF6
0784E:  MOVLB  0
07850:  CALL   1474
....................                write_eeprom(34,make8(minutos_trabajo,1)); 
07854:  MOVFF  4E7,5E2
07858:  CLRF   FAA
0785A:  MOVLW  22
0785C:  MOVWF  FA9
0785E:  MOVFF  5E2,FA8
07862:  BCF    FA6.6
07864:  BCF    FA6.7
07866:  BSF    FA6.2
07868:  MOVF   FF2,W
0786A:  MOVWF  00
0786C:  BCF    FF2.7
0786E:  MOVLB  F
07870:  MOVLW  55
07872:  MOVWF  FA7
07874:  MOVLW  AA
07876:  MOVWF  FA7
07878:  BSF    FA6.1
0787A:  BTFSC  FA6.1
0787C:  BRA    787A
0787E:  BCF    FA6.2
07880:  MOVF   00,W
07882:  IORWF  FF2,F
....................                delay_ms(20); 
07884:  MOVLW  14
07886:  MOVLB  5
07888:  MOVWF  xF6
0788A:  MOVLB  0
0788C:  CALL   1474
....................                write_eeprom(16,Ttrabajo[0]); 
07890:  CLRF   FAA
07892:  MOVLW  10
07894:  MOVWF  FA9
07896:  MOVFF  502,FA8
0789A:  BCF    FA6.6
0789C:  BCF    FA6.7
0789E:  BSF    FA6.2
078A0:  MOVF   FF2,W
078A2:  MOVWF  00
078A4:  BCF    FF2.7
078A6:  MOVLB  F
078A8:  MOVLW  55
078AA:  MOVWF  FA7
078AC:  MOVLW  AA
078AE:  MOVWF  FA7
078B0:  BSF    FA6.1
078B2:  BTFSC  FA6.1
078B4:  BRA    78B2
078B6:  BCF    FA6.2
078B8:  MOVF   00,W
078BA:  IORWF  FF2,F
....................                delay_ms(20); 
078BC:  MOVLW  14
078BE:  MOVLB  5
078C0:  MOVWF  xF6
078C2:  MOVLB  0
078C4:  CALL   1474
....................                write_eeprom(17,Ttrabajo[1]); 
078C8:  CLRF   FAA
078CA:  MOVLW  11
078CC:  MOVWF  FA9
078CE:  MOVFF  503,FA8
078D2:  BCF    FA6.6
078D4:  BCF    FA6.7
078D6:  BSF    FA6.2
078D8:  MOVF   FF2,W
078DA:  MOVWF  00
078DC:  BCF    FF2.7
078DE:  MOVLB  F
078E0:  MOVLW  55
078E2:  MOVWF  FA7
078E4:  MOVLW  AA
078E6:  MOVWF  FA7
078E8:  BSF    FA6.1
078EA:  BTFSC  FA6.1
078EC:  BRA    78EA
078EE:  BCF    FA6.2
078F0:  MOVF   00,W
078F2:  IORWF  FF2,F
....................                delay_ms(20); 
078F4:  MOVLW  14
078F6:  MOVLB  5
078F8:  MOVWF  xF6
078FA:  MOVLB  0
078FC:  CALL   1474
....................                write_eeprom(18,Ttrabajo[2]); 
07900:  CLRF   FAA
07902:  MOVLW  12
07904:  MOVWF  FA9
07906:  MOVFF  504,FA8
0790A:  BCF    FA6.6
0790C:  BCF    FA6.7
0790E:  BSF    FA6.2
07910:  MOVF   FF2,W
07912:  MOVWF  00
07914:  BCF    FF2.7
07916:  MOVLB  F
07918:  MOVLW  55
0791A:  MOVWF  FA7
0791C:  MOVLW  AA
0791E:  MOVWF  FA7
07920:  BSF    FA6.1
07922:  BTFSC  FA6.1
07924:  BRA    7922
07926:  BCF    FA6.2
07928:  MOVF   00,W
0792A:  IORWF  FF2,F
....................                delay_ms(20); 
0792C:  MOVLW  14
0792E:  MOVLB  5
07930:  MOVWF  xF6
07932:  MOVLB  0
07934:  CALL   1474
....................                write_eeprom(19,Ttrabajo[3]); 
07938:  CLRF   FAA
0793A:  MOVLW  13
0793C:  MOVWF  FA9
0793E:  MOVFF  505,FA8
07942:  BCF    FA6.6
07944:  BCF    FA6.7
07946:  BSF    FA6.2
07948:  MOVF   FF2,W
0794A:  MOVWF  00
0794C:  BCF    FF2.7
0794E:  MOVLB  F
07950:  MOVLW  55
07952:  MOVWF  FA7
07954:  MOVLW  AA
07956:  MOVWF  FA7
07958:  BSF    FA6.1
0795A:  BTFSC  FA6.1
0795C:  BRA    795A
0795E:  BCF    FA6.2
07960:  MOVF   00,W
07962:  IORWF  FF2,F
....................                delay_ms(20); 
07964:  MOVLW  14
07966:  MOVLB  5
07968:  MOVWF  xF6
0796A:  MOVLB  0
0796C:  CALL   1474
....................                //glcd_init(ON);             //Inicializa la glcd 
....................                //glcd_fillScreen(OFF);      //Limpia la pantalla 
....................                glcd_update();   
07970:  CALL   15AE
07974:  MOVLB  4
....................             } 
....................          } 
....................           
....................       if(flag_luz==1 && flag_uv==0){ 
07976:  BTFSS  x2D.1
07978:  BRA    7992
0797A:  BTFSC  x2D.7
0797C:  BRA    7992
....................          glcd_imagen(3);LuzBlanca_on; 
0797E:  MOVLW  03
07980:  MOVLB  5
07982:  MOVWF  xE2
07984:  MOVLB  0
07986:  CALL   5D36
0798A:  BSF    F8B.0
0798C:  BCF    F94.0
....................       }else{ 
0798E:  BRA    79B6
07990:  MOVLB  4
....................          glcd_rect(102, 14, 126, 28, YES, OFF);LuzBlanca_off; 
07992:  MOVLW  66
07994:  MOVLB  5
07996:  MOVWF  xFB
07998:  MOVLW  0E
0799A:  MOVWF  xFC
0799C:  MOVLW  7E
0799E:  MOVWF  xFD
079A0:  MOVLW  1C
079A2:  MOVWF  xFE
079A4:  MOVLW  01
079A6:  MOVWF  xFF
079A8:  MOVLB  6
079AA:  CLRF   x00
079AC:  MOVLB  0
079AE:  CALL   4C28
079B2:  BCF    F8B.0
079B4:  BCF    F94.0
....................       } 
....................           
....................       if(flag_uv){ 
079B6:  MOVLB  4
079B8:  BTFSS  x2D.7
079BA:  BRA    7B0C
....................          tiempo_uv=1; 
079BC:  BSF    x2E.0
....................          LuzUV_on;flag_luz=0;flag_blower=0; 
079BE:  BSF    F8B.1
079C0:  BCF    F94.1
079C2:  BCF    x2D.1
079C4:  BCF    x2C.7
....................          glcd_text57(105, 30, UV, 2, ON); 
079C6:  MOVLW  69
079C8:  MOVLB  5
079CA:  MOVWF  xFB
079CC:  MOVLW  1E
079CE:  MOVWF  xFC
079D0:  MOVLW  04
079D2:  MOVWF  xFE
079D4:  MOVLW  69
079D6:  MOVWF  xFD
079D8:  MOVLW  02
079DA:  MOVWF  xFF
079DC:  MOVLW  01
079DE:  MOVLB  6
079E0:  MOVWF  x00
079E2:  MOVLB  0
079E4:  CALL   17CA
....................          if(guardauv==1){ 
079E8:  MOVLB  4
079EA:  BTFSS  x2E.1
079EC:  BRA    7B0A
....................             guardauv=0; 
079EE:  BCF    x2E.1
....................             write_eeprom(31,minutos_uv); 
079F0:  CLRF   FAA
079F2:  MOVLW  1F
079F4:  MOVWF  FA9
079F6:  MOVFF  4E4,FA8
079FA:  BCF    FA6.6
079FC:  BCF    FA6.7
079FE:  BSF    FA6.2
07A00:  MOVF   FF2,W
07A02:  MOVWF  00
07A04:  BCF    FF2.7
07A06:  MOVLB  F
07A08:  MOVLW  55
07A0A:  MOVWF  FA7
07A0C:  MOVLW  AA
07A0E:  MOVWF  FA7
07A10:  BSF    FA6.1
07A12:  BTFSC  FA6.1
07A14:  BRA    7A12
07A16:  BCF    FA6.2
07A18:  MOVF   00,W
07A1A:  IORWF  FF2,F
....................             delay_ms(20); 
07A1C:  MOVLW  14
07A1E:  MOVLB  5
07A20:  MOVWF  xF6
07A22:  MOVLB  0
07A24:  CALL   1474
....................             write_eeprom(12,Tuv[0]); 
07A28:  CLRF   FAA
07A2A:  MOVLW  0C
07A2C:  MOVWF  FA9
07A2E:  MOVFF  4F6,FA8
07A32:  BCF    FA6.6
07A34:  BCF    FA6.7
07A36:  BSF    FA6.2
07A38:  MOVF   FF2,W
07A3A:  MOVWF  00
07A3C:  BCF    FF2.7
07A3E:  MOVLB  F
07A40:  MOVLW  55
07A42:  MOVWF  FA7
07A44:  MOVLW  AA
07A46:  MOVWF  FA7
07A48:  BSF    FA6.1
07A4A:  BTFSC  FA6.1
07A4C:  BRA    7A4A
07A4E:  BCF    FA6.2
07A50:  MOVF   00,W
07A52:  IORWF  FF2,F
....................             delay_ms(20); 
07A54:  MOVLW  14
07A56:  MOVLB  5
07A58:  MOVWF  xF6
07A5A:  MOVLB  0
07A5C:  CALL   1474
....................             write_eeprom(13,Tuv[1]); 
07A60:  CLRF   FAA
07A62:  MOVLW  0D
07A64:  MOVWF  FA9
07A66:  MOVFF  4F7,FA8
07A6A:  BCF    FA6.6
07A6C:  BCF    FA6.7
07A6E:  BSF    FA6.2
07A70:  MOVF   FF2,W
07A72:  MOVWF  00
07A74:  BCF    FF2.7
07A76:  MOVLB  F
07A78:  MOVLW  55
07A7A:  MOVWF  FA7
07A7C:  MOVLW  AA
07A7E:  MOVWF  FA7
07A80:  BSF    FA6.1
07A82:  BTFSC  FA6.1
07A84:  BRA    7A82
07A86:  BCF    FA6.2
07A88:  MOVF   00,W
07A8A:  IORWF  FF2,F
....................             delay_ms(20); 
07A8C:  MOVLW  14
07A8E:  MOVLB  5
07A90:  MOVWF  xF6
07A92:  MOVLB  0
07A94:  CALL   1474
....................             write_eeprom(14,Tuv[2]); 
07A98:  CLRF   FAA
07A9A:  MOVLW  0E
07A9C:  MOVWF  FA9
07A9E:  MOVFF  4F8,FA8
07AA2:  BCF    FA6.6
07AA4:  BCF    FA6.7
07AA6:  BSF    FA6.2
07AA8:  MOVF   FF2,W
07AAA:  MOVWF  00
07AAC:  BCF    FF2.7
07AAE:  MOVLB  F
07AB0:  MOVLW  55
07AB2:  MOVWF  FA7
07AB4:  MOVLW  AA
07AB6:  MOVWF  FA7
07AB8:  BSF    FA6.1
07ABA:  BTFSC  FA6.1
07ABC:  BRA    7ABA
07ABE:  BCF    FA6.2
07AC0:  MOVF   00,W
07AC2:  IORWF  FF2,F
....................             delay_ms(20); 
07AC4:  MOVLW  14
07AC6:  MOVLB  5
07AC8:  MOVWF  xF6
07ACA:  MOVLB  0
07ACC:  CALL   1474
....................             write_eeprom(15,Tuv[3]); 
07AD0:  CLRF   FAA
07AD2:  MOVLW  0F
07AD4:  MOVWF  FA9
07AD6:  MOVFF  4F9,FA8
07ADA:  BCF    FA6.6
07ADC:  BCF    FA6.7
07ADE:  BSF    FA6.2
07AE0:  MOVF   FF2,W
07AE2:  MOVWF  00
07AE4:  BCF    FF2.7
07AE6:  MOVLB  F
07AE8:  MOVLW  55
07AEA:  MOVWF  FA7
07AEC:  MOVLW  AA
07AEE:  MOVWF  FA7
07AF0:  BSF    FA6.1
07AF2:  BTFSC  FA6.1
07AF4:  BRA    7AF2
07AF6:  BCF    FA6.2
07AF8:  MOVF   00,W
07AFA:  IORWF  FF2,F
....................             delay_ms(20); 
07AFC:  MOVLW  14
07AFE:  MOVLB  5
07B00:  MOVWF  xF6
07B02:  MOVLB  0
07B04:  CALL   1474
07B08:  MOVLB  4
....................          }                
....................       }else{ 
07B0A:  BRA    7C54
....................          LuzUV_off;tiempo_uv=0; 
07B0C:  BCF    F8B.1
07B0E:  BCF    F94.1
07B10:  BCF    x2E.0
....................          glcd_rect(102, 30, 126, 44, YES, OFF); 
07B12:  MOVLW  66
07B14:  MOVLB  5
07B16:  MOVWF  xFB
07B18:  MOVLW  1E
07B1A:  MOVWF  xFC
07B1C:  MOVLW  7E
07B1E:  MOVWF  xFD
07B20:  MOVLW  2C
07B22:  MOVWF  xFE
07B24:  MOVLW  01
07B26:  MOVWF  xFF
07B28:  MOVLB  6
07B2A:  CLRF   x00
07B2C:  MOVLB  0
07B2E:  CALL   4C28
....................          if(guardauv==0){ 
07B32:  MOVLB  4
07B34:  BTFSC  x2E.1
07B36:  BRA    7C54
....................             guardauv=1; 
07B38:  BSF    x2E.1
....................             write_eeprom(31,minutos_uv); 
07B3A:  CLRF   FAA
07B3C:  MOVLW  1F
07B3E:  MOVWF  FA9
07B40:  MOVFF  4E4,FA8
07B44:  BCF    FA6.6
07B46:  BCF    FA6.7
07B48:  BSF    FA6.2
07B4A:  MOVF   FF2,W
07B4C:  MOVWF  00
07B4E:  BCF    FF2.7
07B50:  MOVLB  F
07B52:  MOVLW  55
07B54:  MOVWF  FA7
07B56:  MOVLW  AA
07B58:  MOVWF  FA7
07B5A:  BSF    FA6.1
07B5C:  BTFSC  FA6.1
07B5E:  BRA    7B5C
07B60:  BCF    FA6.2
07B62:  MOVF   00,W
07B64:  IORWF  FF2,F
....................             delay_ms(20); 
07B66:  MOVLW  14
07B68:  MOVLB  5
07B6A:  MOVWF  xF6
07B6C:  MOVLB  0
07B6E:  CALL   1474
....................             write_eeprom(12,Tuv[0]); 
07B72:  CLRF   FAA
07B74:  MOVLW  0C
07B76:  MOVWF  FA9
07B78:  MOVFF  4F6,FA8
07B7C:  BCF    FA6.6
07B7E:  BCF    FA6.7
07B80:  BSF    FA6.2
07B82:  MOVF   FF2,W
07B84:  MOVWF  00
07B86:  BCF    FF2.7
07B88:  MOVLB  F
07B8A:  MOVLW  55
07B8C:  MOVWF  FA7
07B8E:  MOVLW  AA
07B90:  MOVWF  FA7
07B92:  BSF    FA6.1
07B94:  BTFSC  FA6.1
07B96:  BRA    7B94
07B98:  BCF    FA6.2
07B9A:  MOVF   00,W
07B9C:  IORWF  FF2,F
....................             delay_ms(20); 
07B9E:  MOVLW  14
07BA0:  MOVLB  5
07BA2:  MOVWF  xF6
07BA4:  MOVLB  0
07BA6:  CALL   1474
....................             write_eeprom(13,Tuv[1]); 
07BAA:  CLRF   FAA
07BAC:  MOVLW  0D
07BAE:  MOVWF  FA9
07BB0:  MOVFF  4F7,FA8
07BB4:  BCF    FA6.6
07BB6:  BCF    FA6.7
07BB8:  BSF    FA6.2
07BBA:  MOVF   FF2,W
07BBC:  MOVWF  00
07BBE:  BCF    FF2.7
07BC0:  MOVLB  F
07BC2:  MOVLW  55
07BC4:  MOVWF  FA7
07BC6:  MOVLW  AA
07BC8:  MOVWF  FA7
07BCA:  BSF    FA6.1
07BCC:  BTFSC  FA6.1
07BCE:  BRA    7BCC
07BD0:  BCF    FA6.2
07BD2:  MOVF   00,W
07BD4:  IORWF  FF2,F
....................             delay_ms(20); 
07BD6:  MOVLW  14
07BD8:  MOVLB  5
07BDA:  MOVWF  xF6
07BDC:  MOVLB  0
07BDE:  CALL   1474
....................             write_eeprom(14,Tuv[2]); 
07BE2:  CLRF   FAA
07BE4:  MOVLW  0E
07BE6:  MOVWF  FA9
07BE8:  MOVFF  4F8,FA8
07BEC:  BCF    FA6.6
07BEE:  BCF    FA6.7
07BF0:  BSF    FA6.2
07BF2:  MOVF   FF2,W
07BF4:  MOVWF  00
07BF6:  BCF    FF2.7
07BF8:  MOVLB  F
07BFA:  MOVLW  55
07BFC:  MOVWF  FA7
07BFE:  MOVLW  AA
07C00:  MOVWF  FA7
07C02:  BSF    FA6.1
07C04:  BTFSC  FA6.1
07C06:  BRA    7C04
07C08:  BCF    FA6.2
07C0A:  MOVF   00,W
07C0C:  IORWF  FF2,F
....................             delay_ms(20); 
07C0E:  MOVLW  14
07C10:  MOVLB  5
07C12:  MOVWF  xF6
07C14:  MOVLB  0
07C16:  CALL   1474
....................             write_eeprom(15,Tuv[3]); 
07C1A:  CLRF   FAA
07C1C:  MOVLW  0F
07C1E:  MOVWF  FA9
07C20:  MOVFF  4F9,FA8
07C24:  BCF    FA6.6
07C26:  BCF    FA6.7
07C28:  BSF    FA6.2
07C2A:  MOVF   FF2,W
07C2C:  MOVWF  00
07C2E:  BCF    FF2.7
07C30:  MOVLB  F
07C32:  MOVLW  55
07C34:  MOVWF  FA7
07C36:  MOVLW  AA
07C38:  MOVWF  FA7
07C3A:  BSF    FA6.1
07C3C:  BTFSC  FA6.1
07C3E:  BRA    7C3C
07C40:  BCF    FA6.2
07C42:  MOVF   00,W
07C44:  IORWF  FF2,F
....................             delay_ms(20); 
07C46:  MOVLW  14
07C48:  MOVLB  5
07C4A:  MOVWF  xF6
07C4C:  MOVLB  0
07C4E:  CALL   1474
07C52:  MOVLB  4
....................          } 
....................       } 
....................        
....................       if(tiempocumplido){ 
07C54:  BTFSS  x2E.2
07C56:  BRA    7CC0
....................          tiempo_uv=0;flag_uv=0;glcd_rect(102, 30, 126, 44, YES, OFF); 
07C58:  BCF    x2E.0
07C5A:  BCF    x2D.7
07C5C:  MOVLW  66
07C5E:  MOVLB  5
07C60:  MOVWF  xFB
07C62:  MOVLW  1E
07C64:  MOVWF  xFC
07C66:  MOVLW  7E
07C68:  MOVWF  xFD
07C6A:  MOVLW  2C
07C6C:  MOVWF  xFE
07C6E:  MOVLW  01
07C70:  MOVWF  xFF
07C72:  MOVLB  6
07C74:  CLRF   x00
07C76:  MOVLB  0
07C78:  CALL   4C28
....................          Tempouv[0]=Tempouvp[0];Tempouv[1]=Tempouvp[1];Tempouv[2]=Tempouvp[2];Tempouv[3]=Tempouvp[3];tiempocumplido=0; 
07C7C:  MOVFF  4FA,4FE
07C80:  MOVFF  4FB,4FF
07C84:  MOVFF  4FC,500
07C88:  MOVFF  4FD,501
07C8C:  MOVLB  4
07C8E:  BCF    x2E.2
....................          for(i=0;i<3;i++){ 
07C90:  MOVLB  5
07C92:  CLRF   xD2
07C94:  MOVF   xD2,W
07C96:  SUBLW  02
07C98:  BNC   7CBE
....................             Alarma_on; 
07C9A:  BSF    F8B.7
07C9C:  BCF    F94.7
....................             delay_ms(100); 
07C9E:  MOVLW  64
07CA0:  MOVWF  xF6
07CA2:  MOVLB  0
07CA4:  CALL   1474
....................             Alarma_off; 
07CA8:  BCF    F8B.7
07CAA:  BCF    F94.7
....................             delay_ms(100); 
07CAC:  MOVLW  64
07CAE:  MOVLB  5
07CB0:  MOVWF  xF6
07CB2:  MOVLB  0
07CB4:  CALL   1474
....................          } 
07CB8:  MOVLB  5
07CBA:  INCF   xD2,F
07CBC:  BRA    7C94
07CBE:  MOVLB  4
....................       } 
....................              
....................       if(RIGHT){//Si oprime boton de Blower. 
07CC0:  BSF    F96.1
07CC2:  BTFSC  F84.1
07CC4:  BRA    7CDE
....................          if(Flanco3 == 0){ 
07CC6:  BTFSC  x2C.3
07CC8:  BRA    7CDC
....................             Flanco3 = 1;delay_ms(3);flag_blower=!flag_blower; 
07CCA:  BSF    x2C.3
07CCC:  MOVLW  03
07CCE:  MOVLB  5
07CD0:  MOVWF  xF6
07CD2:  MOVLB  0
07CD4:  CALL   1474
07CD8:  MOVLB  4
07CDA:  BTG    x2C.7
....................          } 
....................       }else{ 
07CDC:  BRA    7CE0
....................          Flanco3 = 0; 
07CDE:  BCF    x2C.3
....................       } 
....................        
....................       if(LEFT){//Si oprime boton de UV. 
07CE0:  BSF    F96.2
07CE2:  BTFSC  F84.2
07CE4:  BRA    7CFE
....................          if(Flanco4 == 0){ 
07CE6:  BTFSC  x2C.4
07CE8:  BRA    7CFC
....................             Flanco4 = 1;delay_ms(3);flag_uv=!flag_uv; 
07CEA:  BSF    x2C.4
07CEC:  MOVLW  03
07CEE:  MOVLB  5
07CF0:  MOVWF  xF6
07CF2:  MOVLB  0
07CF4:  CALL   1474
07CF8:  MOVLB  4
07CFA:  BTG    x2D.7
....................          } 
....................       }else{ 
07CFC:  BRA    7D00
....................          Flanco4 = 0; 
07CFE:  BCF    x2C.4
....................       } 
....................              
....................       if(DOWN){//Si oprime boton de Luz Blanca. 
07D00:  BSF    F96.0
07D02:  BTFSC  F84.0
07D04:  BRA    7D1E
....................          if(Flanco5 == 0){ 
07D06:  BTFSC  x2C.5
07D08:  BRA    7D1C
....................             Flanco5 = 1;delay_ms(3);flag_luz=!flag_luz; 
07D0A:  BSF    x2C.5
07D0C:  MOVLW  03
07D0E:  MOVLB  5
07D10:  MOVWF  xF6
07D12:  MOVLB  0
07D14:  CALL   1474
07D18:  MOVLB  4
07D1A:  BTG    x2D.1
....................          } 
....................       }else{ 
07D1C:  BRA    7D20
....................          Flanco5 = 0; 
07D1E:  BCF    x2C.5
....................       } 
....................        
....................       if(UP){//Si oprime boton de Toma. 
07D20:  BSF    F92.5
07D22:  BTFSC  F80.5
07D24:  BRA    7D6A
....................          delay_ms(20); 
07D26:  MOVLW  14
07D28:  MOVLB  5
07D2A:  MOVWF  xF6
07D2C:  MOVLB  0
07D2E:  CALL   1474
....................          if(UP){//Si oprime boton de Toma. 
07D32:  BSF    F92.5
07D34:  BTFSC  F80.5
07D36:  BRA    7D68
....................             delay_ms(5);Menu=3;//glcd_fillScreen(OFF); 
07D38:  MOVLW  05
07D3A:  MOVLB  5
07D3C:  MOVWF  xF6
07D3E:  MOVLB  0
07D40:  CALL   1474
07D44:  MOVLW  03
07D46:  MOVLB  4
07D48:  MOVWF  xCC
....................             glcd_init(ON);             //Inicializa la glcd 
07D4A:  MOVLW  01
07D4C:  MOVLB  5
07D4E:  MOVWF  xE2
07D50:  MOVLB  0
07D52:  CALL   1666
....................             glcd_fillScreen(OFF);      //Limpia la pantalla 
07D56:  MOVLB  5
07D58:  CLRF   xEA
07D5A:  MOVLB  0
07D5C:  CALL   1554
....................             glcd_update();   
07D60:  CALL   15AE
....................             LuzBlanca_off; 
07D64:  BCF    F8B.0
07D66:  BCF    F94.0
07D68:  MOVLB  4
....................          } 
....................       } 
....................              
....................     } 
.................... //_--------------------------------------------------------------------------------------------------------------------------------------------------------        
....................  
.................... //_-------------------------------------------------------------------------------------------------------------------------------------------------------- 
....................       if(Menu==3){ //Menu Principal. 
07D6A:  MOVF   xCC,W
07D6C:  SUBLW  03
07D6E:  BTFSS  FD8.2
07D70:  BRA    8058
....................              
....................       strcpy(Menus.Letra,"Menu"); 
07D72:  MOVLW  04
07D74:  MOVWF  FEA
07D76:  MOVLW  16
07D78:  MOVWF  FE9
07D7A:  MOVFF  FF2,5E2
07D7E:  BCF    FF2.7
07D80:  MOVLW  00
07D82:  MOVLB  0
07D84:  CALL   1034
07D88:  TBLRD*-
07D8A:  TBLRD*+
07D8C:  MOVF   FF5,W
07D8E:  MOVWF  FEE
07D90:  IORLW  00
07D92:  BNZ   7D8A
07D94:  MOVLB  5
07D96:  BTFSC  xE2.7
07D98:  BSF    FF2.7
....................       displayMenu(Menus.Letra,40,0,1,2); 
07D9A:  MOVLW  04
07D9C:  MOVWF  xEB
07D9E:  MOVLW  16
07DA0:  MOVWF  xEA
07DA2:  MOVLW  28
07DA4:  MOVWF  xEC
07DA6:  CLRF   xED
07DA8:  MOVLW  01
07DAA:  MOVWF  xEE
07DAC:  MOVLW  02
07DAE:  MOVWF  xEF
07DB0:  MOVLB  0
07DB2:  CALL   4DB4
....................        
....................       if(Opcion==1){ 
07DB6:  MOVLB  4
07DB8:  DECFSZ xCE,W
07DBA:  BRA    7E02
....................          strcpy(Menus.Letra,"Ajustes"); 
07DBC:  MOVLW  04
07DBE:  MOVWF  FEA
07DC0:  MOVLW  16
07DC2:  MOVWF  FE9
07DC4:  MOVFF  FF2,5E2
07DC8:  BCF    FF2.7
07DCA:  MOVLW  00
07DCC:  MOVLB  0
07DCE:  CALL   1054
07DD2:  TBLRD*-
07DD4:  TBLRD*+
07DD6:  MOVF   FF5,W
07DD8:  MOVWF  FEE
07DDA:  IORLW  00
07DDC:  BNZ   7DD4
07DDE:  MOVLB  5
07DE0:  BTFSC  xE2.7
07DE2:  BSF    FF2.7
....................          displayMenu(Menus.Letra,0,19,1,1); 
07DE4:  MOVLW  04
07DE6:  MOVWF  xEB
07DE8:  MOVLW  16
07DEA:  MOVWF  xEA
07DEC:  CLRF   xEC
07DEE:  MOVLW  13
07DF0:  MOVWF  xED
07DF2:  MOVLW  01
07DF4:  MOVWF  xEE
07DF6:  MOVWF  xEF
07DF8:  MOVLB  0
07DFA:  CALL   4DB4
....................       }else{ 
07DFE:  BRA    7E44
07E00:  MOVLB  4
....................          strcpy(Menus.Letra,"Ajustes"); 
07E02:  MOVLW  04
07E04:  MOVWF  FEA
07E06:  MOVLW  16
07E08:  MOVWF  FE9
07E0A:  MOVFF  FF2,5E2
07E0E:  BCF    FF2.7
07E10:  MOVLW  00
07E12:  MOVLB  0
07E14:  CALL   1054
07E18:  TBLRD*-
07E1A:  TBLRD*+
07E1C:  MOVF   FF5,W
07E1E:  MOVWF  FEE
07E20:  IORLW  00
07E22:  BNZ   7E1A
07E24:  MOVLB  5
07E26:  BTFSC  xE2.7
07E28:  BSF    FF2.7
....................          displayMenu(Menus.Letra,0,19,0,1); 
07E2A:  MOVLW  04
07E2C:  MOVWF  xEB
07E2E:  MOVLW  16
07E30:  MOVWF  xEA
07E32:  CLRF   xEC
07E34:  MOVLW  13
07E36:  MOVWF  xED
07E38:  CLRF   xEE
07E3A:  MOVLW  01
07E3C:  MOVWF  xEF
07E3E:  MOVLB  0
07E40:  CALL   4DB4
....................       } 
....................           
....................       if(Opcion==2){ 
07E44:  MOVLB  4
07E46:  MOVF   xCE,W
07E48:  SUBLW  02
07E4A:  BNZ   7E92
....................          strcpy(Menus.Letra,"Cambio de Clave"); 
07E4C:  MOVLW  04
07E4E:  MOVWF  FEA
07E50:  MOVLW  16
07E52:  MOVWF  FE9
07E54:  MOVFF  FF2,5E2
07E58:  BCF    FF2.7
07E5A:  MOVLW  00
07E5C:  MOVLB  0
07E5E:  CALL   1076
07E62:  TBLRD*-
07E64:  TBLRD*+
07E66:  MOVF   FF5,W
07E68:  MOVWF  FEE
07E6A:  IORLW  00
07E6C:  BNZ   7E64
07E6E:  MOVLB  5
07E70:  BTFSC  xE2.7
07E72:  BSF    FF2.7
....................          displayMenu(Menus.Letra,0,35,1,1); 
07E74:  MOVLW  04
07E76:  MOVWF  xEB
07E78:  MOVLW  16
07E7A:  MOVWF  xEA
07E7C:  CLRF   xEC
07E7E:  MOVLW  23
07E80:  MOVWF  xED
07E82:  MOVLW  01
07E84:  MOVWF  xEE
07E86:  MOVWF  xEF
07E88:  MOVLB  0
07E8A:  CALL   4DB4
....................       }else{ 
07E8E:  BRA    7ED4
07E90:  MOVLB  4
....................          strcpy(Menus.Letra,"Cambio de Clave"); 
07E92:  MOVLW  04
07E94:  MOVWF  FEA
07E96:  MOVLW  16
07E98:  MOVWF  FE9
07E9A:  MOVFF  FF2,5E2
07E9E:  BCF    FF2.7
07EA0:  MOVLW  00
07EA2:  MOVLB  0
07EA4:  CALL   1076
07EA8:  TBLRD*-
07EAA:  TBLRD*+
07EAC:  MOVF   FF5,W
07EAE:  MOVWF  FEE
07EB0:  IORLW  00
07EB2:  BNZ   7EAA
07EB4:  MOVLB  5
07EB6:  BTFSC  xE2.7
07EB8:  BSF    FF2.7
....................          displayMenu(Menus.Letra,0,35,0,1); 
07EBA:  MOVLW  04
07EBC:  MOVWF  xEB
07EBE:  MOVLW  16
07EC0:  MOVWF  xEA
07EC2:  CLRF   xEC
07EC4:  MOVLW  23
07EC6:  MOVWF  xED
07EC8:  CLRF   xEE
07ECA:  MOVLW  01
07ECC:  MOVWF  xEF
07ECE:  MOVLB  0
07ED0:  CALL   4DB4
....................       } 
....................           
....................       if(Opcion==3){ 
07ED4:  MOVLB  4
07ED6:  MOVF   xCE,W
07ED8:  SUBLW  03
07EDA:  BNZ   7F22
....................          strcpy(Menus.Letra,"Modo"); 
07EDC:  MOVLW  04
07EDE:  MOVWF  FEA
07EE0:  MOVLW  16
07EE2:  MOVWF  FE9
07EE4:  MOVFF  FF2,5E2
07EE8:  BCF    FF2.7
07EEA:  MOVLW  00
07EEC:  MOVLB  0
07EEE:  CALL   10A0
07EF2:  TBLRD*-
07EF4:  TBLRD*+
07EF6:  MOVF   FF5,W
07EF8:  MOVWF  FEE
07EFA:  IORLW  00
07EFC:  BNZ   7EF4
07EFE:  MOVLB  5
07F00:  BTFSC  xE2.7
07F02:  BSF    FF2.7
....................          displayMenu(Menus.Letra,0,51,1,1); 
07F04:  MOVLW  04
07F06:  MOVWF  xEB
07F08:  MOVLW  16
07F0A:  MOVWF  xEA
07F0C:  CLRF   xEC
07F0E:  MOVLW  33
07F10:  MOVWF  xED
07F12:  MOVLW  01
07F14:  MOVWF  xEE
07F16:  MOVWF  xEF
07F18:  MOVLB  0
07F1A:  CALL   4DB4
....................       }else{ 
07F1E:  BRA    7F64
07F20:  MOVLB  4
....................          strcpy(Menus.Letra,"Modo"); 
07F22:  MOVLW  04
07F24:  MOVWF  FEA
07F26:  MOVLW  16
07F28:  MOVWF  FE9
07F2A:  MOVFF  FF2,5E2
07F2E:  BCF    FF2.7
07F30:  MOVLW  00
07F32:  MOVLB  0
07F34:  CALL   10A0
07F38:  TBLRD*-
07F3A:  TBLRD*+
07F3C:  MOVF   FF5,W
07F3E:  MOVWF  FEE
07F40:  IORLW  00
07F42:  BNZ   7F3A
07F44:  MOVLB  5
07F46:  BTFSC  xE2.7
07F48:  BSF    FF2.7
....................          displayMenu(Menus.Letra,0,51,0,1); 
07F4A:  MOVLW  04
07F4C:  MOVWF  xEB
07F4E:  MOVLW  16
07F50:  MOVWF  xEA
07F52:  CLRF   xEC
07F54:  MOVLW  33
07F56:  MOVWF  xED
07F58:  CLRF   xEE
07F5A:  MOVLW  01
07F5C:  MOVWF  xEF
07F5E:  MOVLB  0
07F60:  CALL   4DB4
....................       } 
....................       glcd_update();  
07F64:  CALL   15AE
....................        
....................       if(w==0){ 
07F68:  MOVLB  4
07F6A:  BTFSC  x2D.3
07F6C:  BRA    7F88
....................          delay_ms(500);w=1; 
07F6E:  MOVLW  02
07F70:  MOVLB  5
07F72:  MOVWF  xE2
07F74:  MOVLW  FA
07F76:  MOVWF  xF6
07F78:  MOVLB  0
07F7A:  CALL   1474
07F7E:  MOVLB  5
07F80:  DECFSZ xE2,F
07F82:  BRA    7F74
07F84:  MOVLB  4
07F86:  BSF    x2D.3
....................       } 
....................           
....................       if(UP){//Si oprime hacia arriba         
07F88:  BSF    F92.5
07F8A:  BTFSC  F80.5
07F8C:  BRA    7FA6
....................          if(Flanco == 0){ 
07F8E:  BTFSC  x2C.0
07F90:  BRA    7FA4
....................             Flanco = 1;delay_ms(30);Opcion--; 
07F92:  BSF    x2C.0
07F94:  MOVLW  1E
07F96:  MOVLB  5
07F98:  MOVWF  xF6
07F9A:  MOVLB  0
07F9C:  CALL   1474
07FA0:  MOVLB  4
07FA2:  DECF   xCE,F
....................          } 
....................       }else{ 
07FA4:  BRA    7FA8
....................          Flanco = 0; 
07FA6:  BCF    x2C.0
....................       } 
....................              
....................       if(DOWN){//Si oprime hacia abajo 
07FA8:  BSF    F96.0
07FAA:  BTFSC  F84.0
07FAC:  BRA    7FC6
....................          if(Flanco2 == 0){ 
07FAE:  BTFSC  x2C.2
07FB0:  BRA    7FC4
....................             Flanco2 = 1;delay_ms(30);Opcion++; 
07FB2:  BSF    x2C.2
07FB4:  MOVLW  1E
07FB6:  MOVLB  5
07FB8:  MOVWF  xF6
07FBA:  MOVLB  0
07FBC:  CALL   1474
07FC0:  MOVLB  4
07FC2:  INCF   xCE,F
....................          } 
....................       }else{ 
07FC4:  BRA    7FC8
....................          Flanco2 = 0; 
07FC6:  BCF    x2C.2
....................       } 
....................              
....................       if(RIGHT){//Si oprime SET 
07FC8:  BSF    F96.1
07FCA:  BTFSC  F84.1
07FCC:  BRA    8016
....................          if(Flanco1 == 0){ 
07FCE:  BTFSC  x2C.1
07FD0:  BRA    8014
....................             Flanco1 = 1;delay_ms(500);Menu=Opcion+3;Opcion=1;glcd_fillscreen(OFF);unidad=1; 
07FD2:  BSF    x2C.1
07FD4:  MOVLW  02
07FD6:  MOVLB  5
07FD8:  MOVWF  xE2
07FDA:  MOVLW  FA
07FDC:  MOVWF  xF6
07FDE:  MOVLB  0
07FE0:  CALL   1474
07FE4:  MOVLB  5
07FE6:  DECFSZ xE2,F
07FE8:  BRA    7FDA
07FEA:  MOVLW  03
07FEC:  MOVLB  4
07FEE:  ADDWF  xCE,W
07FF0:  MOVWF  xCC
07FF2:  MOVLW  01
07FF4:  MOVWF  xCE
07FF6:  MOVLB  5
07FF8:  CLRF   xEA
07FFA:  MOVLB  0
07FFC:  CALL   1554
08000:  MOVLW  01
08002:  MOVLB  4
08004:  MOVWF  xCD
....................             Contrasena[0]=0;Contrasena[1]=0;Contrasena[2]=0;Contrasena[3]=0;n=0; 
08006:  MOVLB  5
08008:  CLRF   x06
0800A:  CLRF   x07
0800C:  CLRF   x08
0800E:  CLRF   x09
08010:  MOVLB  4
08012:  BCF    x2E.5
....................          } 
....................       }else{ 
08014:  BRA    8018
....................          Flanco1 = 0; 
08016:  BCF    x2C.1
....................       } 
....................              
....................       if(LEFT){//Si oprime boton de Toma. 
08018:  BSF    F96.2
0801A:  BTFSC  F84.2
0801C:  BRA    8046
....................          delay_ms(700);Menu=2;glcd_fillscreen(OFF); 
0801E:  MOVLW  04
08020:  MOVLB  5
08022:  MOVWF  xE2
08024:  MOVLW  AF
08026:  MOVWF  xF6
08028:  MOVLB  0
0802A:  CALL   1474
0802E:  MOVLB  5
08030:  DECFSZ xE2,F
08032:  BRA    8024
08034:  MOVLW  02
08036:  MOVLB  4
08038:  MOVWF  xCC
0803A:  MOVLB  5
0803C:  CLRF   xEA
0803E:  MOVLB  0
08040:  CALL   1554
08044:  MOVLB  4
....................       } 
....................              
....................       if(Opcion>3) 
08046:  MOVF   xCE,W
08048:  SUBLW  03
0804A:  BC    8050
....................          Opcion=1; 
0804C:  MOVLW  01
0804E:  MOVWF  xCE
....................       if(Opcion<1) 
08050:  MOVF   xCE,F
08052:  BNZ   8058
....................          Opcion=3; 
08054:  MOVLW  03
08056:  MOVWF  xCE
....................     } 
.................... //_--------------------------------------------------------------------------------------------------------------------------------------------------------        
....................  
.................... //_-------------------------------------------------------------------------------------------------------------------------------------------------------- 
....................       if(Menu==4){ //Menu de Ajustes. 
08058:  MOVF   xCC,W
0805A:  SUBLW  04
0805C:  BTFSS  FD8.2
0805E:  BRA    827E
....................        
....................       strcpy(Menus.Letra,"Ajustes"); 
08060:  MOVLW  04
08062:  MOVWF  FEA
08064:  MOVLW  16
08066:  MOVWF  FE9
08068:  MOVFF  FF2,5E2
0806C:  BCF    FF2.7
0806E:  MOVLW  00
08070:  MOVLB  0
08072:  CALL   1054
08076:  TBLRD*-
08078:  TBLRD*+
0807A:  MOVF   FF5,W
0807C:  MOVWF  FEE
0807E:  IORLW  00
08080:  BNZ   8078
08082:  MOVLB  5
08084:  BTFSC  xE2.7
08086:  BSF    FF2.7
....................       displayMenu(Menus.Letra,0,0,1,2); 
08088:  MOVLW  04
0808A:  MOVWF  xEB
0808C:  MOVLW  16
0808E:  MOVWF  xEA
08090:  CLRF   xEC
08092:  CLRF   xED
08094:  MOVLW  01
08096:  MOVWF  xEE
08098:  MOVLW  02
0809A:  MOVWF  xEF
0809C:  MOVLB  0
0809E:  CALL   4DB4
....................        
....................       if(Opcion==1)    
080A2:  MOVLB  4
080A4:  DECFSZ xCE,W
080A6:  BRA    80EE
....................          {strcpy(Menus.Letra,"Tiempo Purga"); 
080A8:  MOVLW  04
080AA:  MOVWF  FEA
080AC:  MOVLW  16
080AE:  MOVWF  FE9
080B0:  MOVFF  FF2,5E2
080B4:  BCF    FF2.7
080B6:  MOVLW  00
080B8:  MOVLB  0
080BA:  CALL   10C0
080BE:  TBLRD*-
080C0:  TBLRD*+
080C2:  MOVF   FF5,W
080C4:  MOVWF  FEE
080C6:  IORLW  00
080C8:  BNZ   80C0
080CA:  MOVLB  5
080CC:  BTFSC  xE2.7
080CE:  BSF    FF2.7
....................          displayMenu(Menus.Letra,0,20,1,1);} 
080D0:  MOVLW  04
080D2:  MOVWF  xEB
080D4:  MOVLW  16
080D6:  MOVWF  xEA
080D8:  CLRF   xEC
080DA:  MOVLW  14
080DC:  MOVWF  xED
080DE:  MOVLW  01
080E0:  MOVWF  xEE
080E2:  MOVWF  xEF
080E4:  MOVLB  0
080E6:  CALL   4DB4
....................       else 
080EA:  BRA    8130
080EC:  MOVLB  4
....................          {strcpy(Menus.Letra,"Tiempo Purga"); 
080EE:  MOVLW  04
080F0:  MOVWF  FEA
080F2:  MOVLW  16
080F4:  MOVWF  FE9
080F6:  MOVFF  FF2,5E2
080FA:  BCF    FF2.7
080FC:  MOVLW  00
080FE:  MOVLB  0
08100:  CALL   10C0
08104:  TBLRD*-
08106:  TBLRD*+
08108:  MOVF   FF5,W
0810A:  MOVWF  FEE
0810C:  IORLW  00
0810E:  BNZ   8106
08110:  MOVLB  5
08112:  BTFSC  xE2.7
08114:  BSF    FF2.7
....................          displayMenu(Menus.Letra,0,20,0,1);}              
08116:  MOVLW  04
08118:  MOVWF  xEB
0811A:  MOVLW  16
0811C:  MOVWF  xEA
0811E:  CLRF   xEC
08120:  MOVLW  14
08122:  MOVWF  xED
08124:  CLRF   xEE
08126:  MOVLW  01
08128:  MOVWF  xEF
0812A:  MOVLB  0
0812C:  CALL   4DB4
....................        
....................       if(Opcion==2)    
08130:  MOVLB  4
08132:  MOVF   xCE,W
08134:  SUBLW  02
08136:  BNZ   817E
....................          {strcpy(Menus.Letra,"Tempo UV"); 
08138:  MOVLW  04
0813A:  MOVWF  FEA
0813C:  MOVLW  16
0813E:  MOVWF  FE9
08140:  MOVFF  FF2,5E2
08144:  BCF    FF2.7
08146:  MOVLW  00
08148:  MOVLB  0
0814A:  CALL   10E8
0814E:  TBLRD*-
08150:  TBLRD*+
08152:  MOVF   FF5,W
08154:  MOVWF  FEE
08156:  IORLW  00
08158:  BNZ   8150
0815A:  MOVLB  5
0815C:  BTFSC  xE2.7
0815E:  BSF    FF2.7
....................          displayMenu(Menus.Letra,0,35,1,1);} 
08160:  MOVLW  04
08162:  MOVWF  xEB
08164:  MOVLW  16
08166:  MOVWF  xEA
08168:  CLRF   xEC
0816A:  MOVLW  23
0816C:  MOVWF  xED
0816E:  MOVLW  01
08170:  MOVWF  xEE
08172:  MOVWF  xEF
08174:  MOVLB  0
08176:  CALL   4DB4
....................       else 
0817A:  BRA    81C0
0817C:  MOVLB  4
....................          {strcpy(Menus.Letra,"Tempo UV"); 
0817E:  MOVLW  04
08180:  MOVWF  FEA
08182:  MOVLW  16
08184:  MOVWF  FE9
08186:  MOVFF  FF2,5E2
0818A:  BCF    FF2.7
0818C:  MOVLW  00
0818E:  MOVLB  0
08190:  CALL   10E8
08194:  TBLRD*-
08196:  TBLRD*+
08198:  MOVF   FF5,W
0819A:  MOVWF  FEE
0819C:  IORLW  00
0819E:  BNZ   8196
081A0:  MOVLB  5
081A2:  BTFSC  xE2.7
081A4:  BSF    FF2.7
....................          displayMenu(Menus.Letra,0,35,0,1);}  
081A6:  MOVLW  04
081A8:  MOVWF  xEB
081AA:  MOVLW  16
081AC:  MOVWF  xEA
081AE:  CLRF   xEC
081B0:  MOVLW  23
081B2:  MOVWF  xED
081B4:  CLRF   xEE
081B6:  MOVLW  01
081B8:  MOVWF  xEF
081BA:  MOVLB  0
081BC:  CALL   4DB4
....................        
....................       if(UP)//Si oprime hacia arriba 
081C0:  BSF    F92.5
081C2:  BTFSC  F80.5
081C4:  BRA    81E0
....................       {  if(Flanco == 0)  
081C6:  MOVLB  4
081C8:  BTFSC  x2C.0
081CA:  BRA    81DE
....................             {Flanco = 1;delay_ms(30);Opcion--; 
081CC:  BSF    x2C.0
081CE:  MOVLW  1E
081D0:  MOVLB  5
081D2:  MOVWF  xF6
081D4:  MOVLB  0
081D6:  CALL   1474
081DA:  MOVLB  4
081DC:  DECF   xCE,F
....................             } 
....................       } 
....................          else 
081DE:  BRA    81E4
....................             {Flanco = 0;} 
081E0:  MOVLB  4
081E2:  BCF    x2C.0
....................              
....................       if(DOWN)//Si oprime hacia abajo 
081E4:  BSF    F96.0
081E6:  BTFSC  F84.0
081E8:  BRA    8202
....................       {  if(Flanco2 == 0)  
081EA:  BTFSC  x2C.2
081EC:  BRA    8200
....................             {Flanco2 = 1;delay_ms(30);Opcion++; 
081EE:  BSF    x2C.2
081F0:  MOVLW  1E
081F2:  MOVLB  5
081F4:  MOVWF  xF6
081F6:  MOVLB  0
081F8:  CALL   1474
081FC:  MOVLB  4
081FE:  INCF   xCE,F
....................             }      
....................       } 
....................          else 
08200:  BRA    8204
....................             {Flanco2 = 0;}   
08202:  BCF    x2C.2
....................              
....................       if(RIGHT)//Si oprime SET 
08204:  BSF    F96.1
08206:  BTFSC  F84.1
08208:  BRA    823C
....................       {  if(Flanco1 == 0)  
0820A:  BTFSC  x2C.1
0820C:  BRA    823A
....................             {Flanco1 = 1;delay_ms(500);Menu=Opcion+10;glcd_fillScreen(OFF); 
0820E:  BSF    x2C.1
08210:  MOVLW  02
08212:  MOVLB  5
08214:  MOVWF  xE2
08216:  MOVLW  FA
08218:  MOVWF  xF6
0821A:  MOVLB  0
0821C:  CALL   1474
08220:  MOVLB  5
08222:  DECFSZ xE2,F
08224:  BRA    8216
08226:  MOVLW  0A
08228:  MOVLB  4
0822A:  ADDWF  xCE,W
0822C:  MOVWF  xCC
0822E:  MOVLB  5
08230:  CLRF   xEA
08232:  MOVLB  0
08234:  CALL   1554
08238:  MOVLB  4
....................             } 
....................       } 
....................          else 
0823A:  BRA    823E
....................             {Flanco1 = 0;}   
0823C:  BCF    x2C.1
....................              
....................       if(LEFT)//Si oprime boton de Toma. 
0823E:  BSF    F96.2
08240:  BTFSC  F84.2
08242:  BRA    826C
....................         {delay_ms(700);Menu=3;glcd_fillscreen(OFF);} 
08244:  MOVLW  04
08246:  MOVLB  5
08248:  MOVWF  xE2
0824A:  MOVLW  AF
0824C:  MOVWF  xF6
0824E:  MOVLB  0
08250:  CALL   1474
08254:  MOVLB  5
08256:  DECFSZ xE2,F
08258:  BRA    824A
0825A:  MOVLW  03
0825C:  MOVLB  4
0825E:  MOVWF  xCC
08260:  MOVLB  5
08262:  CLRF   xEA
08264:  MOVLB  0
08266:  CALL   1554
0826A:  MOVLB  4
....................        
....................       if(Opcion>2) 
0826C:  MOVF   xCE,W
0826E:  SUBLW  02
08270:  BC    8276
....................       {Opcion=1;} 
08272:  MOVLW  01
08274:  MOVWF  xCE
....................       if(Opcion<1) 
08276:  MOVF   xCE,F
08278:  BNZ   827E
....................       {Opcion=2;} 
0827A:  MOVLW  02
0827C:  MOVWF  xCE
....................      
....................     } 
.................... //_--------------------------------------------------------------------------------------------------------------------------------------------------------        
....................  
.................... //_-------------------------------------------------------------------------------------------------------------------------------------------------------- 
....................       if(Menu==6){ //Menu de Modo. 
0827E:  MOVF   xCC,W
08280:  SUBLW  06
08282:  BTFSS  FD8.2
08284:  BRA    84AC
....................        
....................       strcpy(Menus.Letra,"Modo"); 
08286:  MOVLW  04
08288:  MOVWF  FEA
0828A:  MOVLW  16
0828C:  MOVWF  FE9
0828E:  MOVFF  FF2,5E2
08292:  BCF    FF2.7
08294:  MOVLW  00
08296:  MOVLB  0
08298:  CALL   10A0
0829C:  TBLRD*-
0829E:  TBLRD*+
082A0:  MOVF   FF5,W
082A2:  MOVWF  FEE
082A4:  IORLW  00
082A6:  BNZ   829E
082A8:  MOVLB  5
082AA:  BTFSC  xE2.7
082AC:  BSF    FF2.7
....................       displayMenu(Menus.Letra,40,0,1,2); 
082AE:  MOVLW  04
082B0:  MOVWF  xEB
082B2:  MOVLW  16
082B4:  MOVWF  xEA
082B6:  MOVLW  28
082B8:  MOVWF  xEC
082BA:  CLRF   xED
082BC:  MOVLW  01
082BE:  MOVWF  xEE
082C0:  MOVLW  02
082C2:  MOVWF  xEF
082C4:  MOVLB  0
082C6:  CALL   4DB4
....................           
....................       if(Opcion==1)    
082CA:  MOVLB  4
082CC:  DECFSZ xCE,W
082CE:  BRA    8316
....................          {strcpy(Menus.Letra,"Mantenimiento"); 
082D0:  MOVLW  04
082D2:  MOVWF  FEA
082D4:  MOVLW  16
082D6:  MOVWF  FE9
082D8:  MOVFF  FF2,5E2
082DC:  BCF    FF2.7
082DE:  MOVLW  00
082E0:  MOVLB  0
082E2:  CALL   110C
082E6:  TBLRD*-
082E8:  TBLRD*+
082EA:  MOVF   FF5,W
082EC:  MOVWF  FEE
082EE:  IORLW  00
082F0:  BNZ   82E8
082F2:  MOVLB  5
082F4:  BTFSC  xE2.7
082F6:  BSF    FF2.7
....................          displayMenu(Menus.Letra,0,19,1,1);} 
082F8:  MOVLW  04
082FA:  MOVWF  xEB
082FC:  MOVLW  16
082FE:  MOVWF  xEA
08300:  CLRF   xEC
08302:  MOVLW  13
08304:  MOVWF  xED
08306:  MOVLW  01
08308:  MOVWF  xEE
0830A:  MOVWF  xEF
0830C:  MOVLB  0
0830E:  CALL   4DB4
....................       else 
08312:  BRA    8358
08314:  MOVLB  4
....................          {strcpy(Menus.Letra,"Mantenimiento"); 
08316:  MOVLW  04
08318:  MOVWF  FEA
0831A:  MOVLW  16
0831C:  MOVWF  FE9
0831E:  MOVFF  FF2,5E2
08322:  BCF    FF2.7
08324:  MOVLW  00
08326:  MOVLB  0
08328:  CALL   110C
0832C:  TBLRD*-
0832E:  TBLRD*+
08330:  MOVF   FF5,W
08332:  MOVWF  FEE
08334:  IORLW  00
08336:  BNZ   832E
08338:  MOVLB  5
0833A:  BTFSC  xE2.7
0833C:  BSF    FF2.7
....................          displayMenu(Menus.Letra,0,19,0,1);}    
0833E:  MOVLW  04
08340:  MOVWF  xEB
08342:  MOVLW  16
08344:  MOVWF  xEA
08346:  CLRF   xEC
08348:  MOVLW  13
0834A:  MOVWF  xED
0834C:  CLRF   xEE
0834E:  MOVLW  01
08350:  MOVWF  xEF
08352:  MOVLB  0
08354:  CALL   4DB4
....................           
....................       if(Opcion==2)    
08358:  MOVLB  4
0835A:  MOVF   xCE,W
0835C:  SUBLW  02
0835E:  BNZ   83A6
....................          {strcpy(Menus.Letra,"Servicio"); 
08360:  MOVLW  04
08362:  MOVWF  FEA
08364:  MOVLW  16
08366:  MOVWF  FE9
08368:  MOVFF  FF2,5E2
0836C:  BCF    FF2.7
0836E:  MOVLW  00
08370:  MOVLB  0
08372:  CALL   1134
08376:  TBLRD*-
08378:  TBLRD*+
0837A:  MOVF   FF5,W
0837C:  MOVWF  FEE
0837E:  IORLW  00
08380:  BNZ   8378
08382:  MOVLB  5
08384:  BTFSC  xE2.7
08386:  BSF    FF2.7
....................          displayMenu(Menus.Letra,0,35,1,1);} 
08388:  MOVLW  04
0838A:  MOVWF  xEB
0838C:  MOVLW  16
0838E:  MOVWF  xEA
08390:  CLRF   xEC
08392:  MOVLW  23
08394:  MOVWF  xED
08396:  MOVLW  01
08398:  MOVWF  xEE
0839A:  MOVWF  xEF
0839C:  MOVLB  0
0839E:  CALL   4DB4
....................       else 
083A2:  BRA    83E8
083A4:  MOVLB  4
....................          {strcpy(Menus.Letra,"Servicio"); 
083A6:  MOVLW  04
083A8:  MOVWF  FEA
083AA:  MOVLW  16
083AC:  MOVWF  FE9
083AE:  MOVFF  FF2,5E2
083B2:  BCF    FF2.7
083B4:  MOVLW  00
083B6:  MOVLB  0
083B8:  CALL   1134
083BC:  TBLRD*-
083BE:  TBLRD*+
083C0:  MOVF   FF5,W
083C2:  MOVWF  FEE
083C4:  IORLW  00
083C6:  BNZ   83BE
083C8:  MOVLB  5
083CA:  BTFSC  xE2.7
083CC:  BSF    FF2.7
....................          displayMenu(Menus.Letra,0,35,0,1);} 
083CE:  MOVLW  04
083D0:  MOVWF  xEB
083D2:  MOVLW  16
083D4:  MOVWF  xEA
083D6:  CLRF   xEC
083D8:  MOVLW  23
083DA:  MOVWF  xED
083DC:  CLRF   xEE
083DE:  MOVLW  01
083E0:  MOVWF  xEF
083E2:  MOVLB  0
083E4:  CALL   4DB4
....................           
....................       if(UP)//Si oprime hacia arriba 
083E8:  BSF    F92.5
083EA:  BTFSC  F80.5
083EC:  BRA    8408
....................       {  if(Flanco == 0)  
083EE:  MOVLB  4
083F0:  BTFSC  x2C.0
083F2:  BRA    8406
....................             {Flanco = 1;delay_ms(30);Opcion--; 
083F4:  BSF    x2C.0
083F6:  MOVLW  1E
083F8:  MOVLB  5
083FA:  MOVWF  xF6
083FC:  MOVLB  0
083FE:  CALL   1474
08402:  MOVLB  4
08404:  DECF   xCE,F
....................             } 
....................       } 
....................          else 
08406:  BRA    840C
....................             {Flanco = 0;} 
08408:  MOVLB  4
0840A:  BCF    x2C.0
....................              
....................       if(DOWN)//Si oprime hacia abajo 
0840C:  BSF    F96.0
0840E:  BTFSC  F84.0
08410:  BRA    842A
....................       {  if(Flanco2 == 0)  
08412:  BTFSC  x2C.2
08414:  BRA    8428
....................             {Flanco2 = 1;delay_ms(30);Opcion++; 
08416:  BSF    x2C.2
08418:  MOVLW  1E
0841A:  MOVLB  5
0841C:  MOVWF  xF6
0841E:  MOVLB  0
08420:  CALL   1474
08424:  MOVLB  4
08426:  INCF   xCE,F
....................             }      
....................       } 
....................          else 
08428:  BRA    842C
....................             {Flanco2 = 0;}   
0842A:  BCF    x2C.2
....................              
....................       if(RIGHT)//Si oprime SET 
0842C:  BSF    F96.1
0842E:  BTFSC  F84.1
08430:  BRA    846A
....................       {  if(Flanco1 == 0)  
08432:  BTFSC  x2C.1
08434:  BRA    8468
....................             {Flanco1 = 1;delay_ms(500);Menu=Opcion+30;glcd_fillScreen(OFF);Opcion=1;unidad=1; 
08436:  BSF    x2C.1
08438:  MOVLW  02
0843A:  MOVLB  5
0843C:  MOVWF  xE2
0843E:  MOVLW  FA
08440:  MOVWF  xF6
08442:  MOVLB  0
08444:  CALL   1474
08448:  MOVLB  5
0844A:  DECFSZ xE2,F
0844C:  BRA    843E
0844E:  MOVLW  1E
08450:  MOVLB  4
08452:  ADDWF  xCE,W
08454:  MOVWF  xCC
08456:  MOVLB  5
08458:  CLRF   xEA
0845A:  MOVLB  0
0845C:  CALL   1554
08460:  MOVLW  01
08462:  MOVLB  4
08464:  MOVWF  xCE
08466:  MOVWF  xCD
....................             } 
....................       } 
....................          else 
08468:  BRA    846C
....................             {Flanco1 = 0;}   
0846A:  BCF    x2C.1
....................              
....................       if(LEFT)//Si oprime boton de Toma. 
0846C:  BSF    F96.2
0846E:  BTFSC  F84.2
08470:  BRA    849A
....................         {delay_ms(700);Menu=3;glcd_fillscreen(OFF);} 
08472:  MOVLW  04
08474:  MOVLB  5
08476:  MOVWF  xE2
08478:  MOVLW  AF
0847A:  MOVWF  xF6
0847C:  MOVLB  0
0847E:  CALL   1474
08482:  MOVLB  5
08484:  DECFSZ xE2,F
08486:  BRA    8478
08488:  MOVLW  03
0848A:  MOVLB  4
0848C:  MOVWF  xCC
0848E:  MOVLB  5
08490:  CLRF   xEA
08492:  MOVLB  0
08494:  CALL   1554
08498:  MOVLB  4
....................       if(Opcion>2) 
0849A:  MOVF   xCE,W
0849C:  SUBLW  02
0849E:  BC    84A4
....................       {Opcion=1;} 
084A0:  MOVLW  01
084A2:  MOVWF  xCE
....................       if(Opcion<1) 
084A4:  MOVF   xCE,F
084A6:  BNZ   84AC
....................       {Opcion=2;} 
084A8:  MOVLW  02
084AA:  MOVWF  xCE
....................      
....................     } 
.................... //_--------------------------------------------------------------------------------------------------------------------------------------------------------        
....................  
.................... //_-------------------------------------------------------------------------------------------------------------------------------------------------------- 
....................       if(Menu==11){ //Menu de Purga. 
084AC:  MOVF   xCC,W
084AE:  SUBLW  0B
084B0:  BTFSS  FD8.2
084B2:  BRA    8878
....................        
....................       strcpy(Menus.Letra,"T. Purga"); 
084B4:  MOVLW  04
084B6:  MOVWF  FEA
084B8:  MOVLW  16
084BA:  MOVWF  FE9
084BC:  MOVFF  FF2,5E2
084C0:  BCF    FF2.7
084C2:  MOVLW  00
084C4:  MOVLB  0
084C6:  CALL   1158
084CA:  TBLRD*-
084CC:  TBLRD*+
084CE:  MOVF   FF5,W
084D0:  MOVWF  FEE
084D2:  IORLW  00
084D4:  BNZ   84CC
084D6:  MOVLB  5
084D8:  BTFSC  xE2.7
084DA:  BSF    FF2.7
....................       displayMenu(Menus.Letra,10,0,1,2); 
084DC:  MOVLW  04
084DE:  MOVWF  xEB
084E0:  MOVLW  16
084E2:  MOVWF  xEA
084E4:  MOVLW  0A
084E6:  MOVWF  xEC
084E8:  CLRF   xED
084EA:  MOVLW  01
084EC:  MOVWF  xEE
084EE:  MOVLW  02
084F0:  MOVWF  xEF
084F2:  MOVLB  0
084F4:  CALL   4DB4
....................        
....................       if(unidad==4) 
084F8:  MOVLB  4
084FA:  MOVF   xCD,W
084FC:  SUBLW  04
084FE:  BNZ   851E
....................       {displayTiempo(Tpurgap[3],20,40,1,2);} 
08500:  MOVFF  4F1,5E2
08504:  MOVLW  14
08506:  MOVLB  5
08508:  MOVWF  xE3
0850A:  MOVLW  28
0850C:  MOVWF  xE4
0850E:  MOVLW  01
08510:  MOVWF  xE5
08512:  MOVLW  02
08514:  MOVWF  xE6
08516:  MOVLB  0
08518:  CALL   5572
....................       else 
0851C:  BRA    8538
....................       {displayTiempo(Tpurgap[3],20,40,0,2);} 
0851E:  MOVFF  4F1,5E2
08522:  MOVLW  14
08524:  MOVLB  5
08526:  MOVWF  xE3
08528:  MOVLW  28
0852A:  MOVWF  xE4
0852C:  CLRF   xE5
0852E:  MOVLW  02
08530:  MOVWF  xE6
08532:  MOVLB  0
08534:  CALL   5572
....................        
....................       if(unidad==3) 
08538:  MOVLB  4
0853A:  MOVF   xCD,W
0853C:  SUBLW  03
0853E:  BNZ   855C
....................       {displayTiempo(Tpurgap[2],40,40,1,2);} 
08540:  MOVFF  4F0,5E2
08544:  MOVLW  28
08546:  MOVLB  5
08548:  MOVWF  xE3
0854A:  MOVWF  xE4
0854C:  MOVLW  01
0854E:  MOVWF  xE5
08550:  MOVLW  02
08552:  MOVWF  xE6
08554:  MOVLB  0
08556:  CALL   5572
....................       else 
0855A:  BRA    8574
....................       {displayTiempo(Tpurgap[2],40,40,0,2);} 
0855C:  MOVFF  4F0,5E2
08560:  MOVLW  28
08562:  MOVLB  5
08564:  MOVWF  xE3
08566:  MOVWF  xE4
08568:  CLRF   xE5
0856A:  MOVLW  02
0856C:  MOVWF  xE6
0856E:  MOVLB  0
08570:  CALL   5572
....................        
....................       if(unidad==2) 
08574:  MOVLB  4
08576:  MOVF   xCD,W
08578:  SUBLW  02
0857A:  BNZ   859A
....................       {displayTiempo(Tpurgap[1],70,40,1,2);} 
0857C:  MOVFF  4EF,5E2
08580:  MOVLW  46
08582:  MOVLB  5
08584:  MOVWF  xE3
08586:  MOVLW  28
08588:  MOVWF  xE4
0858A:  MOVLW  01
0858C:  MOVWF  xE5
0858E:  MOVLW  02
08590:  MOVWF  xE6
08592:  MOVLB  0
08594:  CALL   5572
....................       else 
08598:  BRA    85B4
....................       {displayTiempo(Tpurgap[1],70,40,0,2);} 
0859A:  MOVFF  4EF,5E2
0859E:  MOVLW  46
085A0:  MOVLB  5
085A2:  MOVWF  xE3
085A4:  MOVLW  28
085A6:  MOVWF  xE4
085A8:  CLRF   xE5
085AA:  MOVLW  02
085AC:  MOVWF  xE6
085AE:  MOVLB  0
085B0:  CALL   5572
....................        
....................       if(unidad==1) 
085B4:  MOVLB  4
085B6:  DECFSZ xCD,W
085B8:  BRA    85D8
....................       {displayTiempo(Tpurgap[0],90,40,1,2);} 
085BA:  MOVFF  4EE,5E2
085BE:  MOVLW  5A
085C0:  MOVLB  5
085C2:  MOVWF  xE3
085C4:  MOVLW  28
085C6:  MOVWF  xE4
085C8:  MOVLW  01
085CA:  MOVWF  xE5
085CC:  MOVLW  02
085CE:  MOVWF  xE6
085D0:  MOVLB  0
085D2:  CALL   5572
....................       else 
085D6:  BRA    85F2
....................       {displayTiempo(Tpurgap[0],90,40,0,2);} 
085D8:  MOVFF  4EE,5E2
085DC:  MOVLW  5A
085DE:  MOVLB  5
085E0:  MOVWF  xE3
085E2:  MOVLW  28
085E4:  MOVWF  xE4
085E6:  CLRF   xE5
085E8:  MOVLW  02
085EA:  MOVWF  xE6
085EC:  MOVLB  0
085EE:  CALL   5572
....................        
....................       glcd_text57(60, 42, Dos_puntos, 2, ON); 
085F2:  MOVLW  3C
085F4:  MOVLB  5
085F6:  MOVWF  xFB
085F8:  MOVLW  2A
085FA:  MOVWF  xFC
085FC:  MOVLW  04
085FE:  MOVWF  xFE
08600:  MOVLW  50
08602:  MOVWF  xFD
08604:  MOVLW  02
08606:  MOVWF  xFF
08608:  MOVLW  01
0860A:  MOVLB  6
0860C:  MOVWF  x00
0860E:  MOVLB  0
08610:  CALL   17CA
....................           
....................          
....................       if(UP)//Si oprime hacia arriba 
08614:  BSF    F92.5
08616:  BTFSC  F80.5
08618:  BRA    8644
....................       {  if(Flanco == 0)  
0861A:  MOVLB  4
0861C:  BTFSC  x2C.0
0861E:  BRA    8642
....................             {Flanco = 1;delay_ms(30);Tpurgap[unidad-1]++; 
08620:  BSF    x2C.0
08622:  MOVLW  1E
08624:  MOVLB  5
08626:  MOVWF  xF6
08628:  MOVLB  0
0862A:  CALL   1474
0862E:  MOVLW  01
08630:  MOVLB  4
08632:  SUBWF  xCD,W
08634:  CLRF   03
08636:  ADDLW  EE
08638:  MOVWF  FE9
0863A:  MOVLW  04
0863C:  ADDWFC 03,W
0863E:  MOVWF  FEA
08640:  INCF   FEF,F
....................             } 
....................       } 
....................          else 
08642:  BRA    8648
....................             {Flanco = 0;} 
08644:  MOVLB  4
08646:  BCF    x2C.0
....................              
....................       if(DOWN)//Si oprime hacia abajo 
08648:  BSF    F96.0
0864A:  BTFSC  F84.0
0864C:  BRA    8676
....................       {  if(Flanco2 == 0)  
0864E:  BTFSC  x2C.2
08650:  BRA    8674
....................             {Flanco2 = 1;delay_ms(30);Tpurgap[unidad-1]--; 
08652:  BSF    x2C.2
08654:  MOVLW  1E
08656:  MOVLB  5
08658:  MOVWF  xF6
0865A:  MOVLB  0
0865C:  CALL   1474
08660:  MOVLW  01
08662:  MOVLB  4
08664:  SUBWF  xCD,W
08666:  CLRF   03
08668:  ADDLW  EE
0866A:  MOVWF  FE9
0866C:  MOVLW  04
0866E:  ADDWFC 03,W
08670:  MOVWF  FEA
08672:  DECF   FEF,F
....................             }      
....................       } 
....................          else 
08674:  BRA    8678
....................             {Flanco2 = 0;}   
08676:  BCF    x2C.2
....................              
....................       if(RIGHT)//Si oprime SET 
08678:  BSF    F96.1
0867A:  BTFSC  F84.1
0867C:  BRA    8696
....................       {  if(Flanco1 == 0)  
0867E:  BTFSC  x2C.1
08680:  BRA    8694
....................             {Flanco1 = 1;delay_ms(30);unidad--; 
08682:  BSF    x2C.1
08684:  MOVLW  1E
08686:  MOVLB  5
08688:  MOVWF  xF6
0868A:  MOVLB  0
0868C:  CALL   1474
08690:  MOVLB  4
08692:  DECF   xCD,F
....................             } 
....................       } 
....................          else 
08694:  BRA    8698
....................             {Flanco1 = 0;}   
08696:  BCF    x2C.1
....................              
....................       if(LEFT)//Si oprime boton de Toma. 
08698:  BSF    F96.2
0869A:  BTFSC  F84.2
0869C:  BRA    87AC
....................       { 
....................          delay_ms(700);Menu=4;glcd_fillscreen(OFF);Opcion=1;unidad=1; 
0869E:  MOVLW  04
086A0:  MOVLB  5
086A2:  MOVWF  xE2
086A4:  MOVLW  AF
086A6:  MOVWF  xF6
086A8:  MOVLB  0
086AA:  CALL   1474
086AE:  MOVLB  5
086B0:  DECFSZ xE2,F
086B2:  BRA    86A4
086B4:  MOVLW  04
086B6:  MOVLB  4
086B8:  MOVWF  xCC
086BA:  MOVLB  5
086BC:  CLRF   xEA
086BE:  MOVLB  0
086C0:  CALL   1554
086C4:  MOVLW  01
086C6:  MOVLB  4
086C8:  MOVWF  xCE
086CA:  MOVWF  xCD
....................          write_eeprom(4,Tpurgap[0]); 
086CC:  CLRF   FAA
086CE:  MOVLW  04
086D0:  MOVWF  FA9
086D2:  MOVFF  4EE,FA8
086D6:  BCF    FA6.6
086D8:  BCF    FA6.7
086DA:  BSF    FA6.2
086DC:  MOVF   FF2,W
086DE:  MOVWF  00
086E0:  BCF    FF2.7
086E2:  MOVLB  F
086E4:  MOVLW  55
086E6:  MOVWF  FA7
086E8:  MOVLW  AA
086EA:  MOVWF  FA7
086EC:  BSF    FA6.1
086EE:  BTFSC  FA6.1
086F0:  BRA    86EE
086F2:  BCF    FA6.2
086F4:  MOVF   00,W
086F6:  IORWF  FF2,F
....................          delay_ms(20); 
086F8:  MOVLW  14
086FA:  MOVLB  5
086FC:  MOVWF  xF6
086FE:  MOVLB  0
08700:  CALL   1474
....................          write_eeprom(5,Tpurgap[1]); 
08704:  CLRF   FAA
08706:  MOVLW  05
08708:  MOVWF  FA9
0870A:  MOVFF  4EF,FA8
0870E:  BCF    FA6.6
08710:  BCF    FA6.7
08712:  BSF    FA6.2
08714:  MOVF   FF2,W
08716:  MOVWF  00
08718:  BCF    FF2.7
0871A:  MOVLB  F
0871C:  MOVLW  55
0871E:  MOVWF  FA7
08720:  MOVLW  AA
08722:  MOVWF  FA7
08724:  BSF    FA6.1
08726:  BTFSC  FA6.1
08728:  BRA    8726
0872A:  BCF    FA6.2
0872C:  MOVF   00,W
0872E:  IORWF  FF2,F
....................          delay_ms(20); 
08730:  MOVLW  14
08732:  MOVLB  5
08734:  MOVWF  xF6
08736:  MOVLB  0
08738:  CALL   1474
....................          write_eeprom(6,Tpurgap[2]); 
0873C:  CLRF   FAA
0873E:  MOVLW  06
08740:  MOVWF  FA9
08742:  MOVFF  4F0,FA8
08746:  BCF    FA6.6
08748:  BCF    FA6.7
0874A:  BSF    FA6.2
0874C:  MOVF   FF2,W
0874E:  MOVWF  00
08750:  BCF    FF2.7
08752:  MOVLB  F
08754:  MOVLW  55
08756:  MOVWF  FA7
08758:  MOVLW  AA
0875A:  MOVWF  FA7
0875C:  BSF    FA6.1
0875E:  BTFSC  FA6.1
08760:  BRA    875E
08762:  BCF    FA6.2
08764:  MOVF   00,W
08766:  IORWF  FF2,F
....................          delay_ms(20); 
08768:  MOVLW  14
0876A:  MOVLB  5
0876C:  MOVWF  xF6
0876E:  MOVLB  0
08770:  CALL   1474
....................          write_eeprom(7,Tpurgap[3]); 
08774:  CLRF   FAA
08776:  MOVLW  07
08778:  MOVWF  FA9
0877A:  MOVFF  4F1,FA8
0877E:  BCF    FA6.6
08780:  BCF    FA6.7
08782:  BSF    FA6.2
08784:  MOVF   FF2,W
08786:  MOVWF  00
08788:  BCF    FF2.7
0878A:  MOVLB  F
0878C:  MOVLW  55
0878E:  MOVWF  FA7
08790:  MOVLW  AA
08792:  MOVWF  FA7
08794:  BSF    FA6.1
08796:  BTFSC  FA6.1
08798:  BRA    8796
0879A:  BCF    FA6.2
0879C:  MOVF   00,W
0879E:  IORWF  FF2,F
....................          delay_ms(20); 
087A0:  MOVLW  14
087A2:  MOVLB  5
087A4:  MOVWF  xF6
087A6:  MOVLB  0
087A8:  CALL   1474
....................       } 
....................        
....................       for(i=0;i<4;i++) 
087AC:  MOVLB  5
087AE:  CLRF   xD2
087B0:  MOVF   xD2,W
087B2:  SUBLW  03
087B4:  BNC   8808
....................       { 
....................          if(Tpurgap[i]>9) 
087B6:  CLRF   03
087B8:  MOVF   xD2,W
087BA:  ADDLW  EE
087BC:  MOVWF  FE9
087BE:  MOVLW  04
087C0:  ADDWFC 03,W
087C2:  MOVWF  FEA
087C4:  BTFSC  FEF.7
087C6:  BRA    87DE
087C8:  MOVF   FEF,W
087CA:  SUBLW  09
087CC:  BC    87DE
....................          {Tpurgap[i]=0;} 
087CE:  CLRF   03
087D0:  MOVF   xD2,W
087D2:  ADDLW  EE
087D4:  MOVWF  FE9
087D6:  MOVLW  04
087D8:  ADDWFC 03,W
087DA:  MOVWF  FEA
087DC:  CLRF   FEF
....................           
....................          if(Tpurgap[i]<0) 
087DE:  CLRF   03
087E0:  MOVF   xD2,W
087E2:  ADDLW  EE
087E4:  MOVWF  FE9
087E6:  MOVLW  04
087E8:  ADDWFC 03,W
087EA:  MOVWF  FEA
087EC:  BTFSC  FEF.7
087EE:  BRA    87F2
087F0:  BRA    8804
....................          {Tpurgap[i]=9;} 
087F2:  CLRF   03
087F4:  MOVF   xD2,W
087F6:  ADDLW  EE
087F8:  MOVWF  FE9
087FA:  MOVLW  04
087FC:  ADDWFC 03,W
087FE:  MOVWF  FEA
08800:  MOVLW  09
08802:  MOVWF  FEF
....................       }       
08804:  INCF   xD2,F
08806:  BRA    87B0
....................       for(i=1;i<4;i++) 
08808:  MOVLW  01
0880A:  MOVWF  xD2
0880C:  MOVF   xD2,W
0880E:  SUBLW  03
08810:  BNC   8866
....................       { 
....................          if(Tpurgap[i]>5) 
08812:  CLRF   03
08814:  MOVF   xD2,W
08816:  ADDLW  EE
08818:  MOVWF  FE9
0881A:  MOVLW  04
0881C:  ADDWFC 03,W
0881E:  MOVWF  FEA
08820:  BTFSC  FEF.7
08822:  BRA    883A
08824:  MOVF   FEF,W
08826:  SUBLW  05
08828:  BC    883A
....................          {Tpurgap[i]=0;} 
0882A:  CLRF   03
0882C:  MOVF   xD2,W
0882E:  ADDLW  EE
08830:  MOVWF  FE9
08832:  MOVLW  04
08834:  ADDWFC 03,W
08836:  MOVWF  FEA
08838:  CLRF   FEF
....................           
....................          if(Tpurgap[i]<0) 
0883A:  CLRF   03
0883C:  MOVF   xD2,W
0883E:  ADDLW  EE
08840:  MOVWF  FE9
08842:  MOVLW  04
08844:  ADDWFC 03,W
08846:  MOVWF  FEA
08848:  BTFSC  FEF.7
0884A:  BRA    884E
0884C:  BRA    8860
....................          {Tpurgap[i]=5;} 
0884E:  CLRF   03
08850:  MOVF   xD2,W
08852:  ADDLW  EE
08854:  MOVWF  FE9
08856:  MOVLW  04
08858:  ADDWFC 03,W
0885A:  MOVWF  FEA
0885C:  MOVLW  05
0885E:  MOVWF  FEF
....................         i++;  
08860:  INCF   xD2,F
....................       } 
08862:  INCF   xD2,F
08864:  BRA    880C
....................       if(unidad<1) 
08866:  MOVLB  4
08868:  MOVF   xCD,F
0886A:  BNZ   8870
....................       {unidad=4;} 
0886C:  MOVLW  04
0886E:  MOVWF  xCD
....................       if(Opcion<1) 
08870:  MOVF   xCE,F
08872:  BNZ   8878
....................       {Opcion=4;} 
08874:  MOVLW  04
08876:  MOVWF  xCE
....................      
....................     } 
.................... //_--------------------------------------------------------------------------------------------------------------------------------------------------------        
....................  
.................... //_-------------------------------------------------------------------------------------------------------------------------------------------------------- 
....................       if(Menu==12){ //Menu de Tempo UV. 
08878:  MOVF   xCC,W
0887A:  SUBLW  0C
0887C:  BTFSS  FD8.2
0887E:  BRA    8C56
....................        
....................       strcpy(Menus.Letra,"T. UV"); 
08880:  MOVLW  04
08882:  MOVWF  FEA
08884:  MOVLW  16
08886:  MOVWF  FE9
08888:  MOVFF  FF2,5E2
0888C:  BCF    FF2.7
0888E:  MOVLW  00
08890:  MOVLB  0
08892:  CALL   117C
08896:  TBLRD*-
08898:  TBLRD*+
0889A:  MOVF   FF5,W
0889C:  MOVWF  FEE
0889E:  IORLW  00
088A0:  BNZ   8898
088A2:  MOVLB  5
088A4:  BTFSC  xE2.7
088A6:  BSF    FF2.7
....................       displayMenu(Menus.Letra,30,0,1,2); 
088A8:  MOVLW  04
088AA:  MOVWF  xEB
088AC:  MOVLW  16
088AE:  MOVWF  xEA
088B0:  MOVLW  1E
088B2:  MOVWF  xEC
088B4:  CLRF   xED
088B6:  MOVLW  01
088B8:  MOVWF  xEE
088BA:  MOVLW  02
088BC:  MOVWF  xEF
088BE:  MOVLB  0
088C0:  CALL   4DB4
....................        
....................       if(unidad==4) 
088C4:  MOVLB  4
088C6:  MOVF   xCD,W
088C8:  SUBLW  04
088CA:  BNZ   88EA
....................       {displayTiempo(Tempouvp[3],20,40,1,2);} 
088CC:  MOVFF  4FD,5E2
088D0:  MOVLW  14
088D2:  MOVLB  5
088D4:  MOVWF  xE3
088D6:  MOVLW  28
088D8:  MOVWF  xE4
088DA:  MOVLW  01
088DC:  MOVWF  xE5
088DE:  MOVLW  02
088E0:  MOVWF  xE6
088E2:  MOVLB  0
088E4:  CALL   5572
....................       else 
088E8:  BRA    8904
....................       {displayTiempo(Tempouvp[3],20,40,0,2);} 
088EA:  MOVFF  4FD,5E2
088EE:  MOVLW  14
088F0:  MOVLB  5
088F2:  MOVWF  xE3
088F4:  MOVLW  28
088F6:  MOVWF  xE4
088F8:  CLRF   xE5
088FA:  MOVLW  02
088FC:  MOVWF  xE6
088FE:  MOVLB  0
08900:  CALL   5572
....................        
....................       if(unidad==3) 
08904:  MOVLB  4
08906:  MOVF   xCD,W
08908:  SUBLW  03
0890A:  BNZ   8928
....................       {displayTiempo(Tempouvp[2],40,40,1,2);} 
0890C:  MOVFF  4FC,5E2
08910:  MOVLW  28
08912:  MOVLB  5
08914:  MOVWF  xE3
08916:  MOVWF  xE4
08918:  MOVLW  01
0891A:  MOVWF  xE5
0891C:  MOVLW  02
0891E:  MOVWF  xE6
08920:  MOVLB  0
08922:  CALL   5572
....................       else 
08926:  BRA    8940
....................       {displayTiempo(Tempouvp[2],40,40,0,2);} 
08928:  MOVFF  4FC,5E2
0892C:  MOVLW  28
0892E:  MOVLB  5
08930:  MOVWF  xE3
08932:  MOVWF  xE4
08934:  CLRF   xE5
08936:  MOVLW  02
08938:  MOVWF  xE6
0893A:  MOVLB  0
0893C:  CALL   5572
....................        
....................       if(unidad==2) 
08940:  MOVLB  4
08942:  MOVF   xCD,W
08944:  SUBLW  02
08946:  BNZ   8966
....................       {displayTiempo(Tempouvp[1],70,40,1,2);} 
08948:  MOVFF  4FB,5E2
0894C:  MOVLW  46
0894E:  MOVLB  5
08950:  MOVWF  xE3
08952:  MOVLW  28
08954:  MOVWF  xE4
08956:  MOVLW  01
08958:  MOVWF  xE5
0895A:  MOVLW  02
0895C:  MOVWF  xE6
0895E:  MOVLB  0
08960:  CALL   5572
....................       else 
08964:  BRA    8980
....................       {displayTiempo(Tempouvp[1],70,40,0,2);} 
08966:  MOVFF  4FB,5E2
0896A:  MOVLW  46
0896C:  MOVLB  5
0896E:  MOVWF  xE3
08970:  MOVLW  28
08972:  MOVWF  xE4
08974:  CLRF   xE5
08976:  MOVLW  02
08978:  MOVWF  xE6
0897A:  MOVLB  0
0897C:  CALL   5572
....................        
....................       if(unidad==1) 
08980:  MOVLB  4
08982:  DECFSZ xCD,W
08984:  BRA    89A4
....................       {displayTiempo(Tempouvp[0],90,40,1,2);} 
08986:  MOVFF  4FA,5E2
0898A:  MOVLW  5A
0898C:  MOVLB  5
0898E:  MOVWF  xE3
08990:  MOVLW  28
08992:  MOVWF  xE4
08994:  MOVLW  01
08996:  MOVWF  xE5
08998:  MOVLW  02
0899A:  MOVWF  xE6
0899C:  MOVLB  0
0899E:  CALL   5572
....................       else 
089A2:  BRA    89BE
....................       {displayTiempo(Tempouvp[0],90,40,0,2);} 
089A4:  MOVFF  4FA,5E2
089A8:  MOVLW  5A
089AA:  MOVLB  5
089AC:  MOVWF  xE3
089AE:  MOVLW  28
089B0:  MOVWF  xE4
089B2:  CLRF   xE5
089B4:  MOVLW  02
089B6:  MOVWF  xE6
089B8:  MOVLB  0
089BA:  CALL   5572
....................        
....................       glcd_text57(60, 42, Dos_puntos, 2, ON); 
089BE:  MOVLW  3C
089C0:  MOVLB  5
089C2:  MOVWF  xFB
089C4:  MOVLW  2A
089C6:  MOVWF  xFC
089C8:  MOVLW  04
089CA:  MOVWF  xFE
089CC:  MOVLW  50
089CE:  MOVWF  xFD
089D0:  MOVLW  02
089D2:  MOVWF  xFF
089D4:  MOVLW  01
089D6:  MOVLB  6
089D8:  MOVWF  x00
089DA:  MOVLB  0
089DC:  CALL   17CA
....................           
....................          
....................       if(UP)//Si oprime hacia arriba 
089E0:  BSF    F92.5
089E2:  BTFSC  F80.5
089E4:  BRA    8A10
....................       {  if(Flanco == 0)  
089E6:  MOVLB  4
089E8:  BTFSC  x2C.0
089EA:  BRA    8A0E
....................             {Flanco = 1;delay_ms(30);Tempouvp[unidad-1]++; 
089EC:  BSF    x2C.0
089EE:  MOVLW  1E
089F0:  MOVLB  5
089F2:  MOVWF  xF6
089F4:  MOVLB  0
089F6:  CALL   1474
089FA:  MOVLW  01
089FC:  MOVLB  4
089FE:  SUBWF  xCD,W
08A00:  CLRF   03
08A02:  ADDLW  FA
08A04:  MOVWF  FE9
08A06:  MOVLW  04
08A08:  ADDWFC 03,W
08A0A:  MOVWF  FEA
08A0C:  INCF   FEF,F
....................             } 
....................       } 
....................          else 
08A0E:  BRA    8A14
....................             {Flanco = 0;} 
08A10:  MOVLB  4
08A12:  BCF    x2C.0
....................              
....................       if(DOWN )//Si oprime hacia abajo 
08A14:  BSF    F96.0
08A16:  BTFSC  F84.0
08A18:  BRA    8A42
....................       {  if(Flanco2 == 0)  
08A1A:  BTFSC  x2C.2
08A1C:  BRA    8A40
....................             {Flanco2 = 1;delay_ms(30);Tempouvp[unidad-1]--; 
08A1E:  BSF    x2C.2
08A20:  MOVLW  1E
08A22:  MOVLB  5
08A24:  MOVWF  xF6
08A26:  MOVLB  0
08A28:  CALL   1474
08A2C:  MOVLW  01
08A2E:  MOVLB  4
08A30:  SUBWF  xCD,W
08A32:  CLRF   03
08A34:  ADDLW  FA
08A36:  MOVWF  FE9
08A38:  MOVLW  04
08A3A:  ADDWFC 03,W
08A3C:  MOVWF  FEA
08A3E:  DECF   FEF,F
....................             }      
....................       } 
....................          else 
08A40:  BRA    8A44
....................             {Flanco2 = 0;}   
08A42:  BCF    x2C.2
....................              
....................       if(RIGHT)//Si oprime SET 
08A44:  BSF    F96.1
08A46:  BTFSC  F84.1
08A48:  BRA    8A62
....................       {  if(Flanco1 == 0)  
08A4A:  BTFSC  x2C.1
08A4C:  BRA    8A60
....................             {Flanco1 = 1;delay_ms(30);unidad--; 
08A4E:  BSF    x2C.1
08A50:  MOVLW  1E
08A52:  MOVLB  5
08A54:  MOVWF  xF6
08A56:  MOVLB  0
08A58:  CALL   1474
08A5C:  MOVLB  4
08A5E:  DECF   xCD,F
....................             } 
....................       } 
....................          else 
08A60:  BRA    8A64
....................             {Flanco1 = 0;}   
08A62:  BCF    x2C.1
....................              
....................       if(LEFT)//Si oprime boton de Toma. 
08A64:  BSF    F96.2
08A66:  BTFSC  F84.2
08A68:  BRA    8B88
....................       { 
....................          delay_ms(700);Menu=4;glcd_fillscreen(OFF);Opcion=1;unidad=1; 
08A6A:  MOVLW  04
08A6C:  MOVLB  5
08A6E:  MOVWF  xE2
08A70:  MOVLW  AF
08A72:  MOVWF  xF6
08A74:  MOVLB  0
08A76:  CALL   1474
08A7A:  MOVLB  5
08A7C:  DECFSZ xE2,F
08A7E:  BRA    8A70
08A80:  MOVLW  04
08A82:  MOVLB  4
08A84:  MOVWF  xCC
08A86:  MOVLB  5
08A88:  CLRF   xEA
08A8A:  MOVLB  0
08A8C:  CALL   1554
08A90:  MOVLW  01
08A92:  MOVLB  4
08A94:  MOVWF  xCE
08A96:  MOVWF  xCD
....................          write_eeprom(21,Tempouvp[0]); 
08A98:  CLRF   FAA
08A9A:  MOVLW  15
08A9C:  MOVWF  FA9
08A9E:  MOVFF  4FA,FA8
08AA2:  BCF    FA6.6
08AA4:  BCF    FA6.7
08AA6:  BSF    FA6.2
08AA8:  MOVF   FF2,W
08AAA:  MOVWF  00
08AAC:  BCF    FF2.7
08AAE:  MOVLB  F
08AB0:  MOVLW  55
08AB2:  MOVWF  FA7
08AB4:  MOVLW  AA
08AB6:  MOVWF  FA7
08AB8:  BSF    FA6.1
08ABA:  BTFSC  FA6.1
08ABC:  BRA    8ABA
08ABE:  BCF    FA6.2
08AC0:  MOVF   00,W
08AC2:  IORWF  FF2,F
....................          delay_ms(20); 
08AC4:  MOVLW  14
08AC6:  MOVLB  5
08AC8:  MOVWF  xF6
08ACA:  MOVLB  0
08ACC:  CALL   1474
....................          write_eeprom(22,Tempouvp[1]); 
08AD0:  CLRF   FAA
08AD2:  MOVLW  16
08AD4:  MOVWF  FA9
08AD6:  MOVFF  4FB,FA8
08ADA:  BCF    FA6.6
08ADC:  BCF    FA6.7
08ADE:  BSF    FA6.2
08AE0:  MOVF   FF2,W
08AE2:  MOVWF  00
08AE4:  BCF    FF2.7
08AE6:  MOVLB  F
08AE8:  MOVLW  55
08AEA:  MOVWF  FA7
08AEC:  MOVLW  AA
08AEE:  MOVWF  FA7
08AF0:  BSF    FA6.1
08AF2:  BTFSC  FA6.1
08AF4:  BRA    8AF2
08AF6:  BCF    FA6.2
08AF8:  MOVF   00,W
08AFA:  IORWF  FF2,F
....................          delay_ms(20); 
08AFC:  MOVLW  14
08AFE:  MOVLB  5
08B00:  MOVWF  xF6
08B02:  MOVLB  0
08B04:  CALL   1474
....................          write_eeprom(23,Tempouvp[2]); 
08B08:  CLRF   FAA
08B0A:  MOVLW  17
08B0C:  MOVWF  FA9
08B0E:  MOVFF  4FC,FA8
08B12:  BCF    FA6.6
08B14:  BCF    FA6.7
08B16:  BSF    FA6.2
08B18:  MOVF   FF2,W
08B1A:  MOVWF  00
08B1C:  BCF    FF2.7
08B1E:  MOVLB  F
08B20:  MOVLW  55
08B22:  MOVWF  FA7
08B24:  MOVLW  AA
08B26:  MOVWF  FA7
08B28:  BSF    FA6.1
08B2A:  BTFSC  FA6.1
08B2C:  BRA    8B2A
08B2E:  BCF    FA6.2
08B30:  MOVF   00,W
08B32:  IORWF  FF2,F
....................          delay_ms(20); 
08B34:  MOVLW  14
08B36:  MOVLB  5
08B38:  MOVWF  xF6
08B3A:  MOVLB  0
08B3C:  CALL   1474
....................          write_eeprom(24,Tempouvp[3]); 
08B40:  CLRF   FAA
08B42:  MOVLW  18
08B44:  MOVWF  FA9
08B46:  MOVFF  4FD,FA8
08B4A:  BCF    FA6.6
08B4C:  BCF    FA6.7
08B4E:  BSF    FA6.2
08B50:  MOVF   FF2,W
08B52:  MOVWF  00
08B54:  BCF    FF2.7
08B56:  MOVLB  F
08B58:  MOVLW  55
08B5A:  MOVWF  FA7
08B5C:  MOVLW  AA
08B5E:  MOVWF  FA7
08B60:  BSF    FA6.1
08B62:  BTFSC  FA6.1
08B64:  BRA    8B62
08B66:  BCF    FA6.2
08B68:  MOVF   00,W
08B6A:  IORWF  FF2,F
....................          delay_ms(20); 
08B6C:  MOVLW  14
08B6E:  MOVLB  5
08B70:  MOVWF  xF6
08B72:  MOVLB  0
08B74:  CALL   1474
....................          Tempouv[0]=0;Tempouv[1]=0;Tempouv[2]=0;Tempouv[3]=0; 
08B78:  MOVLB  4
08B7A:  CLRF   xFE
08B7C:  CLRF   xFF
08B7E:  MOVLB  5
08B80:  CLRF   x00
08B82:  CLRF   x01
....................          tiempocumplido=1; 
08B84:  MOVLB  4
08B86:  BSF    x2E.2
....................       } 
....................              
....................       for(i=0;i<3;i++) 
08B88:  MOVLB  5
08B8A:  CLRF   xD2
08B8C:  MOVF   xD2,W
08B8E:  SUBLW  02
08B90:  BNC   8BE6
....................       { 
....................          if(Tempouvp[i]>9) 
08B92:  CLRF   03
08B94:  MOVF   xD2,W
08B96:  ADDLW  FA
08B98:  MOVWF  FE9
08B9A:  MOVLW  04
08B9C:  ADDWFC 03,W
08B9E:  MOVWF  FEA
08BA0:  BTFSC  FEF.7
08BA2:  BRA    8BBA
08BA4:  MOVF   FEF,W
08BA6:  SUBLW  09
08BA8:  BC    8BBA
....................          {Tempouvp[i]=0;} 
08BAA:  CLRF   03
08BAC:  MOVF   xD2,W
08BAE:  ADDLW  FA
08BB0:  MOVWF  FE9
08BB2:  MOVLW  04
08BB4:  ADDWFC 03,W
08BB6:  MOVWF  FEA
08BB8:  CLRF   FEF
....................           
....................          if(Tempouvp[i]<0) 
08BBA:  CLRF   03
08BBC:  MOVF   xD2,W
08BBE:  ADDLW  FA
08BC0:  MOVWF  FE9
08BC2:  MOVLW  04
08BC4:  ADDWFC 03,W
08BC6:  MOVWF  FEA
08BC8:  BTFSC  FEF.7
08BCA:  BRA    8BCE
08BCC:  BRA    8BE0
....................          {Tempouvp[i]=9;} 
08BCE:  CLRF   03
08BD0:  MOVF   xD2,W
08BD2:  ADDLW  FA
08BD4:  MOVWF  FE9
08BD6:  MOVLW  04
08BD8:  ADDWFC 03,W
08BDA:  MOVWF  FEA
08BDC:  MOVLW  09
08BDE:  MOVWF  FEF
....................          i++; 
08BE0:  INCF   xD2,F
....................       }       
08BE2:  INCF   xD2,F
08BE4:  BRA    8B8C
....................       for(i=1;i<4;i++) 
08BE6:  MOVLW  01
08BE8:  MOVWF  xD2
08BEA:  MOVF   xD2,W
08BEC:  SUBLW  03
08BEE:  BNC   8C44
....................       { 
....................          if(Tempouvp[i]>5) 
08BF0:  CLRF   03
08BF2:  MOVF   xD2,W
08BF4:  ADDLW  FA
08BF6:  MOVWF  FE9
08BF8:  MOVLW  04
08BFA:  ADDWFC 03,W
08BFC:  MOVWF  FEA
08BFE:  BTFSC  FEF.7
08C00:  BRA    8C18
08C02:  MOVF   FEF,W
08C04:  SUBLW  05
08C06:  BC    8C18
....................          {Tempouvp[i]=0;} 
08C08:  CLRF   03
08C0A:  MOVF   xD2,W
08C0C:  ADDLW  FA
08C0E:  MOVWF  FE9
08C10:  MOVLW  04
08C12:  ADDWFC 03,W
08C14:  MOVWF  FEA
08C16:  CLRF   FEF
....................           
....................          if(Tempouvp[i]<0) 
08C18:  CLRF   03
08C1A:  MOVF   xD2,W
08C1C:  ADDLW  FA
08C1E:  MOVWF  FE9
08C20:  MOVLW  04
08C22:  ADDWFC 03,W
08C24:  MOVWF  FEA
08C26:  BTFSC  FEF.7
08C28:  BRA    8C2C
08C2A:  BRA    8C3E
....................          {Tempouvp[i]=5;} 
08C2C:  CLRF   03
08C2E:  MOVF   xD2,W
08C30:  ADDLW  FA
08C32:  MOVWF  FE9
08C34:  MOVLW  04
08C36:  ADDWFC 03,W
08C38:  MOVWF  FEA
08C3A:  MOVLW  05
08C3C:  MOVWF  FEF
....................         i++;  
08C3E:  INCF   xD2,F
....................       }       
08C40:  INCF   xD2,F
08C42:  BRA    8BEA
....................       if(unidad<1) 
08C44:  MOVLB  4
08C46:  MOVF   xCD,F
08C48:  BNZ   8C4E
....................       {unidad=4;} 
08C4A:  MOVLW  04
08C4C:  MOVWF  xCD
....................       if(Opcion<1) 
08C4E:  MOVF   xCE,F
08C50:  BNZ   8C56
....................       {Opcion=4;} 
08C52:  MOVLW  04
08C54:  MOVWF  xCE
....................      
....................     } 
.................... //_--------------------------------------------------------------------------------------------------------------------------------------------------------        
....................  
.................... //_-------------------------------------------------------------------------------------------------------------------------------------------------------- 
....................       if(Menu==5){ //Menu de Clave. 
08C56:  MOVF   xCC,W
08C58:  SUBLW  05
08C5A:  BNZ   8CBA
....................  
....................       PidePassword(3,5,211,Password[0],Password[1],Password[2],Password[3]); 
08C5C:  MOVLW  03
08C5E:  MOVLB  5
08C60:  MOVWF  xE3
08C62:  MOVLW  05
08C64:  MOVWF  xE4
08C66:  MOVLW  D3
08C68:  MOVWF  xE5
08C6A:  MOVFF  50A,5E6
08C6E:  MOVFF  50B,5E7
08C72:  MOVFF  50C,5E8
08C76:  MOVFF  50D,5E9
08C7A:  MOVLB  0
08C7C:  CALL   4E8C
....................              
....................       if(LEFT)//Si oprime boton de Toma. 
08C80:  BSF    F96.2
08C82:  BTFSC  F84.2
08C84:  BRA    8CBC
....................       { 
....................          delay_ms(200); 
08C86:  MOVLW  C8
08C88:  MOVLB  5
08C8A:  MOVWF  xF6
08C8C:  MOVLB  0
08C8E:  CALL   1474
....................          if(unidad==1){ 
08C92:  MOVLB  4
08C94:  DECFSZ xCD,W
08C96:  BRA    8CBA
....................             Menu=3;glcd_fillscreen(OFF);Opcion=1;unidad=1;Contrasena[0]=0;Contrasena[1]=0;Contrasena[2]=0;Contrasena[3]=0; 
08C98:  MOVLW  03
08C9A:  MOVWF  xCC
08C9C:  MOVLB  5
08C9E:  CLRF   xEA
08CA0:  MOVLB  0
08CA2:  CALL   1554
08CA6:  MOVLW  01
08CA8:  MOVLB  4
08CAA:  MOVWF  xCE
08CAC:  MOVWF  xCD
08CAE:  MOVLB  5
08CB0:  CLRF   x06
08CB2:  CLRF   x07
08CB4:  CLRF   x08
08CB6:  CLRF   x09
08CB8:  MOVLB  4
08CBA:  MOVLB  0
....................          } 
....................       }  
....................     } 
.................... //_--------------------------------------------------------------------------------------------------------------------------------------------------------        
....................  
.................... //_-------------------------------------------------------------------------------------------------------------------------------------------------------- 
....................       if(Menu==211){ //Menu de Cambio Clave. 
08CBC:  MOVLB  4
08CBE:  MOVF   xCC,W
08CC0:  SUBLW  D3
08CC2:  BTFSS  FD8.2
08CC4:  BRA    9164
....................        
....................       if(n==0) 
08CC6:  BTFSC  x2E.5
08CC8:  BRA    8D28
....................       { 
....................          displayContrasena(Contrasena[0],20,30,1);displayContrasena(Contrasena[1],40,30,0); 
08CCA:  MOVFF  506,5EC
08CCE:  MOVLW  14
08CD0:  MOVLB  5
08CD2:  MOVWF  xED
08CD4:  MOVLW  1E
08CD6:  MOVWF  xEE
08CD8:  MOVLW  01
08CDA:  MOVWF  xEF
08CDC:  MOVLB  0
08CDE:  CALL   4CF0
08CE2:  MOVFF  507,5EC
08CE6:  MOVLW  28
08CE8:  MOVLB  5
08CEA:  MOVWF  xED
08CEC:  MOVLW  1E
08CEE:  MOVWF  xEE
08CF0:  CLRF   xEF
08CF2:  MOVLB  0
08CF4:  CALL   4CF0
....................          displayContrasena(Contrasena[2],60,30,0);displayContrasena(Contrasena[0],80,30,0); 
08CF8:  MOVFF  508,5EC
08CFC:  MOVLW  3C
08CFE:  MOVLB  5
08D00:  MOVWF  xED
08D02:  MOVLW  1E
08D04:  MOVWF  xEE
08D06:  CLRF   xEF
08D08:  MOVLB  0
08D0A:  CALL   4CF0
08D0E:  MOVFF  506,5EC
08D12:  MOVLW  50
08D14:  MOVLB  5
08D16:  MOVWF  xED
08D18:  MOVLW  1E
08D1A:  MOVWF  xEE
08D1C:  CLRF   xEF
08D1E:  MOVLB  0
08D20:  CALL   4CF0
....................          n=1; 
08D24:  MOVLB  4
08D26:  BSF    x2E.5
....................       } 
....................       strcpy(Menus.Letra,"Clave Nueva"); 
08D28:  MOVLW  04
08D2A:  MOVWF  FEA
08D2C:  MOVLW  16
08D2E:  MOVWF  FE9
08D30:  MOVFF  FF2,5E2
08D34:  BCF    FF2.7
08D36:  MOVLW  00
08D38:  MOVLB  0
08D3A:  CALL   119C
08D3E:  TBLRD*-
08D40:  TBLRD*+
08D42:  MOVF   FF5,W
08D44:  MOVWF  FEE
08D46:  IORLW  00
08D48:  BNZ   8D40
08D4A:  MOVLB  5
08D4C:  BTFSC  xE2.7
08D4E:  BSF    FF2.7
....................       displayMenu(Menus.Letra,0,0,1,2); 
08D50:  MOVLW  04
08D52:  MOVWF  xEB
08D54:  MOVLW  16
08D56:  MOVWF  xEA
08D58:  CLRF   xEC
08D5A:  CLRF   xED
08D5C:  MOVLW  01
08D5E:  MOVWF  xEE
08D60:  MOVLW  02
08D62:  MOVWF  xEF
08D64:  MOVLB  0
08D66:  CALL   4DB4
....................          
....................        
....................       if(UP)//Si oprime hacia arriba 
08D6A:  BSF    F92.5
08D6C:  BTFSC  F80.5
08D6E:  BRA    8E48
....................       {  if(Flanco == 0)  
08D70:  MOVLB  4
08D72:  BTFSC  x2C.0
08D74:  BRA    8E46
....................             {Flanco = 1;delay_ms(30); 
08D76:  BSF    x2C.0
08D78:  MOVLW  1E
08D7A:  MOVLB  5
08D7C:  MOVWF  xF6
08D7E:  MOVLB  0
08D80:  CALL   1474
....................             for(i=1;i<=4;i++) 
08D84:  MOVLW  01
08D86:  MOVLB  5
08D88:  MOVWF  xD2
08D8A:  MOVF   xD2,W
08D8C:  SUBLW  04
08D8E:  BNC   8E44
....................                { 
....................                   if(unidad==i) 
08D90:  MOVF   xD2,W
08D92:  MOVLB  4
08D94:  SUBWF  xCD,W
08D96:  BNZ   8E0C
....................                   {Contrasena[i-1]++; 
08D98:  MOVLW  01
08D9A:  MOVLB  5
08D9C:  SUBWF  xD2,W
08D9E:  CLRF   03
08DA0:  ADDLW  06
08DA2:  MOVWF  FE9
08DA4:  MOVLW  05
08DA6:  ADDWFC 03,W
08DA8:  MOVWF  FEA
08DAA:  INCF   FEF,F
....................                   if(Contrasena[i-1]>9) 
08DAC:  MOVLW  01
08DAE:  SUBWF  xD2,W
08DB0:  CLRF   03
08DB2:  ADDLW  06
08DB4:  MOVWF  FE9
08DB6:  MOVLW  05
08DB8:  ADDWFC 03,W
08DBA:  MOVWF  FEA
08DBC:  BTFSC  FEF.7
08DBE:  BRA    8DD8
08DC0:  MOVF   FEF,W
08DC2:  SUBLW  09
08DC4:  BC    8DD8
....................                         {Contrasena[i-1]=0;} 
08DC6:  MOVLW  01
08DC8:  SUBWF  xD2,W
08DCA:  CLRF   03
08DCC:  ADDLW  06
08DCE:  MOVWF  FE9
08DD0:  MOVLW  05
08DD2:  ADDWFC 03,W
08DD4:  MOVWF  FEA
08DD6:  CLRF   FEF
....................                   displayContrasena(Contrasena[i-1],i*20,30,1);} 
08DD8:  MOVLW  01
08DDA:  SUBWF  xD2,W
08DDC:  CLRF   03
08DDE:  ADDLW  06
08DE0:  MOVWF  FE9
08DE2:  MOVLW  05
08DE4:  ADDWFC 03,W
08DE6:  MOVWF  FEA
08DE8:  MOVFF  FEF,5E2
08DEC:  MOVF   xD2,W
08DEE:  MULLW  14
08DF0:  MOVFF  FF3,5E3
08DF4:  MOVFF  5E2,5EC
08DF8:  MOVFF  5E3,5ED
08DFC:  MOVLW  1E
08DFE:  MOVWF  xEE
08E00:  MOVLW  01
08E02:  MOVWF  xEF
08E04:  MOVLB  0
08E06:  CALL   4CF0
....................                   else 
08E0A:  BRA    8E3E
....................                   {displayContrasena(Contrasena[i-1],i*20,30,0);} 
08E0C:  MOVLW  01
08E0E:  MOVLB  5
08E10:  SUBWF  xD2,W
08E12:  CLRF   03
08E14:  ADDLW  06
08E16:  MOVWF  FE9
08E18:  MOVLW  05
08E1A:  ADDWFC 03,W
08E1C:  MOVWF  FEA
08E1E:  MOVFF  FEF,5E2
08E22:  MOVF   xD2,W
08E24:  MULLW  14
08E26:  MOVFF  FF3,5E3
08E2A:  MOVFF  5E2,5EC
08E2E:  MOVFF  5E3,5ED
08E32:  MOVLW  1E
08E34:  MOVWF  xEE
08E36:  CLRF   xEF
08E38:  MOVLB  0
08E3A:  CALL   4CF0
....................                } 
08E3E:  MOVLB  5
08E40:  INCF   xD2,F
08E42:  BRA    8D8A
08E44:  MOVLB  4
....................             } 
....................       } 
....................          else 
08E46:  BRA    8E4C
....................             {Flanco = 0;} 
08E48:  MOVLB  4
08E4A:  BCF    x2C.0
....................              
....................       if(DOWN )//Si oprime hacia abajo 
08E4C:  BSF    F96.0
08E4E:  BTFSC  F84.0
08E50:  BRA    8F26
....................       {  if(Flanco2 == 0)  
08E52:  BTFSC  x2C.2
08E54:  BRA    8F24
....................             {Flanco2 = 1;delay_ms(30); 
08E56:  BSF    x2C.2
08E58:  MOVLW  1E
08E5A:  MOVLB  5
08E5C:  MOVWF  xF6
08E5E:  MOVLB  0
08E60:  CALL   1474
....................                for(i=1;i<=4;i++) 
08E64:  MOVLW  01
08E66:  MOVLB  5
08E68:  MOVWF  xD2
08E6A:  MOVF   xD2,W
08E6C:  SUBLW  04
08E6E:  BNC   8F22
....................                { 
....................                   if(unidad==i) 
08E70:  MOVF   xD2,W
08E72:  MOVLB  4
08E74:  SUBWF  xCD,W
08E76:  BNZ   8EEA
....................                   {Contrasena[i-1]--;  
08E78:  MOVLW  01
08E7A:  MOVLB  5
08E7C:  SUBWF  xD2,W
08E7E:  CLRF   03
08E80:  ADDLW  06
08E82:  MOVWF  FE9
08E84:  MOVLW  05
08E86:  ADDWFC 03,W
08E88:  MOVWF  FEA
08E8A:  DECF   FEF,F
....................                      if(Contrasena[i-1]<0) 
08E8C:  MOVLW  01
08E8E:  SUBWF  xD2,W
08E90:  CLRF   03
08E92:  ADDLW  06
08E94:  MOVWF  FE9
08E96:  MOVLW  05
08E98:  ADDWFC 03,W
08E9A:  MOVWF  FEA
08E9C:  BTFSC  FEF.7
08E9E:  BRA    8EA2
08EA0:  BRA    8EB6
....................                         {Contrasena[i-1]=9;} 
08EA2:  MOVLW  01
08EA4:  SUBWF  xD2,W
08EA6:  CLRF   03
08EA8:  ADDLW  06
08EAA:  MOVWF  FE9
08EAC:  MOVLW  05
08EAE:  ADDWFC 03,W
08EB0:  MOVWF  FEA
08EB2:  MOVLW  09
08EB4:  MOVWF  FEF
....................                    displayContrasena(Contrasena[i-1],i*20,30,1);} 
08EB6:  MOVLW  01
08EB8:  SUBWF  xD2,W
08EBA:  CLRF   03
08EBC:  ADDLW  06
08EBE:  MOVWF  FE9
08EC0:  MOVLW  05
08EC2:  ADDWFC 03,W
08EC4:  MOVWF  FEA
08EC6:  MOVFF  FEF,5E2
08ECA:  MOVF   xD2,W
08ECC:  MULLW  14
08ECE:  MOVFF  FF3,5E3
08ED2:  MOVFF  5E2,5EC
08ED6:  MOVFF  5E3,5ED
08EDA:  MOVLW  1E
08EDC:  MOVWF  xEE
08EDE:  MOVLW  01
08EE0:  MOVWF  xEF
08EE2:  MOVLB  0
08EE4:  CALL   4CF0
....................                   else 
08EE8:  BRA    8F1C
....................                   {displayContrasena(Contrasena[i-1],i*20,30,0);} 
08EEA:  MOVLW  01
08EEC:  MOVLB  5
08EEE:  SUBWF  xD2,W
08EF0:  CLRF   03
08EF2:  ADDLW  06
08EF4:  MOVWF  FE9
08EF6:  MOVLW  05
08EF8:  ADDWFC 03,W
08EFA:  MOVWF  FEA
08EFC:  MOVFF  FEF,5E2
08F00:  MOVF   xD2,W
08F02:  MULLW  14
08F04:  MOVFF  FF3,5E3
08F08:  MOVFF  5E2,5EC
08F0C:  MOVFF  5E3,5ED
08F10:  MOVLW  1E
08F12:  MOVWF  xEE
08F14:  CLRF   xEF
08F16:  MOVLB  0
08F18:  CALL   4CF0
....................                }       
08F1C:  MOVLB  5
08F1E:  INCF   xD2,F
08F20:  BRA    8E6A
08F22:  MOVLB  4
....................             }      
....................       } 
....................          else 
08F24:  BRA    8F28
....................             {Flanco2 = 0;}   
08F26:  BCF    x2C.2
....................              
....................       if(RIGHT)//Si oprime SET 
08F28:  BSF    F96.1
08F2A:  BTFSC  F84.1
08F2C:  BRA    8FCA
....................       {  if(Flanco1 == 0)  
08F2E:  BTFSC  x2C.1
08F30:  BRA    8FC8
....................             {Flanco1 = 1;delay_ms(30);unidad++; 
08F32:  BSF    x2C.1
08F34:  MOVLW  1E
08F36:  MOVLB  5
08F38:  MOVWF  xF6
08F3A:  MOVLB  0
08F3C:  CALL   1474
08F40:  MOVLB  4
08F42:  INCF   xCD,F
....................                for(i=1;i<=4;i++) 
08F44:  MOVLW  01
08F46:  MOVLB  5
08F48:  MOVWF  xD2
08F4A:  MOVF   xD2,W
08F4C:  SUBLW  04
08F4E:  BNC   8FC6
....................                { 
....................                   if(unidad==i) 
08F50:  MOVF   xD2,W
08F52:  MOVLB  4
08F54:  SUBWF  xCD,W
08F56:  BNZ   8F8E
....................                   {displayContrasena(Contrasena[i-1],i*20,30,1);} 
08F58:  MOVLW  01
08F5A:  MOVLB  5
08F5C:  SUBWF  xD2,W
08F5E:  CLRF   03
08F60:  ADDLW  06
08F62:  MOVWF  FE9
08F64:  MOVLW  05
08F66:  ADDWFC 03,W
08F68:  MOVWF  FEA
08F6A:  MOVFF  FEF,5E2
08F6E:  MOVF   xD2,W
08F70:  MULLW  14
08F72:  MOVFF  FF3,5E3
08F76:  MOVFF  5E2,5EC
08F7A:  MOVFF  5E3,5ED
08F7E:  MOVLW  1E
08F80:  MOVWF  xEE
08F82:  MOVLW  01
08F84:  MOVWF  xEF
08F86:  MOVLB  0
08F88:  CALL   4CF0
....................                   else 
08F8C:  BRA    8FC0
....................                   {displayContrasena(Contrasena[i-1],i*20,30,0);} 
08F8E:  MOVLW  01
08F90:  MOVLB  5
08F92:  SUBWF  xD2,W
08F94:  CLRF   03
08F96:  ADDLW  06
08F98:  MOVWF  FE9
08F9A:  MOVLW  05
08F9C:  ADDWFC 03,W
08F9E:  MOVWF  FEA
08FA0:  MOVFF  FEF,5E2
08FA4:  MOVF   xD2,W
08FA6:  MULLW  14
08FA8:  MOVFF  FF3,5E3
08FAC:  MOVFF  5E2,5EC
08FB0:  MOVFF  5E3,5ED
08FB4:  MOVLW  1E
08FB6:  MOVWF  xEE
08FB8:  CLRF   xEF
08FBA:  MOVLB  0
08FBC:  CALL   4CF0
....................                } 
08FC0:  MOVLB  5
08FC2:  INCF   xD2,F
08FC4:  BRA    8F4A
08FC6:  MOVLB  4
....................             } 
....................       } 
....................          else 
08FC8:  BRA    8FCC
....................             {Flanco1 = 0;}   
08FCA:  BCF    x2C.1
....................              
....................       if(LEFT)//Si oprime boton de Toma. 
08FCC:  BSF    F96.2
08FCE:  BTFSC  F84.2
08FD0:  BRA    9010
....................       { 
....................          
....................          delay_ms(700); 
08FD2:  MOVLW  04
08FD4:  MOVLB  5
08FD6:  MOVWF  xE2
08FD8:  MOVLW  AF
08FDA:  MOVWF  xF6
08FDC:  MOVLB  0
08FDE:  CALL   1474
08FE2:  MOVLB  5
08FE4:  DECFSZ xE2,F
08FE6:  BRA    8FD8
....................          if(unidad==1){ 
08FE8:  MOVLB  4
08FEA:  DECFSZ xCD,W
08FEC:  BRA    9010
....................             Menu=3;glcd_fillscreen(OFF);Opcion=1;unidad=1;Contrasena[0]=0;Contrasena[1]=0;Contrasena[2]=0;Contrasena[3]=0; 
08FEE:  MOVLW  03
08FF0:  MOVWF  xCC
08FF2:  MOVLB  5
08FF4:  CLRF   xEA
08FF6:  MOVLB  0
08FF8:  CALL   1554
08FFC:  MOVLW  01
08FFE:  MOVLB  4
09000:  MOVWF  xCE
09002:  MOVWF  xCD
09004:  MOVLB  5
09006:  CLRF   x06
09008:  CLRF   x07
0900A:  CLRF   x08
0900C:  CLRF   x09
0900E:  MOVLB  4
....................          } 
....................       } 
....................        
....................       if(unidad>4) 
09010:  MOVF   xCD,W
09012:  SUBLW  04
09014:  BTFSC  FD8.0
09016:  BRA    9164
....................       { 
....................          Opcion=1;glcd_fillscreen(OFF);unidad=1;n=0; 
09018:  MOVLW  01
0901A:  MOVWF  xCE
0901C:  MOVLB  5
0901E:  CLRF   xEA
09020:  MOVLB  0
09022:  CALL   1554
09026:  MOVLW  01
09028:  MOVLB  4
0902A:  MOVWF  xCD
0902C:  BCF    x2E.5
....................          Password[0]=Contrasena[0];Password[1]=Contrasena[1];Password[2]=Contrasena[2];Password[3]=Contrasena[3]; 
0902E:  MOVFF  506,50A
09032:  MOVFF  507,50B
09036:  MOVFF  508,50C
0903A:  MOVFF  509,50D
....................          write_eeprom(0,Password[0]); 
0903E:  CLRF   FAA
09040:  CLRF   FA9
09042:  MOVFF  50A,FA8
09046:  BCF    FA6.6
09048:  BCF    FA6.7
0904A:  BSF    FA6.2
0904C:  MOVF   FF2,W
0904E:  MOVWF  00
09050:  BCF    FF2.7
09052:  MOVLB  F
09054:  MOVLW  55
09056:  MOVWF  FA7
09058:  MOVLW  AA
0905A:  MOVWF  FA7
0905C:  BSF    FA6.1
0905E:  BTFSC  FA6.1
09060:  BRA    905E
09062:  BCF    FA6.2
09064:  MOVF   00,W
09066:  IORWF  FF2,F
....................          delay_ms(20); 
09068:  MOVLW  14
0906A:  MOVLB  5
0906C:  MOVWF  xF6
0906E:  MOVLB  0
09070:  CALL   1474
....................          write_eeprom(1,Password[1]); 
09074:  CLRF   FAA
09076:  MOVLW  01
09078:  MOVWF  FA9
0907A:  MOVFF  50B,FA8
0907E:  BCF    FA6.6
09080:  BCF    FA6.7
09082:  BSF    FA6.2
09084:  MOVF   FF2,W
09086:  MOVWF  00
09088:  BCF    FF2.7
0908A:  MOVLB  F
0908C:  MOVLW  55
0908E:  MOVWF  FA7
09090:  MOVLW  AA
09092:  MOVWF  FA7
09094:  BSF    FA6.1
09096:  BTFSC  FA6.1
09098:  BRA    9096
0909A:  BCF    FA6.2
0909C:  MOVF   00,W
0909E:  IORWF  FF2,F
....................          delay_ms(20); 
090A0:  MOVLW  14
090A2:  MOVLB  5
090A4:  MOVWF  xF6
090A6:  MOVLB  0
090A8:  CALL   1474
....................          write_eeprom(2,Password[2]); 
090AC:  CLRF   FAA
090AE:  MOVLW  02
090B0:  MOVWF  FA9
090B2:  MOVFF  50C,FA8
090B6:  BCF    FA6.6
090B8:  BCF    FA6.7
090BA:  BSF    FA6.2
090BC:  MOVF   FF2,W
090BE:  MOVWF  00
090C0:  BCF    FF2.7
090C2:  MOVLB  F
090C4:  MOVLW  55
090C6:  MOVWF  FA7
090C8:  MOVLW  AA
090CA:  MOVWF  FA7
090CC:  BSF    FA6.1
090CE:  BTFSC  FA6.1
090D0:  BRA    90CE
090D2:  BCF    FA6.2
090D4:  MOVF   00,W
090D6:  IORWF  FF2,F
....................          delay_ms(20); 
090D8:  MOVLW  14
090DA:  MOVLB  5
090DC:  MOVWF  xF6
090DE:  MOVLB  0
090E0:  CALL   1474
....................          write_eeprom(3,Password[3]); 
090E4:  CLRF   FAA
090E6:  MOVLW  03
090E8:  MOVWF  FA9
090EA:  MOVFF  50D,FA8
090EE:  BCF    FA6.6
090F0:  BCF    FA6.7
090F2:  BSF    FA6.2
090F4:  MOVF   FF2,W
090F6:  MOVWF  00
090F8:  BCF    FF2.7
090FA:  MOVLB  F
090FC:  MOVLW  55
090FE:  MOVWF  FA7
09100:  MOVLW  AA
09102:  MOVWF  FA7
09104:  BSF    FA6.1
09106:  BTFSC  FA6.1
09108:  BRA    9106
0910A:  BCF    FA6.2
0910C:  MOVF   00,W
0910E:  IORWF  FF2,F
....................          delay_ms(20); 
09110:  MOVLW  14
09112:  MOVLB  5
09114:  MOVWF  xF6
09116:  MOVLB  0
09118:  CALL   1474
....................          glcd_imagen(1);glcd_update();Menu=211;delay_ms(1000);glcd_fillScreen(OFF);Menu=3; 
0911C:  MOVLW  01
0911E:  MOVLB  5
09120:  MOVWF  xE2
09122:  MOVLB  0
09124:  CALL   5D36
09128:  CALL   15AE
0912C:  MOVLW  D3
0912E:  MOVLB  4
09130:  MOVWF  xCC
09132:  MOVLW  04
09134:  MOVLB  5
09136:  MOVWF  xE2
09138:  MOVLW  FA
0913A:  MOVWF  xF6
0913C:  MOVLB  0
0913E:  CALL   1474
09142:  MOVLB  5
09144:  DECFSZ xE2,F
09146:  BRA    9138
09148:  CLRF   xEA
0914A:  MOVLB  0
0914C:  CALL   1554
09150:  MOVLW  03
09152:  MOVLB  4
09154:  MOVWF  xCC
....................          n=0; 
09156:  BCF    x2E.5
....................          Contrasena[0]=0;Contrasena[1]=0;Contrasena[2]=0;Contrasena[3]=0; 
09158:  MOVLB  5
0915A:  CLRF   x06
0915C:  CLRF   x07
0915E:  CLRF   x08
09160:  CLRF   x09
09162:  MOVLB  4
....................       } 
....................      
....................     } 
.................... //_--------------------------------------------------------------------------------------------------------------------------------------------------------        
....................  
.................... //_-------------------------------------------------------------------------------------------------------------------------------------------------------- 
....................       if(Menu==31){ //Menu de Mantenimiento. 
09164:  MOVF   xCC,W
09166:  SUBLW  1F
09168:  BTFSS  FD8.2
0916A:  BRA    9590
....................        
....................          strcpy(Menus.Letra,"Manteniento"); 
0916C:  MOVLW  04
0916E:  MOVWF  FEA
09170:  MOVLW  16
09172:  MOVWF  FE9
09174:  MOVFF  FF2,5E2
09178:  BCF    FF2.7
0917A:  MOVLW  00
0917C:  MOVLB  0
0917E:  CALL   11C2
09182:  TBLRD*-
09184:  TBLRD*+
09186:  MOVF   FF5,W
09188:  MOVWF  FEE
0918A:  IORLW  00
0918C:  BNZ   9184
0918E:  MOVLB  5
09190:  BTFSC  xE2.7
09192:  BSF    FF2.7
....................          displayMenu(Menus.Letra,0,0,1,2); 
09194:  MOVLW  04
09196:  MOVWF  xEB
09198:  MOVLW  16
0919A:  MOVWF  xEA
0919C:  CLRF   xEC
0919E:  CLRF   xED
091A0:  MOVLW  01
091A2:  MOVWF  xEE
091A4:  MOVLW  02
091A6:  MOVWF  xEF
091A8:  MOVLB  0
091AA:  CALL   4DB4
....................           
....................          strcpy(Menus.Letra,"Trabajo Filtro(h):"); 
091AE:  MOVLW  04
091B0:  MOVWF  FEA
091B2:  MOVLW  16
091B4:  MOVWF  FE9
091B6:  MOVFF  FF2,5E2
091BA:  BCF    FF2.7
091BC:  MOVLW  00
091BE:  CALL   11E8
091C2:  TBLRD*-
091C4:  TBLRD*+
091C6:  MOVF   FF5,W
091C8:  MOVWF  FEE
091CA:  IORLW  00
091CC:  BNZ   91C4
091CE:  MOVLB  5
091D0:  BTFSC  xE2.7
091D2:  BSF    FF2.7
....................          displayMenu(Menus.Letra,10,20,1,1); 
091D4:  MOVLW  04
091D6:  MOVWF  xEB
091D8:  MOVLW  16
091DA:  MOVWF  xEA
091DC:  MOVLW  0A
091DE:  MOVWF  xEC
091E0:  MOVLW  14
091E2:  MOVWF  xED
091E4:  MOVLW  01
091E6:  MOVWF  xEE
091E8:  MOVWF  xEF
091EA:  MOVLB  0
091EC:  CALL   4DB4
....................          glcd_text57(0, 31, Vida_Filtro, 1, ON); 
091F0:  MOVLB  5
091F2:  CLRF   xFB
091F4:  MOVLW  1F
091F6:  MOVWF  xFC
091F8:  MOVLW  04
091FA:  MOVWF  xFE
091FC:  MOVLW  92
091FE:  MOVWF  xFD
09200:  MOVLW  01
09202:  MOVWF  xFF
09204:  MOVLB  6
09206:  MOVWF  x00
09208:  MOVLB  0
0920A:  CALL   17CA
....................          displayTiempo(Ttrabajo[3],60,30,0,1);displayTiempo(Ttrabajo[2],67,30,0,1);displayTiempo(Ttrabajo[1],74,30,0,1);displayTiempo(Ttrabajo[0],82,30,0,1); 
0920E:  MOVFF  505,5E2
09212:  MOVLW  3C
09214:  MOVLB  5
09216:  MOVWF  xE3
09218:  MOVLW  1E
0921A:  MOVWF  xE4
0921C:  CLRF   xE5
0921E:  MOVLW  01
09220:  MOVWF  xE6
09222:  MOVLB  0
09224:  CALL   5572
09228:  MOVFF  504,5E2
0922C:  MOVLW  43
0922E:  MOVLB  5
09230:  MOVWF  xE3
09232:  MOVLW  1E
09234:  MOVWF  xE4
09236:  CLRF   xE5
09238:  MOVLW  01
0923A:  MOVWF  xE6
0923C:  MOVLB  0
0923E:  CALL   5572
09242:  MOVFF  503,5E2
09246:  MOVLW  4A
09248:  MOVLB  5
0924A:  MOVWF  xE3
0924C:  MOVLW  1E
0924E:  MOVWF  xE4
09250:  CLRF   xE5
09252:  MOVLW  01
09254:  MOVWF  xE6
09256:  MOVLB  0
09258:  CALL   5572
0925C:  MOVFF  502,5E2
09260:  MOVLW  52
09262:  MOVLB  5
09264:  MOVWF  xE3
09266:  MOVLW  1E
09268:  MOVWF  xE4
0926A:  CLRF   xE5
0926C:  MOVLW  01
0926E:  MOVWF  xE6
09270:  MOVLB  0
09272:  CALL   5572
....................           
....................          strcpy(Menus.Letra,"Trabajo Luz UV(h):"); 
09276:  MOVLW  04
09278:  MOVWF  FEA
0927A:  MOVLW  16
0927C:  MOVWF  FE9
0927E:  MOVFF  FF2,5E2
09282:  BCF    FF2.7
09284:  MOVLW  00
09286:  CALL   1216
0928A:  TBLRD*-
0928C:  TBLRD*+
0928E:  MOVF   FF5,W
09290:  MOVWF  FEE
09292:  IORLW  00
09294:  BNZ   928C
09296:  MOVLB  5
09298:  BTFSC  xE2.7
0929A:  BSF    FF2.7
....................          displayMenu(Menus.Letra,0,40,1,1); 
0929C:  MOVLW  04
0929E:  MOVWF  xEB
092A0:  MOVLW  16
092A2:  MOVWF  xEA
092A4:  CLRF   xEC
092A6:  MOVLW  28
092A8:  MOVWF  xED
092AA:  MOVLW  01
092AC:  MOVWF  xEE
092AE:  MOVWF  xEF
092B0:  MOVLB  0
092B2:  CALL   4DB4
....................          glcd_text57(0, 53, Vida_UV, 1, ON); 
092B6:  MOVLB  5
092B8:  CLRF   xFB
092BA:  MOVLW  35
092BC:  MOVWF  xFC
092BE:  MOVLW  04
092C0:  MOVWF  xFE
092C2:  MOVLW  C4
092C4:  MOVWF  xFD
092C6:  MOVLW  01
092C8:  MOVWF  xFF
092CA:  MOVLB  6
092CC:  MOVWF  x00
092CE:  MOVLB  0
092D0:  CALL   17CA
....................          displayTiempo(Tuv[3],60,52,0,1);displayTiempo(Tuv[2],67,52,0,1);displayTiempo(Tuv[1],74,52,0,1);displayTiempo(Tuv[0],82,52,0,1);                  
092D4:  MOVFF  4F9,5E2
092D8:  MOVLW  3C
092DA:  MOVLB  5
092DC:  MOVWF  xE3
092DE:  MOVLW  34
092E0:  MOVWF  xE4
092E2:  CLRF   xE5
092E4:  MOVLW  01
092E6:  MOVWF  xE6
092E8:  MOVLB  0
092EA:  CALL   5572
092EE:  MOVFF  4F8,5E2
092F2:  MOVLW  43
092F4:  MOVLB  5
092F6:  MOVWF  xE3
092F8:  MOVLW  34
092FA:  MOVWF  xE4
092FC:  CLRF   xE5
092FE:  MOVLW  01
09300:  MOVWF  xE6
09302:  MOVLB  0
09304:  CALL   5572
09308:  MOVFF  4F7,5E2
0930C:  MOVLW  4A
0930E:  MOVLB  5
09310:  MOVWF  xE3
09312:  MOVLW  34
09314:  MOVWF  xE4
09316:  CLRF   xE5
09318:  MOVLW  01
0931A:  MOVWF  xE6
0931C:  MOVLB  0
0931E:  CALL   5572
09322:  MOVFF  4F6,5E2
09326:  MOVLW  52
09328:  MOVLB  5
0932A:  MOVWF  xE3
0932C:  MOVLW  34
0932E:  MOVWF  xE4
09330:  CLRF   xE5
09332:  MOVLW  01
09334:  MOVWF  xE6
09336:  MOVLB  0
09338:  CALL   5572
....................           
....................          LuzBlanca_on; 
0933C:  BSF    F8B.0
0933E:  BCF    F94.0
....................           
....................             if(UP && RIGHT) // Reinicia Tiempo de Luz UV 
09340:  BSF    F92.5
09342:  BTFSC  F80.5
09344:  BRA    9456
09346:  BSF    F96.1
09348:  BTFSC  F84.1
0934A:  BRA    9456
....................             { 
....................                   delay_ms(2000); 
0934C:  MOVLW  08
0934E:  MOVLB  5
09350:  MOVWF  xE2
09352:  MOVLW  FA
09354:  MOVWF  xF6
09356:  MOVLB  0
09358:  CALL   1474
0935C:  MOVLB  5
0935E:  DECFSZ xE2,F
09360:  BRA    9352
....................                   write_eeprom(12,0); 
09362:  CLRF   FAA
09364:  MOVLW  0C
09366:  MOVWF  FA9
09368:  CLRF   FA8
0936A:  BCF    FA6.6
0936C:  BCF    FA6.7
0936E:  BSF    FA6.2
09370:  MOVF   FF2,W
09372:  MOVWF  00
09374:  BCF    FF2.7
09376:  MOVLB  F
09378:  MOVLW  55
0937A:  MOVWF  FA7
0937C:  MOVLW  AA
0937E:  MOVWF  FA7
09380:  BSF    FA6.1
09382:  BTFSC  FA6.1
09384:  BRA    9382
09386:  BCF    FA6.2
09388:  MOVF   00,W
0938A:  IORWF  FF2,F
....................                   delay_ms(20); 
0938C:  MOVLW  14
0938E:  MOVLB  5
09390:  MOVWF  xF6
09392:  MOVLB  0
09394:  CALL   1474
....................                   write_eeprom(13,0); 
09398:  CLRF   FAA
0939A:  MOVLW  0D
0939C:  MOVWF  FA9
0939E:  CLRF   FA8
093A0:  BCF    FA6.6
093A2:  BCF    FA6.7
093A4:  BSF    FA6.2
093A6:  MOVF   FF2,W
093A8:  MOVWF  00
093AA:  BCF    FF2.7
093AC:  MOVLB  F
093AE:  MOVLW  55
093B0:  MOVWF  FA7
093B2:  MOVLW  AA
093B4:  MOVWF  FA7
093B6:  BSF    FA6.1
093B8:  BTFSC  FA6.1
093BA:  BRA    93B8
093BC:  BCF    FA6.2
093BE:  MOVF   00,W
093C0:  IORWF  FF2,F
....................                   delay_ms(20); 
093C2:  MOVLW  14
093C4:  MOVLB  5
093C6:  MOVWF  xF6
093C8:  MOVLB  0
093CA:  CALL   1474
....................                   write_eeprom(14,0); 
093CE:  CLRF   FAA
093D0:  MOVLW  0E
093D2:  MOVWF  FA9
093D4:  CLRF   FA8
093D6:  BCF    FA6.6
093D8:  BCF    FA6.7
093DA:  BSF    FA6.2
093DC:  MOVF   FF2,W
093DE:  MOVWF  00
093E0:  BCF    FF2.7
093E2:  MOVLB  F
093E4:  MOVLW  55
093E6:  MOVWF  FA7
093E8:  MOVLW  AA
093EA:  MOVWF  FA7
093EC:  BSF    FA6.1
093EE:  BTFSC  FA6.1
093F0:  BRA    93EE
093F2:  BCF    FA6.2
093F4:  MOVF   00,W
093F6:  IORWF  FF2,F
....................                   delay_ms(20); 
093F8:  MOVLW  14
093FA:  MOVLB  5
093FC:  MOVWF  xF6
093FE:  MOVLB  0
09400:  CALL   1474
....................                   write_eeprom(15,0); 
09404:  CLRF   FAA
09406:  MOVLW  0F
09408:  MOVWF  FA9
0940A:  CLRF   FA8
0940C:  BCF    FA6.6
0940E:  BCF    FA6.7
09410:  BSF    FA6.2
09412:  MOVF   FF2,W
09414:  MOVWF  00
09416:  BCF    FF2.7
09418:  MOVLB  F
0941A:  MOVLW  55
0941C:  MOVWF  FA7
0941E:  MOVLW  AA
09420:  MOVWF  FA7
09422:  BSF    FA6.1
09424:  BTFSC  FA6.1
09426:  BRA    9424
09428:  BCF    FA6.2
0942A:  MOVF   00,W
0942C:  IORWF  FF2,F
....................                   delay_ms(20); 
0942E:  MOVLW  14
09430:  MOVLB  5
09432:  MOVWF  xF6
09434:  MOVLB  0
09436:  CALL   1474
....................                   Tuv[3]=0;Tuv[2]=0;Tuv[1]=0;Tuv[0]=0; 
0943A:  MOVLB  4
0943C:  CLRF   xF9
0943E:  CLRF   xF8
09440:  CLRF   xF7
09442:  CLRF   xF6
....................                   Menu=3;glcd_fillscreen(OFF);LuzBlanca_off; 
09444:  MOVLW  03
09446:  MOVWF  xCC
09448:  MOVLB  5
0944A:  CLRF   xEA
0944C:  MOVLB  0
0944E:  CALL   1554
09452:  BCF    F8B.0
09454:  BCF    F94.0
....................                 
....................             } 
....................             if(DOWN && RIGHT) // Reinicia Tiempo de Trabajo 
09456:  BSF    F96.0
09458:  BTFSC  F84.0
0945A:  BRA    956E
0945C:  BSF    F96.1
0945E:  BTFSC  F84.1
09460:  BRA    956E
....................             { 
....................                   delay_ms(2000); 
09462:  MOVLW  08
09464:  MOVLB  5
09466:  MOVWF  xE2
09468:  MOVLW  FA
0946A:  MOVWF  xF6
0946C:  MOVLB  0
0946E:  CALL   1474
09472:  MOVLB  5
09474:  DECFSZ xE2,F
09476:  BRA    9468
....................                   write_eeprom(16,0); 
09478:  CLRF   FAA
0947A:  MOVLW  10
0947C:  MOVWF  FA9
0947E:  CLRF   FA8
09480:  BCF    FA6.6
09482:  BCF    FA6.7
09484:  BSF    FA6.2
09486:  MOVF   FF2,W
09488:  MOVWF  00
0948A:  BCF    FF2.7
0948C:  MOVLB  F
0948E:  MOVLW  55
09490:  MOVWF  FA7
09492:  MOVLW  AA
09494:  MOVWF  FA7
09496:  BSF    FA6.1
09498:  BTFSC  FA6.1
0949A:  BRA    9498
0949C:  BCF    FA6.2
0949E:  MOVF   00,W
094A0:  IORWF  FF2,F
....................                   delay_ms(20); 
094A2:  MOVLW  14
094A4:  MOVLB  5
094A6:  MOVWF  xF6
094A8:  MOVLB  0
094AA:  CALL   1474
....................                   write_eeprom(17,0); 
094AE:  CLRF   FAA
094B0:  MOVLW  11
094B2:  MOVWF  FA9
094B4:  CLRF   FA8
094B6:  BCF    FA6.6
094B8:  BCF    FA6.7
094BA:  BSF    FA6.2
094BC:  MOVF   FF2,W
094BE:  MOVWF  00
094C0:  BCF    FF2.7
094C2:  MOVLB  F
094C4:  MOVLW  55
094C6:  MOVWF  FA7
094C8:  MOVLW  AA
094CA:  MOVWF  FA7
094CC:  BSF    FA6.1
094CE:  BTFSC  FA6.1
094D0:  BRA    94CE
094D2:  BCF    FA6.2
094D4:  MOVF   00,W
094D6:  IORWF  FF2,F
....................                   delay_ms(20); 
094D8:  MOVLW  14
094DA:  MOVLB  5
094DC:  MOVWF  xF6
094DE:  MOVLB  0
094E0:  CALL   1474
....................                   write_eeprom(18,0); 
094E4:  CLRF   FAA
094E6:  MOVLW  12
094E8:  MOVWF  FA9
094EA:  CLRF   FA8
094EC:  BCF    FA6.6
094EE:  BCF    FA6.7
094F0:  BSF    FA6.2
094F2:  MOVF   FF2,W
094F4:  MOVWF  00
094F6:  BCF    FF2.7
094F8:  MOVLB  F
094FA:  MOVLW  55
094FC:  MOVWF  FA7
094FE:  MOVLW  AA
09500:  MOVWF  FA7
09502:  BSF    FA6.1
09504:  BTFSC  FA6.1
09506:  BRA    9504
09508:  BCF    FA6.2
0950A:  MOVF   00,W
0950C:  IORWF  FF2,F
....................                   delay_ms(20); 
0950E:  MOVLW  14
09510:  MOVLB  5
09512:  MOVWF  xF6
09514:  MOVLB  0
09516:  CALL   1474
....................                   write_eeprom(19,0); 
0951A:  CLRF   FAA
0951C:  MOVLW  13
0951E:  MOVWF  FA9
09520:  CLRF   FA8
09522:  BCF    FA6.6
09524:  BCF    FA6.7
09526:  BSF    FA6.2
09528:  MOVF   FF2,W
0952A:  MOVWF  00
0952C:  BCF    FF2.7
0952E:  MOVLB  F
09530:  MOVLW  55
09532:  MOVWF  FA7
09534:  MOVLW  AA
09536:  MOVWF  FA7
09538:  BSF    FA6.1
0953A:  BTFSC  FA6.1
0953C:  BRA    953A
0953E:  BCF    FA6.2
09540:  MOVF   00,W
09542:  IORWF  FF2,F
....................                   delay_ms(20); 
09544:  MOVLW  14
09546:  MOVLB  5
09548:  MOVWF  xF6
0954A:  MOVLB  0
0954C:  CALL   1474
....................                   Ttrabajo[3]=0;Ttrabajo[2]=0;Ttrabajo[1]=0;Ttrabajo[0]=0; 
09550:  MOVLB  5
09552:  CLRF   x05
09554:  CLRF   x04
09556:  CLRF   x03
09558:  CLRF   x02
....................                   Menu=3;glcd_fillscreen(OFF);LuzBlanca_off; 
0955A:  MOVLW  03
0955C:  MOVLB  4
0955E:  MOVWF  xCC
09560:  MOVLB  5
09562:  CLRF   xEA
09564:  MOVLB  0
09566:  CALL   1554
0956A:  BCF    F8B.0
0956C:  BCF    F94.0
....................             } 
....................              
....................             if(LEFT) 
0956E:  BSF    F96.2
09570:  BTFSC  F84.2
09572:  BRA    9592
....................             { 
....................                Menu=6;glcd_fillscreen(OFF);LuzBlanca_off;Opcion=1;unidad=1; 
09574:  MOVLW  06
09576:  MOVLB  4
09578:  MOVWF  xCC
0957A:  MOVLB  5
0957C:  CLRF   xEA
0957E:  MOVLB  0
09580:  CALL   1554
09584:  BCF    F8B.0
09586:  BCF    F94.0
09588:  MOVLW  01
0958A:  MOVLB  4
0958C:  MOVWF  xCE
0958E:  MOVWF  xCD
09590:  MOVLB  0
....................             } 
....................     } 
.................... //_--------------------------------------------------------------------------------------------------------------------------------------------------------        
....................  
.................... //_-------------------------------------------------------------------------------------------------------------------------------------------------------- 
....................       if(Menu==32){ //Menu de Servicio 
09592:  MOVLB  4
09594:  MOVF   xCC,W
09596:  SUBLW  20
09598:  BTFSS  FD8.2
0959A:  BRA    98B2
....................        
....................       strcpy(Menus.Letra,"Servicio"); 
0959C:  MOVLW  04
0959E:  MOVWF  FEA
095A0:  MOVLW  16
095A2:  MOVWF  FE9
095A4:  MOVFF  FF2,5E2
095A8:  BCF    FF2.7
095AA:  MOVLW  00
095AC:  MOVLB  0
095AE:  CALL   1134
095B2:  TBLRD*-
095B4:  TBLRD*+
095B6:  MOVF   FF5,W
095B8:  MOVWF  FEE
095BA:  IORLW  00
095BC:  BNZ   95B4
095BE:  MOVLB  5
095C0:  BTFSC  xE2.7
095C2:  BSF    FF2.7
....................       displayMenu(Menus.Letra,10,0,1,2); 
095C4:  MOVLW  04
095C6:  MOVWF  xEB
095C8:  MOVLW  16
095CA:  MOVWF  xEA
095CC:  MOVLW  0A
095CE:  MOVWF  xEC
095D0:  CLRF   xED
095D2:  MOVLW  01
095D4:  MOVWF  xEE
095D6:  MOVLW  02
095D8:  MOVWF  xEF
095DA:  MOVLB  0
095DC:  CALL   4DB4
....................        
....................       if(Opcion==1)    
095E0:  MOVLB  4
095E2:  DECFSZ xCE,W
095E4:  BRA    962C
....................          {strcpy(Menus.Letra,"Sensor de Flujo"); 
095E6:  MOVLW  04
095E8:  MOVWF  FEA
095EA:  MOVLW  16
095EC:  MOVWF  FE9
095EE:  MOVFF  FF2,5E2
095F2:  BCF    FF2.7
095F4:  MOVLW  00
095F6:  MOVLB  0
095F8:  CALL   1244
095FC:  TBLRD*-
095FE:  TBLRD*+
09600:  MOVF   FF5,W
09602:  MOVWF  FEE
09604:  IORLW  00
09606:  BNZ   95FE
09608:  MOVLB  5
0960A:  BTFSC  xE2.7
0960C:  BSF    FF2.7
....................          displayMenu(Menus.Letra,0,18,1,1);} 
0960E:  MOVLW  04
09610:  MOVWF  xEB
09612:  MOVLW  16
09614:  MOVWF  xEA
09616:  CLRF   xEC
09618:  MOVLW  12
0961A:  MOVWF  xED
0961C:  MOVLW  01
0961E:  MOVWF  xEE
09620:  MOVWF  xEF
09622:  MOVLB  0
09624:  CALL   4DB4
....................       else 
09628:  BRA    966E
0962A:  MOVLB  4
....................          {strcpy(Menus.Letra,"Sensor de Flujo"); 
0962C:  MOVLW  04
0962E:  MOVWF  FEA
09630:  MOVLW  16
09632:  MOVWF  FE9
09634:  MOVFF  FF2,5E2
09638:  BCF    FF2.7
0963A:  MOVLW  00
0963C:  MOVLB  0
0963E:  CALL   1244
09642:  TBLRD*-
09644:  TBLRD*+
09646:  MOVF   FF5,W
09648:  MOVWF  FEE
0964A:  IORLW  00
0964C:  BNZ   9644
0964E:  MOVLB  5
09650:  BTFSC  xE2.7
09652:  BSF    FF2.7
....................          displayMenu(Menus.Letra,0,18,0,1);}  
09654:  MOVLW  04
09656:  MOVWF  xEB
09658:  MOVLW  16
0965A:  MOVWF  xEA
0965C:  CLRF   xEC
0965E:  MOVLW  12
09660:  MOVWF  xED
09662:  CLRF   xEE
09664:  MOVLW  01
09666:  MOVWF  xEF
09668:  MOVLB  0
0966A:  CALL   4DB4
....................           
....................       if(Opcion==2)    
0966E:  MOVLB  4
09670:  MOVF   xCE,W
09672:  SUBLW  02
09674:  BNZ   96BC
....................          {strcpy(Menus.Letra,"Sensor de Presion"); 
09676:  MOVLW  04
09678:  MOVWF  FEA
0967A:  MOVLW  16
0967C:  MOVWF  FE9
0967E:  MOVFF  FF2,5E2
09682:  BCF    FF2.7
09684:  MOVLW  00
09686:  MOVLB  0
09688:  CALL   126E
0968C:  TBLRD*-
0968E:  TBLRD*+
09690:  MOVF   FF5,W
09692:  MOVWF  FEE
09694:  IORLW  00
09696:  BNZ   968E
09698:  MOVLB  5
0969A:  BTFSC  xE2.7
0969C:  BSF    FF2.7
....................          displayMenu(Menus.Letra,0,29,1,1);} 
0969E:  MOVLW  04
096A0:  MOVWF  xEB
096A2:  MOVLW  16
096A4:  MOVWF  xEA
096A6:  CLRF   xEC
096A8:  MOVLW  1D
096AA:  MOVWF  xED
096AC:  MOVLW  01
096AE:  MOVWF  xEE
096B0:  MOVWF  xEF
096B2:  MOVLB  0
096B4:  CALL   4DB4
....................       else 
096B8:  BRA    96FE
096BA:  MOVLB  4
....................          {strcpy(Menus.Letra,"Sensor de Presion"); 
096BC:  MOVLW  04
096BE:  MOVWF  FEA
096C0:  MOVLW  16
096C2:  MOVWF  FE9
096C4:  MOVFF  FF2,5E2
096C8:  BCF    FF2.7
096CA:  MOVLW  00
096CC:  MOVLB  0
096CE:  CALL   126E
096D2:  TBLRD*-
096D4:  TBLRD*+
096D6:  MOVF   FF5,W
096D8:  MOVWF  FEE
096DA:  IORLW  00
096DC:  BNZ   96D4
096DE:  MOVLB  5
096E0:  BTFSC  xE2.7
096E2:  BSF    FF2.7
....................          displayMenu(Menus.Letra,0,29,0,1);}   
096E4:  MOVLW  04
096E6:  MOVWF  xEB
096E8:  MOVLW  16
096EA:  MOVWF  xEA
096EC:  CLRF   xEC
096EE:  MOVLW  1D
096F0:  MOVWF  xED
096F2:  CLRF   xEE
096F4:  MOVLW  01
096F6:  MOVWF  xEF
096F8:  MOVLB  0
096FA:  CALL   4DB4
....................        
....................       if(Opcion==3)    
096FE:  MOVLB  4
09700:  MOVF   xCE,W
09702:  SUBLW  03
09704:  BNZ   974C
....................          {strcpy(Menus.Letra,"Velocidad Ventilador"); 
09706:  MOVLW  04
09708:  MOVWF  FEA
0970A:  MOVLW  16
0970C:  MOVWF  FE9
0970E:  MOVFF  FF2,5E2
09712:  BCF    FF2.7
09714:  MOVLW  00
09716:  MOVLB  0
09718:  CALL   129A
0971C:  TBLRD*-
0971E:  TBLRD*+
09720:  MOVF   FF5,W
09722:  MOVWF  FEE
09724:  IORLW  00
09726:  BNZ   971E
09728:  MOVLB  5
0972A:  BTFSC  xE2.7
0972C:  BSF    FF2.7
....................          displayMenu(Menus.Letra,0,40,1,1);} 
0972E:  MOVLW  04
09730:  MOVWF  xEB
09732:  MOVLW  16
09734:  MOVWF  xEA
09736:  CLRF   xEC
09738:  MOVLW  28
0973A:  MOVWF  xED
0973C:  MOVLW  01
0973E:  MOVWF  xEE
09740:  MOVWF  xEF
09742:  MOVLB  0
09744:  CALL   4DB4
....................       else 
09748:  BRA    978E
0974A:  MOVLB  4
....................          {strcpy(Menus.Letra,"Velocidad Ventilador"); 
0974C:  MOVLW  04
0974E:  MOVWF  FEA
09750:  MOVLW  16
09752:  MOVWF  FE9
09754:  MOVFF  FF2,5E2
09758:  BCF    FF2.7
0975A:  MOVLW  00
0975C:  MOVLB  0
0975E:  CALL   129A
09762:  TBLRD*-
09764:  TBLRD*+
09766:  MOVF   FF5,W
09768:  MOVWF  FEE
0976A:  IORLW  00
0976C:  BNZ   9764
0976E:  MOVLB  5
09770:  BTFSC  xE2.7
09772:  BSF    FF2.7
....................          displayMenu(Menus.Letra,0,40,0,1);}  
09774:  MOVLW  04
09776:  MOVWF  xEB
09778:  MOVLW  16
0977A:  MOVWF  xEA
0977C:  CLRF   xEC
0977E:  MOVLW  28
09780:  MOVWF  xED
09782:  CLRF   xEE
09784:  MOVLW  01
09786:  MOVWF  xEF
09788:  MOVLB  0
0978A:  CALL   4DB4
....................        
....................          
....................       if(UP)//Si oprime hacia arriba 
0978E:  BSF    F92.5
09790:  BTFSC  F80.5
09792:  BRA    97AE
....................       {  if(Flanco == 0)  
09794:  MOVLB  4
09796:  BTFSC  x2C.0
09798:  BRA    97AC
....................             {Flanco = 1;delay_ms(30);Opcion--; 
0979A:  BSF    x2C.0
0979C:  MOVLW  1E
0979E:  MOVLB  5
097A0:  MOVWF  xF6
097A2:  MOVLB  0
097A4:  CALL   1474
097A8:  MOVLB  4
097AA:  DECF   xCE,F
....................             } 
....................       } 
....................          else 
097AC:  BRA    97B2
....................             {Flanco = 0;} 
097AE:  MOVLB  4
097B0:  BCF    x2C.0
....................              
....................       if(DOWN)//Si oprime hacia abajo 
097B2:  BSF    F96.0
097B4:  BTFSC  F84.0
097B6:  BRA    97D0
....................       {  if(Flanco2 == 0)  
097B8:  BTFSC  x2C.2
097BA:  BRA    97CE
....................             {Flanco2 = 1;delay_ms(30);Opcion++; 
097BC:  BSF    x2C.2
097BE:  MOVLW  1E
097C0:  MOVLB  5
097C2:  MOVWF  xF6
097C4:  MOVLB  0
097C6:  CALL   1474
097CA:  MOVLB  4
097CC:  INCF   xCE,F
....................             }      
....................       } 
....................          else 
097CE:  BRA    97D2
....................             {Flanco2 = 0;}   
097D0:  BCF    x2C.2
....................              
....................       if(RIGHT)//Si oprime SET 
097D2:  BSF    F96.1
097D4:  BTFSC  F84.1
097D6:  BRA    9868
....................       {   
....................          delay_ms(20); 
097D8:  MOVLW  14
097DA:  MOVLB  5
097DC:  MOVWF  xF6
097DE:  MOVLB  0
097E0:  CALL   1474
....................          if(RIGHT){ 
097E4:  BSF    F96.1
097E6:  BTFSC  F84.1
097E8:  BRA    986A
....................             delay_ms(100); 
097EA:  MOVLW  64
097EC:  MOVLB  5
097EE:  MOVWF  xF6
097F0:  MOVLB  0
097F2:  CALL   1474
....................             glcd_fillScreen(OFF); 
097F6:  MOVLB  5
097F8:  CLRF   xEA
097FA:  MOVLB  0
097FC:  CALL   1554
....................             while(!PidePassword(6,32,Opcion+40,4,4,4,4)){ 
09800:  MOVLW  28
09802:  MOVLB  4
09804:  ADDWF  xCE,W
09806:  MOVLB  5
09808:  MOVWF  xE2
0980A:  MOVLW  06
0980C:  MOVWF  xE3
0980E:  MOVLW  20
09810:  MOVWF  xE4
09812:  MOVFF  5E2,5E5
09816:  MOVLW  04
09818:  MOVWF  xE6
0981A:  MOVWF  xE7
0981C:  MOVWF  xE8
0981E:  MOVWF  xE9
09820:  MOVLB  0
09822:  CALL   4E8C
09826:  MOVF   01,F
09828:  BNZ   9856
....................                PidePassword(6,32,Opcion+40,4,4,4,4);glcd_update(); 
0982A:  MOVLW  28
0982C:  MOVLB  4
0982E:  ADDWF  xCE,W
09830:  MOVLB  5
09832:  MOVWF  xE2
09834:  MOVLW  06
09836:  MOVWF  xE3
09838:  MOVLW  20
0983A:  MOVWF  xE4
0983C:  MOVFF  5E2,5E5
09840:  MOVLW  04
09842:  MOVWF  xE6
09844:  MOVWF  xE7
09846:  MOVWF  xE8
09848:  MOVWF  xE9
0984A:  MOVLB  0
0984C:  CALL   4E8C
09850:  CALL   15AE
....................             }             
09854:  BRA    9800
....................             glcd_fillScreen(OFF);Opcion=1;unidad=1; 
09856:  MOVLB  5
09858:  CLRF   xEA
0985A:  MOVLB  0
0985C:  CALL   1554
09860:  MOVLW  01
09862:  MOVLB  4
09864:  MOVWF  xCE
09866:  MOVWF  xCD
09868:  MOVLB  0
....................          } 
....................       } 
....................              
....................       if(LEFT)//Si oprime boton de Toma. 
0986A:  BSF    F96.2
0986C:  BTFSC  F84.2
0986E:  BRA    989E
....................         {delay_ms(700);Menu=6;glcd_fillscreen(OFF);Opcion=1;unidad=1;} 
09870:  MOVLW  04
09872:  MOVLB  5
09874:  MOVWF  xE2
09876:  MOVLW  AF
09878:  MOVWF  xF6
0987A:  MOVLB  0
0987C:  CALL   1474
09880:  MOVLB  5
09882:  DECFSZ xE2,F
09884:  BRA    9876
09886:  MOVLW  06
09888:  MOVLB  4
0988A:  MOVWF  xCC
0988C:  MOVLB  5
0988E:  CLRF   xEA
09890:  MOVLB  0
09892:  CALL   1554
09896:  MOVLW  01
09898:  MOVLB  4
0989A:  MOVWF  xCE
0989C:  MOVWF  xCD
....................          
....................       if(Opcion>3) 
0989E:  MOVLB  4
098A0:  MOVF   xCE,W
098A2:  SUBLW  03
098A4:  BC    98AA
....................       {Opcion=1;} 
098A6:  MOVLW  01
098A8:  MOVWF  xCE
....................       if(Opcion<1) 
098AA:  MOVF   xCE,F
098AC:  BNZ   98B2
....................       {Opcion=3;} 
098AE:  MOVLW  03
098B0:  MOVWF  xCE
....................     } 
.................... //_--------------------------------------------------------------------------------------------------------------------------------------------------------        
....................  
.................... //_-------------------------------------------------------------------------------------------------------------------------------------------------------- 
....................       if(Menu==41){ //Menu de Sensor de Flujo. 
098B2:  MOVF   xCC,W
098B4:  SUBLW  29
098B6:  BTFSS  FD8.2
098B8:  BRA    9E82
....................        
....................       if(Ajuste1>10.0) 
098BA:  MOVLB  6
098BC:  CLRF   x16
098BE:  CLRF   x15
098C0:  MOVLW  20
098C2:  MOVWF  x14
098C4:  MOVLW  82
098C6:  MOVWF  x13
098C8:  MOVFF  539,61A
098CC:  MOVFF  538,619
098D0:  MOVFF  537,618
098D4:  MOVFF  536,617
098D8:  MOVLB  0
098DA:  CALL   2538
098DE:  BNC   98EC
....................          Ajuste1=0.0; 
098E0:  MOVLB  5
098E2:  CLRF   x39
098E4:  CLRF   x38
098E6:  CLRF   x37
098E8:  CLRF   x36
098EA:  MOVLB  0
....................        
....................       strcpy(Menus.Letra,"Sensor de Flujo"); 
098EC:  MOVLW  04
098EE:  MOVWF  FEA
098F0:  MOVLW  16
098F2:  MOVWF  FE9
098F4:  MOVFF  FF2,5E2
098F8:  BCF    FF2.7
098FA:  MOVLW  00
098FC:  CALL   1244
09900:  TBLRD*-
09902:  TBLRD*+
09904:  MOVF   FF5,W
09906:  MOVWF  FEE
09908:  IORLW  00
0990A:  BNZ   9902
0990C:  MOVLB  5
0990E:  BTFSC  xE2.7
09910:  BSF    FF2.7
....................       displayMenu(Menus.Letra,10,0,1,1); 
09912:  MOVLW  04
09914:  MOVWF  xEB
09916:  MOVLW  16
09918:  MOVWF  xEA
0991A:  MOVLW  0A
0991C:  MOVWF  xEC
0991E:  CLRF   xED
09920:  MOVLW  01
09922:  MOVWF  xEE
09924:  MOVWF  xEF
09926:  MOVLB  0
09928:  CALL   4DB4
....................        
....................       glcd_text57(0, 12, ZF, 1, ON); 
0992C:  MOVLB  5
0992E:  CLRF   xFB
09930:  MOVLW  0C
09932:  MOVWF  xFC
09934:  MOVLW  04
09936:  MOVWF  xFE
09938:  MOVLW  74
0993A:  MOVWF  xFD
0993C:  MOVLW  01
0993E:  MOVWF  xFF
09940:  MOVLB  6
09942:  MOVWF  x00
09944:  MOVLB  0
09946:  CALL   17CA
....................        
....................       glcd_text57(0, 20, ZA, 1, ON); 
0994A:  MOVLB  5
0994C:  CLRF   xFB
0994E:  MOVLW  14
09950:  MOVWF  xFC
09952:  MOVLW  04
09954:  MOVWF  xFE
09956:  MOVLW  82
09958:  MOVWF  xFD
0995A:  MOVLW  01
0995C:  MOVWF  xFF
0995E:  MOVLB  6
09960:  MOVWF  x00
09962:  MOVLB  0
09964:  CALL   17CA
....................        
....................       glcd_text57(0, 30, AJ, 1, ON);            
09968:  MOVLB  5
0996A:  CLRF   xFB
0996C:  MOVLW  1E
0996E:  MOVWF  xFC
09970:  MOVLW  04
09972:  MOVWF  xFE
09974:  MOVLW  8A
09976:  MOVWF  xFD
09978:  MOVLW  01
0997A:  MOVWF  xFF
0997C:  MOVLB  6
0997E:  MOVWF  x00
09980:  MOVLB  0
09982:  CALL   17CA
....................        
....................       displayfloat(zero_actual,44,20,0,1); 
09986:  MOVFF  5C1,5E9
0998A:  MOVFF  5C0,5E8
0998E:  MOVFF  5BF,5E7
09992:  MOVFF  5BE,5E6
09996:  MOVLW  2C
09998:  MOVLB  5
0999A:  MOVWF  xEA
0999C:  MOVLW  14
0999E:  MOVWF  xEB
099A0:  CLRF   xEC
099A2:  MOVLW  01
099A4:  MOVWF  xED
099A6:  MOVLB  0
099A8:  CALL   5F40
....................       displayfloat(Ajuste1,44,30,0,1); 
099AC:  MOVFF  539,5E9
099B0:  MOVFF  538,5E8
099B4:  MOVFF  537,5E7
099B8:  MOVFF  536,5E6
099BC:  MOVLW  2C
099BE:  MOVLB  5
099C0:  MOVWF  xEA
099C2:  MOVLW  1E
099C4:  MOVWF  xEB
099C6:  CLRF   xEC
099C8:  MOVLW  01
099CA:  MOVWF  xED
099CC:  MOVLB  0
099CE:  CALL   5F40
....................       displayfloat(Inflow_adc,0,40,0,1); 
099D2:  MOVFF  4DB,618
099D6:  MOVFF  4DA,617
099DA:  CALL   19A0
099DE:  MOVFF  00,5E2
099E2:  MOVFF  01,5E3
099E6:  MOVFF  02,5E4
099EA:  MOVFF  03,5E5
099EE:  MOVFF  03,5E9
099F2:  MOVFF  02,5E8
099F6:  MOVFF  01,5E7
099FA:  MOVFF  00,5E6
099FE:  MOVLB  5
09A00:  CLRF   xEA
09A02:  MOVLW  28
09A04:  MOVWF  xEB
09A06:  CLRF   xEC
09A08:  MOVLW  01
09A0A:  MOVWF  xED
09A0C:  MOVLB  0
09A0E:  CALL   5F40
.................... //      displayfloat(Diferencia,0,50,0,1); 
....................        
....................       if(UP)//Si oprime hacia arriba 
09A12:  BSF    F92.5
09A14:  BTFSC  F80.5
09A16:  BRA    9A5E
....................       {   
....................          delay_ms(30);Ajuste1+=0.01; 
09A18:  MOVLW  1E
09A1A:  MOVLB  5
09A1C:  MOVWF  xF6
09A1E:  MOVLB  0
09A20:  CALL   1474
09A24:  BCF    FD8.1
09A26:  MOVFF  539,61A
09A2A:  MOVFF  538,619
09A2E:  MOVFF  537,618
09A32:  MOVFF  536,617
09A36:  MOVLW  0A
09A38:  MOVLB  6
09A3A:  MOVWF  x1E
09A3C:  MOVLW  D7
09A3E:  MOVWF  x1D
09A40:  MOVLW  23
09A42:  MOVWF  x1C
09A44:  MOVLW  78
09A46:  MOVWF  x1B
09A48:  MOVLB  0
09A4A:  CALL   1B34
09A4E:  MOVFF  03,539
09A52:  MOVFF  02,538
09A56:  MOVFF  01,537
09A5A:  MOVFF  00,536
....................       } 
....................              
....................       if(DOWN)//Si oprime hacia abajo 
09A5E:  BSF    F96.0
09A60:  BTFSC  F84.0
09A62:  BRA    9AAA
....................       {    
....................          delay_ms(30);Ajuste1-=0.01; 
09A64:  MOVLW  1E
09A66:  MOVLB  5
09A68:  MOVWF  xF6
09A6A:  MOVLB  0
09A6C:  CALL   1474
09A70:  BSF    FD8.1
09A72:  MOVFF  539,61A
09A76:  MOVFF  538,619
09A7A:  MOVFF  537,618
09A7E:  MOVFF  536,617
09A82:  MOVLW  0A
09A84:  MOVLB  6
09A86:  MOVWF  x1E
09A88:  MOVLW  D7
09A8A:  MOVWF  x1D
09A8C:  MOVLW  23
09A8E:  MOVWF  x1C
09A90:  MOVLW  78
09A92:  MOVWF  x1B
09A94:  MOVLB  0
09A96:  CALL   1B34
09A9A:  MOVFF  03,539
09A9E:  MOVFF  02,538
09AA2:  MOVFF  01,537
09AA6:  MOVFF  00,536
....................       } 
....................              
....................       if(RIGHT)//Si oprime SET 
09AAA:  BSF    F96.1
09AAC:  BTFSC  F84.1
09AAE:  BRA    9D1C
....................       {   
....................          zero_actual=Inflow_adc; 
09AB0:  MOVFF  4DB,618
09AB4:  MOVFF  4DA,617
09AB8:  CALL   19A0
09ABC:  MOVFF  03,5C1
09AC0:  MOVFF  02,5C0
09AC4:  MOVFF  01,5BF
09AC8:  MOVFF  00,5BE
....................          Diferencia=zero_fabrica-Inflow_adc; 
09ACC:  MOVFF  4DB,618
09AD0:  MOVFF  4DA,617
09AD4:  CALL   19A0
09AD8:  BSF    FD8.1
09ADA:  MOVFF  5BD,61A
09ADE:  MOVFF  5BC,619
09AE2:  MOVFF  5BB,618
09AE6:  MOVFF  5BA,617
09AEA:  MOVFF  03,61E
09AEE:  MOVFF  02,61D
09AF2:  MOVFF  01,61C
09AF6:  MOVFF  00,61B
09AFA:  CALL   1B34
09AFE:  MOVFF  03,51D
09B02:  MOVFF  02,51C
09B06:  MOVFF  01,51B
09B0A:  MOVFF  00,51A
....................              
....................          if(Diferencia>=0) 
09B0E:  MOVLB  6
09B10:  CLRF   x16
09B12:  CLRF   x15
09B14:  CLRF   x14
09B16:  CLRF   x13
09B18:  MOVFF  51D,61A
09B1C:  MOVFF  51C,619
09B20:  MOVFF  51B,618
09B24:  MOVFF  51A,617
09B28:  MOVLB  0
09B2A:  CALL   2538
09B2E:  BC    9B32
09B30:  BNZ   9B70
....................          { 
....................             negativo=10;write_eeprom(50,negativo);delay_ms(20); 
09B32:  MOVLW  0A
09B34:  MOVLB  4
09B36:  MOVWF  xCF
09B38:  CLRF   FAA
09B3A:  MOVLW  32
09B3C:  MOVWF  FA9
09B3E:  MOVFF  4CF,FA8
09B42:  BCF    FA6.6
09B44:  BCF    FA6.7
09B46:  BSF    FA6.2
09B48:  MOVF   FF2,W
09B4A:  MOVWF  00
09B4C:  BCF    FF2.7
09B4E:  MOVLB  F
09B50:  MOVLW  55
09B52:  MOVWF  FA7
09B54:  MOVLW  AA
09B56:  MOVWF  FA7
09B58:  BSF    FA6.1
09B5A:  BTFSC  FA6.1
09B5C:  BRA    9B5A
09B5E:  BCF    FA6.2
09B60:  MOVF   00,W
09B62:  IORWF  FF2,F
09B64:  MOVLW  14
09B66:  MOVLB  5
09B68:  MOVWF  xF6
09B6A:  MOVLB  0
09B6C:  CALL   1474
....................          } 
....................          if(Diferencia<0) 
09B70:  MOVFF  51D,616
09B74:  MOVFF  51C,615
09B78:  MOVFF  51B,614
09B7C:  MOVFF  51A,613
09B80:  MOVLB  6
09B82:  CLRF   x1A
09B84:  CLRF   x19
09B86:  CLRF   x18
09B88:  CLRF   x17
09B8A:  MOVLB  0
09B8C:  CALL   2538
09B90:  BNC   9BD0
....................          { 
....................             negativo=20;write_eeprom(50,negativo);delay_ms(20); 
09B92:  MOVLW  14
09B94:  MOVLB  4
09B96:  MOVWF  xCF
09B98:  CLRF   FAA
09B9A:  MOVLW  32
09B9C:  MOVWF  FA9
09B9E:  MOVFF  4CF,FA8
09BA2:  BCF    FA6.6
09BA4:  BCF    FA6.7
09BA6:  BSF    FA6.2
09BA8:  MOVF   FF2,W
09BAA:  MOVWF  00
09BAC:  BCF    FF2.7
09BAE:  MOVLB  F
09BB0:  MOVLW  55
09BB2:  MOVWF  FA7
09BB4:  MOVLW  AA
09BB6:  MOVWF  FA7
09BB8:  BSF    FA6.1
09BBA:  BTFSC  FA6.1
09BBC:  BRA    9BBA
09BBE:  BCF    FA6.2
09BC0:  MOVF   00,W
09BC2:  IORWF  FF2,F
09BC4:  MOVLW  14
09BC6:  MOVLB  5
09BC8:  MOVWF  xF6
09BCA:  MOVLB  0
09BCC:  CALL   1474
....................          } 
....................          Diferencia=abs(Diferencia); 
09BD0:  MOVFF  51A,00
09BD4:  MOVFF  51B,01
09BD8:  MOVFF  51C,02
09BDC:  MOVFF  51D,03
09BE0:  BCF    01.7
09BE2:  MOVFF  51D,51D
09BE6:  MOVFF  51C,51C
09BEA:  MOVFF  01,51B
09BEE:  MOVFF  51A,51A
....................          Temporal1=(int16)Diferencia; 
09BF2:  MOVFF  51D,616
09BF6:  MOVFF  51C,615
09BFA:  MOVFF  51B,614
09BFE:  MOVFF  51A,613
09C02:  CALL   2F7C
09C06:  MOVFF  02,4DF
09C0A:  MOVFF  01,4DE
....................          write_eeprom(60,make8(Temporal1,0)); 
09C0E:  MOVFF  4DE,5E2
09C12:  CLRF   FAA
09C14:  MOVLW  3C
09C16:  MOVWF  FA9
09C18:  MOVFF  5E2,FA8
09C1C:  BCF    FA6.6
09C1E:  BCF    FA6.7
09C20:  BSF    FA6.2
09C22:  MOVF   FF2,W
09C24:  MOVWF  00
09C26:  BCF    FF2.7
09C28:  MOVLB  F
09C2A:  MOVLW  55
09C2C:  MOVWF  FA7
09C2E:  MOVLW  AA
09C30:  MOVWF  FA7
09C32:  BSF    FA6.1
09C34:  BTFSC  FA6.1
09C36:  BRA    9C34
09C38:  BCF    FA6.2
09C3A:  MOVF   00,W
09C3C:  IORWF  FF2,F
....................          delay_ms(20); 
09C3E:  MOVLW  14
09C40:  MOVLB  5
09C42:  MOVWF  xF6
09C44:  MOVLB  0
09C46:  CALL   1474
....................          write_eeprom(61,make8(Temporal1,1));//Guardar valor de Setpoint en eeprom 
09C4A:  MOVFF  4DF,5E2
09C4E:  CLRF   FAA
09C50:  MOVLW  3D
09C52:  MOVWF  FA9
09C54:  MOVFF  5E2,FA8
09C58:  BCF    FA6.6
09C5A:  BCF    FA6.7
09C5C:  BSF    FA6.2
09C5E:  MOVF   FF2,W
09C60:  MOVWF  00
09C62:  BCF    FF2.7
09C64:  MOVLB  F
09C66:  MOVLW  55
09C68:  MOVWF  FA7
09C6A:  MOVLW  AA
09C6C:  MOVWF  FA7
09C6E:  BSF    FA6.1
09C70:  BTFSC  FA6.1
09C72:  BRA    9C70
09C74:  BCF    FA6.2
09C76:  MOVF   00,W
09C78:  IORWF  FF2,F
....................          delay_ms(20); 
09C7A:  MOVLW  14
09C7C:  MOVLB  5
09C7E:  MOVWF  xF6
09C80:  MOVLB  0
09C82:  CALL   1474
....................  
....................          Temporal1=(int16)zero_actual; 
09C86:  MOVFF  5C1,616
09C8A:  MOVFF  5C0,615
09C8E:  MOVFF  5BF,614
09C92:  MOVFF  5BE,613
09C96:  CALL   2F7C
09C9A:  MOVFF  02,4DF
09C9E:  MOVFF  01,4DE
....................          write_eeprom(29,make8(Temporal1,0)); 
09CA2:  MOVFF  4DE,5E2
09CA6:  CLRF   FAA
09CA8:  MOVLW  1D
09CAA:  MOVWF  FA9
09CAC:  MOVFF  5E2,FA8
09CB0:  BCF    FA6.6
09CB2:  BCF    FA6.7
09CB4:  BSF    FA6.2
09CB6:  MOVF   FF2,W
09CB8:  MOVWF  00
09CBA:  BCF    FF2.7
09CBC:  MOVLB  F
09CBE:  MOVLW  55
09CC0:  MOVWF  FA7
09CC2:  MOVLW  AA
09CC4:  MOVWF  FA7
09CC6:  BSF    FA6.1
09CC8:  BTFSC  FA6.1
09CCA:  BRA    9CC8
09CCC:  BCF    FA6.2
09CCE:  MOVF   00,W
09CD0:  IORWF  FF2,F
....................          delay_ms(20); 
09CD2:  MOVLW  14
09CD4:  MOVLB  5
09CD6:  MOVWF  xF6
09CD8:  MOVLB  0
09CDA:  CALL   1474
....................          write_eeprom(30,make8(Temporal1,1));//Guardar valor de Setpoint en eeprom 
09CDE:  MOVFF  4DF,5E2
09CE2:  CLRF   FAA
09CE4:  MOVLW  1E
09CE6:  MOVWF  FA9
09CE8:  MOVFF  5E2,FA8
09CEC:  BCF    FA6.6
09CEE:  BCF    FA6.7
09CF0:  BSF    FA6.2
09CF2:  MOVF   FF2,W
09CF4:  MOVWF  00
09CF6:  BCF    FF2.7
09CF8:  MOVLB  F
09CFA:  MOVLW  55
09CFC:  MOVWF  FA7
09CFE:  MOVLW  AA
09D00:  MOVWF  FA7
09D02:  BSF    FA6.1
09D04:  BTFSC  FA6.1
09D06:  BRA    9D04
09D08:  BCF    FA6.2
09D0A:  MOVF   00,W
09D0C:  IORWF  FF2,F
....................          delay_ms(20); 
09D0E:  MOVLW  14
09D10:  MOVLB  5
09D12:  MOVWF  xF6
09D14:  MOVLB  0
09D16:  CALL   1474
....................       } 
....................          else 
09D1A:  BRA    9D22
....................             {Flanco1 = 0;}   
09D1C:  MOVLB  4
09D1E:  BCF    x2C.1
09D20:  MOVLB  0
....................              
....................       if(LEFT)//Si oprime boton de Toma. 
09D22:  BSF    F96.2
09D24:  BTFSC  F84.2
09D26:  BRA    9E80
....................       { 
....................          delay_ms(700);Menu=32;glcd_fillscreen(OFF);Opcion=1;unidad=1; 
09D28:  MOVLW  04
09D2A:  MOVLB  5
09D2C:  MOVWF  xE2
09D2E:  MOVLW  AF
09D30:  MOVWF  xF6
09D32:  MOVLB  0
09D34:  CALL   1474
09D38:  MOVLB  5
09D3A:  DECFSZ xE2,F
09D3C:  BRA    9D2E
09D3E:  MOVLW  20
09D40:  MOVLB  4
09D42:  MOVWF  xCC
09D44:  MOVLB  5
09D46:  CLRF   xEA
09D48:  MOVLB  0
09D4A:  CALL   1554
09D4E:  MOVLW  01
09D50:  MOVLB  4
09D52:  MOVWF  xCE
09D54:  MOVWF  xCD
....................          Temporal=Ajuste1; 
09D56:  MOVFF  539,541
09D5A:  MOVFF  538,540
09D5E:  MOVFF  537,53F
09D62:  MOVFF  536,53E
....................          Entero=(int)Ajuste1; 
09D66:  MOVFF  539,616
09D6A:  MOVFF  538,615
09D6E:  MOVFF  537,614
09D72:  MOVFF  536,613
09D76:  MOVLB  0
09D78:  CALL   2F7C
09D7C:  MOVFF  01,4D7
....................          Temporal=Temporal-Entero; 
09D80:  MOVLB  6
09D82:  CLRF   x18
09D84:  MOVFF  4D7,617
09D88:  MOVLB  0
09D8A:  CALL   19A0
09D8E:  BSF    FD8.1
09D90:  MOVFF  541,61A
09D94:  MOVFF  540,619
09D98:  MOVFF  53F,618
09D9C:  MOVFF  53E,617
09DA0:  MOVFF  03,61E
09DA4:  MOVFF  02,61D
09DA8:  MOVFF  01,61C
09DAC:  MOVFF  00,61B
09DB0:  CALL   1B34
09DB4:  MOVFF  03,541
09DB8:  MOVFF  02,540
09DBC:  MOVFF  01,53F
09DC0:  MOVFF  00,53E
....................          Temporal2=Temporal*10.0; 
09DC4:  MOVFF  541,616
09DC8:  MOVFF  540,615
09DCC:  MOVFF  53F,614
09DD0:  MOVFF  53E,613
09DD4:  MOVLB  6
09DD6:  CLRF   x1A
09DD8:  CLRF   x19
09DDA:  MOVLW  20
09DDC:  MOVWF  x18
09DDE:  MOVLW  82
09DE0:  MOVWF  x17
09DE2:  MOVLB  0
09DE4:  CALL   2FB8
09DE8:  MOVFF  03,545
09DEC:  MOVFF  02,544
09DF0:  MOVFF  01,543
09DF4:  MOVFF  00,542
....................          Decimal1=(int8)Temporal2; 
09DF8:  MOVFF  545,616
09DFC:  MOVFF  544,615
09E00:  MOVFF  543,614
09E04:  MOVFF  542,613
09E08:  CALL   2F7C
09E0C:  MOVFF  01,4D8
....................          write_eeprom(25,Entero); 
09E10:  CLRF   FAA
09E12:  MOVLW  19
09E14:  MOVWF  FA9
09E16:  MOVFF  4D7,FA8
09E1A:  BCF    FA6.6
09E1C:  BCF    FA6.7
09E1E:  BSF    FA6.2
09E20:  MOVF   FF2,W
09E22:  MOVWF  00
09E24:  BCF    FF2.7
09E26:  MOVLB  F
09E28:  MOVLW  55
09E2A:  MOVWF  FA7
09E2C:  MOVLW  AA
09E2E:  MOVWF  FA7
09E30:  BSF    FA6.1
09E32:  BTFSC  FA6.1
09E34:  BRA    9E32
09E36:  BCF    FA6.2
09E38:  MOVF   00,W
09E3A:  IORWF  FF2,F
....................          delay_ms(20); 
09E3C:  MOVLW  14
09E3E:  MOVLB  5
09E40:  MOVWF  xF6
09E42:  MOVLB  0
09E44:  CALL   1474
....................          write_eeprom(26,Decimal1); 
09E48:  CLRF   FAA
09E4A:  MOVLW  1A
09E4C:  MOVWF  FA9
09E4E:  MOVFF  4D8,FA8
09E52:  BCF    FA6.6
09E54:  BCF    FA6.7
09E56:  BSF    FA6.2
09E58:  MOVF   FF2,W
09E5A:  MOVWF  00
09E5C:  BCF    FF2.7
09E5E:  MOVLB  F
09E60:  MOVLW  55
09E62:  MOVWF  FA7
09E64:  MOVLW  AA
09E66:  MOVWF  FA7
09E68:  BSF    FA6.1
09E6A:  BTFSC  FA6.1
09E6C:  BRA    9E6A
09E6E:  BCF    FA6.2
09E70:  MOVF   00,W
09E72:  IORWF  FF2,F
....................          delay_ms(20); 
09E74:  MOVLW  14
09E76:  MOVLB  5
09E78:  MOVWF  xF6
09E7A:  MOVLB  0
09E7C:  CALL   1474
09E80:  MOVLB  4
....................       } 
....................     } 
.................... //_--------------------------------------------------------------------------------------------------------------------------------------------------------        
....................  
.................... //_-------------------------------------------------------------------------------------------------------------------------------------------------------- 
....................       if(Menu==42){ //Menu de Sensor de Presin. 
09E82:  MOVF   xCC,W
09E84:  SUBLW  2A
09E86:  BTFSS  FD8.2
09E88:  BRA    A2BC
....................        
....................       if(Ajuste2>10.0) 
09E8A:  MOVLB  6
09E8C:  CLRF   x16
09E8E:  CLRF   x15
09E90:  MOVLW  20
09E92:  MOVWF  x14
09E94:  MOVLW  82
09E96:  MOVWF  x13
09E98:  MOVFF  53D,61A
09E9C:  MOVFF  53C,619
09EA0:  MOVFF  53B,618
09EA4:  MOVFF  53A,617
09EA8:  MOVLB  0
09EAA:  CALL   2538
09EAE:  BNC   9EBC
....................          Ajuste2=0.0; 
09EB0:  MOVLB  5
09EB2:  CLRF   x3D
09EB4:  CLRF   x3C
09EB6:  CLRF   x3B
09EB8:  CLRF   x3A
09EBA:  MOVLB  0
....................        
....................       strcpy(Menus.Letra,"Sensor de Presion"); 
09EBC:  MOVLW  04
09EBE:  MOVWF  FEA
09EC0:  MOVLW  16
09EC2:  MOVWF  FE9
09EC4:  MOVFF  FF2,5E2
09EC8:  BCF    FF2.7
09ECA:  MOVLW  00
09ECC:  CALL   126E
09ED0:  TBLRD*-
09ED2:  TBLRD*+
09ED4:  MOVF   FF5,W
09ED6:  MOVWF  FEE
09ED8:  IORLW  00
09EDA:  BNZ   9ED2
09EDC:  MOVLB  5
09EDE:  BTFSC  xE2.7
09EE0:  BSF    FF2.7
....................       displayMenu(Menus.Letra,10,0,1,1); 
09EE2:  MOVLW  04
09EE4:  MOVWF  xEB
09EE6:  MOVLW  16
09EE8:  MOVWF  xEA
09EEA:  MOVLW  0A
09EEC:  MOVWF  xEC
09EEE:  CLRF   xED
09EF0:  MOVLW  01
09EF2:  MOVWF  xEE
09EF4:  MOVWF  xEF
09EF6:  MOVLB  0
09EF8:  CALL   4DB4
....................        
....................       glcd_text57(0, 12, ZFP, 1, ON); 
09EFC:  MOVLB  5
09EFE:  CLRF   xFB
09F00:  MOVLW  0C
09F02:  MOVWF  xFC
09F04:  MOVLW  04
09F06:  MOVWF  xFE
09F08:  MOVLW  9A
09F0A:  MOVWF  xFD
09F0C:  MOVLW  01
09F0E:  MOVWF  xFF
09F10:  MOVLB  6
09F12:  MOVWF  x00
09F14:  MOVLB  0
09F16:  CALL   17CA
....................        
....................       glcd_text57(0, 20, ZA, 1, ON); 
09F1A:  MOVLB  5
09F1C:  CLRF   xFB
09F1E:  MOVLW  14
09F20:  MOVWF  xFC
09F22:  MOVLW  04
09F24:  MOVWF  xFE
09F26:  MOVLW  82
09F28:  MOVWF  xFD
09F2A:  MOVLW  01
09F2C:  MOVWF  xFF
09F2E:  MOVLB  6
09F30:  MOVWF  x00
09F32:  MOVLB  0
09F34:  CALL   17CA
....................        
....................       glcd_text57(0, 30, AJ, 1, ON);            
09F38:  MOVLB  5
09F3A:  CLRF   xFB
09F3C:  MOVLW  1E
09F3E:  MOVWF  xFC
09F40:  MOVLW  04
09F42:  MOVWF  xFE
09F44:  MOVLW  8A
09F46:  MOVWF  xFD
09F48:  MOVLW  01
09F4A:  MOVWF  xFF
09F4C:  MOVLB  6
09F4E:  MOVWF  x00
09F50:  MOVLB  0
09F52:  CALL   17CA
....................        
....................       displayfloat(G,44,20,0,1); 
09F56:  MOVFF  5CD,5E9
09F5A:  MOVFF  5CC,5E8
09F5E:  MOVFF  5CB,5E7
09F62:  MOVFF  5CA,5E6
09F66:  MOVLW  2C
09F68:  MOVLB  5
09F6A:  MOVWF  xEA
09F6C:  MOVLW  14
09F6E:  MOVWF  xEB
09F70:  CLRF   xEC
09F72:  MOVLW  01
09F74:  MOVWF  xED
09F76:  MOVLB  0
09F78:  CALL   5F40
....................       displayfloat(Ajuste2,44,30,0,1); 
09F7C:  MOVFF  53D,5E9
09F80:  MOVFF  53C,5E8
09F84:  MOVFF  53B,5E7
09F88:  MOVFF  53A,5E6
09F8C:  MOVLW  2C
09F8E:  MOVLB  5
09F90:  MOVWF  xEA
09F92:  MOVLW  1E
09F94:  MOVWF  xEB
09F96:  CLRF   xEC
09F98:  MOVLW  01
09F9A:  MOVWF  xED
09F9C:  MOVLB  0
09F9E:  CALL   5F40
....................       displayfloat(Filtro_DownFlow_adc,0,40,0,1); 
09FA2:  MOVFF  4DD,618
09FA6:  MOVFF  4DC,617
09FAA:  CALL   19A0
09FAE:  MOVFF  00,5E2
09FB2:  MOVFF  01,5E3
09FB6:  MOVFF  02,5E4
09FBA:  MOVFF  03,5E5
09FBE:  MOVFF  03,5E9
09FC2:  MOVFF  02,5E8
09FC6:  MOVFF  01,5E7
09FCA:  MOVFF  00,5E6
09FCE:  MOVLB  5
09FD0:  CLRF   xEA
09FD2:  MOVLW  28
09FD4:  MOVWF  xEB
09FD6:  CLRF   xEC
09FD8:  MOVLW  01
09FDA:  MOVWF  xED
09FDC:  MOVLB  0
09FDE:  CALL   5F40
....................       displayfloat(Filtro_DownFlow,0,50,0,1); 
09FE2:  MOVFF  519,5E9
09FE6:  MOVFF  518,5E8
09FEA:  MOVFF  517,5E7
09FEE:  MOVFF  516,5E6
09FF2:  MOVLB  5
09FF4:  CLRF   xEA
09FF6:  MOVLW  32
09FF8:  MOVWF  xEB
09FFA:  CLRF   xEC
09FFC:  MOVLW  01
09FFE:  MOVWF  xED
0A000:  MOVLB  0
0A002:  CALL   5F40
....................        
....................       if(UP)//Si oprime hacia arriba 
0A006:  BSF    F92.5
0A008:  BTFSC  F80.5
0A00A:  BRA    A052
....................       {   
....................          delay_ms(30);Ajuste2+=0.01; 
0A00C:  MOVLW  1E
0A00E:  MOVLB  5
0A010:  MOVWF  xF6
0A012:  MOVLB  0
0A014:  CALL   1474
0A018:  BCF    FD8.1
0A01A:  MOVFF  53D,61A
0A01E:  MOVFF  53C,619
0A022:  MOVFF  53B,618
0A026:  MOVFF  53A,617
0A02A:  MOVLW  0A
0A02C:  MOVLB  6
0A02E:  MOVWF  x1E
0A030:  MOVLW  D7
0A032:  MOVWF  x1D
0A034:  MOVLW  23
0A036:  MOVWF  x1C
0A038:  MOVLW  78
0A03A:  MOVWF  x1B
0A03C:  MOVLB  0
0A03E:  CALL   1B34
0A042:  MOVFF  03,53D
0A046:  MOVFF  02,53C
0A04A:  MOVFF  01,53B
0A04E:  MOVFF  00,53A
....................       } 
....................              
....................       if(DOWN)//Si oprime hacia abajo 
0A052:  BSF    F96.0
0A054:  BTFSC  F84.0
0A056:  BRA    A09E
....................       {   
....................          delay_ms(30);Ajuste2-=0.01; 
0A058:  MOVLW  1E
0A05A:  MOVLB  5
0A05C:  MOVWF  xF6
0A05E:  MOVLB  0
0A060:  CALL   1474
0A064:  BSF    FD8.1
0A066:  MOVFF  53D,61A
0A06A:  MOVFF  53C,619
0A06E:  MOVFF  53B,618
0A072:  MOVFF  53A,617
0A076:  MOVLW  0A
0A078:  MOVLB  6
0A07A:  MOVWF  x1E
0A07C:  MOVLW  D7
0A07E:  MOVWF  x1D
0A080:  MOVLW  23
0A082:  MOVWF  x1C
0A084:  MOVLW  78
0A086:  MOVWF  x1B
0A088:  MOVLB  0
0A08A:  CALL   1B34
0A08E:  MOVFF  03,53D
0A092:  MOVFF  02,53C
0A096:  MOVFF  01,53B
0A09A:  MOVFF  00,53A
....................       } 
....................              
....................       if(RIGHT)//Si oprime SET 
0A09E:  BSF    F96.1
0A0A0:  BTFSC  F84.1
0A0A2:  BRA    A156
....................       {            
....................          G=Filtro_Downflow_adc; 
0A0A4:  MOVFF  4DD,618
0A0A8:  MOVFF  4DC,617
0A0AC:  CALL   19A0
0A0B0:  MOVFF  03,5CD
0A0B4:  MOVFF  02,5CC
0A0B8:  MOVFF  01,5CB
0A0BC:  MOVFF  00,5CA
....................          G16=(int16)G; 
0A0C0:  MOVFF  5CD,616
0A0C4:  MOVFF  5CC,615
0A0C8:  MOVFF  5CB,614
0A0CC:  MOVFF  5CA,613
0A0D0:  CALL   2F7C
0A0D4:  MOVFF  02,4E9
0A0D8:  MOVFF  01,4E8
....................          G_l=G16; G_h=(G16>>8); 
0A0DC:  MOVFF  4E8,4D0
0A0E0:  MOVFF  4E9,4D1
....................              
....................          write_eeprom(62,G_l); 
0A0E4:  CLRF   FAA
0A0E6:  MOVLW  3E
0A0E8:  MOVWF  FA9
0A0EA:  MOVFF  4D0,FA8
0A0EE:  BCF    FA6.6
0A0F0:  BCF    FA6.7
0A0F2:  BSF    FA6.2
0A0F4:  MOVF   FF2,W
0A0F6:  MOVWF  00
0A0F8:  BCF    FF2.7
0A0FA:  MOVLB  F
0A0FC:  MOVLW  55
0A0FE:  MOVWF  FA7
0A100:  MOVLW  AA
0A102:  MOVWF  FA7
0A104:  BSF    FA6.1
0A106:  BTFSC  FA6.1
0A108:  BRA    A106
0A10A:  BCF    FA6.2
0A10C:  MOVF   00,W
0A10E:  IORWF  FF2,F
....................          delay_ms(20); 
0A110:  MOVLW  14
0A112:  MOVLB  5
0A114:  MOVWF  xF6
0A116:  MOVLB  0
0A118:  CALL   1474
....................          write_eeprom(63,G_h);//Guardar valor de Setpoint en eeprom 
0A11C:  CLRF   FAA
0A11E:  MOVLW  3F
0A120:  MOVWF  FA9
0A122:  MOVFF  4D1,FA8
0A126:  BCF    FA6.6
0A128:  BCF    FA6.7
0A12A:  BSF    FA6.2
0A12C:  MOVF   FF2,W
0A12E:  MOVWF  00
0A130:  BCF    FF2.7
0A132:  MOVLB  F
0A134:  MOVLW  55
0A136:  MOVWF  FA7
0A138:  MOVLW  AA
0A13A:  MOVWF  FA7
0A13C:  BSF    FA6.1
0A13E:  BTFSC  FA6.1
0A140:  BRA    A13E
0A142:  BCF    FA6.2
0A144:  MOVF   00,W
0A146:  IORWF  FF2,F
....................          delay_ms(20); 
0A148:  MOVLW  14
0A14A:  MOVLB  5
0A14C:  MOVWF  xF6
0A14E:  MOVLB  0
0A150:  CALL   1474
....................       } 
....................          else 
0A154:  BRA    A15C
....................             {Flanco1 = 0;}   
0A156:  MOVLB  4
0A158:  BCF    x2C.1
0A15A:  MOVLB  0
....................              
....................       if(LEFT)//Si oprime boton de Toma. 
0A15C:  BSF    F96.2
0A15E:  BTFSC  F84.2
0A160:  BRA    A2BA
....................       {                   
....................          delay_ms(700);Menu=32;glcd_fillscreen(OFF);Opcion=1;unidad=1; 
0A162:  MOVLW  04
0A164:  MOVLB  5
0A166:  MOVWF  xE2
0A168:  MOVLW  AF
0A16A:  MOVWF  xF6
0A16C:  MOVLB  0
0A16E:  CALL   1474
0A172:  MOVLB  5
0A174:  DECFSZ xE2,F
0A176:  BRA    A168
0A178:  MOVLW  20
0A17A:  MOVLB  4
0A17C:  MOVWF  xCC
0A17E:  MOVLB  5
0A180:  CLRF   xEA
0A182:  MOVLB  0
0A184:  CALL   1554
0A188:  MOVLW  01
0A18A:  MOVLB  4
0A18C:  MOVWF  xCE
0A18E:  MOVWF  xCD
....................          Temporal=Ajuste2; 
0A190:  MOVFF  53D,541
0A194:  MOVFF  53C,540
0A198:  MOVFF  53B,53F
0A19C:  MOVFF  53A,53E
....................          Entero=(int)Ajuste2; 
0A1A0:  MOVFF  53D,616
0A1A4:  MOVFF  53C,615
0A1A8:  MOVFF  53B,614
0A1AC:  MOVFF  53A,613
0A1B0:  MOVLB  0
0A1B2:  CALL   2F7C
0A1B6:  MOVFF  01,4D7
....................          Temporal=Temporal-Entero; 
0A1BA:  MOVLB  6
0A1BC:  CLRF   x18
0A1BE:  MOVFF  4D7,617
0A1C2:  MOVLB  0
0A1C4:  CALL   19A0
0A1C8:  BSF    FD8.1
0A1CA:  MOVFF  541,61A
0A1CE:  MOVFF  540,619
0A1D2:  MOVFF  53F,618
0A1D6:  MOVFF  53E,617
0A1DA:  MOVFF  03,61E
0A1DE:  MOVFF  02,61D
0A1E2:  MOVFF  01,61C
0A1E6:  MOVFF  00,61B
0A1EA:  CALL   1B34
0A1EE:  MOVFF  03,541
0A1F2:  MOVFF  02,540
0A1F6:  MOVFF  01,53F
0A1FA:  MOVFF  00,53E
....................          Temporal2=Temporal*10.0; 
0A1FE:  MOVFF  541,616
0A202:  MOVFF  540,615
0A206:  MOVFF  53F,614
0A20A:  MOVFF  53E,613
0A20E:  MOVLB  6
0A210:  CLRF   x1A
0A212:  CLRF   x19
0A214:  MOVLW  20
0A216:  MOVWF  x18
0A218:  MOVLW  82
0A21A:  MOVWF  x17
0A21C:  MOVLB  0
0A21E:  CALL   2FB8
0A222:  MOVFF  03,545
0A226:  MOVFF  02,544
0A22A:  MOVFF  01,543
0A22E:  MOVFF  00,542
....................          Decimal1=(int8)Temporal2; 
0A232:  MOVFF  545,616
0A236:  MOVFF  544,615
0A23A:  MOVFF  543,614
0A23E:  MOVFF  542,613
0A242:  CALL   2F7C
0A246:  MOVFF  01,4D8
....................          write_eeprom(27,Entero); 
0A24A:  CLRF   FAA
0A24C:  MOVLW  1B
0A24E:  MOVWF  FA9
0A250:  MOVFF  4D7,FA8
0A254:  BCF    FA6.6
0A256:  BCF    FA6.7
0A258:  BSF    FA6.2
0A25A:  MOVF   FF2,W
0A25C:  MOVWF  00
0A25E:  BCF    FF2.7
0A260:  MOVLB  F
0A262:  MOVLW  55
0A264:  MOVWF  FA7
0A266:  MOVLW  AA
0A268:  MOVWF  FA7
0A26A:  BSF    FA6.1
0A26C:  BTFSC  FA6.1
0A26E:  BRA    A26C
0A270:  BCF    FA6.2
0A272:  MOVF   00,W
0A274:  IORWF  FF2,F
....................          delay_ms(20); 
0A276:  MOVLW  14
0A278:  MOVLB  5
0A27A:  MOVWF  xF6
0A27C:  MOVLB  0
0A27E:  CALL   1474
....................          write_eeprom(28,Decimal1); 
0A282:  CLRF   FAA
0A284:  MOVLW  1C
0A286:  MOVWF  FA9
0A288:  MOVFF  4D8,FA8
0A28C:  BCF    FA6.6
0A28E:  BCF    FA6.7
0A290:  BSF    FA6.2
0A292:  MOVF   FF2,W
0A294:  MOVWF  00
0A296:  BCF    FF2.7
0A298:  MOVLB  F
0A29A:  MOVLW  55
0A29C:  MOVWF  FA7
0A29E:  MOVLW  AA
0A2A0:  MOVWF  FA7
0A2A2:  BSF    FA6.1
0A2A4:  BTFSC  FA6.1
0A2A6:  BRA    A2A4
0A2A8:  BCF    FA6.2
0A2AA:  MOVF   00,W
0A2AC:  IORWF  FF2,F
....................          delay_ms(20); 
0A2AE:  MOVLW  14
0A2B0:  MOVLB  5
0A2B2:  MOVWF  xF6
0A2B4:  MOVLB  0
0A2B6:  CALL   1474
0A2BA:  MOVLB  4
....................       } 
....................     } 
.................... //_--------------------------------------------------------------------------------------------------------------------------------------------------------        
....................  
.................... //_-------------------------------------------------------------------------------------------------------------------------------------------------------- 
....................       if(Menu==43){ //Menu de Velocidad de Motor 
0A2BC:  MOVF   xCC,W
0A2BE:  SUBLW  2B
0A2C0:  BTFSS  FD8.2
0A2C2:  BRA    A48E
....................        
....................       if(VelMotor>6)VelMotor=6; 
0A2C4:  MOVLB  5
0A2C6:  MOVF   xD9,W
0A2C8:  SUBLW  06
0A2CA:  BC    A2D0
0A2CC:  MOVLW  06
0A2CE:  MOVWF  xD9
....................        
....................       strcpy(Menus.Letra,"Seleccion Vel"); 
0A2D0:  MOVLW  04
0A2D2:  MOVWF  FEA
0A2D4:  MOVLW  16
0A2D6:  MOVWF  FE9
0A2D8:  MOVFF  FF2,5E2
0A2DC:  BCF    FF2.7
0A2DE:  MOVLW  00
0A2E0:  MOVLB  0
0A2E2:  CALL   12CA
0A2E6:  TBLRD*-
0A2E8:  TBLRD*+
0A2EA:  MOVF   FF5,W
0A2EC:  MOVWF  FEE
0A2EE:  IORLW  00
0A2F0:  BNZ   A2E8
0A2F2:  MOVLB  5
0A2F4:  BTFSC  xE2.7
0A2F6:  BSF    FF2.7
....................       displayMenu(Menus.Letra,10,0,1,1); 
0A2F8:  MOVLW  04
0A2FA:  MOVWF  xEB
0A2FC:  MOVLW  16
0A2FE:  MOVWF  xEA
0A300:  MOVLW  0A
0A302:  MOVWF  xEC
0A304:  CLRF   xED
0A306:  MOVLW  01
0A308:  MOVWF  xEE
0A30A:  MOVWF  xEF
0A30C:  MOVLB  0
0A30E:  CALL   4DB4
....................        
....................       displayTiempo(VelMotor,50,40,1,2); 
0A312:  MOVFF  5D9,5E2
0A316:  MOVLW  32
0A318:  MOVLB  5
0A31A:  MOVWF  xE3
0A31C:  MOVLW  28
0A31E:  MOVWF  xE4
0A320:  MOVLW  01
0A322:  MOVWF  xE5
0A324:  MOVLW  02
0A326:  MOVWF  xE6
0A328:  MOVLB  0
0A32A:  CALL   5572
....................        
....................       if(UP && VelMotor<6)//Si oprime hacia arriba 
0A32E:  BSF    F92.5
0A330:  BTFSC  F80.5
0A332:  BRA    A352
0A334:  MOVLB  5
0A336:  MOVF   xD9,W
0A338:  SUBLW  05
0A33A:  BTFSC  FD8.0
0A33C:  BRA    A342
0A33E:  MOVLB  0
0A340:  BRA    A352
....................       {   
....................          delay_ms(200);VelMotor++; 
0A342:  MOVLW  C8
0A344:  MOVWF  xF6
0A346:  MOVLB  0
0A348:  CALL   1474
0A34C:  MOVLB  5
0A34E:  INCF   xD9,F
0A350:  MOVLB  0
....................       } 
....................              
....................       if(DOWN && VelMotor>0)//Si oprime hacia abajo 
0A352:  BSF    F96.0
0A354:  BTFSC  F84.0
0A356:  BRA    A374
0A358:  MOVLB  5
0A35A:  MOVF   xD9,F
0A35C:  BTFSS  FD8.2
0A35E:  BRA    A364
0A360:  MOVLB  0
0A362:  BRA    A374
....................       {   
....................          delay_ms(200);VelMotor--; 
0A364:  MOVLW  C8
0A366:  MOVWF  xF6
0A368:  MOVLB  0
0A36A:  CALL   1474
0A36E:  MOVLB  5
0A370:  DECF   xD9,F
0A372:  MOVLB  0
....................       } 
....................              
....................       if(RIGHT)//Si oprime SET 
0A374:  BSF    F96.1
0A376:  BTFSC  F84.1
0A378:  BRA    A382
....................       {            
....................          VelocidadMotor(VelMotor); 
0A37A:  MOVFF  5D9,5E2
0A37E:  CALL   149C
....................       }  
....................              
....................       if(LEFT)//Si oprime boton de Toma. 
0A382:  BSF    F96.2
0A384:  BTFSC  F84.2
0A386:  BRA    A490
....................       {                   
....................          delay_ms(100);glcd_fillscreen(OFF);Opcion=1;unidad=1; 
0A388:  MOVLW  64
0A38A:  MOVLB  5
0A38C:  MOVWF  xF6
0A38E:  MOVLB  0
0A390:  CALL   1474
0A394:  MOVLB  5
0A396:  CLRF   xEA
0A398:  MOVLB  0
0A39A:  CALL   1554
0A39E:  MOVLW  01
0A3A0:  MOVLB  4
0A3A2:  MOVWF  xCE
0A3A4:  MOVWF  xCD
....................          write_eeprom(32,VelMotor);//Guardar valor de Setpoint en eeprom 
0A3A6:  CLRF   FAA
0A3A8:  MOVLW  20
0A3AA:  MOVWF  FA9
0A3AC:  MOVFF  5D9,FA8
0A3B0:  BCF    FA6.6
0A3B2:  BCF    FA6.7
0A3B4:  BSF    FA6.2
0A3B6:  MOVF   FF2,W
0A3B8:  MOVWF  00
0A3BA:  BCF    FF2.7
0A3BC:  MOVLB  F
0A3BE:  MOVLW  55
0A3C0:  MOVWF  FA7
0A3C2:  MOVLW  AA
0A3C4:  MOVWF  FA7
0A3C6:  BSF    FA6.1
0A3C8:  BTFSC  FA6.1
0A3CA:  BRA    A3C8
0A3CC:  BCF    FA6.2
0A3CE:  MOVF   00,W
0A3D0:  IORWF  FF2,F
....................          delay_ms(20); 
0A3D2:  MOVLW  14
0A3D4:  MOVLB  5
0A3D6:  MOVWF  xF6
0A3D8:  MOVLB  0
0A3DA:  CALL   1474
....................          glcd_fillScreen(OFF); 
0A3DE:  MOVLB  5
0A3E0:  CLRF   xEA
0A3E2:  MOVLB  0
0A3E4:  CALL   1554
....................          strcpy(Menus.Letra,"Velocidad"); 
0A3E8:  MOVLW  04
0A3EA:  MOVWF  FEA
0A3EC:  MOVLW  16
0A3EE:  MOVWF  FE9
0A3F0:  MOVFF  FF2,5E2
0A3F4:  BCF    FF2.7
0A3F6:  MOVLW  00
0A3F8:  CALL   12F2
0A3FC:  TBLRD*-
0A3FE:  TBLRD*+
0A400:  MOVF   FF5,W
0A402:  MOVWF  FEE
0A404:  IORLW  00
0A406:  BNZ   A3FE
0A408:  MOVLB  5
0A40A:  BTFSC  xE2.7
0A40C:  BSF    FF2.7
....................          displayMenu(Menus.Letra,0,0,0,2); 
0A40E:  MOVLW  04
0A410:  MOVWF  xEB
0A412:  MOVLW  16
0A414:  MOVWF  xEA
0A416:  CLRF   xEC
0A418:  CLRF   xED
0A41A:  CLRF   xEE
0A41C:  MOVLW  02
0A41E:  MOVWF  xEF
0A420:  MOVLB  0
0A422:  CALL   4DB4
....................          strcpy(Menus.Letra,"Guardada"); 
0A426:  MOVLW  04
0A428:  MOVWF  FEA
0A42A:  MOVLW  16
0A42C:  MOVWF  FE9
0A42E:  MOVFF  FF2,5E2
0A432:  BCF    FF2.7
0A434:  MOVLW  00
0A436:  CALL   1316
0A43A:  TBLRD*-
0A43C:  TBLRD*+
0A43E:  MOVF   FF5,W
0A440:  MOVWF  FEE
0A442:  IORLW  00
0A444:  BNZ   A43C
0A446:  MOVLB  5
0A448:  BTFSC  xE2.7
0A44A:  BSF    FF2.7
....................          displayMenu(Menus.Letra,0,30,0,2); 
0A44C:  MOVLW  04
0A44E:  MOVWF  xEB
0A450:  MOVLW  16
0A452:  MOVWF  xEA
0A454:  CLRF   xEC
0A456:  MOVLW  1E
0A458:  MOVWF  xED
0A45A:  CLRF   xEE
0A45C:  MOVLW  02
0A45E:  MOVWF  xEF
0A460:  MOVLB  0
0A462:  CALL   4DB4
....................          glcd_update(); 
0A466:  CALL   15AE
....................          delay_ms(1000); 
0A46A:  MOVLW  04
0A46C:  MOVLB  5
0A46E:  MOVWF  xE2
0A470:  MOVLW  FA
0A472:  MOVWF  xF6
0A474:  MOVLB  0
0A476:  CALL   1474
0A47A:  MOVLB  5
0A47C:  DECFSZ xE2,F
0A47E:  BRA    A470
....................          glcd_fillScreen(OFF); 
0A480:  CLRF   xEA
0A482:  MOVLB  0
0A484:  CALL   1554
....................          Menu=32; 
0A488:  MOVLW  20
0A48A:  MOVLB  4
0A48C:  MOVWF  xCC
0A48E:  MOVLB  0
....................       } 
....................     } 
.................... //_--------------------------------------------------------------------------------------------------------------------------------------------------------        
....................  
....................    if(tiemporeset>=60) 
0A490:  MOVLB  4
0A492:  MOVF   xD2,W
0A494:  SUBLW  3B
0A496:  BC    A4AE
....................    { 
....................       if(Menu!=200){ 
0A498:  MOVF   xCC,W
0A49A:  SUBLW  C8
0A49C:  BZ    A4AE
....................          glcd_init(ON); 
0A49E:  MOVLW  01
0A4A0:  MOVLB  5
0A4A2:  MOVWF  xE2
0A4A4:  MOVLB  0
0A4A6:  CALL   1666
....................          tiemporeset=0; 
0A4AA:  MOVLB  4
0A4AC:  CLRF   xD2
....................       } 
....................    }  
.................... } 
0A4AE:  MOVLB  0
0A4B0:  GOTO   6664
....................  
.................... } 
....................  
0A4B4:  SLEEP 

Configuration Fuses:
   Word  1: 0200   HS NOIESO NOFCMEN
   Word  2: 1E1F   BROWNOUT NOWDT BORV21 NOPUT WDT32768
   Word  3: 0000   NOPBADEN NOLPT1OSC NOMCLR
   Word  4: 00B0   NOSTVREN NODEBUG NOLVP NOXINST BBSIZ4K
   Word  5: C00F   NOPROTECT NOCPD NOCPB
   Word  6: E00F   NOWRT NOWRTD NOWRTC NOWRTB
   Word  7: 400F   NOEBTR NOEBTRB
