CCS PCH C Compiler, Version 4.104, 5967               27-ene.-21 15:39

               Filename: D:\Laboratorio\Cabina de PCR\2021\JP24-PCR GLCD Humalib  #004588469 OP202131\Firmware - 18F4620 -MPXV5004GV\Maestro_v2.lst

               ROM used: 42198 bytes (64%)
                         Largest free fragment is 23334
               RAM used: 1520 (38%) at main() level
                         1593 (40%) worst case
               Stack:    8 worst case (6 in main + 2 for interrupts)

*
00000:  GOTO   60CE
*
00008:  MOVWF  04
0000A:  MOVFF  FD8,05
0000E:  MOVFF  FE0,06
00012:  MOVLB  0
00014:  MOVFF  FE9,0C
00018:  MOVFF  FEA,07
0001C:  MOVFF  FE1,08
00020:  MOVFF  FE2,09
00024:  MOVFF  FD9,0A
00028:  MOVFF  FDA,0B
0002C:  MOVFF  FF3,12
00030:  MOVFF  FF4,13
00034:  MOVFF  FFA,14
00038:  MOVFF  00,0E
0003C:  MOVFF  01,0F
00040:  MOVFF  02,10
00044:  MOVFF  03,11
00048:  BTFSS  FF2.4
0004A:  GOTO   0054
0004E:  BTFSC  FF2.1
00050:  GOTO   135A
00054:  MOVFF  0E,00
00058:  MOVFF  0F,01
0005C:  MOVFF  10,02
00060:  MOVFF  11,03
00064:  MOVFF  0C,FE9
00068:  MOVFF  07,FEA
0006C:  BSF    07.7
0006E:  MOVFF  08,FE1
00072:  MOVFF  09,FE2
00076:  MOVFF  0A,FD9
0007A:  MOVFF  0B,FDA
0007E:  MOVFF  12,FF3
00082:  MOVFF  13,FF4
00086:  MOVFF  14,FFA
0008A:  MOVF   04,W
0008C:  MOVFF  06,FE0
00090:  MOVFF  05,FD8
00094:  RETFIE 0
.................... //Programa para Cabina de Bioseguridad 
....................  
.................... #include <18F4620.h> 
.................... //////// Standard Header file for the PIC18F4620 device //////////////// 
.................... #device PIC18F4620 
.................... #list 
....................  
.................... #device adc=10 
.................... #fuses HS,NOWDT,NOPROTECT,NOLVP,NODEBUG,NOSTVREN,NOPUT,NOCPD,NOWRT,NOIESO,NOFCMEN,NOPBADEN,NOWRTC,NOWRTB,NOEBTR,NOEBTRB,NOCPB,NOXINST,NOLPT1OSC,NOMCLR 
.................... #use delay(clock=20000000) 
*
0133A:  MOVLW  03
0133C:  MOVLB  6
0133E:  SUBWF  x38,F
01340:  BNC   1356
01342:  MOVLW  06
01344:  MOVWF  FEA
01346:  MOVLW  38
01348:  MOVWF  FE9
0134A:  MOVF   FEF,W
0134C:  BZ    1356
0134E:  BRA    1352
01350:  BRA    1352
01352:  DECFSZ FEF,F
01354:  BRA    1350
01356:  MOVLB  0
01358:  RETLW  00
*
014DC:  MOVLW  06
014DE:  MOVWF  FEA
014E0:  CLRF   FE9
014E2:  MOVF   FEF,W
014E4:  BZ    1500
014E6:  MOVLW  06
014E8:  MOVWF  01
014EA:  CLRF   00
014EC:  DECFSZ 00,F
014EE:  BRA    14EC
014F0:  DECFSZ 01,F
014F2:  BRA    14EA
014F4:  MOVLW  7B
014F6:  MOVWF  00
014F8:  DECFSZ 00,F
014FA:  BRA    14F8
014FC:  DECFSZ FEF,F
014FE:  BRA    14E6
01500:  RETLW  00
.................... #include <MATH.h> 
.................... //////////////////////////////////////////////////////////////////////////// 
.................... ////        (C) Copyright 1996,2008 Custom Computer Services            //// 
.................... //// This source code may only be used by licensed users of the CCS C   //// 
.................... //// compiler.  This source code may only be distributed to other       //// 
.................... //// licensed users of the CCS C compiler.  No other use, reproduction  //// 
.................... //// or distribution is permitted without written permission.           //// 
.................... //// Derivative programs created using this software in object code     //// 
.................... //// form are not restricted in any way.                                //// 
.................... //////////////////////////////////////////////////////////////////////////// 
.................... ////                                                                    //// 
.................... //// History:                                                           //// 
.................... ////  * 9/20/2001 :  Improvments are made to sin/cos code.              //// 
.................... ////                 The code now is small, much faster,                //// 
.................... ////                 and more accurate.                                 //// 
.................... ////  * 2/21/2007 :  Compiler handles & operator differently and does 
.................... ////                 not return generic (int8 *) so type cast is done   //// 
.................... ////                                                                    //// 
.................... //////////////////////////////////////////////////////////////////////////// 
....................  
.................... #ifndef MATH_H 
.................... #define MATH_H 
....................  
.................... #ifdef PI 
.................... #undef  PI 
.................... #endif 
.................... #define PI     3.1415926535897932 
....................  
....................  
.................... #define SQRT2  1.4142135623730950 
....................  
.................... //float const ps[4] = {5.9304945, 21.125224, 8.9403076, 0.29730279}; 
.................... //float const qs[4] = {1.0000000, 15.035723, 17.764134, 2.4934718}; 
....................  
.................... ///////////////////////////// Round Functions ////////////////////////////// 
....................  
.................... float32 CEIL_FLOOR(float32 x, unsigned int8 n) 
.................... { 
....................    float32 y, res; 
....................    unsigned int16 l; 
....................    int1 s; 
....................  
....................    s = 0; 
*
03122:  MOVLB  6
03124:  BCF    x1C.0
....................    y = x; 
03126:  MOVFF  610,615
0312A:  MOVFF  60F,614
0312E:  MOVFF  60E,613
03132:  MOVFF  60D,612
....................  
....................    if (x < 0) 
03136:  MOVFF  610,620
0313A:  MOVFF  60F,61F
0313E:  MOVFF  60E,61E
03142:  MOVFF  60D,61D
03146:  CLRF   x24
03148:  CLRF   x23
0314A:  CLRF   x22
0314C:  CLRF   x21
0314E:  MOVLB  0
03150:  CALL   2584
03154:  BNC   3160
....................    { 
....................       s = 1; 
03156:  MOVLB  6
03158:  BSF    x1C.0
....................       y = -y; 
0315A:  MOVF   x13,W
0315C:  XORLW  80
0315E:  MOVWF  x13
....................    } 
....................  
....................    if (y <= 32768.0) 
03160:  MOVFF  615,620
03164:  MOVFF  614,61F
03168:  MOVFF  613,61E
0316C:  MOVFF  612,61D
03170:  MOVLB  6
03172:  CLRF   x24
03174:  CLRF   x23
03176:  CLRF   x22
03178:  MOVLW  8E
0317A:  MOVWF  x21
0317C:  MOVLB  0
0317E:  CALL   2584
03182:  BC    3186
03184:  BNZ   31B6
....................   res = (float32)(unsigned int16)y; 
03186:  MOVFF  615,620
0318A:  MOVFF  614,61F
0318E:  MOVFF  613,61E
03192:  MOVFF  612,61D
03196:  RCALL  2FF0
03198:  MOVFF  02,622
0319C:  MOVFF  01,621
031A0:  CALL   19E8
031A4:  MOVFF  03,619
031A8:  MOVFF  02,618
031AC:  MOVFF  01,617
031B0:  MOVFF  00,616
....................  
....................  else if (y < 10000000.0) 
031B4:  BRA    3354
031B6:  MOVFF  615,620
031BA:  MOVFF  614,61F
031BE:  MOVFF  613,61E
031C2:  MOVFF  612,61D
031C6:  MOVLW  80
031C8:  MOVLB  6
031CA:  MOVWF  x24
031CC:  MOVLW  96
031CE:  MOVWF  x23
031D0:  MOVLW  18
031D2:  MOVWF  x22
031D4:  MOVLW  96
031D6:  MOVWF  x21
031D8:  MOVLB  0
031DA:  CALL   2584
031DE:  BTFSS  FD8.0
031E0:  BRA    3344
....................    { 
....................   l = (unsigned int16)(y/32768.0); 
031E2:  MOVFF  615,620
031E6:  MOVFF  614,61F
031EA:  MOVFF  613,61E
031EE:  MOVFF  612,61D
031F2:  MOVLB  6
031F4:  CLRF   x24
031F6:  CLRF   x23
031F8:  CLRF   x22
031FA:  MOVLW  8E
031FC:  MOVWF  x21
031FE:  MOVLB  0
03200:  CALL   1A1E
03204:  MOVFF  03,620
03208:  MOVFF  02,61F
0320C:  MOVFF  01,61E
03210:  MOVFF  00,61D
03214:  RCALL  2FF0
03216:  MOVFF  02,61B
0321A:  MOVFF  01,61A
....................       y = 32768.0*(y/32768.0 - (float32)l); 
0321E:  MOVFF  615,620
03222:  MOVFF  614,61F
03226:  MOVFF  613,61E
0322A:  MOVFF  612,61D
0322E:  MOVLB  6
03230:  CLRF   x24
03232:  CLRF   x23
03234:  CLRF   x22
03236:  MOVLW  8E
03238:  MOVWF  x21
0323A:  MOVLB  0
0323C:  CALL   1A1E
03240:  MOVFF  00,61D
03244:  MOVFF  01,61E
03248:  MOVFF  02,61F
0324C:  MOVFF  03,620
03250:  MOVFF  61B,622
03254:  MOVFF  61A,621
03258:  CALL   19E8
0325C:  BSF    FD8.1
0325E:  MOVFF  620,624
03262:  MOVFF  61F,623
03266:  MOVFF  61E,622
0326A:  MOVFF  61D,621
0326E:  MOVFF  03,628
03272:  MOVFF  02,627
03276:  MOVFF  01,626
0327A:  MOVFF  00,625
0327E:  CALL   1B7C
03282:  MOVLB  6
03284:  CLRF   x20
03286:  CLRF   x1F
03288:  CLRF   x1E
0328A:  MOVLW  8E
0328C:  MOVWF  x1D
0328E:  MOVFF  03,624
03292:  MOVFF  02,623
03296:  MOVFF  01,622
0329A:  MOVFF  00,621
0329E:  MOVLB  0
032A0:  RCALL  302C
032A2:  MOVFF  03,615
032A6:  MOVFF  02,614
032AA:  MOVFF  01,613
032AE:  MOVFF  00,612
....................   res = 32768.0*(float32)l; 
032B2:  MOVFF  61B,622
032B6:  MOVFF  61A,621
032BA:  CALL   19E8
032BE:  MOVLB  6
032C0:  CLRF   x20
032C2:  CLRF   x1F
032C4:  CLRF   x1E
032C6:  MOVLW  8E
032C8:  MOVWF  x1D
032CA:  MOVFF  03,624
032CE:  MOVFF  02,623
032D2:  MOVFF  01,622
032D6:  MOVFF  00,621
032DA:  MOVLB  0
032DC:  RCALL  302C
032DE:  MOVFF  03,619
032E2:  MOVFF  02,618
032E6:  MOVFF  01,617
032EA:  MOVFF  00,616
....................   res += (float32)(unsigned int16)y; 
032EE:  MOVFF  615,620
032F2:  MOVFF  614,61F
032F6:  MOVFF  613,61E
032FA:  MOVFF  612,61D
032FE:  RCALL  2FF0
03300:  MOVFF  02,622
03304:  MOVFF  01,621
03308:  CALL   19E8
0330C:  BCF    FD8.1
0330E:  MOVFF  619,624
03312:  MOVFF  618,623
03316:  MOVFF  617,622
0331A:  MOVFF  616,621
0331E:  MOVFF  03,628
03322:  MOVFF  02,627
03326:  MOVFF  01,626
0332A:  MOVFF  00,625
0332E:  CALL   1B7C
03332:  MOVFF  03,619
03336:  MOVFF  02,618
0333A:  MOVFF  01,617
0333E:  MOVFF  00,616
....................  } 
....................  
....................  else 
03342:  BRA    3354
....................   res = y; 
03344:  MOVFF  615,619
03348:  MOVFF  614,618
0334C:  MOVFF  613,617
03350:  MOVFF  612,616
....................  
....................  y = y - (float32)(unsigned int16)y; 
03354:  MOVFF  615,620
03358:  MOVFF  614,61F
0335C:  MOVFF  613,61E
03360:  MOVFF  612,61D
03364:  RCALL  2FF0
03366:  MOVFF  02,622
0336A:  MOVFF  01,621
0336E:  CALL   19E8
03372:  BSF    FD8.1
03374:  MOVFF  615,624
03378:  MOVFF  614,623
0337C:  MOVFF  613,622
03380:  MOVFF  612,621
03384:  MOVFF  03,628
03388:  MOVFF  02,627
0338C:  MOVFF  01,626
03390:  MOVFF  00,625
03394:  CALL   1B7C
03398:  MOVFF  03,615
0339C:  MOVFF  02,614
033A0:  MOVFF  01,613
033A4:  MOVFF  00,612
....................  
....................  if (s) 
033A8:  MOVLB  6
033AA:  BTFSS  x1C.0
033AC:  BRA    33B4
....................   res = -res; 
033AE:  MOVF   x17,W
033B0:  XORLW  80
033B2:  MOVWF  x17
....................  
....................  if (y != 0) 
033B4:  MOVFF  615,620
033B8:  MOVFF  614,61F
033BC:  MOVFF  613,61E
033C0:  MOVFF  612,61D
033C4:  CLRF   x24
033C6:  CLRF   x23
033C8:  CLRF   x22
033CA:  CLRF   x21
033CC:  MOVLB  0
033CE:  CALL   2584
033D2:  BZ    344C
....................  { 
....................   if (s == 1 && n == 0) 
033D4:  MOVLB  6
033D6:  BTFSS  x1C.0
033D8:  BRA    3412
033DA:  MOVF   x11,F
033DC:  BNZ   3412
....................    res -= 1.0; 
033DE:  BSF    FD8.1
033E0:  MOVFF  619,624
033E4:  MOVFF  618,623
033E8:  MOVFF  617,622
033EC:  MOVFF  616,621
033F0:  CLRF   x28
033F2:  CLRF   x27
033F4:  CLRF   x26
033F6:  MOVLW  7F
033F8:  MOVWF  x25
033FA:  MOVLB  0
033FC:  CALL   1B7C
03400:  MOVFF  03,619
03404:  MOVFF  02,618
03408:  MOVFF  01,617
0340C:  MOVFF  00,616
03410:  MOVLB  6
....................  
....................   if (s == 0 && n == 1) 
03412:  BTFSC  x1C.0
03414:  BRA    344E
03416:  DECFSZ x11,W
03418:  BRA    344E
....................    res += 1.0; 
0341A:  BCF    FD8.1
0341C:  MOVFF  619,624
03420:  MOVFF  618,623
03424:  MOVFF  617,622
03428:  MOVFF  616,621
0342C:  CLRF   x28
0342E:  CLRF   x27
03430:  CLRF   x26
03432:  MOVLW  7F
03434:  MOVWF  x25
03436:  MOVLB  0
03438:  CALL   1B7C
0343C:  MOVFF  03,619
03440:  MOVFF  02,618
03444:  MOVFF  01,617
03448:  MOVFF  00,616
0344C:  MOVLB  6
....................  } 
....................  if (x == 0) 
0344E:  MOVFF  610,620
03452:  MOVFF  60F,61F
03456:  MOVFF  60E,61E
0345A:  MOVFF  60D,61D
0345E:  CLRF   x24
03460:  CLRF   x23
03462:  CLRF   x22
03464:  CLRF   x21
03466:  MOVLB  0
03468:  CALL   2584
0346C:  BNZ   347A
....................     res = 0; 
0346E:  MOVLB  6
03470:  CLRF   x19
03472:  CLRF   x18
03474:  CLRF   x17
03476:  CLRF   x16
03478:  MOVLB  0
....................  
....................  return (res); 
0347A:  MOVFF  616,00
0347E:  MOVFF  617,01
03482:  MOVFF  618,02
03486:  MOVFF  619,03
.................... } 
0348A:  RETLW  00
....................  
.................... // Overloaded Functions to take care for new Data types in PCD 
.................... // Overloaded function CEIL_FLOOR() for data type - Float48 
.................... #if defined(__PCD__) 
.................... float48 CEIL_FLOOR(float48 x, unsigned int8 n) 
.................... { 
....................    float48 y, res; 
....................    unsigned int16 l; 
....................    int1 s; 
....................  
....................    s = 0; 
....................    y = x; 
....................  
....................    if (x < 0) 
....................    { 
....................       s = 1; 
....................       y = -y; 
....................    } 
....................  
....................    if (y <= 32768.0) 
....................   res = (float48)(unsigned int16)y; 
....................  
....................  else if (y < 10000000.0) 
....................    { 
....................   l = (unsigned int16)(y/32768.0); 
....................       y = 32768.0*(y/32768.0 - (float48)l); 
....................   res = 32768.0*(float32)l; 
....................   res += (float48)(unsigned int16)y; 
....................  } 
....................  
....................  else 
....................   res = y; 
....................  
....................  y = y - (float48)(unsigned int16)y; 
....................  
....................  if (s) 
....................   res = -res; 
....................  
....................  if (y != 0) 
....................  { 
....................   if (s == 1 && n == 0) 
....................    res -= 1.0; 
....................  
....................   if (s == 0 && n == 1) 
....................    res += 1.0; 
....................  } 
....................  if (x == 0) 
....................     res = 0; 
....................  
....................  return (res); 
.................... } 
....................  
....................  
.................... // Overloaded function CEIL_FLOOR() for data type - Float64 
.................... float64 CEIL_FLOOR(float64 x, unsigned int8 n) 
.................... { 
....................    float64 y, res; 
....................    unsigned int16 l; 
....................    int1 s; 
....................  
....................    s = 0; 
....................    y = x; 
....................  
....................    if (x < 0) 
....................    { 
....................       s = 1; 
....................       y = -y; 
....................    } 
....................  
....................    if (y <= 32768.0) 
....................   res = (float64)(unsigned int16)y; 
....................  
....................  else if (y < 10000000.0) 
....................    { 
....................   l = (unsigned int16)(y/32768.0); 
....................       y = 32768.0*(y/32768.0 - (float64)l); 
....................   res = 32768.0*(float64)l; 
....................   res += (float64)(unsigned int16)y; 
....................  } 
....................  
....................  else 
....................   res = y; 
....................  
....................  y = y - (float64)(unsigned int16)y; 
....................  
....................  if (s) 
....................   res = -res; 
....................  
....................  if (y != 0) 
....................  { 
....................   if (s == 1 && n == 0) 
....................    res -= 1.0; 
....................  
....................   if (s == 0 && n == 1) 
....................    res += 1.0; 
....................  } 
....................  if (x == 0) 
....................     res = 0; 
....................  
....................  return (res); 
.................... } 
.................... #endif 
....................  
.................... //////////////////////////////////////////////////////////////////////////// 
.................... //   float floor(float x) 
.................... //////////////////////////////////////////////////////////////////////////// 
.................... // Description : rounds down the number x. 
.................... // Date : N/A 
.................... // 
.................... float32 floor(float32 x) 
.................... { 
....................    return CEIL_FLOOR(x, 0); 
*
034AA:  MOVFF  60C,610
034AE:  MOVFF  60B,60F
034B2:  MOVFF  60A,60E
034B6:  MOVFF  609,60D
034BA:  MOVLB  6
034BC:  CLRF   x11
034BE:  MOVLB  0
034C0:  RCALL  3122
.................... } 
034C2:  GOTO   35CE (RETURN)
.................... // Following 2 functions are overloaded functions of floor() for PCD 
.................... // Overloaded function floor() for data type - Float48 
.................... #if defined(__PCD__) 
.................... float48 floor(float48 x) 
.................... { 
....................    return CEIL_FLOOR(x, 0); 
.................... } 
....................  
.................... // Overloaded function floor() for data type - Float64 
.................... float64 floor(float64 x) 
.................... { 
....................    return CEIL_FLOOR(x, 0); 
.................... } 
.................... #endif 
....................  
....................  
.................... //////////////////////////////////////////////////////////////////////////// 
.................... //   float ceil(float x) 
.................... //////////////////////////////////////////////////////////////////////////// 
.................... // Description : rounds up the number x. 
.................... // Date : N/A 
.................... // 
.................... float32 ceil(float32 x) 
.................... { 
....................    return CEIL_FLOOR(x, 1); 
*
0348C:  MOVFF  60C,610
03490:  MOVFF  60B,60F
03494:  MOVFF  60A,60E
03498:  MOVFF  609,60D
0349C:  MOVLW  01
0349E:  MOVLB  6
034A0:  MOVWF  x11
034A2:  MOVLB  0
034A4:  RCALL  3122
.................... } 
034A6:  GOTO   3586 (RETURN)
.................... // Following 2 functions are overloaded functions of ceil() for PCD 
.................... // Overloaded function ceil() for data type - Float48 
.................... #if defined(__PCD__) 
.................... float48 ceil(float48 x) 
.................... { 
....................    return CEIL_FLOOR(x, 1); 
.................... } 
....................  
.................... // Overloaded function ceil() for data type - Float64 
.................... float64 ceil(float64 x) 
.................... { 
....................    return CEIL_FLOOR(x, 1); 
.................... } 
.................... #endif 
....................  
....................  //////////////////////////////////////////////////////////////////////////// 
.................... //   float fabs(float x) 
.................... //////////////////////////////////////////////////////////////////////////// 
.................... // Description : Computes the absolute value of floating point number x 
.................... // Returns : returns the absolute value of x 
.................... // Date : N/A 
.................... // 
.................... #define fabs abs 
....................  
.................... //////////////////////////////////////////////////////////////////////////// 
.................... //   float fmod(float x) 
.................... //////////////////////////////////////////////////////////////////////////// 
.................... // Description : Computes the floating point remainder of x/y 
.................... // Returns : returns the value of x= i*y, for some integer i such that, if y 
.................... // is non zero, the result has the same isgn of x na dmagnitude less than the 
.................... // magnitude of y. If y is zero then a domain error occurs. 
.................... // Date : N/A 
.................... // 
....................  
.................... float fmod(float32 x,float32 y) 
.................... { 
....................    float32 i; 
....................    if (y!=0.0) 
*
034C6:  MOVFF  600,620
034CA:  MOVFF  5FF,61F
034CE:  MOVFF  5FE,61E
034D2:  MOVFF  5FD,61D
034D6:  MOVLB  6
034D8:  CLRF   x24
034DA:  CLRF   x23
034DC:  CLRF   x22
034DE:  CLRF   x21
034E0:  MOVLB  0
034E2:  CALL   2584
034E6:  BTFSC  FD8.2
034E8:  BRA    362A
....................    { 
....................       i=(x/y < 0.0)? ceil(x/y): floor(x/y); 
034EA:  MOVFF  5FC,620
034EE:  MOVFF  5FB,61F
034F2:  MOVFF  5FA,61E
034F6:  MOVFF  5F9,61D
034FA:  MOVFF  600,624
034FE:  MOVFF  5FF,623
03502:  MOVFF  5FE,622
03506:  MOVFF  5FD,621
0350A:  CALL   1A1E
0350E:  MOVFF  00,605
03512:  MOVFF  01,606
03516:  MOVFF  02,607
0351A:  MOVFF  03,608
0351E:  MOVFF  03,620
03522:  MOVFF  02,61F
03526:  MOVFF  01,61E
0352A:  MOVFF  00,61D
0352E:  MOVLB  6
03530:  CLRF   x24
03532:  CLRF   x23
03534:  CLRF   x22
03536:  CLRF   x21
03538:  MOVLB  0
0353A:  CALL   2584
0353E:  BNC   3588
03540:  MOVFF  5FC,620
03544:  MOVFF  5FB,61F
03548:  MOVFF  5FA,61E
0354C:  MOVFF  5F9,61D
03550:  MOVFF  600,624
03554:  MOVFF  5FF,623
03558:  MOVFF  5FE,622
0355C:  MOVFF  5FD,621
03560:  CALL   1A1E
03564:  MOVFF  00,605
03568:  MOVFF  01,606
0356C:  MOVFF  02,607
03570:  MOVFF  03,608
03574:  MOVFF  03,60C
03578:  MOVFF  02,60B
0357C:  MOVFF  01,60A
03580:  MOVFF  00,609
03584:  BRA    348C
03586:  BRA    35CE
03588:  MOVFF  5FC,620
0358C:  MOVFF  5FB,61F
03590:  MOVFF  5FA,61E
03594:  MOVFF  5F9,61D
03598:  MOVFF  600,624
0359C:  MOVFF  5FF,623
035A0:  MOVFF  5FE,622
035A4:  MOVFF  5FD,621
035A8:  CALL   1A1E
035AC:  MOVFF  00,605
035B0:  MOVFF  01,606
035B4:  MOVFF  02,607
035B8:  MOVFF  03,608
035BC:  MOVFF  03,60C
035C0:  MOVFF  02,60B
035C4:  MOVFF  01,60A
035C8:  MOVFF  00,609
035CC:  BRA    34AA
035CE:  MOVFF  03,604
035D2:  MOVFF  02,603
035D6:  MOVFF  01,602
035DA:  MOVFF  00,601
....................       return(x-(i*y)); 
035DE:  MOVFF  604,620
035E2:  MOVFF  603,61F
035E6:  MOVFF  602,61E
035EA:  MOVFF  601,61D
035EE:  MOVFF  600,624
035F2:  MOVFF  5FF,623
035F6:  MOVFF  5FE,622
035FA:  MOVFF  5FD,621
035FE:  RCALL  302C
03600:  BSF    FD8.1
03602:  MOVFF  5FC,624
03606:  MOVFF  5FB,623
0360A:  MOVFF  5FA,622
0360E:  MOVFF  5F9,621
03612:  MOVFF  03,628
03616:  MOVFF  02,627
0361A:  MOVFF  01,626
0361E:  MOVFF  00,625
03622:  CALL   1B7C
03626:  BRA    362A
....................    } 
....................    else 
03628:  BRA    362A
....................    { 
....................    #ifdef _ERRNO 
....................    { 
....................       errno=EDOM; 
....................    } 
....................    #endif 
....................    } 
.................... } 
0362A:  RETLW  00
.................... //Overloaded function for fmod() for PCD 
.................... // Overloaded function fmod() for data type - Float48 
.................... #if defined(__PCD__) 
.................... float48 fmod(float48 x,float48 y) 
.................... { 
....................    float48 i; 
....................    if (y!=0.0) 
....................    { 
....................       i=(x/y < 0.0)? ceil(x/y): floor(x/y); 
....................       return(x-(i*y)); 
....................    } 
....................    else 
....................    { 
....................    #ifdef _ERRNO 
....................    { 
....................       errno=EDOM; 
....................    } 
....................    #endif 
....................    } 
.................... } 
.................... // Overloaded function fmod() for data type - Float64 
.................... float64 fmod(float64 x,float64 y) 
.................... { 
....................    float64 i; 
....................    if (y!=0.0) 
....................    { 
....................       i=(x/y < 0.0)? ceil(x/y): floor(x/y); 
....................       return(x-(i*y)); 
....................    } 
....................    else 
....................    { 
....................    #ifdef _ERRNO 
....................    { 
....................       errno=EDOM; 
....................    } 
....................    #endif 
....................    } 
.................... } 
.................... #endif 
.................... //////////////////// Exponential and logarithmic functions //////////////////// 
.................... //////////////////////////////////////////////////////////////////////////// 
.................... //   float exp(float x) 
.................... //////////////////////////////////////////////////////////////////////////// 
.................... // Description : returns the value (e^x) 
.................... // Date : N/A 
.................... // 
.................... #define LN2 0.6931471805599453 
....................  
.................... float const pe[6] = {0.000207455774, 0.00127100575, 0.00965065093, 
....................                      0.0554965651,  0.240227138,  0.693147172}; 
....................  
....................  
.................... float32 exp(float32 x) 
.................... { 
....................    float32 y, res, r; 
....................    #if defined(__PCD__) 
....................    int8 data1; 
....................    #endif 
....................    signed int8 n; 
....................    int1 s; 
....................    #ifdef _ERRNO 
....................    if(x > 88.722838) 
....................    { 
....................       errno=ERANGE; 
....................       return(0); 
....................    } 
....................    #endif 
....................    n = (signed int16)(x/LN2); 
*
03B56:  MOVFF  600,620
03B5A:  MOVFF  5FF,61F
03B5E:  MOVFF  5FE,61E
03B62:  MOVFF  5FD,61D
03B66:  MOVLW  18
03B68:  MOVLB  6
03B6A:  MOVWF  x24
03B6C:  MOVLW  72
03B6E:  MOVWF  x23
03B70:  MOVLW  31
03B72:  MOVWF  x22
03B74:  MOVLW  7E
03B76:  MOVWF  x21
03B78:  MOVLB  0
03B7A:  CALL   1A1E
03B7E:  MOVFF  03,620
03B82:  MOVFF  02,61F
03B86:  MOVFF  01,61E
03B8A:  MOVFF  00,61D
03B8E:  CALL   2FF0
03B92:  MOVFF  01,60D
....................    s = 0; 
03B96:  MOVLB  6
03B98:  BCF    x0E.0
....................    y = x; 
03B9A:  MOVFF  600,604
03B9E:  MOVFF  5FF,603
03BA2:  MOVFF  5FE,602
03BA6:  MOVFF  5FD,601
....................  
....................    if (x < 0) 
03BAA:  MOVFF  600,620
03BAE:  MOVFF  5FF,61F
03BB2:  MOVFF  5FE,61E
03BB6:  MOVFF  5FD,61D
03BBA:  CLRF   x24
03BBC:  CLRF   x23
03BBE:  CLRF   x22
03BC0:  CLRF   x21
03BC2:  MOVLB  0
03BC4:  CALL   2584
03BC8:  BNC   3BD6
....................    { 
....................       s = 1; 
03BCA:  MOVLB  6
03BCC:  BSF    x0E.0
....................       n = -n; 
03BCE:  NEGF   x0D
....................       y = -y; 
03BD0:  MOVF   x02,W
03BD2:  XORLW  80
03BD4:  MOVWF  x02
....................    } 
....................  
....................    res = 0.0; 
03BD6:  MOVLB  6
03BD8:  CLRF   x08
03BDA:  CLRF   x07
03BDC:  CLRF   x06
03BDE:  CLRF   x05
.................... #if !defined(__PCD__) 
....................    *((unsigned int8 *)(&res)) = n + 0x7F; 
03BE0:  MOVLW  06
03BE2:  MOVWF  x10
03BE4:  MOVLW  05
03BE6:  MOVWF  FE9
03BE8:  MOVFF  610,FEA
03BEC:  MOVLW  7F
03BEE:  ADDWF  x0D,W
03BF0:  MOVWF  FEF
.................... #endif 
....................  
.................... #if defined(__PCD__)  // Takes care of IEEE format for PCD 
....................    data1 = n+0x7F; 
....................    if(bit_test(data1,0)) 
....................    bit_set(*(((unsigned int8 *)(&res)+2)),7); 
....................    rotate_right(&data1,1); 
....................    bit_clear(data1,7); 
....................    *(((unsigned int8 *)(&res)+3)) = data1; 
.................... #endif 
....................  
....................    y = y/LN2 - (float32)n; 
03BF2:  MOVFF  604,620
03BF6:  MOVFF  603,61F
03BFA:  MOVFF  602,61E
03BFE:  MOVFF  601,61D
03C02:  MOVLW  18
03C04:  MOVWF  x24
03C06:  MOVLW  72
03C08:  MOVWF  x23
03C0A:  MOVLW  31
03C0C:  MOVWF  x22
03C0E:  MOVLW  7E
03C10:  MOVWF  x21
03C12:  MOVLB  0
03C14:  CALL   1A1E
03C18:  MOVFF  00,60F
03C1C:  MOVFF  01,610
03C20:  MOVFF  02,611
03C24:  MOVFF  03,612
03C28:  MOVLB  6
03C2A:  CLRF   x17
03C2C:  MOVFF  60D,616
03C30:  BTFSC  x16.7
03C32:  DECF   x17,F
03C34:  MOVLB  0
03C36:  RCALL  362C
03C38:  BSF    FD8.1
03C3A:  MOVFF  612,624
03C3E:  MOVFF  611,623
03C42:  MOVFF  610,622
03C46:  MOVFF  60F,621
03C4A:  MOVFF  03,628
03C4E:  MOVFF  02,627
03C52:  MOVFF  01,626
03C56:  MOVFF  00,625
03C5A:  CALL   1B7C
03C5E:  MOVFF  03,604
03C62:  MOVFF  02,603
03C66:  MOVFF  01,602
03C6A:  MOVFF  00,601
....................  
....................    r = pe[0]*y + pe[1]; 
03C6E:  MOVLW  7C
03C70:  MOVLB  6
03C72:  MOVWF  x20
03C74:  MOVLW  88
03C76:  MOVWF  x1F
03C78:  MOVLW  59
03C7A:  MOVWF  x1E
03C7C:  MOVLW  72
03C7E:  MOVWF  x1D
03C80:  MOVFF  604,624
03C84:  MOVFF  603,623
03C88:  MOVFF  602,622
03C8C:  MOVFF  601,621
03C90:  MOVLB  0
03C92:  CALL   302C
03C96:  MOVFF  00,60F
03C9A:  MOVFF  01,610
03C9E:  MOVFF  02,611
03CA2:  MOVFF  03,612
03CA6:  BCF    FD8.1
03CA8:  MOVFF  03,624
03CAC:  MOVFF  02,623
03CB0:  MOVFF  01,622
03CB4:  MOVFF  00,621
03CB8:  MOVLW  E0
03CBA:  MOVLB  6
03CBC:  MOVWF  x28
03CBE:  MOVLW  97
03CC0:  MOVWF  x27
03CC2:  MOVLW  26
03CC4:  MOVWF  x26
03CC6:  MOVLW  75
03CC8:  MOVWF  x25
03CCA:  MOVLB  0
03CCC:  CALL   1B7C
03CD0:  MOVFF  03,60C
03CD4:  MOVFF  02,60B
03CD8:  MOVFF  01,60A
03CDC:  MOVFF  00,609
....................    r = r*y + pe[2]; 
03CE0:  MOVFF  60C,620
03CE4:  MOVFF  60B,61F
03CE8:  MOVFF  60A,61E
03CEC:  MOVFF  609,61D
03CF0:  MOVFF  604,624
03CF4:  MOVFF  603,623
03CF8:  MOVFF  602,622
03CFC:  MOVFF  601,621
03D00:  CALL   302C
03D04:  MOVFF  00,60F
03D08:  MOVFF  01,610
03D0C:  MOVFF  02,611
03D10:  MOVFF  03,612
03D14:  BCF    FD8.1
03D16:  MOVFF  03,624
03D1A:  MOVFF  02,623
03D1E:  MOVFF  01,622
03D22:  MOVFF  00,621
03D26:  MOVLW  C4
03D28:  MOVLB  6
03D2A:  MOVWF  x28
03D2C:  MOVLW  1D
03D2E:  MOVWF  x27
03D30:  MOVLW  1E
03D32:  MOVWF  x26
03D34:  MOVLW  78
03D36:  MOVWF  x25
03D38:  MOVLB  0
03D3A:  CALL   1B7C
03D3E:  MOVFF  03,60C
03D42:  MOVFF  02,60B
03D46:  MOVFF  01,60A
03D4A:  MOVFF  00,609
....................    r = r*y + pe[3]; 
03D4E:  MOVFF  60C,620
03D52:  MOVFF  60B,61F
03D56:  MOVFF  60A,61E
03D5A:  MOVFF  609,61D
03D5E:  MOVFF  604,624
03D62:  MOVFF  603,623
03D66:  MOVFF  602,622
03D6A:  MOVFF  601,621
03D6E:  CALL   302C
03D72:  MOVFF  00,60F
03D76:  MOVFF  01,610
03D7A:  MOVFF  02,611
03D7E:  MOVFF  03,612
03D82:  BCF    FD8.1
03D84:  MOVFF  03,624
03D88:  MOVFF  02,623
03D8C:  MOVFF  01,622
03D90:  MOVFF  00,621
03D94:  MOVLW  5E
03D96:  MOVLB  6
03D98:  MOVWF  x28
03D9A:  MOVLW  50
03D9C:  MOVWF  x27
03D9E:  MOVLW  63
03DA0:  MOVWF  x26
03DA2:  MOVLW  7A
03DA4:  MOVWF  x25
03DA6:  MOVLB  0
03DA8:  CALL   1B7C
03DAC:  MOVFF  03,60C
03DB0:  MOVFF  02,60B
03DB4:  MOVFF  01,60A
03DB8:  MOVFF  00,609
....................    r = r*y + pe[4]; 
03DBC:  MOVFF  60C,620
03DC0:  MOVFF  60B,61F
03DC4:  MOVFF  60A,61E
03DC8:  MOVFF  609,61D
03DCC:  MOVFF  604,624
03DD0:  MOVFF  603,623
03DD4:  MOVFF  602,622
03DD8:  MOVFF  601,621
03DDC:  CALL   302C
03DE0:  MOVFF  00,60F
03DE4:  MOVFF  01,610
03DE8:  MOVFF  02,611
03DEC:  MOVFF  03,612
03DF0:  BCF    FD8.1
03DF2:  MOVFF  03,624
03DF6:  MOVFF  02,623
03DFA:  MOVFF  01,622
03DFE:  MOVFF  00,621
03E02:  MOVLW  1A
03E04:  MOVLB  6
03E06:  MOVWF  x28
03E08:  MOVLW  FE
03E0A:  MOVWF  x27
03E0C:  MOVLW  75
03E0E:  MOVWF  x26
03E10:  MOVLW  7C
03E12:  MOVWF  x25
03E14:  MOVLB  0
03E16:  CALL   1B7C
03E1A:  MOVFF  03,60C
03E1E:  MOVFF  02,60B
03E22:  MOVFF  01,60A
03E26:  MOVFF  00,609
....................    r = r*y + pe[5]; 
03E2A:  MOVFF  60C,620
03E2E:  MOVFF  60B,61F
03E32:  MOVFF  60A,61E
03E36:  MOVFF  609,61D
03E3A:  MOVFF  604,624
03E3E:  MOVFF  603,623
03E42:  MOVFF  602,622
03E46:  MOVFF  601,621
03E4A:  CALL   302C
03E4E:  MOVFF  00,60F
03E52:  MOVFF  01,610
03E56:  MOVFF  02,611
03E5A:  MOVFF  03,612
03E5E:  BCF    FD8.1
03E60:  MOVFF  03,624
03E64:  MOVFF  02,623
03E68:  MOVFF  01,622
03E6C:  MOVFF  00,621
03E70:  MOVLW  18
03E72:  MOVLB  6
03E74:  MOVWF  x28
03E76:  MOVLW  72
03E78:  MOVWF  x27
03E7A:  MOVLW  31
03E7C:  MOVWF  x26
03E7E:  MOVLW  7E
03E80:  MOVWF  x25
03E82:  MOVLB  0
03E84:  CALL   1B7C
03E88:  MOVFF  03,60C
03E8C:  MOVFF  02,60B
03E90:  MOVFF  01,60A
03E94:  MOVFF  00,609
....................  
....................    res = res*(1.0 + y*r); 
03E98:  MOVFF  604,620
03E9C:  MOVFF  603,61F
03EA0:  MOVFF  602,61E
03EA4:  MOVFF  601,61D
03EA8:  MOVFF  60C,624
03EAC:  MOVFF  60B,623
03EB0:  MOVFF  60A,622
03EB4:  MOVFF  609,621
03EB8:  CALL   302C
03EBC:  BCF    FD8.1
03EBE:  MOVLB  6
03EC0:  CLRF   x24
03EC2:  CLRF   x23
03EC4:  CLRF   x22
03EC6:  MOVLW  7F
03EC8:  MOVWF  x21
03ECA:  MOVFF  03,628
03ECE:  MOVFF  02,627
03ED2:  MOVFF  01,626
03ED6:  MOVFF  00,625
03EDA:  MOVLB  0
03EDC:  CALL   1B7C
03EE0:  MOVFF  608,620
03EE4:  MOVFF  607,61F
03EE8:  MOVFF  606,61E
03EEC:  MOVFF  605,61D
03EF0:  MOVFF  03,624
03EF4:  MOVFF  02,623
03EF8:  MOVFF  01,622
03EFC:  MOVFF  00,621
03F00:  CALL   302C
03F04:  MOVFF  03,608
03F08:  MOVFF  02,607
03F0C:  MOVFF  01,606
03F10:  MOVFF  00,605
....................  
....................    if (s) 
03F14:  MOVLB  6
03F16:  BTFSS  x0E.0
03F18:  BRA    3F4C
....................       res = 1.0/res; 
03F1A:  CLRF   x20
03F1C:  CLRF   x1F
03F1E:  CLRF   x1E
03F20:  MOVLW  7F
03F22:  MOVWF  x1D
03F24:  MOVFF  608,624
03F28:  MOVFF  607,623
03F2C:  MOVFF  606,622
03F30:  MOVFF  605,621
03F34:  MOVLB  0
03F36:  CALL   1A1E
03F3A:  MOVFF  03,608
03F3E:  MOVFF  02,607
03F42:  MOVFF  01,606
03F46:  MOVFF  00,605
03F4A:  MOVLB  6
....................    return(res); 
03F4C:  MOVFF  605,00
03F50:  MOVFF  606,01
03F54:  MOVFF  607,02
03F58:  MOVFF  608,03
.................... } 
03F5C:  MOVLB  0
03F5E:  RETLW  00
....................  
....................  
.................... //Overloaded function for exp() for PCD 
.................... // Overloaded function exp() for data type - Float48 
.................... #if defined(__PCD__) 
.................... float48 exp(float48 x) 
.................... { 
....................    float48 y, res, r; 
....................    int8 data1; 
....................    signed int8 n; 
....................    int1 s; 
....................    #ifdef _ERRNO 
....................    if(x > 88.722838) 
....................    { 
....................       errno=ERANGE; 
....................       return(0); 
....................    } 
....................    #endif 
....................    n = (signed int16)(x/LN2); 
....................    s = 0; 
....................    y = x; 
....................  
....................    if (x < 0) 
....................    { 
....................       s = 1; 
....................       n = -n; 
....................       y = -y; 
....................    } 
....................  
....................    res = 0.0; 
....................  
....................    data1 = n+0x7F; 
....................    if(bit_test(data1,0)) 
....................    bit_set(*(((unsigned int8 *)(&res)+4)),7); 
....................    rotate_right(&data1,1); 
....................    bit_clear(data1,7); 
....................    *(((unsigned int8 *)(&res)+5)) = data1; 
....................  
....................    y = y/LN2 - (float48)n; 
....................  
....................    r = pe[0]*y + pe[1]; 
....................    r = r*y + pe[2]; 
....................    r = r*y + pe[3]; 
....................    r = r*y + pe[4]; 
....................    r = r*y + pe[5]; 
....................  
....................    res = res*(1.0 + y*r); 
....................  
....................    if (s) 
....................       res = 1.0/res; 
....................    return(res); 
.................... } 
....................  
.................... // Overloaded function exp() for data type - Float64 
.................... float64 exp(float64 x) 
.................... { 
....................    float64 y, res, r; 
....................    unsigned int16 data1, data2; 
....................    unsigned int16 *p; 
....................    signed int16 n; 
....................    int1 s; 
....................    #ifdef _ERRNO 
....................    if(x > 709.7827128) 
....................    { 
....................       errno=ERANGE; 
....................       return(0); 
....................    } 
....................    #endif 
....................    n = (signed int16)(x/LN2); 
....................    s = 0; 
....................    y = x; 
....................  
....................    if (x < 0) 
....................    { 
....................       s = 1; 
....................       n = -n; 
....................       y = -y; 
....................    } 
....................  
....................    res = 0.0; 
....................  
.................... #if !defined(__PCD__) 
....................    *((unsigned int16 *)(&res)) = n + 0x7F; 
.................... #endif 
....................    p= (((unsigned int16 *)(&res))+3); 
....................    data1 = *p; 
....................    data2 = *p;    
....................    data1 = n + 0x3FF; 
....................    data1 = data1 <<4; 
....................    if(bit_test(data2,15)) 
....................    bit_set(data1,15); 
....................    data2 = data2 & 0x000F; 
....................    data1 ^= data2; 
....................  
....................    *(((unsigned int16 *)(&res)+3)) = data1; 
....................  
....................  
....................    y = y/LN2 - (float64)n; 
....................  
....................    r = pe[0]*y + pe[1]; 
....................    r = r*y + pe[2]; 
....................    r = r*y + pe[3]; 
....................    r = r*y + pe[4]; 
....................    r = r*y + pe[5]; 
....................  
....................    res = res*(1.0 + y*r); 
....................  
....................    if (s) 
....................       res = 1.0/res; 
....................    return(res); 
.................... } 
....................  
.................... #ENDIF 
....................  
....................  
.................... /************************************************************/ 
....................  
.................... float32 const pl[4] = {0.45145214, -9.0558803, 26.940971, -19.860189}; 
.................... float32 const ql[4] = {1.0000000,  -8.1354259, 16.780517, -9.9300943}; 
....................  
.................... //////////////////////////////////////////////////////////////////////////// 
.................... //   float log(float x) 
.................... //////////////////////////////////////////////////////////////////////////// 
.................... // Description : returns the the natural log of x 
.................... // Date : N/A 
.................... // 
.................... float32 log(float32 x) 
.................... { 
....................    float32 y, res, r, y2; 
....................    #if defined(__PCD__) 
....................    unsigned int8  data1,data2; 
....................    #endif 
....................    signed int8 n; 
....................    #ifdef _ERRNO 
....................    if(x <0) 
....................    { 
....................       errno=EDOM; 
....................    } 
....................    if(x ==0) 
....................    { 
....................       errno=ERANGE; 
....................       return(0); 
....................    } 
....................    #endif 
....................    y = x; 
*
0367C:  MOVFF  600,604
03680:  MOVFF  5FF,603
03684:  MOVFF  5FE,602
03688:  MOVFF  5FD,601
....................  
....................    if (y != 1.0) 
0368C:  MOVFF  604,620
03690:  MOVFF  603,61F
03694:  MOVFF  602,61E
03698:  MOVFF  601,61D
0369C:  MOVLB  6
0369E:  CLRF   x24
036A0:  CLRF   x23
036A2:  CLRF   x22
036A4:  MOVLW  7F
036A6:  MOVWF  x21
036A8:  MOVLB  0
036AA:  CALL   2584
036AE:  BTFSC  FD8.2
036B0:  BRA    3B38
....................    { 
.................... #if !defined(__PCD__) 
....................     *((unsigned int8 *)(&y)) = 0x7E;  
036B2:  MOVLW  06
036B4:  MOVLB  6
036B6:  MOVWF  x13
036B8:  MOVLW  01
036BA:  MOVWF  FE9
036BC:  MOVFF  613,FEA
036C0:  MOVLW  7E
036C2:  MOVWF  FEF
.................... #endif 
....................  
.................... #if defined(__PCD__) // Takes care of IEEE format 
....................    data2 = *(((unsigned int8 *)(&y))+3); 
....................    *(((unsigned int8 *)(&y))+3) = 0x3F; 
....................    data1 = *(((unsigned int8 *)(&y))+2); 
....................    bit_clear(data1,7); 
....................    *(((unsigned int8 *)(&y))+2) = data1; 
....................    if(bit_test(data2,7)) 
....................    bit_set(*(((unsigned int8 *)(&y))+3),7); 
.................... #endif 
....................  
....................       y = (y - 1.0)/(y + 1.0); 
036C4:  BSF    FD8.1
036C6:  MOVFF  604,624
036CA:  MOVFF  603,623
036CE:  MOVFF  602,622
036D2:  MOVFF  601,621
036D6:  CLRF   x28
036D8:  CLRF   x27
036DA:  CLRF   x26
036DC:  MOVLW  7F
036DE:  MOVWF  x25
036E0:  MOVLB  0
036E2:  CALL   1B7C
036E6:  MOVFF  00,612
036EA:  MOVFF  01,613
036EE:  MOVFF  02,614
036F2:  MOVFF  03,615
036F6:  BCF    FD8.1
036F8:  MOVFF  604,624
036FC:  MOVFF  603,623
03700:  MOVFF  602,622
03704:  MOVFF  601,621
03708:  MOVLB  6
0370A:  CLRF   x28
0370C:  CLRF   x27
0370E:  CLRF   x26
03710:  MOVLW  7F
03712:  MOVWF  x25
03714:  MOVLB  0
03716:  CALL   1B7C
0371A:  MOVFF  615,620
0371E:  MOVFF  614,61F
03722:  MOVFF  613,61E
03726:  MOVFF  612,61D
0372A:  MOVFF  03,624
0372E:  MOVFF  02,623
03732:  MOVFF  01,622
03736:  MOVFF  00,621
0373A:  CALL   1A1E
0373E:  MOVFF  03,604
03742:  MOVFF  02,603
03746:  MOVFF  01,602
0374A:  MOVFF  00,601
....................  
....................       y2=y*y; 
0374E:  MOVFF  604,620
03752:  MOVFF  603,61F
03756:  MOVFF  602,61E
0375A:  MOVFF  601,61D
0375E:  MOVFF  604,624
03762:  MOVFF  603,623
03766:  MOVFF  602,622
0376A:  MOVFF  601,621
0376E:  RCALL  302C
03770:  MOVFF  03,610
03774:  MOVFF  02,60F
03778:  MOVFF  01,60E
0377C:  MOVFF  00,60D
....................  
....................       res = pl[0]*y2 + pl[1]; 
03780:  MOVLW  BC
03782:  MOVLB  6
03784:  MOVWF  x20
03786:  MOVLW  24
03788:  MOVWF  x1F
0378A:  MOVLW  67
0378C:  MOVWF  x1E
0378E:  MOVLW  7D
03790:  MOVWF  x1D
03792:  MOVFF  610,624
03796:  MOVFF  60F,623
0379A:  MOVFF  60E,622
0379E:  MOVFF  60D,621
037A2:  MOVLB  0
037A4:  RCALL  302C
037A6:  MOVFF  00,612
037AA:  MOVFF  01,613
037AE:  MOVFF  02,614
037B2:  MOVFF  03,615
037B6:  BCF    FD8.1
037B8:  MOVFF  03,624
037BC:  MOVFF  02,623
037C0:  MOVFF  01,622
037C4:  MOVFF  00,621
037C8:  MOVLW  E3
037CA:  MOVLB  6
037CC:  MOVWF  x28
037CE:  MOVLW  E4
037D0:  MOVWF  x27
037D2:  MOVLW  90
037D4:  MOVWF  x26
037D6:  MOVLW  82
037D8:  MOVWF  x25
037DA:  MOVLB  0
037DC:  CALL   1B7C
037E0:  MOVFF  03,608
037E4:  MOVFF  02,607
037E8:  MOVFF  01,606
037EC:  MOVFF  00,605
....................       res = res*y2 + pl[2]; 
037F0:  MOVFF  608,620
037F4:  MOVFF  607,61F
037F8:  MOVFF  606,61E
037FC:  MOVFF  605,61D
03800:  MOVFF  610,624
03804:  MOVFF  60F,623
03808:  MOVFF  60E,622
0380C:  MOVFF  60D,621
03810:  RCALL  302C
03812:  MOVFF  00,612
03816:  MOVFF  01,613
0381A:  MOVFF  02,614
0381E:  MOVFF  03,615
03822:  BCF    FD8.1
03824:  MOVFF  03,624
03828:  MOVFF  02,623
0382C:  MOVFF  01,622
03830:  MOVFF  00,621
03834:  MOVLW  1C
03836:  MOVLB  6
03838:  MOVWF  x28
0383A:  MOVLW  87
0383C:  MOVWF  x27
0383E:  MOVLW  57
03840:  MOVWF  x26
03842:  MOVLW  83
03844:  MOVWF  x25
03846:  MOVLB  0
03848:  CALL   1B7C
0384C:  MOVFF  03,608
03850:  MOVFF  02,607
03854:  MOVFF  01,606
03858:  MOVFF  00,605
....................       res = res*y2 + pl[3]; 
0385C:  MOVFF  608,620
03860:  MOVFF  607,61F
03864:  MOVFF  606,61E
03868:  MOVFF  605,61D
0386C:  MOVFF  610,624
03870:  MOVFF  60F,623
03874:  MOVFF  60E,622
03878:  MOVFF  60D,621
0387C:  CALL   302C
03880:  MOVFF  00,612
03884:  MOVFF  01,613
03888:  MOVFF  02,614
0388C:  MOVFF  03,615
03890:  BCF    FD8.1
03892:  MOVFF  03,624
03896:  MOVFF  02,623
0389A:  MOVFF  01,622
0389E:  MOVFF  00,621
038A2:  MOVLW  AB
038A4:  MOVLB  6
038A6:  MOVWF  x28
038A8:  MOVLW  E1
038AA:  MOVWF  x27
038AC:  MOVLW  9E
038AE:  MOVWF  x26
038B0:  MOVLW  83
038B2:  MOVWF  x25
038B4:  MOVLB  0
038B6:  CALL   1B7C
038BA:  MOVFF  03,608
038BE:  MOVFF  02,607
038C2:  MOVFF  01,606
038C6:  MOVFF  00,605
....................  
....................       r = ql[0]*y2 + ql[1]; 
038CA:  MOVLB  6
038CC:  CLRF   x20
038CE:  CLRF   x1F
038D0:  CLRF   x1E
038D2:  MOVLW  7F
038D4:  MOVWF  x1D
038D6:  MOVFF  610,624
038DA:  MOVFF  60F,623
038DE:  MOVFF  60E,622
038E2:  MOVFF  60D,621
038E6:  MOVLB  0
038E8:  CALL   302C
038EC:  MOVFF  00,612
038F0:  MOVFF  01,613
038F4:  MOVFF  02,614
038F8:  MOVFF  03,615
038FC:  BCF    FD8.1
038FE:  MOVFF  03,624
03902:  MOVFF  02,623
03906:  MOVFF  01,622
0390A:  MOVFF  00,621
0390E:  MOVLW  B4
03910:  MOVLB  6
03912:  MOVWF  x28
03914:  MOVLW  2A
03916:  MOVWF  x27
03918:  MOVLW  82
0391A:  MOVWF  x26
0391C:  MOVWF  x25
0391E:  MOVLB  0
03920:  CALL   1B7C
03924:  MOVFF  03,60C
03928:  MOVFF  02,60B
0392C:  MOVFF  01,60A
03930:  MOVFF  00,609
....................       r = r*y2 + ql[2]; 
03934:  MOVFF  60C,620
03938:  MOVFF  60B,61F
0393C:  MOVFF  60A,61E
03940:  MOVFF  609,61D
03944:  MOVFF  610,624
03948:  MOVFF  60F,623
0394C:  MOVFF  60E,622
03950:  MOVFF  60D,621
03954:  CALL   302C
03958:  MOVFF  00,612
0395C:  MOVFF  01,613
03960:  MOVFF  02,614
03964:  MOVFF  03,615
03968:  BCF    FD8.1
0396A:  MOVFF  03,624
0396E:  MOVFF  02,623
03972:  MOVFF  01,622
03976:  MOVFF  00,621
0397A:  MOVLW  80
0397C:  MOVLB  6
0397E:  MOVWF  x28
03980:  MOVLW  3E
03982:  MOVWF  x27
03984:  MOVLW  06
03986:  MOVWF  x26
03988:  MOVLW  83
0398A:  MOVWF  x25
0398C:  MOVLB  0
0398E:  CALL   1B7C
03992:  MOVFF  03,60C
03996:  MOVFF  02,60B
0399A:  MOVFF  01,60A
0399E:  MOVFF  00,609
....................       r = r*y2 + ql[3]; 
039A2:  MOVFF  60C,620
039A6:  MOVFF  60B,61F
039AA:  MOVFF  60A,61E
039AE:  MOVFF  609,61D
039B2:  MOVFF  610,624
039B6:  MOVFF  60F,623
039BA:  MOVFF  60E,622
039BE:  MOVFF  60D,621
039C2:  CALL   302C
039C6:  MOVFF  00,612
039CA:  MOVFF  01,613
039CE:  MOVFF  02,614
039D2:  MOVFF  03,615
039D6:  BCF    FD8.1
039D8:  MOVFF  03,624
039DC:  MOVFF  02,623
039E0:  MOVFF  01,622
039E4:  MOVFF  00,621
039E8:  MOVLW  AB
039EA:  MOVLB  6
039EC:  MOVWF  x28
039EE:  MOVLW  E1
039F0:  MOVWF  x27
039F2:  MOVLW  9E
039F4:  MOVWF  x26
039F6:  MOVLW  82
039F8:  MOVWF  x25
039FA:  MOVLB  0
039FC:  CALL   1B7C
03A00:  MOVFF  03,60C
03A04:  MOVFF  02,60B
03A08:  MOVFF  01,60A
03A0C:  MOVFF  00,609
....................  
....................       res = y*res/r; 
03A10:  MOVFF  604,620
03A14:  MOVFF  603,61F
03A18:  MOVFF  602,61E
03A1C:  MOVFF  601,61D
03A20:  MOVFF  608,624
03A24:  MOVFF  607,623
03A28:  MOVFF  606,622
03A2C:  MOVFF  605,621
03A30:  CALL   302C
03A34:  MOVFF  00,612
03A38:  MOVFF  01,613
03A3C:  MOVFF  02,614
03A40:  MOVFF  03,615
03A44:  MOVFF  03,620
03A48:  MOVFF  02,61F
03A4C:  MOVFF  01,61E
03A50:  MOVFF  00,61D
03A54:  MOVFF  60C,624
03A58:  MOVFF  60B,623
03A5C:  MOVFF  60A,622
03A60:  MOVFF  609,621
03A64:  CALL   1A1E
03A68:  MOVFF  03,608
03A6C:  MOVFF  02,607
03A70:  MOVFF  01,606
03A74:  MOVFF  00,605
.................... #if !defined(__PCD__) 
....................       n = *((unsigned int8 *)(&x)) - 0x7E; 
03A78:  MOVLW  05
03A7A:  MOVLB  6
03A7C:  MOVWF  x13
03A7E:  MOVLW  FD
03A80:  MOVWF  FE9
03A82:  MOVFF  613,FEA
03A86:  MOVLW  7E
03A88:  SUBWF  FEF,W
03A8A:  MOVWF  x11
.................... #endif 
.................... #if defined(__PCD__)  
....................     data1 = *(((unsigned int8 *)(&x)+3)); 
....................     rotate_left(&data1,1); 
....................     data2 = *(((unsigned int8 *)(&x)+2)); 
....................     if(bit_test (data2,7)) 
....................       bit_set(data1,0); 
....................     n = data1 - 0x7E; 
.................... #endif 
....................  
....................       if (n<0)  
03A8C:  BTFSC  x11.7
03A8E:  BRA    3A92
03A90:  BRA    3ABA
....................          r = -(float32)-n; 
03A92:  MOVLW  00
03A94:  BSF    FD8.0
03A96:  SUBFWB x11,W
03A98:  CLRF   x17
03A9A:  MOVWF  x16
03A9C:  BTFSC  x16.7
03A9E:  DECF   x17,F
03AA0:  MOVLB  0
03AA2:  RCALL  362C
03AA4:  MOVFF  00,609
03AA8:  MOVF   01,W
03AAA:  XORLW  80
03AAC:  MOVLB  6
03AAE:  MOVWF  x0A
03AB0:  MOVFF  02,60B
03AB4:  MOVFF  03,60C
....................       else 
03AB8:  BRA    3ADA
....................          r = (float32)n; 
03ABA:  CLRF   x17
03ABC:  MOVFF  611,616
03AC0:  BTFSC  x16.7
03AC2:  DECF   x17,F
03AC4:  MOVLB  0
03AC6:  RCALL  362C
03AC8:  MOVFF  03,60C
03ACC:  MOVFF  02,60B
03AD0:  MOVFF  01,60A
03AD4:  MOVFF  00,609
03AD8:  MOVLB  6
....................  
....................       res += r*LN2; 
03ADA:  MOVFF  60C,620
03ADE:  MOVFF  60B,61F
03AE2:  MOVFF  60A,61E
03AE6:  MOVFF  609,61D
03AEA:  MOVLW  18
03AEC:  MOVWF  x24
03AEE:  MOVLW  72
03AF0:  MOVWF  x23
03AF2:  MOVLW  31
03AF4:  MOVWF  x22
03AF6:  MOVLW  7E
03AF8:  MOVWF  x21
03AFA:  MOVLB  0
03AFC:  CALL   302C
03B00:  BCF    FD8.1
03B02:  MOVFF  608,624
03B06:  MOVFF  607,623
03B0A:  MOVFF  606,622
03B0E:  MOVFF  605,621
03B12:  MOVFF  03,628
03B16:  MOVFF  02,627
03B1A:  MOVFF  01,626
03B1E:  MOVFF  00,625
03B22:  CALL   1B7C
03B26:  MOVFF  03,608
03B2A:  MOVFF  02,607
03B2E:  MOVFF  01,606
03B32:  MOVFF  00,605
....................    } 
....................  
....................    else 
03B36:  BRA    3B44
....................       res = 0.0; 
03B38:  MOVLB  6
03B3A:  CLRF   x08
03B3C:  CLRF   x07
03B3E:  CLRF   x06
03B40:  CLRF   x05
03B42:  MOVLB  0
....................  
....................    return(res); 
03B44:  MOVFF  605,00
03B48:  MOVFF  606,01
03B4C:  MOVFF  607,02
03B50:  MOVFF  608,03
.................... } 
03B54:  RETLW  00
....................  
.................... //Overloaded function for log() for PCD 
.................... // Overloaded function log() for data type - Float48 
.................... #if defined(__PCD__) 
.................... float48 log(float48 x) 
.................... { 
....................    float48 y, res, r, y2; 
....................    unsigned int8  data1,data2; 
....................    signed int8 n; 
....................    #ifdef _ERRNO 
....................    if(x <0) 
....................    { 
....................       errno=EDOM; 
....................    } 
....................    if(x ==0) 
....................    { 
....................       errno=ERANGE; 
....................       return(0); 
....................    } 
....................    #endif 
....................    y = x; 
....................  
....................    if (y != 1.0) 
....................    { 
....................     
....................    #if !defined(__PCD__) 
....................        *((unsigned int8 *)(&y)) = 0x7E;  
....................    #endif 
....................       data2 = *(((unsigned int8 *)(&y))+5); 
....................       *(((unsigned int8 *)(&y))+5) = 0x3F; 
....................       data1 = *(((unsigned int8 *)(&y))+4); 
....................       bit_clear(data1,7); 
....................       *(((unsigned int8 *)(&y))+4) = data1; 
....................    
....................       if(bit_test(data2,7)) 
....................          bit_set(*(((unsigned int8 *)(&y))+4),7); 
....................       y = (y - 1.0)/(y + 1.0); 
....................  
....................       y2=y*y; 
....................  
....................       res = pl[0]*y2 + pl[1]; 
....................       res = res*y2 + pl[2]; 
....................       res = res*y2 + pl[3]; 
....................  
....................       r = ql[0]*y2 + ql[1]; 
....................       r = r*y2 + ql[2]; 
....................       r = r*y2 + ql[3]; 
....................  
....................       res = y*res/r; 
....................  
....................     data1 = *(((unsigned int8 *)(&x)+5)); 
....................     rotate_left(&data1,1); 
....................     data2 = *(((unsigned int8 *)(&x)+4)); 
....................     if(bit_test (data2,7)) 
....................        bit_set(data1,0); 
....................       
....................     n = data1 - 0x7E; 
....................  
....................       if (n<0) 
....................          r = -(float48)-n; 
....................       else 
....................          r = (float48)n; 
....................  
....................       res += r*LN2; 
....................    } 
....................  
....................    else 
....................       res = 0.0; 
....................  
....................    return(res); 
.................... } 
....................  
.................... // Overloaded function log() for data type - Float48 
.................... #if defined(__PCD__) 
.................... float32 const pl_64[4] = {0.45145214, -9.0558803, 26.940971, -19.860189}; 
.................... float32 const ql_64[4] = {1.0000000,  -8.1354259, 16.780517, -9.9300943}; 
.................... #endif 
.................... float64 log(float64 x) 
.................... { 
....................    float64 y, res, r, y2; 
....................    unsigned int16  data1,data2; 
....................    unsigned int16 *p; 
....................    signed int16 n; 
....................    #ifdef _ERRNO 
....................    if(x <0) 
....................    { 
....................       errno=EDOM; 
....................    } 
....................    if(x ==0) 
....................    { 
....................       errno=ERANGE; 
....................       return(0); 
....................    } 
....................    #endif 
....................    y = x; 
....................  
....................    if (y != 1.0) 
....................    { 
....................    #if !defined(__PCD__) 
....................        *((unsigned int8 *)(&y)) = 0x7E;  
....................    #endif 
....................       p= (((unsigned int16 *)(&y))+3); 
....................       data1 = *p; 
....................       data2 = *p; 
....................       data1 = 0x3FE; 
....................       data1 = data1 <<4; 
....................       if(bit_test (data2,15)) 
....................       bit_set(data1,15); 
....................       data2 = data2 & 0x000F; 
....................       data1 ^=data2; 
....................  
....................       *p = data1; 
....................  
....................       y = (y - 1.0)/(y + 1.0); 
....................  
....................       y2=y*y; 
....................  
....................       res = pl_64[0]*y2 + pl_64[1]; 
....................       res = res*y2 + pl_64[2]; 
....................       res = res*y2 + pl_64[3]; 
....................  
....................       r = ql_64[0]*y2 + ql_64[1]; 
....................       r = r*y2 + ql_64[2]; 
....................       r = r*y2 + ql_64[3]; 
....................  
....................       res = y*res/r; 
....................   
....................       p= (((unsigned int16 *)(&x))+3); 
....................       data1 = *p; 
....................       bit_clear(data1,15); 
....................       data1 = data1 >>4;     
....................       n = data1 - 0x3FE; 
....................  
....................  
....................       if (n<0) 
....................          r = -(float64)-n; 
....................       else 
....................          r = (float64)n; 
....................  
....................       res += r*LN2; 
....................    } 
....................  
....................    else 
....................       res = 0.0; 
....................  
....................    return(res); 
.................... } 
.................... #endif 
....................  
....................  
.................... #define LN10 2.3025850929940456 
....................  
.................... //////////////////////////////////////////////////////////////////////////// 
.................... //   float log10(float x) 
.................... //////////////////////////////////////////////////////////////////////////// 
.................... // Description : returns the the log base 10 of x 
.................... // Date : N/A 
.................... // 
.................... float32 log10(float32 x) 
.................... { 
....................    float32 r; 
....................  
....................    r = log(x); 
....................    r = r/LN10; 
....................    return(r); 
.................... } 
....................  
.................... //Overloaded functions for log10() for PCD 
.................... // Overloaded function log10() for data type - Float48 
.................... #if defined(__PCD__) 
.................... float48 log10(float48 x) 
.................... { 
....................    float48 r; 
....................  
....................    r = log(x); 
....................    r = r/LN10; 
....................    return(r); 
.................... } 
....................  
.................... // Overloaded function log10() for data type - Float64 
.................... float64 log10(float64 x) 
.................... { 
....................    float64 r; 
....................  
....................    r = log(x); 
....................    r = r/LN10; 
....................    return(r); 
.................... } 
.................... #endif 
.................... //////////////////////////////////////////////////////////////////////////// 
.................... //   float modf(float x) 
.................... //////////////////////////////////////////////////////////////////////////// 
.................... // Description :breaks the argument value int integral and fractional parts, 
.................... // ach of which have the same sign as the argument.  It stores the integral part 
.................... // as a float in the object pointed to by the iptr 
.................... // Returns : returns the signed fractional part of value. 
.................... // Date : N/A 
.................... // 
....................  
.................... float32 modf(float32 value,float32 *iptr) 
.................... { 
....................    *iptr=(value < 0.0)? ceil(value): floor(value); 
....................    return(value - *iptr); 
.................... } 
.................... //Overloaded functions for modf() for PCD 
.................... // Overloaded function modf() for data type - Float48 
.................... #if defined(__PCD__) 
.................... float48 modf(float48 value,float48 *iptr) 
.................... { 
....................    *iptr=(value < 0.0)? ceil(value): floor(value); 
....................    return(value - *iptr); 
.................... } 
.................... // Overloaded function modf() for data type - Float64 
.................... float64 modf(float64 value,float64 *iptr) 
.................... { 
....................    *iptr=(value < 0.0)? ceil(value): floor(value); 
....................    return(value - *iptr); 
.................... } 
.................... #endif 
....................  
.................... //////////////////////////////////////////////////////////////////////////// 
.................... //   float pwr(float x,float y) 
.................... //////////////////////////////////////////////////////////////////////////// 
.................... // Description : returns the value (x^y) 
.................... // Date : N/A 
.................... // Note : 0 is returned when the function will generate an imaginary number 
.................... // 
.................... float32 pwr(float32 x,float32 y) 
.................... { 
....................    if(0 > x && fmod(y, 1) == 0) { 
....................       if(fmod(y, 2) == 0) { 
....................          return (exp(log(-x) * y)); 
....................       } else { 
....................          return (-exp(log(-x) * y)); 
....................       } 
....................    } else if(0 > x && fmod(y, 1) != 0) { 
....................       return 0; 
....................    } else { 
....................       if(x != 0 || 0 >= y) { 
....................          return (exp(log(x) * y)); 
....................       } 
....................    } 
.................... } 
.................... //Overloaded functions for pwr() for PCD 
.................... // Overloaded function pwr() for data type - Float48 
.................... #if defined(__PCD__) 
.................... float48 pwr(float48 x,float48 y) 
.................... { 
....................    if(0 > x && fmod(y, 1) == 0) { 
....................       if(fmod(y, 2) == 0) { 
....................          return (exp(log(-x) * y)); 
....................       } else { 
....................          return (-exp(log(-x) * y)); 
....................       } 
....................    } else if(0 > x && fmod(y, 1) != 0) { 
....................       return 0; 
....................    } else { 
....................       if(x != 0 || 0 >= y) { 
....................          return (exp(log(x) * y)); 
....................       } 
....................    } 
.................... } 
.................... // Overloaded function pwr() for data type - Float64 
.................... float64 pwr(float64 x,float64 y) 
.................... { 
....................    if(0 > x && fmod(y, 1) == 0) { 
....................       if(fmod(y, 2) == 0) { 
....................          return (exp(log(-x) * y)); 
....................       } else { 
....................          return (-exp(log(-x) * y)); 
....................       } 
....................    } else if(0 > x && fmod(y, 1) != 0) { 
....................       return 0; 
....................    } else { 
....................       if(x != 0 || 0 >= y) { 
....................          return (exp(log(x) * y)); 
....................       } 
....................    } 
.................... } 
.................... #endif 
....................  
.................... //////////////////// Power functions //////////////////// 
....................  
.................... //////////////////////////////////////////////////////////////////////////// 
.................... //   float pow(float x,float y) 
.................... //////////////////////////////////////////////////////////////////////////// 
.................... // Description : returns the value (x^y) 
.................... // Date : N/A 
.................... // Note : 0 is returned when the function will generate an imaginary number 
.................... // 
.................... float32 pow(float32 x,float32 y) 
.................... { 
....................    if(0 > x && fmod(y, 1) == 0) { 
*
03F60:  MOVFF  5F4,620
03F64:  MOVFF  5F3,61F
03F68:  MOVFF  5F2,61E
03F6C:  MOVFF  5F1,61D
03F70:  MOVLB  6
03F72:  CLRF   x24
03F74:  CLRF   x23
03F76:  CLRF   x22
03F78:  CLRF   x21
03F7A:  MOVLB  0
03F7C:  CALL   2584
03F80:  BTFSS  FD8.0
03F82:  BRA    413A
03F84:  MOVFF  5F8,5FC
03F88:  MOVFF  5F7,5FB
03F8C:  MOVFF  5F6,5FA
03F90:  MOVFF  5F5,5F9
03F94:  MOVLB  6
03F96:  CLRF   x00
03F98:  MOVLB  5
03F9A:  CLRF   xFF
03F9C:  CLRF   xFE
03F9E:  MOVLW  7F
03FA0:  MOVWF  xFD
03FA2:  MOVLB  0
03FA4:  CALL   34C6
03FA8:  MOVFF  00,5F9
03FAC:  MOVFF  01,5FA
03FB0:  MOVFF  02,5FB
03FB4:  MOVFF  03,5FC
03FB8:  MOVFF  03,620
03FBC:  MOVFF  02,61F
03FC0:  MOVFF  01,61E
03FC4:  MOVFF  00,61D
03FC8:  MOVLB  6
03FCA:  CLRF   x24
03FCC:  CLRF   x23
03FCE:  CLRF   x22
03FD0:  CLRF   x21
03FD2:  MOVLB  0
03FD4:  CALL   2584
03FD8:  BTFSS  FD8.2
03FDA:  BRA    413A
....................       if(fmod(y, 2) == 0) { 
03FDC:  MOVFF  5F8,5FC
03FE0:  MOVFF  5F7,5FB
03FE4:  MOVFF  5F6,5FA
03FE8:  MOVFF  5F5,5F9
03FEC:  MOVLB  6
03FEE:  CLRF   x00
03FF0:  MOVLB  5
03FF2:  CLRF   xFF
03FF4:  CLRF   xFE
03FF6:  MOVLW  80
03FF8:  MOVWF  xFD
03FFA:  MOVLB  0
03FFC:  CALL   34C6
04000:  MOVFF  00,5F9
04004:  MOVFF  01,5FA
04008:  MOVFF  02,5FB
0400C:  MOVFF  03,5FC
04010:  MOVFF  03,620
04014:  MOVFF  02,61F
04018:  MOVFF  01,61E
0401C:  MOVFF  00,61D
04020:  MOVLB  6
04022:  CLRF   x24
04024:  CLRF   x23
04026:  CLRF   x22
04028:  CLRF   x21
0402A:  MOVLB  0
0402C:  CALL   2584
04030:  BNZ   40B4
....................          return (exp(log(-x) * y)); 
04032:  MOVFF  5F1,5F9
04036:  MOVLB  5
04038:  MOVF   xF2,W
0403A:  XORLW  80
0403C:  MOVWF  xFA
0403E:  MOVFF  5F3,5FB
04042:  MOVFF  5F4,5FC
04046:  MOVFF  5F4,600
0404A:  MOVFF  5F3,5FF
0404E:  MOVWF  xFE
04050:  MOVFF  5F1,5FD
04054:  MOVLB  0
04056:  CALL   367C
0405A:  MOVFF  00,5F9
0405E:  MOVFF  01,5FA
04062:  MOVFF  02,5FB
04066:  MOVFF  03,5FC
0406A:  MOVFF  03,620
0406E:  MOVFF  02,61F
04072:  MOVFF  01,61E
04076:  MOVFF  00,61D
0407A:  MOVFF  5F8,624
0407E:  MOVFF  5F7,623
04082:  MOVFF  5F6,622
04086:  MOVFF  5F5,621
0408A:  CALL   302C
0408E:  MOVFF  00,5F9
04092:  MOVFF  01,5FA
04096:  MOVFF  02,5FB
0409A:  MOVFF  03,5FC
0409E:  MOVFF  03,600
040A2:  MOVFF  02,5FF
040A6:  MOVFF  01,5FE
040AA:  MOVFF  00,5FD
040AE:  RCALL  3B56
040B0:  BRA    4270
....................       } else { 
040B2:  BRA    4138
....................          return (-exp(log(-x) * y)); 
040B4:  MOVFF  5F1,5F9
040B8:  MOVLB  5
040BA:  MOVF   xF2,W
040BC:  XORLW  80
040BE:  MOVWF  xFA
040C0:  MOVFF  5F3,5FB
040C4:  MOVFF  5F4,5FC
040C8:  MOVFF  5F4,600
040CC:  MOVFF  5F3,5FF
040D0:  MOVWF  xFE
040D2:  MOVFF  5F1,5FD
040D6:  MOVLB  0
040D8:  CALL   367C
040DC:  MOVFF  00,5F9
040E0:  MOVFF  01,5FA
040E4:  MOVFF  02,5FB
040E8:  MOVFF  03,5FC
040EC:  MOVFF  03,620
040F0:  MOVFF  02,61F
040F4:  MOVFF  01,61E
040F8:  MOVFF  00,61D
040FC:  MOVFF  5F8,624
04100:  MOVFF  5F7,623
04104:  MOVFF  5F6,622
04108:  MOVFF  5F5,621
0410C:  CALL   302C
04110:  MOVFF  00,5F9
04114:  MOVFF  01,5FA
04118:  MOVFF  02,5FB
0411C:  MOVFF  03,5FC
04120:  MOVFF  03,600
04124:  MOVFF  02,5FF
04128:  MOVFF  01,5FE
0412C:  MOVFF  00,5FD
04130:  RCALL  3B56
04132:  MOVLW  80
04134:  XORWF  01,F
04136:  BRA    4270
....................       } 
....................    } else if(0 > x && fmod(y, 1) != 0) { 
04138:  BRA    4270
0413A:  MOVFF  5F4,620
0413E:  MOVFF  5F3,61F
04142:  MOVFF  5F2,61E
04146:  MOVFF  5F1,61D
0414A:  MOVLB  6
0414C:  CLRF   x24
0414E:  CLRF   x23
04150:  CLRF   x22
04152:  CLRF   x21
04154:  MOVLB  0
04156:  CALL   2584
0415A:  BNC   41BE
0415C:  MOVFF  5F8,5FC
04160:  MOVFF  5F7,5FB
04164:  MOVFF  5F6,5FA
04168:  MOVFF  5F5,5F9
0416C:  MOVLB  6
0416E:  CLRF   x00
04170:  MOVLB  5
04172:  CLRF   xFF
04174:  CLRF   xFE
04176:  MOVLW  7F
04178:  MOVWF  xFD
0417A:  MOVLB  0
0417C:  CALL   34C6
04180:  MOVFF  00,5F9
04184:  MOVFF  01,5FA
04188:  MOVFF  02,5FB
0418C:  MOVFF  03,5FC
04190:  MOVFF  03,620
04194:  MOVFF  02,61F
04198:  MOVFF  01,61E
0419C:  MOVFF  00,61D
041A0:  MOVLB  6
041A2:  CLRF   x24
041A4:  CLRF   x23
041A6:  CLRF   x22
041A8:  CLRF   x21
041AA:  MOVLB  0
041AC:  CALL   2584
041B0:  BZ    41BE
....................       return 0; 
041B2:  CLRF   00
041B4:  CLRF   01
041B6:  CLRF   02
041B8:  CLRF   03
041BA:  BRA    4270
....................    } else { 
041BC:  BRA    4270
....................       if(x != 0 || 0 >= y) { 
041BE:  MOVFF  5F4,620
041C2:  MOVFF  5F3,61F
041C6:  MOVFF  5F2,61E
041CA:  MOVFF  5F1,61D
041CE:  MOVLB  6
041D0:  CLRF   x24
041D2:  CLRF   x23
041D4:  CLRF   x22
041D6:  CLRF   x21
041D8:  MOVLB  0
041DA:  CALL   2584
041DE:  BNZ   4204
041E0:  MOVFF  5F8,620
041E4:  MOVFF  5F7,61F
041E8:  MOVFF  5F6,61E
041EC:  MOVFF  5F5,61D
041F0:  MOVLB  6
041F2:  CLRF   x24
041F4:  CLRF   x23
041F6:  CLRF   x22
041F8:  CLRF   x21
041FA:  MOVLB  0
041FC:  CALL   2584
04200:  BC    4204
04202:  BNZ   4270
....................          return (exp(log(x) * y)); 
04204:  MOVFF  5F4,600
04208:  MOVFF  5F3,5FF
0420C:  MOVFF  5F2,5FE
04210:  MOVFF  5F1,5FD
04214:  CALL   367C
04218:  MOVFF  00,5F9
0421C:  MOVFF  01,5FA
04220:  MOVFF  02,5FB
04224:  MOVFF  03,5FC
04228:  MOVFF  03,620
0422C:  MOVFF  02,61F
04230:  MOVFF  01,61E
04234:  MOVFF  00,61D
04238:  MOVFF  5F8,624
0423C:  MOVFF  5F7,623
04240:  MOVFF  5F6,622
04244:  MOVFF  5F5,621
04248:  CALL   302C
0424C:  MOVFF  00,5F9
04250:  MOVFF  01,5FA
04254:  MOVFF  02,5FB
04258:  MOVFF  03,5FC
0425C:  MOVFF  03,600
04260:  MOVFF  02,5FF
04264:  MOVFF  01,5FE
04268:  MOVFF  00,5FD
0426C:  RCALL  3B56
0426E:  BRA    4270
....................       } 
....................    } 
.................... } 
04270:  RETLW  00
.................... //Overloaded functions for pow() for PCD 
.................... // Overloaded function for pow() data type - Float48 
.................... #if defined(__PCD__) 
.................... float48 pow(float48 x,float48 y) 
.................... { 
....................    if(0 > x && fmod(y, 1) == 0) { 
....................       if(fmod(y, 2) == 0) { 
....................          return (exp(log(-x) * y)); 
....................       } else { 
....................          return (-exp(log(-x) * y)); 
....................       } 
....................    } else if(0 > x && fmod(y, 1) != 0) { 
....................       return 0; 
....................    } else { 
....................       if(x != 0 || 0 >= y) { 
....................          return (exp(log(x) * y)); 
....................       } 
....................    } 
.................... } 
....................  
.................... // Overloaded function pow() for data type - Float64 
.................... float64 pow(float64 x,float64 y) 
.................... { 
....................    if(0 > x && fmod(y, 1) == 0) { 
....................       if(fmod(y, 2) == 0) { 
....................          return (exp(log(-x) * y)); 
....................       } else { 
....................          return (-exp(log(-x) * y)); 
....................       } 
....................    } else if(0 > x && fmod(y, 1) != 0) { 
....................       return 0; 
....................    } else { 
....................       if(x != 0 || 0 >= y) { 
....................          return (exp(log(x) * y)); 
....................       } 
....................    } 
.................... } 
.................... #endif 
....................  
.................... //////////////////////////////////////////////////////////////////////////// 
.................... //   float sqrt(float x) 
.................... //////////////////////////////////////////////////////////////////////////// 
.................... // Description : returns the square root of x 
.................... // Date : N/A 
.................... // 
.................... float32 sqrt(float32 x) 
.................... { 
....................    float32 y, res; 
....................    #if defined(__PCD__) 
....................    unsigned int16 data1,data2; 
....................    #endif 
....................    BYTE *p; 
....................  
....................    #ifdef _ERRNO 
....................    if(x < 0) 
....................    { 
....................       errno=EDOM; 
....................    } 
....................    #endif 
....................  
....................    if( x<=0.0) 
....................       return(0.0); 
....................  
....................    y=x; 
....................     
....................    #if !defined(__PCD__) 
....................     p=&y; 
....................    (*p)=(BYTE)((((unsigned int16)(*p)) + 127) >> 1); 
....................    #endif 
....................     
....................    #if defined(__PCD__) 
....................     p = (((unsigned int8 *)(&y))+3); 
....................     data1 = *(((unsigned int8 *)(&y))+3); 
....................     data2 = *(((unsigned int8 *)(&y))+2); 
....................     rotate_left(&data1,1);     
....................     if(bit_test(data2,7))     
....................     bit_set(data1,0);     
....................     data1 = ((data1+127) >>1); 
....................     bit_clear(data2,7); 
....................     if(bit_test(data1,0)) 
....................     bit_set(data2,7); 
....................     data1 = data1 >>1; 
....................     *(((unsigned int8 *)(&y))+3) = data1; 
....................     *(((unsigned int8 *)(&y))+2) = data2; 
....................      
....................   #endif 
....................  
....................    do { 
....................       res=y; 
....................       y+=(x/y); 
....................  
....................       #if !defined(__PCD__) 
....................      (*p)--; 
....................    #endif 
....................     
....................    #if defined(__PCD__) 
....................     data1 = *(((unsigned int8 *)(&y))+3); 
....................     data2 = *(((unsigned int8 *)(&y))+2); 
....................     rotate_left(&data1,1); 
....................     if(bit_test(data2,7)) 
....................     bit_set(data1,0);     
....................     data1--; 
....................     bit_clear(data2,7); 
....................     if(bit_test(data1,0)) 
....................     bit_set(data2,7); 
....................     data1 = data1 >>1; 
....................     *(((unsigned int8 *)(&y))+3) = data1; 
....................     *(((unsigned int8 *)(&y))+2) = data2; 
....................      
....................   #endif 
....................    } while(res != y); 
....................  
....................    return(res); 
.................... } 
.................... //Overloaded functions for sqrt() for PCD 
.................... // Overloaded function sqrt() for data type - Float48 
.................... #if defined(__PCD__) 
.................... float48 sqrt(float48 x) 
.................... { 
....................    float48 y, res; 
....................    unsigned int16 data1,data2; 
....................    BYTE *p; 
....................  
....................    #ifdef _ERRNO 
....................    if(x < 0) 
....................    { 
....................       errno=EDOM; 
....................    } 
....................    #endif 
....................  
....................    if( x<=0.0) 
....................       return(0.0); 
....................  
....................    y=x; 
....................     
....................    #if !defined(__PCD__) 
....................     p=&y; 
....................    (*p)=(BYTE)((((unsigned int16)(*p)) + 127) >> 1); 
....................    #endif 
....................     
....................    #if defined(__PCD__) 
....................     p = (((unsigned int8 *)(&y))+5); 
....................     data1 = *(((unsigned int8 *)(&y))+5); 
....................     data2 = *(((unsigned int8 *)(&y))+4); 
....................     rotate_left(&data1,1); 
....................     if(bit_test(data2,7)) 
....................     bit_set(data1,0);     
....................     data1 = ((data1+127) >>1); 
....................     bit_clear(data2,7); 
....................     if(bit_test(data1,0)) 
....................     bit_set(data2,7); 
....................     data1 = data1 >>1; 
....................     *(((unsigned int8 *)(&y))+5) = data1; 
....................     *(((unsigned int8 *)(&y))+4) = data2; 
....................      
....................   #endif 
....................  
....................    do { 
....................       res=y; 
....................       y+=(x/y); 
....................  
....................       #if !defined(__PCD__) 
....................      (*p)--; 
....................    #endif 
....................     
....................     data1 = *(((unsigned int8 *)(&y))+5); 
....................     data2 = *(((unsigned int8 *)(&y))+4); 
....................     rotate_left(&data1,1); 
....................     if(bit_test(data2,7)) 
....................     bit_set(data1,0);     
....................     data1--; 
....................     bit_clear(data2,7); 
....................     if(bit_test(data1,0)) 
....................     bit_set(data2,7); 
....................     data1 = data1 >>1; 
....................     *(((unsigned int8 *)(&y))+5) = data1; 
....................     *(((unsigned int8 *)(&y))+4) = data2; 
....................      
....................    } while(res != y); 
....................  
....................    return(res); 
.................... } 
....................  
.................... // Overloaded function sqrt() for data type - Float64 
.................... float64 sqrt(float64 x) 
.................... { 
....................    float64 y, res; 
....................    unsigned int16 *p; 
....................    unsigned int16 temp1,temp2; 
....................  
....................    #ifdef _ERRNO 
....................    if(x < 0) 
....................    { 
....................       errno=EDOM; 
....................    } 
....................    #endif 
....................  
....................    if( x<=0.0) 
....................       return(0.0); 
....................  
....................    y=x; 
....................    p= (((unsigned int16 *)(&y))+3); 
....................    temp1 = *p; 
....................    temp2 = *p; 
....................    bit_clear(temp1,15); 
....................    temp1 = (temp1>>4)+1023; 
....................    temp1 = temp1 >> 1; 
....................    temp1 = (temp1<<4) & 0xFFF0; 
....................    if(bit_test(temp2,15)) 
....................    bit_set(temp1,15); 
....................    temp2 = temp2 & 0x000F; 
....................    temp1 ^= temp2; 
....................     
....................    (*p) = temp1; 
....................     
....................    do { 
....................       res=y; 
....................       y+=(x/y); 
....................      temp1 = *p; 
....................      temp2 = *p; 
....................      bit_clear(temp1,15); 
....................      temp1 = (temp1>>4); 
....................      temp1--; 
....................      temp1 = (temp1<<4) & 0xFFF0; 
....................      if(bit_test(temp2,15)) 
....................      bit_set(temp1,15); 
....................      temp2 = temp2 & 0x000F; 
....................      temp1 ^= temp2; 
....................      (*p) = temp1; 
....................  
....................    } while(res != y); 
....................  
....................    return(res); 
.................... } 
.................... #endif 
....................  
.................... ////////////////////////////// Trig Functions ////////////////////////////// 
.................... #ifdef PI_DIV_BY_TWO 
.................... #undef PI_DIV_BY_TWO 
.................... #endif 
.................... #define PI_DIV_BY_TWO   1.5707963267948966 
.................... #ifdef TWOBYPI 
.................... #undef TWOBYPI 
.................... #define TWOBYPI          0.6366197723675813 
.................... #endif 
.................... //////////////////////////////////////////////////////////////////////////// 
.................... //   float cos(float x) 
.................... //////////////////////////////////////////////////////////////////////////// 
.................... // Description : returns the cosine value of the angle x, which is in radian 
.................... // Date : 9/20/2001 
.................... // 
.................... float32 cos(float32 x) 
.................... { 
....................    float32 y, t, t2 = 1.0; 
....................    unsigned int8 quad, i; 
....................    float32 frac; 
....................    float32 p[6] = {                    //by the series definition for cosine 
....................       -0.5,                            // sum ( ( (-1)^n * x^2n )/(2n)! ) 
....................        0.04166666666667, 
....................       -0.00138888888889, 
....................        0.00002480158730, 
....................       -0.00000027557319, 
....................        0.00000000208767, 
....................       //-0.00000000001147, 
....................       // 0.00000000000005 
....................    }; 
....................  
....................    if (x < 0) x = -x;                  // absolute value of input 
....................  
....................    quad = (unsigned int8)(x / PI_DIV_BY_TWO);    // quadrant 
....................    frac = (x / PI_DIV_BY_TWO) - quad;  // fractional part of input 
....................    quad = quad % 4;                    // quadrant (0 to 3) 
....................  
....................    if (quad == 0 || quad == 2) 
....................       t = frac * PI_DIV_BY_TWO; 
....................    else if (quad == 1) 
....................       t = (1-frac) * PI_DIV_BY_TWO; 
....................    else // should be 3 
....................       t = (frac-1) * PI_DIV_BY_TWO; 
....................  
....................    y = 1.0; 
....................    t = t * t; 
....................    for (i = 0; i <= 5; i++) 
....................    { 
....................       t2 = t2 * t; 
....................       y = y + p[i] * t2; 
....................    } 
....................  
....................    if (quad == 2 || quad == 1) 
....................       y = -y;  // correct sign 
....................  
....................    return (y); 
.................... } 
....................  
....................  
.................... //Overloaded functions for cos() for PCD 
.................... // Overloaded function cos() for data type - Float48 
.................... #if defined(__PCD__) 
.................... float48 cos(float48 x) 
.................... { 
....................    float48 y, t, t2 = 1.0; 
....................    unsigned int8 quad, i; 
....................    float48 frac; 
....................    float48 p[6] = {                    //by the series definition for cosine 
....................       -0.5,                            // sum ( ( (-1)^n * x^2n )/(2n)! ) 
....................        0.04166666666667, 
....................       -0.00138888888889, 
....................        0.00002480158730, 
....................       -0.00000027557319, 
....................        0.00000000208767, 
....................       //-0.00000000001147, 
....................       // 0.00000000000005 
....................    }; 
....................  
....................    if (x < 0) x = -x;                  // absolute value of input 
....................  
....................    quad = (unsigned int8)(x / PI_DIV_BY_TWO);    // quadrant 
....................    frac = (x / PI_DIV_BY_TWO) - quad;  // fractional part of input 
....................    quad = quad % 4;                    // quadrant (0 to 3) 
....................  
....................    if (quad == 0 || quad == 2) 
....................       t = frac * PI_DIV_BY_TWO; 
....................    else if (quad == 1) 
....................       t = (1-frac) * PI_DIV_BY_TWO; 
....................    else // should be 3 
....................       t = (frac-1) * PI_DIV_BY_TWO; 
....................  
....................    y = 0.999999999781; 
....................    t = t * t; 
....................    for (i = 0; i <= 5; i++) 
....................    { 
....................       t2 = t2 * t; 
....................       y = y + p[i] * t2; 
....................    } 
....................  
....................    if (quad == 2 || quad == 1) 
....................       y = -y;  // correct sign 
....................  
....................    return (y); 
.................... } 
....................  
.................... // Overloaded function cos() for data type - Float48 
.................... float64 cos(float64 x) 
.................... { 
....................    float64 y, t, t2 = 1.0; 
....................    unsigned int8 quad, i; 
....................    float64 frac; 
....................    float64 p[6] = {                    //by the series definition for cosine 
....................       -0.5,                            // sum ( ( (-1)^n * x^2n )/(2n)! ) 
....................        0.04166666666667, 
....................       -0.00138888888889, 
....................        0.00002480158730, 
....................       -0.00000027557319, 
....................        0.00000000208767, 
....................       //-0.00000000001147, 
....................       // 0.00000000000005 
....................    }; 
....................  
....................    if (x < 0) x = -x;                  // absolute value of input 
....................  
....................    quad = (unsigned int8)(x / PI_DIV_BY_TWO);    // quadrant 
....................    frac = (x / PI_DIV_BY_TWO) - quad;  // fractional part of input 
....................    quad = quad % 4;                    // quadrant (0 to 3) 
....................  
....................    if (quad == 0 || quad == 2) 
....................       t = frac * PI_DIV_BY_TWO; 
....................    else if (quad == 1) 
....................       t = (1-frac) * PI_DIV_BY_TWO; 
....................    else // should be 3 
....................       t = (frac-1) * PI_DIV_BY_TWO; 
....................  
....................    y = 0.999999999781; 
....................    t = t * t; 
....................    for (i = 0; i <= 5; i++) 
....................    { 
....................       t2 = t2 * t; 
....................       y = y + p[i] * t2; 
....................    } 
....................  
....................    if (quad == 2 || quad == 1) 
....................       y = -y;  // correct sign 
....................  
....................    return (y); 
.................... } 
....................  
.................... #endif 
....................  
.................... //////////////////////////////////////////////////////////////////////////// 
.................... //   float sin(float x) 
.................... //////////////////////////////////////////////////////////////////////////// 
.................... // Description : returns the sine value of the angle x, which is in radian 
.................... // Date : 9/20/2001 
.................... // 
.................... float32 sin(float32 x) 
.................... { 
....................    return cos(x - PI_DIV_BY_TWO); 
.................... } 
....................  
.................... //Overloaded functions for sin() for PCD 
.................... // Overloaded function sin() for data type - Float48 
.................... #if defined(__PCD__) 
.................... float48 sin(float48 x) 
.................... { 
....................    return cos(x - PI_DIV_BY_TWO); 
.................... } 
....................  
.................... // Overloaded function sin() for data type - Float48 
.................... float64 sin(float64 x) 
.................... { 
....................    return cos(x - PI_DIV_BY_TWO); 
.................... } 
.................... #endif 
....................  
.................... //////////////////////////////////////////////////////////////////////////// 
.................... //   float tan(float x) 
.................... //////////////////////////////////////////////////////////////////////////// 
.................... // Description : returns the tangent value of the angle x, which is in radian 
.................... // Date : 9/20/2001 
.................... // 
.................... float32 tan(float32 x) 
.................... { 
....................    float32 c, s; 
....................  
....................    c = cos(x); 
....................    if (c == 0.0) 
....................       return (1.0e+36); 
....................  
....................    s = sin(x); 
....................    return(s/c); 
.................... } 
.................... //Overloaded functions for tan() for PCD 
.................... // Overloaded function tan() for data type - Float48 
.................... #if defined(__PCD__) 
.................... float48 tan(float48 x) 
.................... { 
....................    float48 c, s; 
....................  
....................    c = cos(x); 
....................    if (c == 0.0) 
....................       return (1.0e+36); 
....................  
....................    s = sin(x); 
....................    return(s/c); 
.................... } 
....................  
.................... // Overloaded function tan() for data type - Float48 
.................... float64 tan(float64 x) 
.................... { 
....................    float64 c, s; 
....................  
....................    c = cos(x); 
....................    if (c == 0.0) 
....................       return (1.0e+36); 
....................  
....................    s = sin(x); 
....................    return(s/c); 
.................... } 
.................... #endif 
....................  
.................... float32 const pas[3] = {0.49559947, -4.6145309, 5.6036290}; 
.................... float32 const qas[3] = {1.0000000,  -5.5484666, 5.6036290}; 
....................  
.................... float32 ASIN_COS(float32 x, unsigned int8 n) 
.................... { 
....................    float32 y, res, r, y2; 
....................    int1 s; 
....................    #ifdef _ERRNO 
....................    if(x <-1 || x > 1) 
....................    { 
....................       errno=EDOM; 
....................    } 
....................    #endif 
....................    s = 0; 
....................    y = x; 
....................  
....................    if (x < 0) 
....................    { 
....................       s = 1; 
....................       y = -y; 
....................    } 
....................  
....................    if (y > 0.5) 
....................    { 
....................       y = sqrt((1.0 - y)/2.0); 
....................       n += 2; 
....................    } 
....................  
....................    y2=y*y; 
....................  
....................    res = pas[0]*y2 + pas[1]; 
....................    res = res*y2 + pas[2]; 
....................  
....................    r = qas[0]*y2 + qas[1]; 
....................    r = r*y2 + qas[2]; 
....................  
....................    res = y*res/r; 
....................  
....................    if (n & 2)     // |x| > 0.5 
....................       res = PI_DIV_BY_TWO - 2.0*res; 
....................    if (s) 
....................       res = -res; 
....................    if (n & 1)           // take arccos 
....................       res = PI_DIV_BY_TWO - res; 
....................  
....................    return(res); 
.................... } 
....................  
.................... //Overloaded functions for ASIN_COS() for PCD 
.................... // Overloaded function ASIN_COS() for data type - Float48 
.................... #if defined(__PCD__) 
.................... float48 ASIN_COS(float48 x, unsigned int8 n) 
.................... { 
....................    float48 y, res, r, y2; 
....................    int1 s; 
....................    #ifdef _ERRNO 
....................    if(x <-1 || x > 1) 
....................    { 
....................       errno=EDOM; 
....................    } 
....................    #endif 
....................    s = 0; 
....................    y = x; 
....................  
....................    if (x < 0) 
....................    { 
....................       s = 1; 
....................       y = -y; 
....................    } 
....................  
....................    if (y > 0.5) 
....................    { 
....................       y = sqrt((1.0 - y)/2.0); 
....................       n += 2; 
....................    } 
....................  
....................    y2=y*y; 
....................  
....................    res = pas[0]*y2 + pas[1]; 
....................    res = res*y2 + pas[2]; 
....................  
....................    r = qas[0]*y2 + qas[1]; 
....................    r = r*y2 + qas[2]; 
....................  
....................    res = y*res/r; 
....................  
....................    if (n & 2)     // |x| > 0.5 
....................       res = PI_DIV_BY_TWO - 2.0*res; 
....................    if (s) 
....................       res = -res; 
....................    if (n & 1)           // take arccos 
....................       res = PI_DIV_BY_TWO - res; 
....................  
....................    return(res); 
.................... } 
....................  
.................... // Overloaded function ASIN_COS() for data type - Float64 
.................... float64 ASIN_COS(float64 x, unsigned int8 n) 
.................... { 
....................    float64 y, res, r, y2; 
....................    int1 s; 
....................    #ifdef _ERRNO 
....................    if(x <-1 || x > 1) 
....................    { 
....................       errno=EDOM; 
....................    } 
....................    #endif 
....................    s = 0; 
....................    y = x; 
....................  
....................    if (x < 0) 
....................    { 
....................       s = 1; 
....................       y = -y; 
....................    } 
....................  
....................    if (y > 0.5) 
....................    { 
....................       y = sqrt((1.0 - y)/2.0); 
....................       n += 2; 
....................    } 
....................  
....................    y2=y*y; 
....................  
....................    res = pas[0]*y2 + pas[1]; 
....................    res = res*y2 + pas[2]; 
....................  
....................    r = qas[0]*y2 + qas[1]; 
....................    r = r*y2 + qas[2]; 
....................  
....................    res = y*res/r; 
....................  
....................    if (n & 2)     // |x| > 0.5 
....................       res = PI_DIV_BY_TWO - 2.0*res; 
....................    if (s) 
....................       res = -res; 
....................    if (n & 1)           // take arccos 
....................       res = PI_DIV_BY_TWO - res; 
....................  
....................    return(res); 
.................... } 
.................... #endif 
....................  
.................... //////////////////////////////////////////////////////////////////////////// 
.................... //   float asin(float x) 
.................... //////////////////////////////////////////////////////////////////////////// 
.................... // Description : returns the arcsine value of the value x. 
.................... // Date : N/A 
.................... // 
.................... float32 asin(float32 x) 
.................... { 
....................    float32 r; 
....................  
....................    r = ASIN_COS(x, 0); 
....................    return(r); 
.................... } 
.................... //Overloaded functions for asin() for PCD 
.................... // Overloaded function asin() for data type - Float48 
.................... #if defined(__PCD__) 
.................... float48 asin(float48 x) 
.................... { 
....................    float48 r; 
....................  
....................    r = ASIN_COS(x, 0); 
....................    return(r); 
.................... } 
....................  
.................... // Overloaded function asin() for data type - Float64 
.................... float64 asin(float64 x) 
.................... { 
....................    float64 r; 
....................  
....................    r = ASIN_COS(x, 0); 
....................    return(r); 
.................... } 
.................... #endif 
....................  
.................... //////////////////////////////////////////////////////////////////////////// 
.................... //   float acos(float x) 
.................... //////////////////////////////////////////////////////////////////////////// 
.................... // Description : returns the arccosine value of the value x. 
.................... // Date : N/A 
.................... // 
.................... float32 acos(float32 x) 
.................... { 
....................    float32 r; 
....................  
....................    r = ASIN_COS(x, 1); 
....................    return(r); 
.................... } 
.................... //Overloaded functions for acos() for PCD 
.................... // Overloaded function acos() for data type - Float48 
.................... #if defined(__PCD__) 
.................... float48 acos(float48 x) 
.................... { 
....................    float48 r; 
....................  
....................    r = ASIN_COS(x, 1); 
....................    return(r); 
.................... } 
....................  
.................... // Overloaded function acos() for data type - Float64 
.................... float64 acos(float64 x) 
.................... { 
....................    float64 r; 
....................  
....................    r = ASIN_COS(x, 1); 
....................    return(r); 
.................... } 
.................... #endif 
....................  
.................... float32 const pat[4] = {0.17630401, 5.6710795, 22.376096, 19.818457}; 
.................... float32 const qat[4] = {1.0000000,  11.368190, 28.982246, 19.818457}; 
....................  
.................... //////////////////////////////////////////////////////////////////////////// 
.................... //   float atan(float x) 
.................... //////////////////////////////////////////////////////////////////////////// 
.................... // Description : returns the arctangent value of the value x. 
.................... // Date : N/A 
.................... // 
.................... float32 atan(float32 x) 
.................... { 
....................    float32 y, res, r; 
....................    int1 s, flag; 
....................  
....................    s = 0; 
....................    flag = 0; 
....................    y = x; 
....................  
....................    if (x < 0) 
....................    { 
....................       s = 1; 
....................       y = -y; 
....................    } 
....................  
....................    if (y > 1.0) 
....................    { 
....................       y = 1.0/y; 
....................       flag = 1; 
....................    } 
....................  
....................    res = pat[0]*y*y + pat[1]; 
....................    res = res*y*y + pat[2]; 
....................    res = res*y*y + pat[3]; 
....................  
....................    r = qat[0]*y*y + qat[1]; 
....................    r = r*y*y + qat[2]; 
....................    r = r*y*y + qat[3]; 
....................  
....................    res = y*res/r; 
....................  
....................  
....................    if (flag)                              // for |x| > 1 
....................       res = PI_DIV_BY_TWO - res; 
....................    if (s) 
....................       res = -res; 
....................  
....................    return(res); 
.................... } 
.................... //Overloaded functions for atan() for PCD 
.................... // Overloaded function atan() for data type - Float48 
.................... #if defined(__PCD__) 
.................... float48 atan(float48 x) 
.................... { 
....................    float48 y, res, r; 
....................    int1 s, flag; 
....................  
....................    s = 0; 
....................    flag = 0; 
....................    y = x; 
....................  
....................    if (x < 0) 
....................    { 
....................       s = 1; 
....................       y = -y; 
....................    } 
....................  
....................    if (y > 1.0) 
....................    { 
....................       y = 1.0/y; 
....................       flag = 1; 
....................    } 
....................  
....................    res = pat[0]*y*y + pat[1]; 
....................    res = res*y*y + pat[2]; 
....................    res = res*y*y + pat[3]; 
....................  
....................    r = qat[0]*y*y + qat[1]; 
....................    r = r*y*y + qat[2]; 
....................    r = r*y*y + qat[3]; 
....................  
....................    res = y*res/r; 
....................  
....................  
....................    if (flag)                              // for |x| > 1 
....................       res = PI_DIV_BY_TWO - res; 
....................    if (s) 
....................       res = -res; 
....................  
....................    return(res); 
.................... } 
....................  
.................... // Overloaded function atan() for data type - Float64 
.................... float64 atan(float64 x) 
.................... { 
....................    float64 y, res, r; 
....................    int1 s, flag; 
....................  
....................    s = 0; 
....................    flag = 0; 
....................    y = x; 
....................  
....................    if (x < 0) 
....................    { 
....................       s = 1; 
....................       y = -y; 
....................    } 
....................  
....................    if (y > 1.0) 
....................    { 
....................       y = 1.0/y; 
....................       flag = 1; 
....................    } 
....................  
....................    res = pat[0]*y*y + pat[1]; 
....................    res = res*y*y + pat[2]; 
....................    res = res*y*y + pat[3]; 
....................  
....................    r = qat[0]*y*y + qat[1]; 
....................    r = r*y*y + qat[2]; 
....................    r = r*y*y + qat[3]; 
....................  
....................    res = y*res/r; 
....................  
....................  
....................    if (flag)                              // for |x| > 1 
....................       res = PI_DIV_BY_TWO - res; 
....................    if (s) 
....................       res = -res; 
....................  
....................    return(res); 
.................... } 
.................... #endif 
....................  
.................... ///////////////////////////////////////////////////////////////////////////// 
.................... //   float atan2(float y, float x) 
.................... ///////////////////////////////////////////////////////////////////////////// 
.................... // Description :computes the principal value of arc tangent of y/x, using the 
.................... // signs of both the arguments to determine the quadrant of the return value 
.................... // Returns : returns the arc tangent of y/x. 
.................... // Date : N/A 
.................... // 
....................  
.................... float32 atan2(float32 y,float32 x) 
.................... { 
....................    float32 z; 
....................    int1 sign; 
....................    unsigned int8 quad; 
....................    sign=0; 
....................    quad=0; //quadrant 
....................    quad=((y<=0.0)?((x<=0.0)?3:4):((x<0.0)?2:1)); 
....................    if(y<0.0) 
....................    { 
....................       sign=1; 
....................       y=-y; 
....................    } 
....................    if(x<0.0) 
....................    { 
....................       x=-x; 
....................    } 
....................    if (x==0.0) 
....................    { 
....................       if(y==0.0) 
....................       { 
....................       #ifdef _ERRNO 
....................       { 
....................          errno=EDOM; 
....................       } 
....................       #endif 
....................       } 
....................       else 
....................       { 
....................          if(sign) 
....................          { 
....................          return (-(PI_DIV_BY_TWO)); 
....................          } 
....................          else 
....................          { 
....................          return (PI_DIV_BY_TWO); 
....................          } 
....................       } 
....................    } 
....................    else 
....................    { 
....................       z=y/x; 
....................       switch(quad) 
....................       { 
....................          case 1: 
....................          { 
....................             return atan(z); 
....................             break; 
....................          } 
....................          case 2: 
....................          { 
.................... //            return (atan(z)+PI_DIV_BY_TWO);  //2L3122 
....................             return (PI-atan(z)); 
....................             break; 
....................          } 
....................          case 3: 
....................          { 
....................             return (atan(z)-PI); 
....................             break; 
....................          } 
....................          case 4: 
....................          { 
....................             return (-atan(z)); 
....................             break; 
....................          } 
....................       } 
....................    } 
.................... } 
....................  
.................... //Overloaded functions for atan2() for PCD 
.................... // Overloaded function atan2() for data type - Float48 
.................... #if defined(__PCD__) 
.................... float48 atan2(float48 y,float48 x) 
.................... { 
....................    float48 z; 
....................    int1 sign; 
....................    unsigned int8 quad; 
....................    sign=0; 
....................    quad=0; //quadrant 
....................    quad=((y<=0.0)?((x<=0.0)?3:4):((x<0.0)?2:1)); 
....................    if(y<0.0) 
....................    { 
....................       sign=1; 
....................       y=-y; 
....................    } 
....................    if(x<0.0) 
....................    { 
....................       x=-x; 
....................    } 
....................    if (x==0.0) 
....................    { 
....................       if(y==0.0) 
....................       { 
....................       #ifdef _ERRNO 
....................       { 
....................          errno=EDOM; 
....................       } 
....................       #endif 
....................       } 
....................       else 
....................       { 
....................          if(sign) 
....................          { 
....................          return (-(PI_DIV_BY_TWO)); 
....................          } 
....................          else 
....................          { 
....................          return (PI_DIV_BY_TWO); 
....................          } 
....................       } 
....................    } 
....................    else 
....................    { 
....................       z=y/x; 
....................       switch(quad) 
....................       { 
....................          case 1: 
....................          { 
....................             return atan(z); 
....................             break; 
....................          } 
....................          case 2: 
....................          { 
.................... //            return (atan(z)+PI_DIV_BY_TWO);  //2L3122 
....................             return (PI-atan(z)); 
....................             break; 
....................          } 
....................          case 3: 
....................          { 
....................             return (atan(z)-PI); 
....................             break; 
....................          } 
....................          case 4: 
....................          { 
....................             return (-atan(z)); 
....................             break; 
....................          } 
....................       } 
....................    } 
.................... } 
....................  
.................... // Overloaded function atan2() for data type - Float64 
.................... float64 atan2(float64 y,float64 x) 
.................... { 
....................    float64 z; 
....................    int1 sign; 
....................    unsigned int8 quad; 
....................    sign=0; 
....................    quad=0; //quadrant 
....................    quad=((y<=0.0)?((x<=0.0)?3:4):((x<0.0)?2:1)); 
....................    if(y<0.0) 
....................    { 
....................       sign=1; 
....................       y=-y; 
....................    } 
....................    if(x<0.0) 
....................    { 
....................       x=-x; 
....................    } 
....................    if (x==0.0) 
....................    { 
....................       if(y==0.0) 
....................       { 
....................       #ifdef _ERRNO 
....................       { 
....................          errno=EDOM; 
....................       } 
....................       #endif 
....................       } 
....................       else 
....................       { 
....................          if(sign) 
....................          { 
....................          return (-(PI_DIV_BY_TWO)); 
....................          } 
....................          else 
....................          { 
....................          return (PI_DIV_BY_TWO); 
....................          } 
....................       } 
....................    } 
....................    else 
....................    { 
....................       z=y/x; 
....................       switch(quad) 
....................       { 
....................          case 1: 
....................          { 
....................             return atan(z); 
....................             break; 
....................          } 
....................          case 2: 
....................          { 
.................... //            return (atan(z)+PI_DIV_BY_TWO);  //2L3122 
....................             return (PI-atan(z)); 
....................             break; 
....................          } 
....................          case 3: 
....................          { 
....................             return (atan(z)-PI); 
....................             break; 
....................          } 
....................          case 4: 
....................          { 
....................             return (-atan(z)); 
....................             break; 
....................          } 
....................       } 
....................    } 
.................... } 
.................... #endif 
....................  
.................... //////////////////// Hyperbolic functions //////////////////// 
....................  
.................... //////////////////////////////////////////////////////////////////////////// 
.................... //   float cosh(float x) 
.................... //////////////////////////////////////////////////////////////////////////// 
.................... // Description : Computes the hyperbolic cosine value of x 
.................... // Returns : returns the hyperbolic cosine value of x 
.................... // Date : N/A 
.................... // 
....................  
.................... float32 cosh(float32 x) 
.................... { 
....................    return ((exp(x)+exp(-x))/2); 
.................... } 
.................... //Overloaded functions for cosh() for PCD 
.................... // Overloaded function cosh() for data type - Float48 
.................... #if defined(__PCD__) 
.................... float48 cosh(float48 x) 
.................... { 
....................    return ((exp(x)+exp(-x))/2); 
.................... } 
....................  
.................... // Overloaded function cosh() for data type - Float64 
.................... float64 cosh(float64 x) 
.................... { 
....................    return ((exp(x)+exp(-x))/2); 
.................... } 
.................... #endif 
....................  
.................... //////////////////////////////////////////////////////////////////////////// 
.................... //   float sinh(float x) 
.................... //////////////////////////////////////////////////////////////////////////// 
.................... // Description : Computes the hyperbolic sine value of x 
.................... // Returns : returns the hyperbolic sine value of x 
.................... // Date : N/A 
.................... // 
....................  
.................... float32 sinh(float32 x) 
.................... { 
....................  
....................    return ((exp(x) - exp(-x))/2); 
.................... } 
.................... //Overloaded functions for sinh() for PCD 
.................... // Overloaded function sinh() for data type - Float48 
.................... #if defined(__PCD__) 
.................... float48 sinh(float48 x) 
.................... { 
....................  
....................    return ((exp(x) - exp(-x))/2); 
.................... } 
....................  
.................... // Overloaded function sinh() for data type - Float48 
.................... float64 sinh(float64 x) 
.................... { 
....................  
....................    return ((exp(x) - exp(-x))/2); 
.................... } 
.................... #endif 
....................  
.................... //////////////////////////////////////////////////////////////////////////// 
.................... //   float tanh(float x) 
.................... //////////////////////////////////////////////////////////////////////////// 
.................... // Description : Computes the hyperbolic tangent value of x 
.................... // Returns : returns the hyperbolic tangent value of x 
.................... // Date : N/A 
.................... // 
....................  
.................... float32 tanh(float32 x) 
.................... { 
....................    return(sinh(x)/cosh(x)); 
.................... } 
.................... //Overloaded functions for tanh() for PCD 
.................... // Overloaded function tanh() for data type - Float48 
.................... #if defined(__PCD__) 
.................... float48 tanh(float48 x) 
.................... { 
....................    return(sinh(x)/cosh(x)); 
.................... } 
....................  
.................... // Overloaded function tanh() for data type - Float64 
.................... float64 tanh(float64 x) 
.................... { 
....................    return(sinh(x)/cosh(x)); 
.................... } 
.................... #endif 
....................  
.................... //////////////////////////////////////////////////////////////////////////// 
.................... //   float frexp(float x, signed int *exp) 
.................... //////////////////////////////////////////////////////////////////////////// 
.................... // Description : breaks a floating point number into a normalized fraction and an integral 
.................... // power of 2. It stores the integer in the signed int object pointed to by exp. 
.................... // Returns : returns the value x, such that x is a double with magnitude in the interval 
.................... // [1/2,1) or zero, and value equals x times 2 raised to the power *exp.If value is zero, 
.................... // both parts of the result are zero. 
.................... // Date : N/A 
.................... // 
....................  
.................... #define LOG2 .30102999566398119521 
.................... float32 frexp(float32 x, signed int8 *exp) 
.................... { 
....................    float32 res; 
....................    int1 sign = 0; 
....................    if(x == 0.0) 
....................    { 
....................       *exp=0; 
....................       return (0.0); 
....................    } 
....................    if(x < 0.0) 
....................    { 
....................      x=-x; 
....................      sign=1; 
....................    } 
....................    if (x > 1.0) 
....................    { 
....................       *exp=(ceil(log10(x)/LOG2)); 
....................       res=x/(pow(2, *exp)); 
....................       if (res == 1) 
....................       { 
....................          *exp=*exp+1; 
....................           res=.5; 
....................       } 
....................    } 
....................    else 
....................    { 
....................       if(x < 0.5) 
....................       { 
....................          *exp=-1; 
....................          res=x*2; 
....................       } 
....................       else 
....................       { 
....................          *exp=0; 
....................           res=x; 
....................       } 
....................    } 
....................    if(sign) 
....................    { 
....................       res=-res; 
....................    } 
....................    return res; 
.................... } 
....................  
.................... //Overloaded functions for frexp() for PCD 
.................... // Overloaded function frexp() for data type - Float48 
.................... #if defined(__PCD__) 
.................... float48 frexp(float48 x, signed int8 *exp) 
.................... { 
....................    float48 res; 
....................    int1 sign = 0; 
....................    if(x == 0.0) 
....................    { 
....................       *exp=0; 
....................       return (0.0); 
....................    } 
....................    if(x < 0.0) 
....................    { 
....................      x=-x; 
....................      sign=1; 
....................    } 
....................    if (x > 1.0) 
....................    { 
....................       *exp=(ceil(log10(x)/LOG2)); 
....................       res=x/(pow(2, *exp)); 
....................       if (res == 1) 
....................       { 
....................          *exp=*exp+1; 
....................           res=.5; 
....................       } 
....................    } 
....................    else 
....................    { 
....................       if(x < 0.5) 
....................       { 
....................          *exp=-1; 
....................          res=x*2; 
....................       } 
....................       else 
....................       { 
....................          *exp=0; 
....................           res=x; 
....................       } 
....................    } 
....................    if(sign) 
....................    { 
....................       res=-res; 
....................    } 
....................    return res; 
.................... } 
....................  
.................... // Overloaded function frexp() for data type - Float64 
.................... float64 frexp(float64 x, signed int8 *exp) 
.................... { 
....................    float64 res; 
....................    int1 sign = 0; 
....................    if(x == 0.0) 
....................    { 
....................       *exp=0; 
....................       return (0.0); 
....................    } 
....................    if(x < 0.0) 
....................    { 
....................      x=-x; 
....................      sign=1; 
....................    } 
....................    if (x > 1.0) 
....................    { 
....................       *exp=(ceil(log10(x)/LOG2)); 
....................       res=x/(pow(2, *exp)); 
....................       if (res == 1) 
....................       { 
....................          *exp=*exp+1; 
....................           res=.5; 
....................       } 
....................    } 
....................    else 
....................    { 
....................       if(x < 0.5) 
....................       { 
....................          *exp=-1; 
....................          res=x*2; 
....................       } 
....................       else 
....................       { 
....................          *exp=0; 
....................           res=x; 
....................       } 
....................    } 
....................    if(sign) 
....................    { 
....................       res=-res; 
....................    } 
....................    return res; 
.................... } 
.................... #endif 
....................  
.................... ////////////////////////////////////////////////////////////////////////////// 
.................... //   float ldexp(float x, signed int *exp) 
.................... ////////////////////////////////////////////////////////////////////////////// 
.................... // Description : multiplies a floating point number by an integral power of 2. 
.................... // Returns : returns the value of x times 2 raised to the power exp. 
.................... // Date : N/A 
.................... // 
....................  
.................... float32 ldexp(float32 value, signed int8 exp) 
.................... { 
....................    return (value * pow(2,exp)); 
.................... } 
.................... //Overloaded functions for ldexp() for PCD 
.................... // Overloaded function ldexp() for data type - Float48 
....................  
.................... #if defined(__PCD__) 
.................... float48 ldexp(float48 value, signed int8 exp) 
.................... { 
....................    return (value * pow(2,exp)); 
.................... } 
.................... // Overloaded function ldexp() for data type - Float64 
.................... float64 ldexp(float64 value, signed int8 exp) 
.................... { 
....................    return (value * pow(2,exp)); 
.................... } 
.................... #endif 
....................  
.................... #endif 
....................  
.................... #include "HDM64GS12.c" 
.................... ///////////////////////////////////////////////////////////////////////// 
.................... ////                           HDM64GS12.c                           //// 
.................... ////                                                                 //// 
.................... //// This file contains drivers for using a Hantronix HDM64GS12 with //// 
.................... //// a KS0108 display controller. The HDM64GS12 is 128 by 64 pixels. //// 
.................... //// The driver treats the upper left pixel as (0,0).                //// 
.................... ////                                                                 //// 
.................... //// Use #define FAST_GLCD if the target chip has at least 1k of RAM //// 
.................... //// to decrease the time it takes to update the display.            //// 
.................... //// glcd_update() must then be called to update the display after   //// 
.................... //// changing the pixel information.                                 //// 
.................... //// See ex_glcd.c for suggested usage.                              //// 
.................... //// See KS0108.c for controlling a single 64 by 64 display          //// 
.................... ///////////////////////////////////////////////////////////////////////// 
.................... ////                                                                 //// 
.................... //// LCD Pin connections:                                            //// 
.................... //// (These can be changed as needed in the following defines).      //// 
.................... ////  * 1: VSS is connected to GND                                   //// 
.................... ////  * 2: VDD is connected to +5V                                   //// 
.................... ////  * 3: V0  - LCD operating voltage (Constrast adjustment)        //// 
.................... ////  * 4: D/I - Data or Instruction is connected to B2              //// 
.................... ////  * 5: R/W - Read or Write is connected to B4                    //// 
.................... ////  * 6: Enable is connected to B5                                 //// 
.................... ////  *7-14: Data Bus 0 to 7 is connected to port d                  //// 
.................... ////  *15: Chip Select 1 is connected to B0                          //// 
.................... ////  *16: Chip Select 2 is connected to B1                          //// 
.................... ////  *17: Reset is connected to C0                                  //// 
.................... ////  *18: Negative voltage is also connected to the 20k Ohm POT     //// 
.................... ////  *19: Positive voltage for LED backlight is connected to +5V    //// 
.................... ////  *20: Negavtive voltage for LED backlight is connected to GND   //// 
.................... ////                                                                 //// 
.................... ///////////////////////////////////////////////////////////////////////// 
.................... ////                                                                 //// 
.................... ////  glcd_init(mode)                                                //// 
.................... ////     * Must be called before any other function.                 //// 
.................... ////       - mode can be ON or OFF to turn the LCD on or off         //// 
.................... ////                                                                 //// 
.................... ////  glcd_pixel(x,y,color)                                          //// 
.................... ////     * Sets the pixel to the given color.                        //// 
.................... ////       - color can be ON or OFF                                  //// 
.................... ////                                                                 //// 
.................... ////  glcd_fillScreen(color)                                         //// 
.................... ////     * Fills the entire LCD with the given color.                //// 
.................... ////       - color can be ON or OFF                                  //// 
.................... ////                                                                 //// 
.................... ////  glcd_update()                                                  //// 
.................... ////     * Write the display data stored in RAM to the LCD           //// 
.................... ////     * Only available if FAST_GLCD is defined                    //// 
.................... ////                                                                 //// 
.................... ///////////////////////////////////////////////////////////////////////// 
.................... ////        (C) Copyright 1996, 2004 Custom Computer Services        //// 
.................... //// This source code may only be used by licensed users of the CCS  //// 
.................... //// C compiler.  This source code may only be distributed to other  //// 
.................... //// licensed users of the CCS C compiler.  No other use,            //// 
.................... //// reproduction or distribution is permitted without written       //// 
.................... //// permission.  Derivative programs created using this software    //// 
.................... //// in object code form are not restricted in any way.              //// 
.................... ///////////////////////////////////////////////////////////////////////// 
....................  
....................  
....................  
.................... #ifndef HDM64GS12 
.................... #define HDM64GS12 
....................  
.................... #ifndef FAST_GLCD 
.................... #define FAST_GLCD 
....................  
.................... #ifndef GLCD_WIDTH 
.................... #define GLCD_WIDTH   128 
.................... #endif 
....................  
.................... #ifndef GLCD_CS1 
.................... #define GLCD_CS1     PIN_B2   // Chip Selection 1 
.................... #endif 
....................  
.................... #ifndef GLCD_CS2 
.................... #define GLCD_CS2     PIN_B3   // Chip Selection 2 
.................... #endif 
....................  
.................... #ifndef GLCD_DI 
.................... #define GLCD_DI      PIN_B5   // Data or Instruction input 
.................... #endif 
....................  
.................... #ifndef GLCD_RW 
.................... #define GLCD_RW      PIN_B6   // Read/Write 
.................... #endif 
....................  
.................... #ifndef GLCD_E 
.................... #define GLCD_E       PIN_B7   // Enable 
.................... #endif 
....................  
.................... #ifndef GLCD_RST 
.................... #define GLCD_RST     PIN_B4   // Reset 
.................... #endif 
....................  
.................... #define GLCD_LEFT    0 
.................... #define GLCD_RIGHT   1 
....................  
.................... #ifndef ON 
.................... #define ON           1 
.................... #endif 
....................  
.................... #ifndef OFF 
.................... #define OFF          0 
.................... #endif 
....................  
.................... ///////////////////////////////////////////////////////////////////////// 
.................... // Function Prototypes 
.................... ///////////////////////////////////////////////////////////////////////// 
.................... void glcd_init(int1 mode); 
.................... void glcd_pixel(int8 x, int8 y, int1 color); 
.................... void glcd_fillScreen(int1 color); 
.................... void glcd_writeByte(int1 side, BYTE data); 
.................... BYTE glcd_readByte(int1 side); 
.................... void glcd_update(); 
.................... ///////////////////////////////////////////////////////////////////////// 
....................  
.................... #ifdef FAST_GLCD 
.................... struct 
.................... { 
....................    int8 left[512]; 
....................    int8 right[512]; 
.................... } displayData; 
.................... #endif 
....................  
....................  
.................... // Purpose:       Initialize the LCD. 
.................... //                Call before using any other LCD function. 
.................... // Inputs:        OFF - Turns the LCD off 
.................... //                ON  - Turns the LCD on 
.................... void glcd_init(int1 mode) 
.................... { 
....................    // Initialze some pins 
....................    output_high(GLCD_RST); 
*
016CC:  BCF    F93.4
016CE:  BSF    F8A.4
....................    output_low(GLCD_E); 
016D0:  BCF    F93.7
016D2:  BCF    F8A.7
....................    output_low(GLCD_CS1); 
016D4:  BCF    F93.2
016D6:  BCF    F8A.2
....................    output_low(GLCD_CS2); 
016D8:  BCF    F93.3
016DA:  BCF    F8A.3
....................  
....................    output_low(GLCD_DI);                 // Set for instruction 
016DC:  BCF    F93.5
016DE:  BCF    F8A.5
....................    glcd_writeByte(GLCD_LEFT,  0xC0);    // Specify first RAM line at the top 
016E0:  MOVLB  5
016E2:  CLRF   xFB
016E4:  MOVLW  C0
016E6:  MOVWF  xFC
016E8:  MOVLB  0
016EA:  RCALL  1584
....................    glcd_writeByte(GLCD_RIGHT, 0xC0);    //   of the screen 
016EC:  MOVLW  01
016EE:  MOVLB  5
016F0:  MOVWF  xFB
016F2:  MOVLW  C0
016F4:  MOVWF  xFC
016F6:  MOVLB  0
016F8:  RCALL  1584
....................    glcd_writeByte(GLCD_LEFT,  0x40);    // Set the column address to 0 
016FA:  MOVLB  5
016FC:  CLRF   xFB
016FE:  MOVLW  40
01700:  MOVWF  xFC
01702:  MOVLB  0
01704:  RCALL  1584
....................    glcd_writeByte(GLCD_RIGHT, 0x40); 
01706:  MOVLW  01
01708:  MOVLB  5
0170A:  MOVWF  xFB
0170C:  MOVLW  40
0170E:  MOVWF  xFC
01710:  MOVLB  0
01712:  RCALL  1584
....................    glcd_writeByte(GLCD_LEFT,  0xB8);    // Set the page address to 0 
01714:  MOVLB  5
01716:  CLRF   xFB
01718:  MOVLW  B8
0171A:  MOVWF  xFC
0171C:  MOVLB  0
0171E:  RCALL  1584
....................    glcd_writeByte(GLCD_RIGHT, 0xB8); 
01720:  MOVLW  01
01722:  MOVLB  5
01724:  MOVWF  xFB
01726:  MOVLW  B8
01728:  MOVWF  xFC
0172A:  MOVLB  0
0172C:  RCALL  1584
....................  
....................    if(mode == ON) 
0172E:  MOVLB  5
01730:  DECFSZ xEC,W
01732:  BRA    1750
....................    { 
....................       glcd_writeByte(GLCD_LEFT,  0x3F); // Turn the display on 
01734:  CLRF   xFB
01736:  MOVLW  3F
01738:  MOVWF  xFC
0173A:  MOVLB  0
0173C:  RCALL  1584
....................       glcd_writeByte(GLCD_RIGHT, 0x3F); 
0173E:  MOVLW  01
01740:  MOVLB  5
01742:  MOVWF  xFB
01744:  MOVLW  3F
01746:  MOVWF  xFC
01748:  MOVLB  0
0174A:  RCALL  1584
....................    } 
....................    else 
0174C:  BRA    1768
0174E:  MOVLB  5
....................    { 
....................       glcd_writeByte(GLCD_LEFT,  0x3E); // Turn the display off 
01750:  CLRF   xFB
01752:  MOVLW  3E
01754:  MOVWF  xFC
01756:  MOVLB  0
01758:  RCALL  1584
....................       glcd_writeByte(GLCD_RIGHT, 0x3E); 
0175A:  MOVLW  01
0175C:  MOVLB  5
0175E:  MOVWF  xFB
01760:  MOVLW  3E
01762:  MOVWF  xFC
01764:  MOVLB  0
01766:  RCALL  1584
....................    } 
....................  
....................    glcd_fillScreen(OFF);                // Clear the display 
01768:  MOVLB  5
0176A:  CLRF   xF4
0176C:  MOVLB  0
0176E:  RCALL  15BA
....................  
....................    #ifdef FAST_GLCD 
....................    glcd_update(); 
01770:  RCALL  1614
....................    #endif 
.................... } 
01772:  RETLW  00
....................  
....................  
.................... // Purpose:    Update the LCD with data from the display arrays 
.................... #ifdef FAST_GLCD 
.................... void glcd_update() 
.................... { 
....................    int8 i, j; 
....................    int8 *p1, *p2; 
....................  
....................    p1 = displayData.left; 
*
01614:  MOVLB  5
01616:  CLRF   xF7
01618:  MOVLW  16
0161A:  MOVWF  xF6
....................    p2 = displayData.right; 
0161C:  MOVLW  02
0161E:  MOVWF  xF9
01620:  MOVLW  16
01622:  MOVWF  xF8
....................  
....................    // Loop through the vertical pages 
....................    for(i = 0; i < 8; ++i) 
01624:  CLRF   xF4
01626:  MOVF   xF4,W
01628:  SUBLW  07
0162A:  BNC   16C8
....................    { 
....................       output_low(GLCD_DI);                      // Set for instruction 
0162C:  BCF    F93.5
0162E:  BCF    F8A.5
....................       glcd_writeByte(GLCD_LEFT, 0x40);          // Set horizontal address to 0 
01630:  CLRF   xFB
01632:  MOVLW  40
01634:  MOVWF  xFC
01636:  MOVLB  0
01638:  RCALL  1584
....................       glcd_writeByte(GLCD_RIGHT, 0x40); 
0163A:  MOVLW  01
0163C:  MOVLB  5
0163E:  MOVWF  xFB
01640:  MOVLW  40
01642:  MOVWF  xFC
01644:  MOVLB  0
01646:  RCALL  1584
....................       glcd_writeByte(GLCD_LEFT, i | 0xB8);      // Set page address 
01648:  MOVLB  5
0164A:  MOVF   xF4,W
0164C:  IORLW  B8
0164E:  MOVWF  xFA
01650:  CLRF   xFB
01652:  MOVWF  xFC
01654:  MOVLB  0
01656:  RCALL  1584
....................       glcd_writeByte(GLCD_RIGHT, i | 0xB8); 
01658:  MOVLB  5
0165A:  MOVF   xF4,W
0165C:  IORLW  B8
0165E:  MOVWF  xFA
01660:  MOVLW  01
01662:  MOVWF  xFB
01664:  MOVFF  5FA,5FC
01668:  MOVLB  0
0166A:  RCALL  1584
....................       output_high(GLCD_DI);                     // Set for data 
0166C:  BCF    F93.5
0166E:  BSF    F8A.5
....................  
....................       // Loop through the horizontal sections 
....................       for(j = 0; j < 64; ++j) 
01670:  MOVLB  5
01672:  CLRF   xF5
01674:  MOVF   xF5,W
01676:  SUBLW  3F
01678:  BNC   16C4
....................       { 
....................          glcd_writeByte(GLCD_LEFT, *p1++);      // Turn pixels on or off 
0167A:  MOVFF  5F7,03
0167E:  MOVF   xF6,W
01680:  INCF   xF6,F
01682:  BTFSC  FD8.2
01684:  INCF   xF7,F
01686:  MOVWF  FE9
01688:  MOVFF  03,FEA
0168C:  MOVFF  FEF,5FA
01690:  CLRF   xFB
01692:  MOVFF  5FA,5FC
01696:  MOVLB  0
01698:  RCALL  1584
....................          glcd_writeByte(GLCD_RIGHT, *p2++);     // Turn pixels on or off 
0169A:  MOVLB  5
0169C:  MOVFF  5F9,03
016A0:  MOVF   xF8,W
016A2:  INCF   xF8,F
016A4:  BTFSC  FD8.2
016A6:  INCF   xF9,F
016A8:  MOVWF  FE9
016AA:  MOVFF  03,FEA
016AE:  MOVFF  FEF,5FA
016B2:  MOVLW  01
016B4:  MOVWF  xFB
016B6:  MOVFF  5FA,5FC
016BA:  MOVLB  0
016BC:  RCALL  1584
....................       } 
016BE:  MOVLB  5
016C0:  INCF   xF5,F
016C2:  BRA    1674
....................    } 
016C4:  INCF   xF4,F
016C6:  BRA    1626
.................... } 
016C8:  MOVLB  0
016CA:  RETLW  00
.................... #endif 
....................  
....................  
.................... // Purpose:    Turn a pixel on a graphic LCD on or off 
.................... // Inputs:     1) x - the x coordinate of the pixel 
.................... //             2) y - the y coordinate of the pixel 
.................... //             3) color - ON or OFF 
.................... void glcd_pixel(int8 x, int8 y, int1 color) 
.................... #ifdef FAST_GLCD 
.................... { 
....................    int8* p; 
....................    int16 temp; 
....................    temp =  y/8; 
*
01774:  MOVLB  6
01776:  CLRF   x26
01778:  RRCF   x21,W
0177A:  MOVWF  x25
0177C:  RRCF   x25,F
0177E:  RRCF   x25,F
01780:  MOVLW  1F
01782:  ANDWF  x25,F
....................    temp *= 64; 
01784:  RLCF   x25,F
01786:  RLCF   x26,F
01788:  RLCF   x25,F
0178A:  RLCF   x26,F
0178C:  RLCF   x25,F
0178E:  RLCF   x26,F
01790:  RLCF   x25,F
01792:  RLCF   x26,F
01794:  RLCF   x25,F
01796:  RLCF   x26,F
01798:  RLCF   x25,F
0179A:  RLCF   x26,F
0179C:  MOVLW  C0
0179E:  ANDWF  x25,F
....................    temp += x; 
017A0:  MOVF   x20,W
017A2:  ADDWF  x25,F
017A4:  MOVLW  00
017A6:  ADDWFC x26,F
....................  
....................    if(x > 63) 
017A8:  MOVF   x20,W
017AA:  SUBLW  3F
017AC:  BC    17C8
....................    { 
....................       p = displayData.right + temp - 64; 
017AE:  MOVLW  16
017B0:  ADDWF  x25,W
017B2:  MOVWF  x27
017B4:  MOVLW  02
017B6:  ADDWFC x26,W
017B8:  MOVWF  x28
017BA:  MOVLW  40
017BC:  SUBWF  x27,W
017BE:  MOVWF  x23
017C0:  MOVLW  00
017C2:  SUBWFB x28,W
017C4:  MOVWF  x24
....................    } 
....................    else 
017C6:  BRA    17D4
....................    { 
....................       p = displayData.left + temp; 
017C8:  MOVLW  16
017CA:  ADDWF  x25,W
017CC:  MOVWF  x23
017CE:  MOVLW  00
017D0:  ADDWFC x26,W
017D2:  MOVWF  x24
....................    } 
....................  
....................    if(color) 
017D4:  MOVF   x22,F
017D6:  BZ    1802
....................    { 
....................       bit_set(*p, y%8); 
017D8:  MOVFF  624,03
017DC:  MOVFF  623,FE9
017E0:  MOVFF  624,FEA
017E4:  MOVF   x21,W
017E6:  ANDLW  07
017E8:  MOVWF  x27
017EA:  MOVLW  01
017EC:  MOVWF  00
017EE:  MOVF   x27,W
017F0:  MOVWF  01
017F2:  BZ    17FC
017F4:  BCF    FD8.0
017F6:  RLCF   00,F
017F8:  DECFSZ 01,F
017FA:  BRA    17F4
017FC:  MOVF   00,W
017FE:  IORWF  FEF,F
....................    } 
....................    else 
01800:  BRA    182C
....................    { 
....................       bit_clear(*p, y%8); 
01802:  MOVFF  624,03
01806:  MOVFF  623,FE9
0180A:  MOVFF  624,FEA
0180E:  MOVF   x21,W
01810:  ANDLW  07
01812:  MOVWF  x27
01814:  MOVLW  01
01816:  MOVWF  00
01818:  MOVF   x27,W
0181A:  MOVWF  01
0181C:  BZ    1826
0181E:  BCF    FD8.0
01820:  RLCF   00,F
01822:  DECFSZ 01,F
01824:  BRA    181E
01826:  MOVF   00,W
01828:  XORLW  FF
0182A:  ANDWF  FEF,F
....................    } 
.................... } 
0182C:  MOVLB  0
0182E:  RETLW  00
.................... #else 
.................... { 
....................    BYTE data; 
....................    int1 side = GLCD_LEFT;  // Stores which chip to use on the LCD 
....................  
....................    if(x > 63)              // Check for first or second display area 
....................    { 
....................       x -= 64; 
....................       side = GLCD_RIGHT; 
....................    } 
....................  
....................    output_low(GLCD_DI);                         // Set for instruction 
....................    bit_clear(x,7);                              // Clear the MSB. Part of an instruction code 
....................    bit_set(x,6);                                // Set bit 6. Also part of an instruction code 
....................    glcd_writeByte(side, x);                     // Set the horizontal address 
....................    glcd_writeByte(side, (y/8 & 0xBF) | 0xB8);   // Set the vertical page address 
....................    output_high(GLCD_DI);                        // Set for data 
....................    glcd_readByte(side);                         // Need two reads to get data 
....................    data = glcd_readByte(side);                  //  at new address 
....................  
....................    if(color == ON) 
....................       bit_set(data, y%8);        // Turn the pixel on 
....................    else                          // or 
....................       bit_clear(data, y%8);      // turn the pixel off 
....................  
....................    output_low(GLCD_DI);          // Set for instruction 
....................    glcd_writeByte(side, x);      // Set the horizontal address 
....................    output_high(GLCD_DI);         // Set for data 
....................    glcd_writeByte(side, data);   // Write the pixel data 
.................... } 
.................... #endif 
....................  
....................  
.................... // Purpose:    Fill the LCD screen with the passed in color 
.................... // Inputs:     ON  - turn all the pixels on 
.................... //             OFF - turn all the pixels off 
.................... void glcd_fillScreen(int1 color) 
.................... #ifdef FAST_GLCD 
.................... { 
....................    int8  data; 
....................    int8  *p1, *p2; 
....................    int16 i; 
....................  
....................    p1 = displayData.left; 
*
015BA:  MOVLB  5
015BC:  CLRF   xF7
015BE:  MOVLW  16
015C0:  MOVWF  xF6
....................    p2 = displayData.right; 
015C2:  MOVLW  02
015C4:  MOVWF  xF9
015C6:  MOVLW  16
015C8:  MOVWF  xF8
....................    data = 0xFF * color; 
015CA:  MOVF   xF4,W
015CC:  MULLW  FF
015CE:  MOVFF  FF3,5F5
....................  
....................    for(i=0; i<512; ++i) 
015D2:  CLRF   xFB
015D4:  CLRF   xFA
015D6:  MOVF   xFB,W
015D8:  SUBLW  01
015DA:  BNC   1610
....................    { 
....................       *p1++ = data; 
015DC:  MOVFF  5F7,03
015E0:  MOVF   xF6,W
015E2:  INCF   xF6,F
015E4:  BTFSC  FD8.2
015E6:  INCF   xF7,F
015E8:  MOVWF  FE9
015EA:  MOVFF  03,FEA
015EE:  MOVFF  5F5,FEF
....................       *p2++ = data; 
015F2:  MOVFF  5F9,03
015F6:  MOVF   xF8,W
015F8:  INCF   xF8,F
015FA:  BTFSC  FD8.2
015FC:  INCF   xF9,F
015FE:  MOVWF  FE9
01600:  MOVFF  03,FEA
01604:  MOVFF  5F5,FEF
....................    } 
01608:  INCF   xFA,F
0160A:  BTFSC  FD8.2
0160C:  INCF   xFB,F
0160E:  BRA    15D6
.................... } 
01610:  MOVLB  0
01612:  RETLW  00
.................... #else 
.................... { 
....................    int8 i, j; 
....................  
....................    // Loop through the vertical pages 
....................    for(i = 0; i < 8; ++i) 
....................    { 
....................       output_low(GLCD_DI);                      // Set for instruction 
....................       glcd_writeByte(GLCD_LEFT, 0b01000000);    // Set horizontal address to 0 
....................       glcd_writeByte(GLCD_RIGHT, 0b01000000); 
....................       glcd_writeByte(GLCD_LEFT, i | 0b10111000);// Set page address 
....................       glcd_writeByte(GLCD_RIGHT, i | 0b10111000); 
....................       output_high(GLCD_DI);                     // Set for data 
....................  
....................       // Loop through the horizontal sections 
....................       for(j = 0; j < 64; ++j) 
....................       { 
....................          glcd_writeByte(GLCD_LEFT, 0xFF*color);  // Turn pixels on or off 
....................          glcd_writeByte(GLCD_RIGHT, 0xFF*color); // Turn pixels on or off 
....................       } 
....................    } 
.................... } 
.................... #endif 
....................  
....................  
.................... // Purpose:    Write a byte of data to the specified chip 
.................... // Inputs:     1) chipSelect - which chip to write the data to 
.................... //             2) data - the byte of data to write 
.................... void glcd_writeByte(int1 side, BYTE data) 
.................... { 
....................    if(side)                   // Choose which side to write to 
*
01584:  MOVLB  5
01586:  MOVF   xFB,F
01588:  BZ    1590
....................       output_high(GLCD_CS2); 
0158A:  BCF    F93.3
0158C:  BSF    F8A.3
....................    else 
0158E:  BRA    1594
....................       output_high(GLCD_CS1); 
01590:  BCF    F93.2
01592:  BSF    F8A.2
....................  
....................    output_low(GLCD_RW);       // Set for writing 
01594:  BCF    F93.6
01596:  BCF    F8A.6
....................    output_d(data);            // Put the data on the port 
01598:  CLRF   F95
0159A:  MOVFF  5FC,F8C
....................    delay_cycles(1); 
0159E:  NOP   
....................    output_high(GLCD_E);       // Pulse the enable pin 
015A0:  BCF    F93.7
015A2:  BSF    F8A.7
....................    delay_cycles(5); 
015A4:  BRA    15A6
015A6:  BRA    15A8
015A8:  NOP   
....................    output_low(GLCD_E); 
015AA:  BCF    F93.7
015AC:  BCF    F8A.7
....................  
....................    output_low(GLCD_CS1);      // Reset the chip select lines 
015AE:  BCF    F93.2
015B0:  BCF    F8A.2
....................    output_low(GLCD_CS2); 
015B2:  BCF    F93.3
015B4:  BCF    F8A.3
.................... } 
015B6:  MOVLB  0
015B8:  RETLW  00
....................  
....................  
.................... // Purpose:    Reads a byte of data from the specified chip 
.................... // Ouputs:     A byte of data read from the chip 
.................... BYTE glcd_readByte(int1 side) 
.................... { 
....................    BYTE data;                 // Stores the data read from the LCD 
....................  
....................    set_tris_d(0xFF);          // Set port d to input 
....................    output_high(GLCD_RW);      // Set for reading 
....................  
....................    if(side)                   // Choose which side to write to 
....................       output_high(GLCD_CS2); 
....................    else 
....................       output_high(GLCD_CS1); 
....................  
....................    delay_cycles(1); 
....................    output_high(GLCD_E);       // Pulse the enable pin 
....................    delay_cycles(4); 
....................    data = input_d();          // Get the data from the display's output register 
....................    output_low(GLCD_E); 
....................  
....................    output_low(GLCD_CS1);      // Reset the chip select lines 
....................    output_low(GLCD_CS2); 
....................    return data;               // Return the read data 
.................... } 
....................  
.................... #endif 
....................  
.................... #include "GRAPHICS.c" 
.................... ///////////////////////////////////////////////////////////////////////// 
.................... ////                          graphics.c                             //// 
.................... ////                                                                 //// 
.................... ////   This file contains functions to draw lines, rectangles, bars, //// 
.................... ////   circles and text to a display. A function which draws a       //// 
.................... ////   single pixel must be defined before calling the functions in  //// 
.................... ////   this file. Call it glcd_pixel(x, y, color) where x is the     //// 
.................... ////   horizontal coordinate, y is the vertical coordinate, and      //// 
.................... ////   color is 1 bit to turn the pixel on or off.                   //// 
.................... ////                                                                 //// 
.................... ////   * Note: (0, 0) is treated as the upper left corner            //// 
.................... ////                                                                 //// 
.................... ///////////////////////////////////////////////////////////////////////// 
.................... ////                                                                 //// 
.................... ////  glcd_line(x1, y1, x2, y2, color)                               //// 
.................... ////     * Draws a line from the first point to the second point     //// 
.................... ////       with the given color                                      //// 
.................... ////       - color can be ON or OFF                                  //// 
.................... ////                                                                 //// 
.................... ////  glcd_rect(x1, y1, x2, y2, fill, color)                         //// 
.................... ////     * Draws a rectangle with one corner at point (x1,y1) and    //// 
.................... ////       the other corner at point (x2,y2)                         //// 
.................... ////       - fill can be YES or NO                                   //// 
.................... ////       - color can be ON or OFF                                  //// 
.................... ////                                                                 //// 
.................... ////  glcd_bar(x1, y1, x2, y2, width, color)                         //// 
.................... ////     * Draws a bar (wide line) from the first point to the       //// 
.................... ////       second point                                              //// 
.................... ////       - width is the number of pixels wide                      //// 
.................... ////       - color is ON or OFF                                      //// 
.................... ////                                                                 //// 
.................... ////  glcd_circle(x, y, radius, fill, color)                         //// 
.................... ////     * Draws a circle with center at (x,y)                       //// 
.................... ////       - fill can be YES or NO                                   //// 
.................... ////       - color can be ON or OFF                                  //// 
.................... ////                                                                 //// 
.................... ////  glcd_text57(x, y, textptr, size, color)                        //// 
.................... ////     * Write the null terminated text pointed to by textptr with //// 
.................... ////       the upper left coordinate of the first character at (x,y) //// 
.................... ////       Characters are 5 pixels wide and 7 pixels tall            //// 
.................... ////       - size is an integer that scales the size of the text     //// 
.................... ////       - color is ON or OFF                                      //// 
.................... ////     * Note - This function wraps characters to the next line    //// 
.................... ////              use #define GLCD_WIDTH to specify a display width  //// 
.................... ////                                                                 //// 
.................... ///////////////////////////////////////////////////////////////////////// 
.................... ////        (C) Copyright 1996, 2004 Custom Computer Services        //// 
.................... //// This source code may only be used by licensed users of the CCS  //// 
.................... //// C compiler.  This source code may only be distributed to other  //// 
.................... //// licensed users of the CCS C compiler.  No other use,            //// 
.................... //// reproduction or distribution is permitted without written       //// 
.................... //// permission.  Derivative programs created using this software    //// 
.................... //// in object code form are not restricted in any way.              //// 
.................... ///////////////////////////////////////////////////////////////////////// 
....................  
....................  
.................... ///////////////////////////////////////////////////////////////////////// 
.................... #ifndef GRAPHICS_DRAWING_FUNCTIONS 
.................... #define GRAPHICS_DRAWING_FUNCTIONS 
.................... ///////////////////////////////////////////////////////////////////////// 
....................  
....................  
.................... ///////////////////////////////////////////////////////////////////////// 
.................... #ifndef ON 
.................... #define ON  1 
.................... #endif 
....................  
.................... #ifndef OFF 
.................... #define OFF 0 
.................... #endif 
....................  
.................... #ifndef YES 
.................... #define YES 1 
.................... #endif 
....................  
.................... #ifndef NO 
.................... #define NO  0 
.................... #endif 
.................... ///////////////////////////////////////////////////////////////////////// 
....................  
....................  
.................... ///////////////////////////////////////////////////////////////////////// 
.................... //// Defines a 5x7 font 
.................... ///////////////////////////////////////////////////////////////////////// 
.................... const int8 FONT[51][5] ={0x00, 0x00, 0x00, 0x00, 0x00, // SPACE 
....................                          0x00, 0x00, 0x5F, 0x00, 0x00, // ! 
....................                          0x00, 0x03, 0x00, 0x03, 0x00, // " 
....................                          0x14, 0x3E, 0x14, 0x3E, 0x14, // # 
....................                          0x24, 0x2A, 0x7F, 0x2A, 0x12, // $ 
....................                          0x43, 0x33, 0x08, 0x66, 0x61, // % 
....................                          0x36, 0x49, 0x55, 0x22, 0x50, // & 
....................                          0x00, 0x05, 0x03, 0x00, 0x00, // ' 
....................                          0x00, 0x1C, 0x22, 0x41, 0x00, // ( 
....................                          0x00, 0x41, 0x22, 0x1C, 0x00, // ) 
....................                          0x14, 0x08, 0x3E, 0x08, 0x14, // * 
....................                          0x08, 0x08, 0x3E, 0x08, 0x08, // + 
....................                          0x00, 0x50, 0x30, 0x00, 0x00, // , 
....................                          0x08, 0x08, 0x08, 0x08, 0x08, // - 
....................                          0x00, 0x60, 0x60, 0x00, 0x00, // . 
....................                          0x20, 0x10, 0x08, 0x04, 0x02, // / 
....................                          0x3E, 0x51, 0x49, 0x45, 0x3E, // 0 
....................                          0x00, 0x04, 0x02, 0x7F, 0x00, // 1 
....................                          0x42, 0x61, 0x51, 0x49, 0x46, // 2 
....................                          0x22, 0x41, 0x49, 0x49, 0x36, // 3 
....................                          0x18, 0x14, 0x12, 0x7F, 0x10, // 4 
....................                          0x27, 0x45, 0x45, 0x45, 0x39, // 5 
....................                          0x3E, 0x49, 0x49, 0x49, 0x32, // 6 
....................                          0x01, 0x01, 0x71, 0x09, 0x07, // 7 
....................                          0x36, 0x49, 0x49, 0x49, 0x36, // 8 
....................                          0x26, 0x49, 0x49, 0x49, 0x3E, // 9 
....................                          0x00, 0x36, 0x36, 0x00, 0x00, // : 
....................                          0x00, 0x56, 0x36, 0x00, 0x00, // ; 
....................                          0x08, 0x14, 0x22, 0x41, 0x00, // < 
....................                          0x14, 0x14, 0x14, 0x14, 0x14, // = 
....................                          0x00, 0x41, 0x22, 0x14, 0x08, // > 
....................                          0x02, 0x01, 0x51, 0x09, 0x06, // ? 
....................                          0x3E, 0x41, 0x59, 0x55, 0x5E, // @ 
....................                          0x7E, 0x09, 0x09, 0x09, 0x7E, // A 
....................                          0x7F, 0x49, 0x49, 0x49, 0x36, // B 
....................                          0x3E, 0x41, 0x41, 0x41, 0x22, // C 
....................                          0x7F, 0x41, 0x41, 0x41, 0x3E, // D 
....................                          0x7F, 0x49, 0x49, 0x49, 0x41, // E 
....................                          0x7F, 0x09, 0x09, 0x09, 0x01, // F 
....................                          0x3E, 0x41, 0x41, 0x49, 0x3A, // G 
....................                          0x7F, 0x08, 0x08, 0x08, 0x7F, // H 
....................                          0x00, 0x41, 0x7F, 0x41, 0x00, // I 
....................                          0x30, 0x40, 0x40, 0x40, 0x3F, // J 
....................                          0x7F, 0x08, 0x14, 0x22, 0x41, // K 
....................                          0x7F, 0x40, 0x40, 0x40, 0x40, // L 
....................                          0x7F, 0x02, 0x0C, 0x02, 0x7F, // M 
....................                          0x7F, 0x02, 0x04, 0x08, 0x7F, // N 
....................                          0x3E, 0x41, 0x41, 0x41, 0x3E, // O 
....................                          0x7F, 0x09, 0x09, 0x09, 0x06, // P 
....................                          0x1E, 0x21, 0x21, 0x21, 0x5E, // Q 
....................                          0x7F, 0x09, 0x09, 0x09, 0x76};// R 
....................  
.................... const int8 FONT2[44][5]={0x26, 0x49, 0x49, 0x49, 0x32, // S 
....................                          0x01, 0x01, 0x7F, 0x01, 0x01, // T 
....................                          0x3F, 0x40, 0x40, 0x40, 0x3F, // U 
....................                          0x1F, 0x20, 0x40, 0x20, 0x1F, // V 
....................                          0x7F, 0x20, 0x10, 0x20, 0x7F, // W 
....................                          0x41, 0x22, 0x1C, 0x22, 0x41, // X 
....................                          0x07, 0x08, 0x70, 0x08, 0x07, // Y 
....................                          0x61, 0x51, 0x49, 0x45, 0x43, // Z 
....................                          0x00, 0x7F, 0x41, 0x00, 0x00, // [ 
....................                          0x02, 0x04, 0x08, 0x10, 0x20, // \ 
....................                          0x00, 0x00, 0x41, 0x7F, 0x00, // ] 
....................                          0x04, 0x02, 0x01, 0x02, 0x04, // ^ 
....................                          0x40, 0x40, 0x40, 0x40, 0x40, // _ 
....................                          0x00, 0x01, 0x02, 0x04, 0x00, // ` 
....................                          0x20, 0x54, 0x54, 0x54, 0x78, // a 
....................                          0x7F, 0x44, 0x44, 0x44, 0x38, // b 
....................                          0x38, 0x44, 0x44, 0x44, 0x44, // c 
....................                          0x38, 0x44, 0x44, 0x44, 0x7F, // d 
....................                          0x38, 0x54, 0x54, 0x54, 0x18, // e 
....................                          0x04, 0x04, 0x7E, 0x05, 0x05, // f 
....................                          0x08, 0x54, 0x54, 0x54, 0x3C, // g 
....................                          0x7F, 0x08, 0x04, 0x04, 0x78, // h 
....................                          0x00, 0x44, 0x7D, 0x40, 0x00, // i 
....................                          0x20, 0x40, 0x44, 0x3D, 0x00, // j 
....................                          0x7F, 0x10, 0x28, 0x44, 0x00, // k 
....................                          0x00, 0x41, 0x7F, 0x40, 0x00, // l 
....................                          0x7C, 0x04, 0x78, 0x04, 0x78, // m 
....................                          0x7C, 0x08, 0x04, 0x04, 0x78, // n 
....................                          0x38, 0x44, 0x44, 0x44, 0x38, // o 
....................                          0x7C, 0x14, 0x14, 0x14, 0x08, // p 
....................                          0x08, 0x14, 0x14, 0x14, 0x7C, // q 
....................                          0x00, 0x7C, 0x08, 0x04, 0x04, // r 
....................                          0x48, 0x54, 0x54, 0x54, 0x20, // s 
....................                          0x04, 0x04, 0x3F, 0x44, 0x44, // t 
....................                          0x3C, 0x40, 0x40, 0x20, 0x7C, // u 
....................                          0x1C, 0x20, 0x40, 0x20, 0x1C, // v 
....................                          0x3C, 0x40, 0x30, 0x40, 0x3C, // w 
....................                          0x44, 0x28, 0x10, 0x28, 0x44, // x 
....................                          0x0C, 0x50, 0x50, 0x50, 0x3C, // y 
....................                          0x44, 0x64, 0x54, 0x4C, 0x44, // z 
....................                          0x00, 0x08, 0x36, 0x41, 0x41, // { 
....................                          0x00, 0x00, 0x7F, 0x00, 0x00, // | 
....................                          0x41, 0x41, 0x36, 0x08, 0x00, // } 
....................                          0x02, 0x01, 0x02, 0x04, 0x02};// ~ 
.................... ///////////////////////////////////////////////////////////////////////// 
....................  
....................  
.................... ///////////////////////////////////////////////////////////////////////// 
.................... // Purpose:       Draw a line on a graphic LCD using Bresenham's 
.................... //                line drawing algorithm 
.................... // Inputs:        (x1, y1) - the start coordinate 
.................... //                (x2, y2) - the end coordinate 
.................... //                color - ON or OFF 
.................... // Dependencies:  glcd_pixel() 
.................... ///////////////////////////////////////////////////////////////////////// 
.................... #ifdef LARGE_LCD 
.................... void glcd_line(int16 x1, int16 y1, int16 x2, int16 y2, int1 color) 
.................... #else 
.................... void glcd_line(int8 x1, int8 y1, int8 x2, int8 y2, int1 color) 
.................... #endif 
.................... { 
*
04BBC:  MOVLW  01
04BBE:  MOVLB  6
04BC0:  MOVWF  x19
04BC2:  MOVWF  x1A
04BC4:  CLRF   x1F
....................    int16        dy, dx; 
....................    signed int8  addx=1, addy=1; 
....................    signed int16 P, diff; 
....................  
....................    #ifdef LARGE_LCD 
....................    int16 i=0; 
....................    dx = abs((signed int16)(x2 - x1)); 
....................    dy = abs((signed int16)(y2 - y1)); 
....................    #else 
....................    int8 i=0; 
....................    dx = abs((signed int8)(x2 - x1)); 
04BC6:  MOVF   x10,W
04BC8:  SUBWF  x12,W
04BCA:  MOVWF  x20
04BCC:  MOVF   x20,W
04BCE:  BTFSS  x20.7
04BD0:  BRA    4BD8
04BD2:  MOVLW  00
04BD4:  BSF    FD8.0
04BD6:  SUBFWB x20,W
04BD8:  CLRF   03
04BDA:  MOVWF  x17
04BDC:  MOVFF  03,618
....................    dy = abs((signed int8)(y2 - y1)); 
04BE0:  MOVF   x11,W
04BE2:  SUBWF  x13,W
04BE4:  MOVWF  x20
04BE6:  MOVF   x20,W
04BE8:  BTFSS  x20.7
04BEA:  BRA    4BF2
04BEC:  MOVLW  00
04BEE:  BSF    FD8.0
04BF0:  SUBFWB x20,W
04BF2:  CLRF   03
04BF4:  MOVWF  x15
04BF6:  MOVFF  03,616
....................    #endif 
....................  
....................    if(x1 > x2) 
04BFA:  MOVF   x10,W
04BFC:  SUBWF  x12,W
04BFE:  BC    4C04
....................       addx = -1; 
04C00:  MOVLW  FF
04C02:  MOVWF  x19
....................    if(y1 > y2) 
04C04:  MOVF   x11,W
04C06:  SUBWF  x13,W
04C08:  BC    4C0E
....................       addy = -1; 
04C0A:  MOVLW  FF
04C0C:  MOVWF  x1A
....................  
....................    if(dx >= dy) 
04C0E:  MOVF   x16,W
04C10:  SUBWF  x18,W
04C12:  BNC   4C8C
04C14:  BNZ   4C1C
04C16:  MOVF   x15,W
04C18:  SUBWF  x17,W
04C1A:  BNC   4C8C
....................    { 
....................       dy *= 2; 
04C1C:  BCF    FD8.0
04C1E:  RLCF   x15,F
04C20:  RLCF   x16,F
....................       P = dy - dx; 
04C22:  MOVF   x17,W
04C24:  SUBWF  x15,W
04C26:  MOVWF  00
04C28:  MOVF   x18,W
04C2A:  SUBWFB x16,W
04C2C:  MOVFF  00,61B
04C30:  MOVWF  x1C
....................       diff = P - dx; 
04C32:  MOVF   x17,W
04C34:  SUBWF  x1B,W
04C36:  MOVWF  x1D
04C38:  MOVF   x18,W
04C3A:  SUBWFB x1C,W
04C3C:  MOVWF  x1E
....................  
....................       for(; i<=dx; ++i) 
04C3E:  MOVF   x18,F
04C40:  BNZ   4C48
04C42:  MOVF   x1F,W
04C44:  SUBWF  x17,W
04C46:  BNC   4C8A
....................       { 
....................          glcd_pixel(x1, y1, color); 
04C48:  MOVFF  610,620
04C4C:  MOVFF  611,621
04C50:  MOVFF  614,622
04C54:  MOVLB  0
04C56:  CALL   1774
....................  
....................          if(P < 0) 
04C5A:  MOVLB  6
04C5C:  BTFSC  x1C.7
04C5E:  BRA    4C62
04C60:  BRA    4C72
....................          { 
....................             P  += dy; 
04C62:  MOVF   x15,W
04C64:  ADDWF  x1B,F
04C66:  MOVF   x16,W
04C68:  ADDWFC x1C,F
....................             x1 += addx; 
04C6A:  MOVF   x19,W
04C6C:  ADDWF  x10,W
04C6E:  MOVWF  x10
....................          } 
....................          else 
04C70:  BRA    4C86
....................          { 
....................             P  += diff; 
04C72:  MOVF   x1D,W
04C74:  ADDWF  x1B,F
04C76:  MOVF   x1E,W
04C78:  ADDWFC x1C,F
....................             x1 += addx; 
04C7A:  MOVF   x19,W
04C7C:  ADDWF  x10,W
04C7E:  MOVWF  x10
....................             y1 += addy; 
04C80:  MOVF   x1A,W
04C82:  ADDWF  x11,W
04C84:  MOVWF  x11
....................          } 
....................       } 
04C86:  INCF   x1F,F
04C88:  BRA    4C3E
....................    } 
....................    else 
04C8A:  BRA    4CFA
....................    { 
....................       dx *= 2; 
04C8C:  BCF    FD8.0
04C8E:  RLCF   x17,F
04C90:  RLCF   x18,F
....................       P = dx - dy; 
04C92:  MOVF   x15,W
04C94:  SUBWF  x17,W
04C96:  MOVWF  00
04C98:  MOVF   x16,W
04C9A:  SUBWFB x18,W
04C9C:  MOVFF  00,61B
04CA0:  MOVWF  x1C
....................       diff = P - dy; 
04CA2:  MOVF   x15,W
04CA4:  SUBWF  x1B,W
04CA6:  MOVWF  x1D
04CA8:  MOVF   x16,W
04CAA:  SUBWFB x1C,W
04CAC:  MOVWF  x1E
....................  
....................       for(; i<=dy; ++i) 
04CAE:  MOVF   x16,F
04CB0:  BNZ   4CB8
04CB2:  MOVF   x1F,W
04CB4:  SUBWF  x15,W
04CB6:  BNC   4CFA
....................       { 
....................          glcd_pixel(x1, y1, color); 
04CB8:  MOVFF  610,620
04CBC:  MOVFF  611,621
04CC0:  MOVFF  614,622
04CC4:  MOVLB  0
04CC6:  CALL   1774
....................  
....................          if(P < 0) 
04CCA:  MOVLB  6
04CCC:  BTFSC  x1C.7
04CCE:  BRA    4CD2
04CD0:  BRA    4CE2
....................          { 
....................             P  += dx; 
04CD2:  MOVF   x17,W
04CD4:  ADDWF  x1B,F
04CD6:  MOVF   x18,W
04CD8:  ADDWFC x1C,F
....................             y1 += addy; 
04CDA:  MOVF   x1A,W
04CDC:  ADDWF  x11,W
04CDE:  MOVWF  x11
....................          } 
....................          else 
04CE0:  BRA    4CF6
....................          { 
....................             P  += diff; 
04CE2:  MOVF   x1D,W
04CE4:  ADDWF  x1B,F
04CE6:  MOVF   x1E,W
04CE8:  ADDWFC x1C,F
....................             x1 += addx; 
04CEA:  MOVF   x19,W
04CEC:  ADDWF  x10,W
04CEE:  MOVWF  x10
....................             y1 += addy; 
04CF0:  MOVF   x1A,W
04CF2:  ADDWF  x11,W
04CF4:  MOVWF  x11
....................          } 
....................       } 
04CF6:  INCF   x1F,F
04CF8:  BRA    4CAE
....................    } 
.................... } 
04CFA:  MOVLB  0
04CFC:  RETLW  00
....................  
....................  
.................... ///////////////////////////////////////////////////////////////////////// 
.................... // Purpose:       Draw a rectangle on a graphic LCD 
.................... // Inputs:        (x1, y1) - the start coordinate 
.................... //                (x2, y2) - the end coordinate 
.................... //                fill  - YES or NO 
.................... //                color - ON or OFF 
.................... // Dependencies:  glcd_pixel(), glcd_line() 
.................... ///////////////////////////////////////////////////////////////////////// 
.................... #ifdef LARGE_LCD 
.................... void glcd_rect(int16 x1, int16 y1, int16 x2, int16 y2, int1 fill, int1 color) 
.................... #else 
.................... void glcd_rect(int8 x1, int8 y1, int8 x2, int8 y2, int1 fill, int1 color) 
.................... #endif 
.................... { 
....................    if(fill) 
04CFE:  MOVLB  6
04D00:  MOVF   x09,F
04D02:  BZ    4D62
....................    { 
....................       #ifdef LARGE_LCD 
....................       int16 i, xmin, xmax, ymin, ymax; 
....................       #else 
....................       int8  i, xmin, xmax, ymin, ymax; 
....................       #endif 
....................  
....................       if(x1 < x2)                            //  Find x min and max 
04D04:  MOVF   x07,W
04D06:  SUBWF  x05,W
04D08:  BC    4D14
....................       { 
....................          xmin = x1; 
04D0A:  MOVFF  605,60C
....................          xmax = x2; 
04D0E:  MOVFF  607,60D
....................       } 
....................       else 
04D12:  BRA    4D1C
....................       { 
....................          xmin = x2; 
04D14:  MOVFF  607,60C
....................          xmax = x1; 
04D18:  MOVFF  605,60D
....................       } 
....................  
....................       if(y1 < y2)                            // Find the y min and max 
04D1C:  MOVF   x08,W
04D1E:  SUBWF  x06,W
04D20:  BC    4D2C
....................       { 
....................          ymin = y1; 
04D22:  MOVFF  606,60E
....................          ymax = y2; 
04D26:  MOVFF  608,60F
....................       } 
....................       else 
04D2A:  BRA    4D34
....................       { 
....................          ymin = y2; 
04D2C:  MOVFF  608,60E
....................          ymax = y1; 
04D30:  MOVFF  606,60F
....................       } 
....................  
....................       for(; xmin <= xmax; ++xmin) 
04D34:  MOVF   x0C,W
04D36:  SUBWF  x0D,W
04D38:  BNC   4D60
....................       { 
....................          for(i=ymin; i<=ymax; ++i) 
04D3A:  MOVFF  60E,60B
04D3E:  MOVF   x0B,W
04D40:  SUBWF  x0F,W
04D42:  BNC   4D5C
....................          { 
....................             glcd_pixel(xmin, i, color); 
04D44:  MOVFF  60C,620
04D48:  MOVFF  60B,621
04D4C:  MOVFF  60A,622
04D50:  MOVLB  0
04D52:  CALL   1774
....................          } 
04D56:  MOVLB  6
04D58:  INCF   x0B,F
04D5A:  BRA    4D3E
....................       } 
04D5C:  INCF   x0C,F
04D5E:  BRA    4D34
....................    } 
....................    else 
04D60:  BRA    4DBE
....................    { 
....................       glcd_line(x1, y1, x2, y1, color);      // Draw the 4 sides 
04D62:  MOVFF  605,610
04D66:  MOVFF  606,611
04D6A:  MOVFF  607,612
04D6E:  MOVFF  606,613
04D72:  MOVFF  60A,614
04D76:  MOVLB  0
04D78:  RCALL  4BBC
....................       glcd_line(x1, y2, x2, y2, color); 
04D7A:  MOVFF  605,610
04D7E:  MOVFF  608,611
04D82:  MOVFF  607,612
04D86:  MOVFF  608,613
04D8A:  MOVFF  60A,614
04D8E:  RCALL  4BBC
....................       glcd_line(x1, y1, x1, y2, color); 
04D90:  MOVFF  605,610
04D94:  MOVFF  606,611
04D98:  MOVFF  605,612
04D9C:  MOVFF  608,613
04DA0:  MOVFF  60A,614
04DA4:  RCALL  4BBC
....................       glcd_line(x2, y1, x2, y2, color); 
04DA6:  MOVFF  607,610
04DAA:  MOVFF  606,611
04DAE:  MOVFF  607,612
04DB2:  MOVFF  608,613
04DB6:  MOVFF  60A,614
04DBA:  RCALL  4BBC
04DBC:  MOVLB  6
....................    } 
.................... } 
04DBE:  MOVLB  0
04DC0:  RETLW  00
....................  
.................... ///////////////////////////////////////////////////////////////////////// 
.................... // Purpose:       Draw a bar (wide line) on a graphic LCD 
.................... // Inputs:        (x1, y1) - the start coordinate 
.................... //                (x2, y2) - the end coordinate 
.................... //                width  - The number of pixels wide 
.................... //                color - ON or OFF 
.................... ///////////////////////////////////////////////////////////////////////// 
.................... #ifdef LARGE_LCD 
.................... void glcd_bar(int16 x1, int16 y1, int16 x2, int16 y2, int8 width, int1 color) 
.................... #else 
.................... void glcd_bar(int8 x1, int8 y1, int8 x2, int8 y2, int8 width, int1 color) 
.................... #endif 
.................... { 
....................    int8         half_width; 
....................    signed int16 dy, dx; 
....................    signed int8  addx=1, addy=1, j; 
....................    signed int16 P, diff, c1, c2; 
....................  
....................    #ifdef LARGE_LCD 
....................    int16 i=0; 
....................    dx = abs((signed int16)(x2 - x1)); 
....................    dy = abs((signed int16)(y2 - y1)); 
....................    #else 
....................    int8 i=0; 
....................    dx = abs((signed int8)(x2 - x1)); 
....................    dy = abs((signed int8)(y2 - y1)); 
....................    #endif 
....................  
....................    half_width = width/2; 
....................    c1 = -(dx*x1 + dy*y1); 
....................    c2 = -(dx*x2 + dy*y2); 
....................  
....................    if(x1 > x2) 
....................    { 
....................       signed int16 temp; 
....................       temp = c1; 
....................       c1 = c2; 
....................       c2 = temp; 
....................       addx = -1; 
....................    } 
....................    if(y1 > y2) 
....................    { 
....................       signed int16 temp; 
....................       temp = c1; 
....................       c1 = c2; 
....................       c2 = temp; 
....................       addy = -1; 
....................    } 
....................  
....................    if(dx >= dy) 
....................    { 
....................       P = 2*dy - dx; 
....................       diff = P - dx; 
....................  
....................       for(i=0; i<=dx; ++i) 
....................       { 
....................          for(j=-half_width; j<half_width+width%2; ++j) 
....................          { 
....................             #ifdef LARGE_LCD 
....................             int16 temp; 
....................             #else 
....................             int8 temp; 
....................             #endif 
....................  
....................             temp = dx*x1+dy*(y1+j);    // Use more RAM to increase speed 
....................             if(temp+c1 >= 0 && temp+c2 <=0) 
....................                glcd_pixel(x1, y1+j, color); 
....................          } 
....................          if(P < 0) 
....................          { 
....................             P  += 2*dy; 
....................             x1 += addx; 
....................          } 
....................          else 
....................          { 
....................             P  += diff; 
....................             x1 += addx; 
....................             y1 += addy; 
....................          } 
....................       } 
....................    } 
....................    else 
....................    { 
....................       P = 2*dx - dy; 
....................       diff = P - dy; 
....................  
....................       for(i=0; i<=dy; ++i) 
....................       { 
....................          if(P < 0) 
....................          { 
....................             P  += 2*dx; 
....................             y1 += addy; 
....................          } 
....................          else 
....................          { 
....................             P  += diff; 
....................             x1 += addx; 
....................             y1 += addy; 
....................          } 
....................          for(j=-half_width; j<half_width+width%2; ++j) 
....................          { 
....................             #ifdef LARGE_LCD 
....................             int16 temp; 
....................             #else 
....................             int8 temp; 
....................             #endif 
....................  
....................             temp = dx*x1+dy*(y1+j);    // Use more RAM to increase speed 
....................             if(temp+c1 >= 0 && temp+c2 <=0) 
....................                glcd_pixel(x1+j, y1, color); 
....................          } 
....................       } 
....................    } 
.................... } 
....................  
....................  
.................... ///////////////////////////////////////////////////////////////////////// 
.................... // Purpose:       Draw a circle on a graphic LCD 
.................... // Inputs:        (x,y) - the center of the circle 
.................... //                radius - the radius of the circle 
.................... //                fill - YES or NO 
.................... //                color - ON or OFF 
.................... ///////////////////////////////////////////////////////////////////////// 
.................... #ifdef LARGE_LCD 
.................... void glcd_circle(int16 x, int16 y, int16 radius, int1 fill, int1 color) 
.................... #else 
.................... void glcd_circle(int8 x, int8 y, int8 radius, int1 fill, int1 color) 
.................... #endif 
.................... { 
....................    #ifdef LARGE_LCD 
....................    signed int16 a, b, P; 
....................    #else 
....................    signed int8  a, b, P; 
....................    #endif 
....................  
....................    a = 0; 
*
05A08:  MOVLB  6
05A0A:  CLRF   x08
....................    b = radius; 
05A0C:  MOVFF  605,609
....................    P = 1 - radius; 
05A10:  MOVLW  01
05A12:  BSF    FD8.0
05A14:  SUBFWB x05,W
05A16:  MOVWF  x0A
....................  
....................    do 
....................    { 
....................       if(fill) 
05A18:  MOVF   x06,F
05A1A:  BZ    5AE6
....................       { 
....................          glcd_line(x-a, y+b, x+a, y+b, color); 
05A1C:  MOVF   x08,W
05A1E:  SUBWF  x03,W
05A20:  MOVWF  x0B
05A22:  MOVF   x09,W
05A24:  ADDWF  x04,W
05A26:  MOVWF  x0C
05A28:  MOVF   x08,W
05A2A:  ADDWF  x03,W
05A2C:  MOVWF  x0D
05A2E:  MOVF   x09,W
05A30:  ADDWF  x04,W
05A32:  MOVWF  x0E
05A34:  MOVFF  60B,610
05A38:  MOVFF  60C,611
05A3C:  MOVFF  60D,612
05A40:  MOVWF  x13
05A42:  MOVFF  607,614
05A46:  MOVLB  0
05A48:  CALL   4BBC
....................          glcd_line(x-a, y-b, x+a, y-b, color); 
05A4C:  MOVLB  6
05A4E:  MOVF   x08,W
05A50:  SUBWF  x03,W
05A52:  MOVWF  x0B
05A54:  MOVF   x09,W
05A56:  SUBWF  x04,W
05A58:  MOVWF  x0C
05A5A:  MOVF   x08,W
05A5C:  ADDWF  x03,W
05A5E:  MOVWF  x0D
05A60:  MOVF   x09,W
05A62:  SUBWF  x04,W
05A64:  MOVWF  x0E
05A66:  MOVFF  60B,610
05A6A:  MOVFF  60C,611
05A6E:  MOVFF  60D,612
05A72:  MOVWF  x13
05A74:  MOVFF  607,614
05A78:  MOVLB  0
05A7A:  CALL   4BBC
....................          glcd_line(x-b, y+a, x+b, y+a, color); 
05A7E:  MOVLB  6
05A80:  MOVF   x09,W
05A82:  SUBWF  x03,W
05A84:  MOVWF  x0B
05A86:  MOVF   x08,W
05A88:  ADDWF  x04,W
05A8A:  MOVWF  x0C
05A8C:  MOVF   x09,W
05A8E:  ADDWF  x03,W
05A90:  MOVWF  x0D
05A92:  MOVF   x08,W
05A94:  ADDWF  x04,W
05A96:  MOVWF  x0E
05A98:  MOVFF  60B,610
05A9C:  MOVFF  60C,611
05AA0:  MOVFF  60D,612
05AA4:  MOVWF  x13
05AA6:  MOVFF  607,614
05AAA:  MOVLB  0
05AAC:  CALL   4BBC
....................          glcd_line(x-b, y-a, x+b, y-a, color); 
05AB0:  MOVLB  6
05AB2:  MOVF   x09,W
05AB4:  SUBWF  x03,W
05AB6:  MOVWF  x0B
05AB8:  MOVF   x08,W
05ABA:  SUBWF  x04,W
05ABC:  MOVWF  x0C
05ABE:  MOVF   x09,W
05AC0:  ADDWF  x03,W
05AC2:  MOVWF  x0D
05AC4:  MOVF   x08,W
05AC6:  SUBWF  x04,W
05AC8:  MOVWF  x0E
05ACA:  MOVFF  60B,610
05ACE:  MOVFF  60C,611
05AD2:  MOVFF  60D,612
05AD6:  MOVWF  x13
05AD8:  MOVFF  607,614
05ADC:  MOVLB  0
05ADE:  CALL   4BBC
....................       } 
....................       else 
05AE2:  BRA    5BD4
05AE4:  MOVLB  6
....................       { 
....................          glcd_pixel(a+x, b+y, color); 
05AE6:  MOVF   x03,W
05AE8:  ADDWF  x08,W
05AEA:  MOVWF  x0B
05AEC:  MOVF   x04,W
05AEE:  ADDWF  x09,W
05AF0:  MOVWF  x0C
05AF2:  MOVFF  60B,620
05AF6:  MOVWF  x21
05AF8:  MOVFF  607,622
05AFC:  MOVLB  0
05AFE:  CALL   1774
....................          glcd_pixel(b+x, a+y, color); 
05B02:  MOVLB  6
05B04:  MOVF   x03,W
05B06:  ADDWF  x09,W
05B08:  MOVWF  x0B
05B0A:  MOVF   x04,W
05B0C:  ADDWF  x08,W
05B0E:  MOVWF  x0C
05B10:  MOVFF  60B,620
05B14:  MOVWF  x21
05B16:  MOVFF  607,622
05B1A:  MOVLB  0
05B1C:  CALL   1774
....................          glcd_pixel(x-a, b+y, color); 
05B20:  MOVLB  6
05B22:  MOVF   x08,W
05B24:  SUBWF  x03,W
05B26:  MOVWF  x0B
05B28:  MOVF   x04,W
05B2A:  ADDWF  x09,W
05B2C:  MOVWF  x0C
05B2E:  MOVFF  60B,620
05B32:  MOVWF  x21
05B34:  MOVFF  607,622
05B38:  MOVLB  0
05B3A:  CALL   1774
....................          glcd_pixel(x-b, a+y, color); 
05B3E:  MOVLB  6
05B40:  MOVF   x09,W
05B42:  SUBWF  x03,W
05B44:  MOVWF  x0B
05B46:  MOVF   x04,W
05B48:  ADDWF  x08,W
05B4A:  MOVWF  x0C
05B4C:  MOVFF  60B,620
05B50:  MOVWF  x21
05B52:  MOVFF  607,622
05B56:  MOVLB  0
05B58:  CALL   1774
....................          glcd_pixel(b+x, y-a, color); 
05B5C:  MOVLB  6
05B5E:  MOVF   x03,W
05B60:  ADDWF  x09,W
05B62:  MOVWF  x0B
05B64:  MOVF   x08,W
05B66:  SUBWF  x04,W
05B68:  MOVWF  x0C
05B6A:  MOVFF  60B,620
05B6E:  MOVWF  x21
05B70:  MOVFF  607,622
05B74:  MOVLB  0
05B76:  CALL   1774
....................          glcd_pixel(a+x, y-b, color); 
05B7A:  MOVLB  6
05B7C:  MOVF   x03,W
05B7E:  ADDWF  x08,W
05B80:  MOVWF  x0B
05B82:  MOVF   x09,W
05B84:  SUBWF  x04,W
05B86:  MOVWF  x0C
05B88:  MOVFF  60B,620
05B8C:  MOVWF  x21
05B8E:  MOVFF  607,622
05B92:  MOVLB  0
05B94:  CALL   1774
....................          glcd_pixel(x-a, y-b, color); 
05B98:  MOVLB  6
05B9A:  MOVF   x08,W
05B9C:  SUBWF  x03,W
05B9E:  MOVWF  x0B
05BA0:  MOVF   x09,W
05BA2:  SUBWF  x04,W
05BA4:  MOVWF  x0C
05BA6:  MOVFF  60B,620
05BAA:  MOVWF  x21
05BAC:  MOVFF  607,622
05BB0:  MOVLB  0
05BB2:  CALL   1774
....................          glcd_pixel(x-b, y-a, color); 
05BB6:  MOVLB  6
05BB8:  MOVF   x09,W
05BBA:  SUBWF  x03,W
05BBC:  MOVWF  x0B
05BBE:  MOVF   x08,W
05BC0:  SUBWF  x04,W
05BC2:  MOVWF  x0C
05BC4:  MOVFF  60B,620
05BC8:  MOVWF  x21
05BCA:  MOVFF  607,622
05BCE:  MOVLB  0
05BD0:  CALL   1774
....................       } 
....................  
....................       if(P < 0) 
05BD4:  MOVLB  6
05BD6:  BTFSC  x0A.7
05BD8:  BRA    5BDC
05BDA:  BRA    5BF8
....................          P += 3 + 2 * a++; 
05BDC:  MOVF   x08,W
05BDE:  INCF   x08,F
05BE0:  MOVWF  x0B
05BE2:  MOVLW  02
05BE4:  MOVWF  x0C
05BE6:  MOVFF  60B,60D
05BEA:  MOVLB  0
05BEC:  RCALL  59BA
05BEE:  MOVF   01,W
05BF0:  ADDLW  03
05BF2:  MOVLB  6
05BF4:  ADDWF  x0A,F
....................       else 
05BF6:  BRA    5C1A
....................          P += 5 + 2 * (a++ - b--); 
05BF8:  MOVF   x08,W
05BFA:  INCF   x08,F
05BFC:  MOVWF  x0B
05BFE:  MOVF   x09,W
05C00:  DECF   x09,F
05C02:  SUBWF  x0B,W
05C04:  MOVWF  x0B
05C06:  MOVLW  02
05C08:  MOVWF  x0C
05C0A:  MOVFF  60B,60D
05C0E:  MOVLB  0
05C10:  RCALL  59BA
05C12:  MOVF   01,W
05C14:  ADDLW  05
05C16:  MOVLB  6
05C18:  ADDWF  x0A,F
....................     } while(a <= b); 
05C1A:  MOVF   x08,W
05C1C:  XORLW  80
05C1E:  MOVWF  00
05C20:  MOVF   x09,W
05C22:  XORLW  80
05C24:  SUBWF  00,W
05C26:  BTFSC  FD8.2
05C28:  BRA    5A18
05C2A:  BTFSS  FD8.0
05C2C:  BRA    5A18
.................... } 
05C2E:  MOVLB  0
05C30:  RETLW  00
....................  
....................  
.................... ///////////////////////////////////////////////////////////////////////// 
.................... // Purpose:       Write text on a graphic LCD 
.................... // Inputs:        (x,y) - The upper left coordinate of the first letter 
.................... //                textptr - A pointer to an array of text to display 
.................... //                size - The size of the text: 1 = 5x7, 2 = 10x14, ... 
.................... //                color - ON or OFF 
.................... ///////////////////////////////////////////////////////////////////////// 
.................... #ifdef LARGE_LCD 
.................... void glcd_text57(int16 x, int16 y, char* textptr, int8 size, int1 color) 
.................... #else 
.................... void glcd_text57(int8 x, int8 y, char* textptr, int8 size, int1 color) 
.................... #endif 
.................... { 
....................    int8 j, k, l, m;                       // Loop counters 
....................    int8 pixelData[5];                     // Stores character data 
....................  
....................    for(; *textptr != '\0'; ++textptr, ++x)// Loop through the passed string 
*
01830:  MOVFF  608,03
01834:  MOVLB  6
01836:  MOVFF  607,FE9
0183A:  MOVFF  608,FEA
0183E:  MOVF   FEF,F
01840:  BTFSC  FD8.2
01842:  BRA    19E4
....................    { 
....................       if(*textptr < 'S') // Checks if the letter is in the first font array 
01844:  MOVFF  608,03
01848:  MOVFF  607,FE9
0184C:  MOVFF  608,FEA
01850:  MOVF   FEF,W
01852:  SUBLW  52
01854:  BNC   18A4
....................          memcpy(pixelData, FONT[*textptr - ' '], 5); 
01856:  MOVFF  608,03
0185A:  MOVFF  607,FE9
0185E:  MOVFF  608,FEA
01862:  MOVLW  20
01864:  SUBWF  FEF,W
01866:  MULLW  05
01868:  MOVF   FF3,W
0186A:  CLRF   03
0186C:  MOVWF  x14
0186E:  MOVLW  06
01870:  MOVWF  FEA
01872:  MOVLW  0F
01874:  MOVWF  FE9
01876:  CLRF   x18
01878:  MOVFF  614,617
0187C:  MOVFF  FF2,615
01880:  BCF    FF2.7
01882:  MOVLW  05
01884:  MOVWF  01
01886:  CLRF   FF7
01888:  MOVF   x14,W
0188A:  MOVLB  0
0188C:  CALL   0096
01890:  TBLRD*-
01892:  TBLRD*+
01894:  MOVFF  FF5,FEE
01898:  DECFSZ 01,F
0189A:  BRA    1892
0189C:  MOVLB  6
0189E:  BTFSC  x15.7
018A0:  BSF    FF2.7
....................       else if(*textptr <= '~') // Check if the letter is in the second font array 
018A2:  BRA    190E
018A4:  MOVFF  608,03
018A8:  MOVFF  607,FE9
018AC:  MOVFF  608,FEA
018B0:  MOVF   FEF,W
018B2:  SUBLW  7E
018B4:  BNC   1904
....................          memcpy(pixelData, FONT2[*textptr - 'S'], 5); 
018B6:  MOVFF  608,03
018BA:  MOVFF  607,FE9
018BE:  MOVFF  608,FEA
018C2:  MOVLW  53
018C4:  SUBWF  FEF,W
018C6:  MULLW  05
018C8:  MOVF   FF3,W
018CA:  CLRF   03
018CC:  MOVWF  x14
018CE:  MOVLW  06
018D0:  MOVWF  FEA
018D2:  MOVLW  0F
018D4:  MOVWF  FE9
018D6:  CLRF   x18
018D8:  MOVFF  614,617
018DC:  MOVFF  FF2,615
018E0:  BCF    FF2.7
018E2:  MOVLW  05
018E4:  MOVWF  01
018E6:  CLRF   FF7
018E8:  MOVF   x14,W
018EA:  MOVLB  0
018EC:  CALL   01B0
018F0:  TBLRD*-
018F2:  TBLRD*+
018F4:  MOVFF  FF5,FEE
018F8:  DECFSZ 01,F
018FA:  BRA    18F2
018FC:  MOVLB  6
018FE:  BTFSC  x15.7
01900:  BSF    FF2.7
....................       else 
01902:  BRA    190E
....................          memcpy(pixelData, FONT[0], 5);   // Default to space 
01904:  CLRF   x0F
01906:  CLRF   x10
01908:  CLRF   x11
0190A:  CLRF   x12
0190C:  CLRF   x13
....................  
....................       // Handles newline and carriage returns 
....................       switch(*textptr) 
....................       { 
0190E:  MOVFF  608,03
01912:  MOVF   x07,W
01914:  MOVWF  FE9
01916:  MOVFF  03,FEA
0191A:  MOVF   FEF,W
0191C:  XORLW  0A
0191E:  MOVLB  0
01920:  BZ    1928
01922:  XORLW  07
01924:  BZ    1938
01926:  BRA    193E
....................          case '\n': 
....................             y += 7*size + 1; 
01928:  MOVLB  6
0192A:  MOVF   x09,W
0192C:  MULLW  07
0192E:  MOVF   FF3,W
01930:  ADDLW  01
01932:  ADDWF  x06,F
....................             continue; 
01934:  BRA    19D6
01936:  MOVLB  0
....................          case '\r': 
....................             x = 0; 
01938:  MOVLB  6
0193A:  CLRF   x05
....................             continue; 
0193C:  BRA    19D6
....................       } 
....................  
....................       if(x+5*size >= GLCD_WIDTH)          // Performs character wrapping 
0193E:  MOVLB  6
01940:  MOVF   x09,W
01942:  MULLW  05
01944:  MOVF   FF3,W
01946:  ADDWF  x05,W
01948:  SUBLW  7F
0194A:  BC    1958
....................       { 
....................          x = 0;                           // Set x at far left position 
0194C:  CLRF   x05
....................          y += 7*size + 1;                 // Set y at next position down 
0194E:  MOVF   x09,W
01950:  MULLW  07
01952:  MOVF   FF3,W
01954:  ADDLW  01
01956:  ADDWF  x06,F
....................       } 
....................       for(j=0; j<5; ++j, x+=size)         // Loop through character byte data 
01958:  CLRF   x0B
0195A:  MOVF   x0B,W
0195C:  SUBLW  04
0195E:  BNC   19D6
....................       { 
....................          for(k=0; k < 7; ++k)             // Loop through the vertical pixels 
01960:  CLRF   x0C
01962:  MOVF   x0C,W
01964:  SUBLW  06
01966:  BNC   19CE
....................          { 
....................             if(bit_test(pixelData[j], k)) // Check if the pixel should be set 
01968:  CLRF   03
0196A:  MOVF   x0B,W
0196C:  ADDLW  0F
0196E:  MOVWF  FE9
01970:  MOVLW  06
01972:  ADDWFC 03,W
01974:  MOVWF  FEA
01976:  MOVFF  FEF,614
0197A:  MOVFF  614,00
0197E:  MOVF   x0C,W
01980:  MOVWF  01
01982:  BZ    198C
01984:  BCF    FD8.0
01986:  RRCF   00,F
01988:  DECFSZ 01,F
0198A:  BRA    1984
0198C:  BTFSS  00.0
0198E:  BRA    19CA
....................             { 
....................                for(l=0; l < size; ++l)    // These two loops change the 
01990:  CLRF   x0D
01992:  MOVF   x09,W
01994:  SUBWF  x0D,W
01996:  BC    19CA
....................                {                          // character's size 
....................                   for(m=0; m < size; ++m) 
01998:  CLRF   x0E
0199A:  MOVF   x09,W
0199C:  SUBWF  x0E,W
0199E:  BC    19C6
....................                   { 
....................                      glcd_pixel(x+m, y+k*size+l, color); // Draws the pixel 
019A0:  MOVF   x0E,W
019A2:  ADDWF  x05,W
019A4:  MOVWF  x14
019A6:  MOVF   x0C,W
019A8:  MULWF  x09
019AA:  MOVF   FF3,W
019AC:  ADDWF  x06,W
019AE:  ADDWF  x0D,W
019B0:  MOVWF  x15
019B2:  MOVFF  614,620
019B6:  MOVWF  x21
019B8:  MOVFF  60A,622
019BC:  MOVLB  0
019BE:  RCALL  1774
....................                   } 
019C0:  MOVLB  6
019C2:  INCF   x0E,F
019C4:  BRA    199A
....................                } 
019C6:  INCF   x0D,F
019C8:  BRA    1992
....................             } 
....................          } 
019CA:  INCF   x0C,F
019CC:  BRA    1962
....................       } 
019CE:  INCF   x0B,F
019D0:  MOVF   x09,W
019D2:  ADDWF  x05,F
019D4:  BRA    195A
....................    } 
019D6:  INCF   x07,F
019D8:  BTFSC  FD8.2
019DA:  INCF   x08,F
019DC:  INCF   x05,F
019DE:  MOVLB  0
019E0:  BRA    1830
019E2:  MOVLB  6
.................... } 
019E4:  MOVLB  0
019E6:  RETLW  00
....................  
.................... #endif 
....................  
.................... #include "imagen.h" 
.................... const int8 Bombillo [64][16] = { 
.................... 0x00, 0x00, 0x00, 0x00, 0x00, 0x00, 0x00, 0x00, 0x00, 0x00, 0x00, 0x00, 0x00, 0x00, 0x00, 0x00, 
.................... 0x00, 0x00, 0x00, 0x00, 0x00, 0x00, 0x00, 0x00, 0x00, 0x00, 0x00, 0x00, 0x00, 0x00, 0x00, 0x00, 
.................... 0x00, 0x00, 0x00, 0x00, 0x00, 0x00, 0x00, 0x00, 0x00, 0x00, 0x00, 0x00, 0x00, 0x00, 0x00, 0x00, 
.................... 0x00, 0x00, 0x00, 0x00, 0x00, 0x00, 0x00, 0x00, 0x00, 0x00, 0x00, 0x00, 0x00, 0x00, 0x00, 0x00, 
.................... 0x00, 0x00, 0x00, 0x00, 0x00, 0x00, 0x00, 0x00, 0x00, 0x00, 0x00, 0x00, 0x00, 0x00, 0x00, 0x00, 
.................... 0x00, 0x00, 0x00, 0x00, 0x00, 0x00, 0x00, 0x00, 0x00, 0x00, 0x00, 0x00, 0x00, 0x00, 0x00, 0x00, 
.................... 0x00, 0x00, 0x00, 0x00, 0x00, 0x00, 0x00, 0x00, 0x00, 0x00, 0x00, 0x00, 0x00, 0x00, 0x00, 0x00, 
.................... 0x00, 0x00, 0x00, 0x00, 0x00, 0x00, 0x00, 0x00, 0x00, 0x00, 0x00, 0x00, 0x00, 0x00, 0x00, 0x00, 
.................... 0x00, 0x00, 0x00, 0x00, 0x00, 0x00, 0x00, 0x00, 0x00, 0x00, 0x00, 0x00, 0x00, 0x00, 0x00, 0x00, 
.................... 0x00, 0x00, 0x00, 0x00, 0x00, 0x00, 0x00, 0x00, 0x00, 0x00, 0x00, 0x00, 0x00, 0x00, 0x00, 0x00, 
.................... 0x00, 0x00, 0x00, 0x00, 0x00, 0x00, 0x00, 0x00, 0x00, 0x00, 0x00, 0x00, 0x00, 0x00, 0x00, 0x00, 
.................... 0x00, 0x00, 0x00, 0x00, 0x00, 0x00, 0x00, 0x00, 0x00, 0x00, 0x00, 0x00, 0x00, 0x00, 0x00, 0x00, 
.................... 0x00, 0x00, 0x00, 0x00, 0x00, 0x00, 0x00, 0x00, 0x00, 0x00, 0x00, 0x00, 0x00, 0x00, 0x00, 0x00, 
.................... 0x00, 0x00, 0x00, 0x00, 0x00, 0x00, 0x00, 0x00, 0x00, 0x00, 0x00, 0x00, 0x00, 0x00, 0x00, 0x00, 
.................... 0x00, 0x00, 0x00, 0x00, 0x00, 0x00, 0x00, 0x00, 0x00, 0x00, 0x00, 0x00, 0x00, 0x00, 0x00, 0x00, 
.................... 0x00, 0x00, 0x00, 0x00, 0x00, 0x00, 0x00, 0x00, 0x00, 0x00, 0x00, 0x00, 0x00, 0x08, 0x00, 0x80, 
.................... 0x00, 0x00, 0x00, 0x00, 0x00, 0x00, 0x00, 0x00, 0x00, 0x00, 0x00, 0x00, 0x00, 0x04, 0x01, 0x00, 
.................... 0x00, 0x00, 0x00, 0x00, 0x00, 0x00, 0x00, 0x00, 0x00, 0x00, 0x00, 0x00, 0x00, 0x02, 0x02, 0x00, 
.................... 0x00, 0x00, 0x00, 0x00, 0x00, 0x00, 0x00, 0x00, 0x00, 0x00, 0x00, 0x00, 0x00, 0x00, 0x78, 0x00, 
.................... 0x00, 0x00, 0x00, 0x00, 0x00, 0x00, 0x00, 0x00, 0x00, 0x00, 0x00, 0x00, 0x00, 0x00, 0x84, 0x00, 
.................... 0x00, 0x00, 0x00, 0x00, 0x00, 0x00, 0x00, 0x00, 0x00, 0x00, 0x00, 0x00, 0x00, 0x01, 0x02, 0x00, 
.................... 0x00, 0x00, 0x00, 0x00, 0x00, 0x00, 0x00, 0x00, 0x00, 0x00, 0x00, 0x00, 0x00, 0xF9, 0x02, 0xF8, 
.................... 0x00, 0x00, 0x00, 0x00, 0x00, 0x00, 0x00, 0x00, 0x00, 0x00, 0x00, 0x00, 0x00, 0x01, 0x02, 0x00, 
.................... 0x00, 0x00, 0x00, 0x00, 0x00, 0x00, 0x00, 0x00, 0x00, 0x00, 0x00, 0x00, 0x00, 0x01, 0x02, 0x00, 
.................... 0x00, 0x00, 0x00, 0x00, 0x00, 0x00, 0x00, 0x00, 0x00, 0x00, 0x00, 0x00, 0x00, 0x04, 0x84, 0x80, 
.................... 0x00, 0x00, 0x00, 0x00, 0x00, 0x00, 0x00, 0x00, 0x00, 0x00, 0x00, 0x00, 0x00, 0x08, 0x78, 0x40, 
.................... 0x00, 0x00, 0x00, 0x00, 0x00, 0x00, 0x00, 0x00, 0x00, 0x00, 0x00, 0x00, 0x00, 0x10, 0x48, 0x20, 
.................... 0x00, 0x00, 0x00, 0x00, 0x00, 0x00, 0x00, 0x00, 0x00, 0x00, 0x00, 0x00, 0x00, 0x20, 0x48, 0x10, 
.................... 0x00, 0x00, 0x00, 0x00, 0x00, 0x00, 0x00, 0x00, 0x00, 0x00, 0x00, 0x00, 0x00, 0x00, 0x78, 0x00, 
.................... 0x00, 0x00, 0x00, 0x00, 0x00, 0x00, 0x00, 0x00, 0x00, 0x00, 0x00, 0x00, 0x00, 0x00, 0x00, 0x00, 
.................... 0x00, 0x00, 0x00, 0x00, 0x00, 0x00, 0x00, 0x00, 0x00, 0x00, 0x00, 0x00, 0x00, 0x00, 0x00, 0x00, 
.................... 0x00, 0x00, 0x00, 0x00, 0x00, 0x00, 0x00, 0x00, 0x00, 0x00, 0x00, 0x00, 0x00, 0x00, 0x00, 0x00, 
.................... 0x00, 0x00, 0x00, 0x00, 0x00, 0x00, 0x00, 0x00, 0x00, 0x00, 0x00, 0x00, 0x00, 0x00, 0x00, 0x00, 
.................... 0x00, 0x00, 0x00, 0x00, 0x00, 0x00, 0x00, 0x00, 0x00, 0x00, 0x00, 0x00, 0x00, 0x00, 0x00, 0x00, 
.................... 0x00, 0x00, 0x00, 0x00, 0x00, 0x00, 0x00, 0x00, 0x00, 0x00, 0x00, 0x00, 0x00, 0x00, 0x00, 0x00, 
.................... 0x00, 0x00, 0x00, 0x00, 0x00, 0x00, 0x00, 0x00, 0x00, 0x00, 0x00, 0x00, 0x00, 0x00, 0x00, 0x00, 
.................... 0x00, 0x00, 0x00, 0x00, 0x00, 0x00, 0x00, 0x00, 0x00, 0x00, 0x00, 0x00, 0x00, 0x00, 0x00, 0x00, 
.................... 0x00, 0x00, 0x00, 0x00, 0x00, 0x00, 0x00, 0x00, 0x00, 0x00, 0x00, 0x00, 0x00, 0x00, 0x00, 0x00, 
.................... 0x00, 0x00, 0x00, 0x00, 0x00, 0x00, 0x00, 0x00, 0x00, 0x00, 0x00, 0x00, 0x00, 0x00, 0x00, 0x00, 
.................... 0x00, 0x00, 0x00, 0x00, 0x00, 0x00, 0x00, 0x00, 0x00, 0x00, 0x00, 0x00, 0x00, 0x00, 0x00, 0x00, 
.................... 0x00, 0x00, 0x00, 0x00, 0x00, 0x00, 0x00, 0x00, 0x00, 0x00, 0x00, 0x00, 0x00, 0x00, 0x00, 0x00, 
.................... 0x00, 0x00, 0x00, 0x00, 0x00, 0x00, 0x00, 0x00, 0x00, 0x00, 0x00, 0x00, 0x00, 0x00, 0x00, 0x00, 
.................... 0x00, 0x00, 0x00, 0x00, 0x00, 0x00, 0x00, 0x00, 0x00, 0x00, 0x00, 0x00, 0x00, 0x00, 0x00, 0x00, 
.................... 0x00, 0x00, 0x00, 0x00, 0x00, 0x00, 0x00, 0x00, 0x00, 0x00, 0x00, 0x00, 0x00, 0x00, 0x00, 0x00, 
.................... 0x00, 0x00, 0x00, 0x00, 0x00, 0x00, 0x00, 0x00, 0x00, 0x00, 0x00, 0x00, 0x00, 0x00, 0x00, 0x00, 
.................... 0x00, 0x00, 0x00, 0x00, 0x00, 0x00, 0x00, 0x00, 0x00, 0x00, 0x00, 0x00, 0x00, 0x00, 0x00, 0x00, 
.................... 0x00, 0x00, 0x00, 0x00, 0x00, 0x00, 0x00, 0x00, 0x00, 0x00, 0x00, 0x00, 0x00, 0x00, 0x00, 0x00, 
.................... 0x00, 0x00, 0x00, 0x00, 0x00, 0x00, 0x00, 0x00, 0x00, 0x00, 0x00, 0x00, 0x00, 0x00, 0x00, 0x00, 
.................... 0x00, 0x00, 0x00, 0x00, 0x00, 0x00, 0x00, 0x00, 0x00, 0x00, 0x00, 0x00, 0x00, 0x00, 0x00, 0x00, 
.................... 0x00, 0x00, 0x00, 0x00, 0x00, 0x00, 0x00, 0x00, 0x00, 0x00, 0x00, 0x00, 0x00, 0x00, 0x00, 0x00, 
.................... 0x00, 0x00, 0x00, 0x00, 0x00, 0x00, 0x00, 0x00, 0x00, 0x00, 0x00, 0x00, 0x00, 0x00, 0x00, 0x00, 
.................... 0x00, 0x00, 0x00, 0x00, 0x00, 0x00, 0x00, 0x00, 0x00, 0x00, 0x00, 0x00, 0x00, 0x00, 0x00, 0x00, 
.................... 0x00, 0x00, 0x00, 0x00, 0x00, 0x00, 0x00, 0x00, 0x00, 0x00, 0x00, 0x00, 0x00, 0x00, 0x00, 0x00, 
.................... 0x00, 0x00, 0x00, 0x00, 0x00, 0x00, 0x00, 0x00, 0x00, 0x00, 0x00, 0x00, 0x00, 0x00, 0x00, 0x00, 
.................... 0x00, 0x00, 0x00, 0x00, 0x00, 0x00, 0x00, 0x00, 0x00, 0x00, 0x00, 0x00, 0x00, 0x00, 0x00, 0x00, 
.................... 0x00, 0x00, 0x00, 0x00, 0x00, 0x00, 0x00, 0x00, 0x00, 0x00, 0x00, 0x00, 0x00, 0x00, 0x00, 0x00, 
.................... 0x00, 0x00, 0x00, 0x00, 0x00, 0x00, 0x00, 0x00, 0x00, 0x00, 0x00, 0x00, 0x00, 0x00, 0x00, 0x00, 
.................... 0x00, 0x00, 0x00, 0x00, 0x00, 0x00, 0x00, 0x00, 0x00, 0x00, 0x00, 0x00, 0x00, 0x00, 0x00, 0x00, 
.................... 0x00, 0x00, 0x00, 0x00, 0x00, 0x00, 0x00, 0x00, 0x00, 0x00, 0x00, 0x00, 0x00, 0x00, 0x00, 0x00, 
.................... 0x00, 0x00, 0x00, 0x00, 0x00, 0x00, 0x00, 0x00, 0x00, 0x00, 0x00, 0x00, 0x00, 0x00, 0x00, 0x00, 
.................... 0x00, 0x00, 0x00, 0x00, 0x00, 0x00, 0x00, 0x00, 0x00, 0x00, 0x00, 0x00, 0x00, 0x00, 0x00, 0x00, 
.................... 0x00, 0x00, 0x00, 0x00, 0x00, 0x00, 0x00, 0x00, 0x00, 0x00, 0x00, 0x00, 0x00, 0x00, 0x00, 0x00, 
.................... 0x00, 0x00, 0x00, 0x00, 0x00, 0x00, 0x00, 0x00, 0x00, 0x00, 0x00, 0x00, 0x00, 0x00, 0x00, 0x00, 
.................... 0x00, 0x00, 0x00, 0x00, 0x00, 0x00, 0x00, 0x00, 0x00, 0x00, 0x00, 0x00, 0x00, 0x00, 0x00, 0x00 
.................... }; 
....................  
.................... const int8 Tomai [64][16] = { 
.................... 0x00, 0x00, 0x00, 0x00, 0x00, 0x00, 0x00, 0x00, 0x00, 0x00, 0x00, 0x00, 0x00, 0x00, 0x00, 0x00, 
.................... 0x00, 0x00, 0x00, 0x00, 0x00, 0x00, 0x00, 0x00, 0x00, 0x00, 0x00, 0x00, 0x00, 0x00, 0x00, 0x00, 
.................... 0x00, 0x00, 0x00, 0x00, 0x00, 0x00, 0x00, 0x00, 0x00, 0x00, 0x00, 0x00, 0x00, 0x00, 0x00, 0x00, 
.................... 0x00, 0x00, 0x00, 0x00, 0x00, 0x00, 0x00, 0x00, 0x00, 0x00, 0x00, 0x00, 0x00, 0x00, 0x00, 0x00, 
.................... 0x00, 0x00, 0x00, 0x00, 0x00, 0x00, 0x00, 0x00, 0x00, 0x00, 0x00, 0x00, 0x00, 0x00, 0x00, 0x00, 
.................... 0x00, 0x00, 0x00, 0x00, 0x00, 0x00, 0x00, 0x00, 0x00, 0x00, 0x00, 0x00, 0x00, 0x00, 0x00, 0x00, 
.................... 0x00, 0x00, 0x00, 0x00, 0x00, 0x00, 0x00, 0x00, 0x00, 0x00, 0x00, 0x00, 0x00, 0x00, 0x00, 0x00, 
.................... 0x00, 0x00, 0x00, 0x00, 0x00, 0x00, 0x00, 0x00, 0x00, 0x00, 0x00, 0x00, 0x00, 0x00, 0x00, 0x00, 
.................... 0x00, 0x00, 0x00, 0x00, 0x00, 0x00, 0x00, 0x00, 0x00, 0x00, 0x00, 0x00, 0x00, 0x00, 0x00, 0x00, 
.................... 0x00, 0x00, 0x00, 0x00, 0x00, 0x00, 0x00, 0x00, 0x00, 0x00, 0x00, 0x00, 0x00, 0x00, 0x00, 0x00, 
.................... 0x00, 0x00, 0x00, 0x00, 0x00, 0x00, 0x00, 0x00, 0x00, 0x00, 0x00, 0x00, 0x00, 0x00, 0x00, 0x00, 
.................... 0x00, 0x00, 0x00, 0x00, 0x00, 0x00, 0x00, 0x00, 0x00, 0x00, 0x00, 0x00, 0x00, 0x00, 0x00, 0x00, 
.................... 0x00, 0x00, 0x00, 0x00, 0x00, 0x00, 0x00, 0x00, 0x00, 0x00, 0x00, 0x00, 0x00, 0x00, 0x00, 0x00, 
.................... 0x00, 0x00, 0x00, 0x00, 0x00, 0x00, 0x00, 0x00, 0x00, 0x00, 0x00, 0x00, 0x00, 0x00, 0x00, 0x00, 
.................... 0x00, 0x00, 0x00, 0x00, 0x00, 0x00, 0x00, 0x00, 0x00, 0x00, 0x00, 0x00, 0x00, 0x00, 0x00, 0x00, 
.................... 0x00, 0x00, 0x00, 0x00, 0x00, 0x00, 0x00, 0x00, 0x00, 0x00, 0x00, 0x00, 0x00, 0x00, 0x00, 0x00, 
.................... 0x00, 0x00, 0x00, 0x00, 0x00, 0x00, 0x00, 0x00, 0x00, 0x00, 0x00, 0x00, 0x00, 0x00, 0x00, 0x00, 
.................... 0x00, 0x00, 0x00, 0x00, 0x00, 0x00, 0x00, 0x00, 0x00, 0x00, 0x00, 0x00, 0x00, 0x00, 0x00, 0x00, 
.................... 0x00, 0x00, 0x00, 0x00, 0x00, 0x00, 0x00, 0x00, 0x00, 0x00, 0x00, 0x00, 0x00, 0x00, 0x00, 0x00, 
.................... 0x00, 0x00, 0x00, 0x00, 0x00, 0x00, 0x00, 0x00, 0x00, 0x00, 0x00, 0x00, 0x00, 0x00, 0x00, 0x00, 
.................... 0x00, 0x00, 0x00, 0x00, 0x00, 0x00, 0x00, 0x00, 0x00, 0x00, 0x00, 0x00, 0x00, 0x00, 0x00, 0x00, 
.................... 0x00, 0x00, 0x00, 0x00, 0x00, 0x00, 0x00, 0x00, 0x00, 0x00, 0x00, 0x00, 0x00, 0x00, 0x00, 0x00, 
.................... 0x00, 0x00, 0x00, 0x00, 0x00, 0x00, 0x00, 0x00, 0x00, 0x00, 0x00, 0x00, 0x00, 0x00, 0x00, 0x00, 
.................... 0x00, 0x00, 0x00, 0x00, 0x00, 0x00, 0x00, 0x00, 0x00, 0x00, 0x00, 0x00, 0x00, 0x00, 0x00, 0x00, 
.................... 0x00, 0x00, 0x00, 0x00, 0x00, 0x00, 0x00, 0x00, 0x00, 0x00, 0x00, 0x00, 0x00, 0x00, 0x00, 0x00, 
.................... 0x00, 0x00, 0x00, 0x00, 0x00, 0x00, 0x00, 0x00, 0x00, 0x00, 0x00, 0x00, 0x00, 0x00, 0x00, 0x00, 
.................... 0x00, 0x00, 0x00, 0x00, 0x00, 0x00, 0x00, 0x00, 0x00, 0x00, 0x00, 0x00, 0x00, 0x00, 0x00, 0x00, 
.................... 0x00, 0x00, 0x00, 0x00, 0x00, 0x00, 0x00, 0x00, 0x00, 0x00, 0x00, 0x00, 0x00, 0x00, 0x00, 0x00, 
.................... 0x00, 0x00, 0x00, 0x00, 0x00, 0x00, 0x00, 0x00, 0x00, 0x00, 0x00, 0x00, 0x00, 0x00, 0x00, 0x00, 
.................... 0x00, 0x00, 0x00, 0x00, 0x00, 0x00, 0x00, 0x00, 0x00, 0x00, 0x00, 0x00, 0x00, 0x00, 0x00, 0x00, 
.................... 0x00, 0x00, 0x00, 0x00, 0x00, 0x00, 0x00, 0x00, 0x00, 0x00, 0x00, 0x00, 0x00, 0x7F, 0xFF, 0xF8, 
.................... 0x00, 0x00, 0x00, 0x00, 0x00, 0x00, 0x00, 0x00, 0x00, 0x00, 0x00, 0x00, 0x00, 0x40, 0x00, 0x08, 
.................... 0x00, 0x00, 0x00, 0x00, 0x00, 0x00, 0x00, 0x00, 0x00, 0x00, 0x00, 0x00, 0x00, 0x47, 0x03, 0x88, 
.................... 0x00, 0x00, 0x00, 0x00, 0x00, 0x00, 0x00, 0x00, 0x00, 0x00, 0x00, 0x00, 0x00, 0x45, 0x02, 0x88, 
.................... 0x00, 0x00, 0x00, 0x00, 0x00, 0x00, 0x00, 0x00, 0x00, 0x00, 0x00, 0x00, 0x00, 0x45, 0x02, 0x88, 
.................... 0x00, 0x00, 0x00, 0x00, 0x00, 0x00, 0x00, 0x00, 0x00, 0x00, 0x00, 0x00, 0x00, 0x45, 0x02, 0x88, 
.................... 0x00, 0x00, 0x00, 0x00, 0x00, 0x00, 0x00, 0x00, 0x00, 0x00, 0x00, 0x00, 0x00, 0x45, 0x02, 0x88, 
.................... 0x00, 0x00, 0x00, 0x00, 0x00, 0x00, 0x00, 0x00, 0x00, 0x00, 0x00, 0x00, 0x00, 0x47, 0x03, 0x88, 
.................... 0x00, 0x00, 0x00, 0x00, 0x00, 0x00, 0x00, 0x00, 0x00, 0x00, 0x00, 0x00, 0x00, 0x40, 0x00, 0x08, 
.................... 0x00, 0x00, 0x00, 0x00, 0x00, 0x00, 0x00, 0x00, 0x00, 0x00, 0x00, 0x00, 0x00, 0x40, 0xFC, 0x08, 
.................... 0x00, 0x00, 0x00, 0x00, 0x00, 0x00, 0x00, 0x00, 0x00, 0x00, 0x00, 0x00, 0x00, 0x40, 0x84, 0x08, 
.................... 0x00, 0x00, 0x00, 0x00, 0x00, 0x00, 0x00, 0x00, 0x00, 0x00, 0x00, 0x00, 0x00, 0x40, 0x84, 0x08, 
.................... 0x00, 0x00, 0x00, 0x00, 0x00, 0x00, 0x00, 0x00, 0x00, 0x00, 0x00, 0x00, 0x00, 0x40, 0xFC, 0x08, 
.................... 0x00, 0x00, 0x00, 0x00, 0x00, 0x00, 0x00, 0x00, 0x00, 0x00, 0x00, 0x00, 0x00, 0x40, 0x00, 0x08, 
.................... 0x00, 0x00, 0x00, 0x00, 0x00, 0x00, 0x00, 0x00, 0x00, 0x00, 0x00, 0x00, 0x00, 0x7F, 0xFF, 0xF8, 
.................... 0x00, 0x00, 0x00, 0x00, 0x00, 0x00, 0x00, 0x00, 0x00, 0x00, 0x00, 0x00, 0x00, 0x00, 0x00, 0x00, 
.................... 0x00, 0x00, 0x00, 0x00, 0x00, 0x00, 0x00, 0x00, 0x00, 0x00, 0x00, 0x00, 0x00, 0x00, 0x00, 0x00, 
.................... 0x00, 0x00, 0x00, 0x00, 0x00, 0x00, 0x00, 0x00, 0x00, 0x00, 0x00, 0x00, 0x00, 0x00, 0x00, 0x00, 
.................... 0x00, 0x00, 0x00, 0x00, 0x00, 0x00, 0x00, 0x00, 0x00, 0x00, 0x00, 0x00, 0x00, 0x00, 0x00, 0x00, 
.................... 0x00, 0x00, 0x00, 0x00, 0x00, 0x00, 0x00, 0x00, 0x00, 0x00, 0x00, 0x00, 0x00, 0x00, 0x00, 0x00, 
.................... 0x00, 0x00, 0x00, 0x00, 0x00, 0x00, 0x00, 0x00, 0x00, 0x00, 0x00, 0x00, 0x00, 0x00, 0x00, 0x00, 
.................... 0x00, 0x00, 0x00, 0x00, 0x00, 0x00, 0x00, 0x00, 0x00, 0x00, 0x00, 0x00, 0x00, 0x00, 0x00, 0x00, 
.................... 0x00, 0x00, 0x00, 0x00, 0x00, 0x00, 0x00, 0x00, 0x00, 0x00, 0x00, 0x00, 0x00, 0x00, 0x00, 0x00, 
.................... 0x00, 0x00, 0x00, 0x00, 0x00, 0x00, 0x00, 0x00, 0x00, 0x00, 0x00, 0x00, 0x00, 0x00, 0x00, 0x00, 
.................... 0x00, 0x00, 0x00, 0x00, 0x00, 0x00, 0x00, 0x00, 0x00, 0x00, 0x00, 0x00, 0x00, 0x00, 0x00, 0x00, 
.................... 0x00, 0x00, 0x00, 0x00, 0x00, 0x00, 0x00, 0x00, 0x00, 0x00, 0x00, 0x00, 0x00, 0x00, 0x00, 0x00, 
.................... 0x00, 0x00, 0x00, 0x00, 0x00, 0x00, 0x00, 0x00, 0x00, 0x00, 0x00, 0x00, 0x00, 0x00, 0x00, 0x00, 
.................... 0x00, 0x00, 0x00, 0x00, 0x00, 0x00, 0x00, 0x00, 0x00, 0x00, 0x00, 0x00, 0x00, 0x00, 0x00, 0x00, 
.................... 0x00, 0x00, 0x00, 0x00, 0x00, 0x00, 0x00, 0x00, 0x00, 0x00, 0x00, 0x00, 0x00, 0x00, 0x00, 0x00, 
.................... 0x00, 0x00, 0x00, 0x00, 0x00, 0x00, 0x00, 0x00, 0x00, 0x00, 0x00, 0x00, 0x00, 0x00, 0x00, 0x00, 
.................... 0x00, 0x00, 0x00, 0x00, 0x00, 0x00, 0x00, 0x00, 0x00, 0x00, 0x00, 0x00, 0x00, 0x00, 0x00, 0x00, 
.................... 0x00, 0x00, 0x00, 0x00, 0x00, 0x00, 0x00, 0x00, 0x00, 0x00, 0x00, 0x00, 0x00, 0x00, 0x00, 0x00, 
.................... 0x00, 0x00, 0x00, 0x00, 0x00, 0x00, 0x00, 0x00, 0x00, 0x00, 0x00, 0x00, 0x00, 0x00, 0x00, 0x00, 
.................... 0x00, 0x00, 0x00, 0x00, 0x00, 0x00, 0x00, 0x00, 0x00, 0x00, 0x00, 0x00, 0x00, 0x00, 0x00, 0x00 
.................... }; 
....................  
.................... const int8 Ventilador [64][16] = { 
.................... 0x00, 0x00, 0x00, 0x00, 0x00, 0x00, 0x00, 0x00, 0x00, 0x00, 0x00, 0x00, 0x00, 0x00, 0x00, 0x00, 
.................... 0x00, 0x00, 0x00, 0x00, 0x00, 0x00, 0x00, 0x00, 0x00, 0x00, 0x00, 0x00, 0x00, 0x00, 0x00, 0x00, 
.................... 0x00, 0x00, 0x00, 0x00, 0x00, 0x00, 0x00, 0x00, 0x00, 0x00, 0x00, 0x00, 0x00, 0x00, 0x00, 0x00, 
.................... 0x00, 0x00, 0x00, 0x00, 0x00, 0x00, 0x00, 0x00, 0x00, 0x00, 0x00, 0x00, 0x00, 0x00, 0x00, 0x00, 
.................... 0x00, 0x00, 0x00, 0x00, 0x00, 0x00, 0x00, 0x00, 0x00, 0x00, 0x00, 0x00, 0x00, 0x00, 0x00, 0x00, 
.................... 0x00, 0x00, 0x00, 0x00, 0x00, 0x00, 0x00, 0x00, 0x00, 0x00, 0x00, 0x00, 0x00, 0x00, 0x00, 0x00, 
.................... 0x00, 0x00, 0x00, 0x00, 0x00, 0x00, 0x00, 0x00, 0x00, 0x00, 0x00, 0x00, 0x00, 0x00, 0x00, 0x00, 
.................... 0x00, 0x00, 0x00, 0x00, 0x00, 0x00, 0x00, 0x00, 0x00, 0x00, 0x00, 0x00, 0x00, 0x00, 0x00, 0x00, 
.................... 0x00, 0x00, 0x00, 0x00, 0x00, 0x00, 0x00, 0x00, 0x00, 0x00, 0x00, 0x00, 0x00, 0x00, 0x00, 0x00, 
.................... 0x00, 0x00, 0x00, 0x00, 0x00, 0x00, 0x00, 0x00, 0x00, 0x00, 0x00, 0x00, 0x00, 0x00, 0x00, 0x00, 
.................... 0x00, 0x00, 0x00, 0x00, 0x00, 0x00, 0x00, 0x00, 0x00, 0x00, 0x00, 0x00, 0x00, 0x00, 0x00, 0x00, 
.................... 0x00, 0x00, 0x00, 0x00, 0x00, 0x00, 0x00, 0x00, 0x00, 0x00, 0x00, 0x00, 0x00, 0x00, 0x00, 0x00, 
.................... 0x00, 0x00, 0x00, 0x00, 0x00, 0x00, 0x00, 0x00, 0x00, 0x00, 0x00, 0x00, 0x00, 0x00, 0x00, 0x00, 
.................... 0x00, 0x00, 0x00, 0x00, 0x00, 0x00, 0x00, 0x00, 0x00, 0x00, 0x00, 0x00, 0x00, 0x00, 0x00, 0x00, 
.................... 0x00, 0x00, 0x00, 0x00, 0x00, 0x00, 0x00, 0x00, 0x00, 0x00, 0x00, 0x00, 0x00, 0x00, 0x00, 0x00, 
.................... 0x00, 0x00, 0x00, 0x00, 0x00, 0x00, 0x00, 0x00, 0x00, 0x00, 0x00, 0x00, 0x00, 0x00, 0x00, 0x00, 
.................... 0x00, 0x00, 0x00, 0x00, 0x00, 0x00, 0x00, 0x00, 0x00, 0x00, 0x00, 0x00, 0x00, 0x00, 0x00, 0x00, 
.................... 0x00, 0x00, 0x00, 0x00, 0x00, 0x00, 0x00, 0x00, 0x00, 0x00, 0x00, 0x00, 0x00, 0x00, 0x00, 0x00, 
.................... 0x00, 0x00, 0x00, 0x00, 0x00, 0x00, 0x00, 0x00, 0x00, 0x00, 0x00, 0x00, 0x00, 0x00, 0x00, 0x00, 
.................... 0x00, 0x00, 0x00, 0x00, 0x00, 0x00, 0x00, 0x00, 0x00, 0x00, 0x00, 0x00, 0x00, 0x00, 0x00, 0x00, 
.................... 0x00, 0x00, 0x00, 0x00, 0x00, 0x00, 0x00, 0x00, 0x00, 0x00, 0x00, 0x00, 0x00, 0x00, 0x00, 0x00, 
.................... 0x00, 0x00, 0x00, 0x00, 0x00, 0x00, 0x00, 0x00, 0x00, 0x00, 0x00, 0x00, 0x00, 0x00, 0x00, 0x00, 
.................... 0x00, 0x00, 0x00, 0x00, 0x00, 0x00, 0x00, 0x00, 0x00, 0x00, 0x00, 0x00, 0x00, 0x00, 0x00, 0x00, 
.................... 0x00, 0x00, 0x00, 0x00, 0x00, 0x00, 0x00, 0x00, 0x00, 0x00, 0x00, 0x00, 0x00, 0x00, 0x00, 0x00, 
.................... 0x00, 0x00, 0x00, 0x00, 0x00, 0x00, 0x00, 0x00, 0x00, 0x00, 0x00, 0x00, 0x00, 0x00, 0x00, 0x00, 
.................... 0x00, 0x00, 0x00, 0x00, 0x00, 0x00, 0x00, 0x00, 0x00, 0x00, 0x00, 0x00, 0x00, 0x00, 0x00, 0x00, 
.................... 0x00, 0x00, 0x00, 0x00, 0x00, 0x00, 0x00, 0x00, 0x00, 0x00, 0x00, 0x00, 0x00, 0x00, 0x00, 0x00, 
.................... 0x00, 0x00, 0x00, 0x00, 0x00, 0x00, 0x00, 0x00, 0x00, 0x00, 0x00, 0x00, 0x00, 0x00, 0x00, 0x00, 
.................... 0x00, 0x00, 0x00, 0x00, 0x00, 0x00, 0x00, 0x00, 0x00, 0x00, 0x00, 0x00, 0x00, 0x00, 0x00, 0x00, 
.................... 0x00, 0x00, 0x00, 0x00, 0x00, 0x00, 0x00, 0x00, 0x00, 0x00, 0x00, 0x00, 0x00, 0x00, 0x00, 0x00, 
.................... 0x00, 0x00, 0x00, 0x00, 0x00, 0x00, 0x00, 0x00, 0x00, 0x00, 0x00, 0x00, 0x00, 0x00, 0x00, 0x00, 
.................... 0x00, 0x00, 0x00, 0x00, 0x00, 0x00, 0x00, 0x00, 0x00, 0x00, 0x00, 0x00, 0x00, 0x00, 0x00, 0x00, 
.................... 0x00, 0x00, 0x00, 0x00, 0x00, 0x00, 0x00, 0x00, 0x00, 0x00, 0x00, 0x00, 0x00, 0x00, 0x00, 0x00, 
.................... 0x00, 0x00, 0x00, 0x00, 0x00, 0x00, 0x00, 0x00, 0x00, 0x00, 0x00, 0x00, 0x00, 0x00, 0x00, 0x00, 
.................... 0x00, 0x00, 0x00, 0x00, 0x00, 0x00, 0x00, 0x00, 0x00, 0x00, 0x00, 0x00, 0x00, 0x00, 0x00, 0x00, 
.................... 0x00, 0x00, 0x00, 0x00, 0x00, 0x00, 0x00, 0x00, 0x00, 0x00, 0x00, 0x00, 0x00, 0x00, 0x00, 0x00, 
.................... 0x00, 0x00, 0x00, 0x00, 0x00, 0x00, 0x00, 0x00, 0x00, 0x00, 0x00, 0x00, 0x00, 0x00, 0x00, 0x00, 
.................... 0x00, 0x00, 0x00, 0x00, 0x00, 0x00, 0x00, 0x00, 0x00, 0x00, 0x00, 0x00, 0x00, 0x00, 0x00, 0x00, 
.................... 0x00, 0x00, 0x00, 0x00, 0x00, 0x00, 0x00, 0x00, 0x00, 0x00, 0x00, 0x00, 0x00, 0x00, 0x00, 0x00, 
.................... 0x00, 0x00, 0x00, 0x00, 0x00, 0x00, 0x00, 0x00, 0x00, 0x00, 0x00, 0x00, 0x00, 0x00, 0x00, 0x00, 
.................... 0x00, 0x00, 0x00, 0x00, 0x00, 0x00, 0x00, 0x00, 0x00, 0x00, 0x00, 0x00, 0x00, 0x00, 0x00, 0x00, 
.................... 0x00, 0x00, 0x00, 0x00, 0x00, 0x00, 0x00, 0x00, 0x00, 0x00, 0x00, 0x00, 0x00, 0x00, 0x00, 0x00, 
.................... 0x00, 0x00, 0x00, 0x00, 0x00, 0x00, 0x00, 0x00, 0x00, 0x00, 0x00, 0x00, 0x00, 0x00, 0x00, 0x00, 
.................... 0x00, 0x00, 0x00, 0x00, 0x00, 0x00, 0x00, 0x00, 0x00, 0x00, 0x00, 0x00, 0x00, 0x00, 0x00, 0x00, 
.................... 0x00, 0x00, 0x00, 0x00, 0x00, 0x00, 0x00, 0x00, 0x00, 0x00, 0x00, 0x00, 0x00, 0x00, 0x00, 0x00, 
.................... 0x00, 0x00, 0x00, 0x00, 0x00, 0x00, 0x00, 0x00, 0x00, 0x00, 0x00, 0x00, 0x00, 0x00, 0x00, 0x00, 
.................... 0x00, 0x00, 0x00, 0x00, 0x00, 0x00, 0x00, 0x00, 0x00, 0x00, 0x00, 0x00, 0x00, 0x00, 0x60, 0x00, 
.................... 0x00, 0x00, 0x00, 0x00, 0x00, 0x00, 0x00, 0x00, 0x00, 0x00, 0x00, 0x00, 0x00, 0x00, 0xF0, 0x00, 
.................... 0x00, 0x00, 0x00, 0x00, 0x00, 0x00, 0x00, 0x00, 0x00, 0x00, 0x00, 0x00, 0x00, 0x01, 0xF8, 0x00, 
.................... 0x00, 0x00, 0x00, 0x00, 0x00, 0x00, 0x00, 0x00, 0x00, 0x00, 0x00, 0x00, 0x00, 0x01, 0xF8, 0x00, 
.................... 0x00, 0x00, 0x00, 0x00, 0x00, 0x00, 0x00, 0x00, 0x00, 0x00, 0x00, 0x00, 0x00, 0x01, 0xF8, 0x00, 
.................... 0x00, 0x00, 0x00, 0x00, 0x00, 0x00, 0x00, 0x00, 0x00, 0x00, 0x00, 0x00, 0x00, 0x00, 0xF0, 0x00, 
.................... 0x00, 0x00, 0x00, 0x00, 0x00, 0x00, 0x00, 0x00, 0x00, 0x00, 0x00, 0x00, 0x00, 0x38, 0x71, 0xC0, 
.................... 0x00, 0x00, 0x00, 0x00, 0x00, 0x00, 0x00, 0x00, 0x00, 0x00, 0x00, 0x00, 0x00, 0x7C, 0x93, 0xE0, 
.................... 0x00, 0x00, 0x00, 0x00, 0x00, 0x00, 0x00, 0x00, 0x00, 0x00, 0x00, 0x00, 0x00, 0xFF, 0x0F, 0xF0, 
.................... 0x00, 0x00, 0x00, 0x00, 0x00, 0x00, 0x00, 0x00, 0x00, 0x00, 0x00, 0x00, 0x00, 0xFF, 0x0F, 0xF0, 
.................... 0x00, 0x00, 0x00, 0x00, 0x00, 0x00, 0x00, 0x00, 0x00, 0x00, 0x00, 0x00, 0x00, 0x7D, 0x93, 0xE0, 
.................... 0x00, 0x00, 0x00, 0x00, 0x00, 0x00, 0x00, 0x00, 0x00, 0x00, 0x00, 0x00, 0x00, 0x38, 0x61, 0xC0, 
.................... 0x00, 0x00, 0x00, 0x00, 0x00, 0x00, 0x00, 0x00, 0x00, 0x00, 0x00, 0x00, 0x00, 0x00, 0xF0, 0x00, 
.................... 0x00, 0x00, 0x00, 0x00, 0x00, 0x00, 0x00, 0x00, 0x00, 0x00, 0x00, 0x00, 0x00, 0x01, 0xF8, 0x00, 
.................... 0x00, 0x00, 0x00, 0x00, 0x00, 0x00, 0x00, 0x00, 0x00, 0x00, 0x00, 0x00, 0x00, 0x01, 0xF8, 0x00, 
.................... 0x00, 0x00, 0x00, 0x00, 0x00, 0x00, 0x00, 0x00, 0x00, 0x00, 0x00, 0x00, 0x00, 0x01, 0xF8, 0x00, 
.................... 0x00, 0x00, 0x00, 0x00, 0x00, 0x00, 0x00, 0x00, 0x00, 0x00, 0x00, 0x00, 0x00, 0x00, 0xF0, 0x00, 
.................... 0x00, 0x00, 0x00, 0x00, 0x00, 0x00, 0x00, 0x00, 0x00, 0x00, 0x00, 0x00, 0x00, 0x00, 0x60, 0x00 
.................... }; 
....................  
.................... #include "FuncionesDisplay.h" 
....................  
.................... typedef struct{ 
....................    char Letra[20]; 
.................... }MENUU; 
....................  
.................... MENUU Menus; 
....................   
.................... void displayContrasena(int digito, int x, int y, int sombreado) 
.................... { 
....................    char voltage[9]; 
....................    sprintf(voltage, "%i", digito); 
*
04DC2:  MOVLW  05
04DC4:  MOVLB  4
04DC6:  MOVWF  x2B
04DC8:  MOVLW  FA
04DCA:  MOVWF  x2A
04DCC:  MOVFF  5F6,603
04DD0:  MOVLW  1F
04DD2:  MOVLB  6
04DD4:  MOVWF  x04
04DD6:  MOVLB  0
04DD8:  RCALL  4ADE
....................     
....................    if(sombreado==1) 
04DDA:  MOVLB  5
04DDC:  DECFSZ xF9,W
04DDE:  BRA    4E3C
....................       {glcd_rect(x, y, x+18, y+24, YES, ON);glcd_text57(x+2, y+1, voltage, 2, OFF);} 
04DE0:  MOVLW  12
04DE2:  ADDWF  xF7,W
04DE4:  MOVLB  6
04DE6:  MOVWF  x03
04DE8:  MOVLW  18
04DEA:  MOVLB  5
04DEC:  ADDWF  xF8,W
04DEE:  MOVLB  6
04DF0:  MOVWF  x04
04DF2:  MOVFF  5F7,605
04DF6:  MOVFF  5F8,606
04DFA:  MOVFF  603,607
04DFE:  MOVWF  x08
04E00:  MOVLW  01
04E02:  MOVWF  x09
04E04:  MOVWF  x0A
04E06:  MOVLB  0
04E08:  RCALL  4CFE
04E0A:  MOVLW  02
04E0C:  MOVLB  5
04E0E:  ADDWF  xF7,W
04E10:  MOVLB  6
04E12:  MOVWF  x03
04E14:  MOVLW  01
04E16:  MOVLB  5
04E18:  ADDWF  xF8,W
04E1A:  MOVLB  6
04E1C:  MOVWF  x04
04E1E:  MOVFF  603,605
04E22:  MOVWF  x06
04E24:  MOVLW  05
04E26:  MOVWF  x08
04E28:  MOVLW  FA
04E2A:  MOVWF  x07
04E2C:  MOVLW  02
04E2E:  MOVWF  x09
04E30:  CLRF   x0A
04E32:  MOVLB  0
04E34:  CALL   1830
....................    else    
04E38:  BRA    4E94
04E3A:  MOVLB  5
....................       {glcd_rect(x, y, x+18, y+24, NO, OFF);glcd_text57(x+2, y+1, voltage, 2, ON);} 
04E3C:  MOVLW  12
04E3E:  ADDWF  xF7,W
04E40:  MOVLB  6
04E42:  MOVWF  x03
04E44:  MOVLW  18
04E46:  MOVLB  5
04E48:  ADDWF  xF8,W
04E4A:  MOVLB  6
04E4C:  MOVWF  x04
04E4E:  MOVFF  5F7,605
04E52:  MOVFF  5F8,606
04E56:  MOVFF  603,607
04E5A:  MOVWF  x08
04E5C:  CLRF   x09
04E5E:  CLRF   x0A
04E60:  MOVLB  0
04E62:  RCALL  4CFE
04E64:  MOVLW  02
04E66:  MOVLB  5
04E68:  ADDWF  xF7,W
04E6A:  MOVLB  6
04E6C:  MOVWF  x03
04E6E:  MOVLW  01
04E70:  MOVLB  5
04E72:  ADDWF  xF8,W
04E74:  MOVLB  6
04E76:  MOVWF  x04
04E78:  MOVFF  603,605
04E7C:  MOVWF  x06
04E7E:  MOVLW  05
04E80:  MOVWF  x08
04E82:  MOVLW  FA
04E84:  MOVWF  x07
04E86:  MOVLW  02
04E88:  MOVWF  x09
04E8A:  MOVLW  01
04E8C:  MOVWF  x0A
04E8E:  MOVLB  0
04E90:  CALL   1830
....................  
.................... } 
04E94:  RETLW  00
....................  
.................... void displayTiempo(int digito, int x, int y, int sombreado, int tamano) 
.................... { 
....................    char voltage[9]; 
....................    sprintf(voltage, "%i", digito); 
*
05658:  MOVLW  05
0565A:  MOVLB  4
0565C:  MOVWF  x2B
0565E:  MOVLW  F1
05660:  MOVWF  x2A
05662:  MOVFF  5EC,603
05666:  MOVLW  1F
05668:  MOVLB  6
0566A:  MOVWF  x04
0566C:  MOVLB  0
0566E:  CALL   4ADE
....................     
....................    if(sombreado==1) 
05672:  MOVLB  5
05674:  DECFSZ xEF,W
05676:  BRA    56D8
....................       {glcd_rect(x, y, x+(tamano*6), y+(tamano*8), YES, ON);glcd_text57(x+2, y+1, voltage, tamano, OFF);} 
05678:  MOVF   xF0,W
0567A:  MULLW  06
0567C:  MOVF   FF3,W
0567E:  ADDWF  xED,W
05680:  MOVWF  xFA
05682:  MOVF   xF0,W
05684:  MULLW  08
05686:  MOVF   FF3,W
05688:  ADDWF  xEE,W
0568A:  MOVWF  xFB
0568C:  MOVFF  5ED,605
05690:  MOVFF  5EE,606
05694:  MOVFF  5FA,607
05698:  MOVFF  FE8,608
0569C:  MOVLW  01
0569E:  MOVLB  6
056A0:  MOVWF  x09
056A2:  MOVWF  x0A
056A4:  MOVLB  0
056A6:  CALL   4CFE
056AA:  MOVLW  02
056AC:  MOVLB  5
056AE:  ADDWF  xED,W
056B0:  MOVWF  xFA
056B2:  MOVLW  01
056B4:  ADDWF  xEE,W
056B6:  MOVWF  xFB
056B8:  MOVFF  5FA,605
056BC:  MOVFF  FE8,606
056C0:  MOVLW  05
056C2:  MOVLB  6
056C4:  MOVWF  x08
056C6:  MOVLW  F1
056C8:  MOVWF  x07
056CA:  MOVFF  5F0,609
056CE:  CLRF   x0A
056D0:  MOVLB  0
056D2:  CALL   1830
056D6:  MOVLB  5
....................    if(sombreado==0) 
056D8:  MOVF   xEF,F
056DA:  BNZ   573E
....................       {glcd_rect(x, y, x+(tamano*6), y+(tamano*8), YES, OFF);glcd_text57(x+2, y+1, voltage, tamano, ON);} 
056DC:  MOVF   xF0,W
056DE:  MULLW  06
056E0:  MOVF   FF3,W
056E2:  ADDWF  xED,W
056E4:  MOVWF  xFA
056E6:  MOVF   xF0,W
056E8:  MULLW  08
056EA:  MOVF   FF3,W
056EC:  ADDWF  xEE,W
056EE:  MOVWF  xFB
056F0:  MOVFF  5ED,605
056F4:  MOVFF  5EE,606
056F8:  MOVFF  5FA,607
056FC:  MOVFF  FE8,608
05700:  MOVLW  01
05702:  MOVLB  6
05704:  MOVWF  x09
05706:  CLRF   x0A
05708:  MOVLB  0
0570A:  CALL   4CFE
0570E:  MOVLW  02
05710:  MOVLB  5
05712:  ADDWF  xED,W
05714:  MOVWF  xFA
05716:  MOVLW  01
05718:  ADDWF  xEE,W
0571A:  MOVWF  xFB
0571C:  MOVFF  5FA,605
05720:  MOVFF  FE8,606
05724:  MOVLW  05
05726:  MOVLB  6
05728:  MOVWF  x08
0572A:  MOVLW  F1
0572C:  MOVWF  x07
0572E:  MOVFF  5F0,609
05732:  MOVLW  01
05734:  MOVWF  x0A
05736:  MOVLB  0
05738:  CALL   1830
0573C:  MOVLB  5
....................  
.................... } 
0573E:  MOVLB  0
05740:  RETLW  00
....................  
.................... void displayMenu(char palabra[100], int x, int y, int sombreado, int tamano) 
.................... { 
....................    strcpy(Menus.Letra,palabra); 
*
04E96:  MOVLB  5
04E98:  MOVFF  5F4,01
04E9C:  MOVFF  5F5,03
04EA0:  MOVFF  5F4,5FA
04EA4:  MOVFF  5F5,5FB
04EA8:  MOVLW  04
04EAA:  MOVWF  FEA
04EAC:  MOVLW  16
04EAE:  MOVWF  FE9
04EB0:  MOVFF  5F5,FE2
04EB4:  MOVFF  5F4,FE1
04EB8:  MOVF   FE7,F
04EBA:  MOVFF  FE6,FEE
04EBE:  BNZ   4EB8
....................    if(sombreado==1) 
04EC0:  DECFSZ xF8,W
04EC2:  BRA    4F16
....................       {glcd_rect(0, y, 127, y+(tamano*8), YES, ON);glcd_text57(x+1, y+1, Menus.Letra, tamano, OFF);} 
04EC4:  MOVF   xF9,W
04EC6:  MULLW  08
04EC8:  MOVF   FF3,W
04ECA:  ADDWF  xF7,W
04ECC:  MOVWF  xFA
04ECE:  MOVLB  6
04ED0:  CLRF   x05
04ED2:  MOVFF  5F7,606
04ED6:  MOVLW  7F
04ED8:  MOVWF  x07
04EDA:  MOVFF  5FA,608
04EDE:  MOVLW  01
04EE0:  MOVWF  x09
04EE2:  MOVWF  x0A
04EE4:  MOVLB  0
04EE6:  RCALL  4CFE
04EE8:  MOVLW  01
04EEA:  MOVLB  5
04EEC:  ADDWF  xF6,W
04EEE:  MOVWF  xFA
04EF0:  MOVLW  01
04EF2:  ADDWF  xF7,W
04EF4:  MOVWF  xFB
04EF6:  MOVFF  5FA,605
04EFA:  MOVFF  FE8,606
04EFE:  MOVLW  04
04F00:  MOVLB  6
04F02:  MOVWF  x08
04F04:  MOVLW  16
04F06:  MOVWF  x07
04F08:  MOVFF  5F9,609
04F0C:  CLRF   x0A
04F0E:  MOVLB  0
04F10:  CALL   1830
04F14:  MOVLB  5
....................    if(sombreado==0) 
04F16:  MOVF   xF8,F
04F18:  BNZ   4F6E
....................       {glcd_rect(0, y, 127, y+(tamano*8), YES, OFF);glcd_text57(x+1, y+1, Menus.Letra, tamano, ON);} 
04F1A:  MOVF   xF9,W
04F1C:  MULLW  08
04F1E:  MOVF   FF3,W
04F20:  ADDWF  xF7,W
04F22:  MOVWF  xFA
04F24:  MOVLB  6
04F26:  CLRF   x05
04F28:  MOVFF  5F7,606
04F2C:  MOVLW  7F
04F2E:  MOVWF  x07
04F30:  MOVFF  5FA,608
04F34:  MOVLW  01
04F36:  MOVWF  x09
04F38:  CLRF   x0A
04F3A:  MOVLB  0
04F3C:  RCALL  4CFE
04F3E:  MOVLW  01
04F40:  MOVLB  5
04F42:  ADDWF  xF6,W
04F44:  MOVWF  xFA
04F46:  MOVLW  01
04F48:  ADDWF  xF7,W
04F4A:  MOVWF  xFB
04F4C:  MOVFF  5FA,605
04F50:  MOVFF  FE8,606
04F54:  MOVLW  04
04F56:  MOVLB  6
04F58:  MOVWF  x08
04F5A:  MOVLW  16
04F5C:  MOVWF  x07
04F5E:  MOVFF  5F9,609
04F62:  MOVLW  01
04F64:  MOVWF  x0A
04F66:  MOVLB  0
04F68:  CALL   1830
04F6C:  MOVLB  5
....................  
.................... } 
04F6E:  MOVLB  0
04F70:  RETLW  00
....................  
.................... void displayfloat2(float adc,int x,int y,int sombreado, int tamano) { 
....................    char voltage[9];     
....................       sprintf(voltage, "%2.0f C",adc); // Converts adc to text 
*
05C32:  MOVLW  05
05C34:  MOVLB  4
05C36:  MOVWF  x2B
05C38:  MOVLW  F8
05C3A:  MOVWF  x2A
05C3C:  MOVLW  01
05C3E:  MOVWF  FE9
05C40:  MOVFF  5F3,604
05C44:  MOVFF  5F2,603
05C48:  MOVFF  5F1,602
05C4C:  MOVFF  5F0,601
05C50:  MOVLB  6
05C52:  CLRF   x05
05C54:  MOVLB  0
05C56:  RCALL  5806
05C58:  MOVLW  20
05C5A:  MOVLB  6
05C5C:  MOVWF  x0E
05C5E:  MOVLB  0
05C60:  CALL   4ABC
05C64:  MOVLW  43
05C66:  MOVLB  6
05C68:  MOVWF  x0E
05C6A:  MOVLB  0
05C6C:  CALL   4ABC
....................        
....................    if(sombreado==1) 
05C70:  MOVLB  5
05C72:  DECFSZ xF6,W
05C74:  BRA    5D00
....................       {glcd_rect(x, y, x+(tamano*20), y+(tamano*8), YES, ON);glcd_text57(x+2, y+1, voltage, tamano, OFF);glcd_circle(x+17,y+2,1,ON,OFF);} 
05C76:  MOVF   xF7,W
05C78:  MULLW  14
05C7A:  MOVF   FF3,W
05C7C:  ADDWF  xF4,W
05C7E:  MOVLB  6
05C80:  MOVWF  x01
05C82:  MOVLB  5
05C84:  MOVF   xF7,W
05C86:  MULLW  08
05C88:  MOVF   FF3,W
05C8A:  ADDWF  xF5,W
05C8C:  MOVLB  6
05C8E:  MOVWF  x02
05C90:  MOVFF  5F4,605
05C94:  MOVFF  5F5,606
05C98:  MOVFF  601,607
05C9C:  MOVWF  x08
05C9E:  MOVLW  01
05CA0:  MOVWF  x09
05CA2:  MOVWF  x0A
05CA4:  MOVLB  0
05CA6:  CALL   4CFE
05CAA:  MOVLW  02
05CAC:  MOVLB  5
05CAE:  ADDWF  xF4,W
05CB0:  MOVLB  6
05CB2:  MOVWF  x01
05CB4:  MOVLW  01
05CB6:  MOVLB  5
05CB8:  ADDWF  xF5,W
05CBA:  MOVLB  6
05CBC:  MOVWF  x02
05CBE:  MOVFF  601,605
05CC2:  MOVWF  x06
05CC4:  MOVLW  05
05CC6:  MOVWF  x08
05CC8:  MOVLW  F8
05CCA:  MOVWF  x07
05CCC:  MOVFF  5F7,609
05CD0:  CLRF   x0A
05CD2:  MOVLB  0
05CD4:  CALL   1830
05CD8:  MOVLW  11
05CDA:  MOVLB  5
05CDC:  ADDWF  xF4,W
05CDE:  MOVLB  6
05CE0:  MOVWF  x01
05CE2:  MOVLW  02
05CE4:  MOVLB  5
05CE6:  ADDWF  xF5,W
05CE8:  MOVLB  6
05CEA:  MOVWF  x02
05CEC:  MOVFF  601,603
05CF0:  MOVWF  x04
05CF2:  MOVLW  01
05CF4:  MOVWF  x05
05CF6:  MOVWF  x06
05CF8:  CLRF   x07
05CFA:  MOVLB  0
05CFC:  RCALL  5A08
05CFE:  MOVLB  5
....................    if(sombreado==0) 
05D00:  MOVF   xF6,F
05D02:  BNZ   5D90
....................       {glcd_rect(x, y, x+(tamano*20), y+(tamano*8), YES, OFF);glcd_text57(x+2, y+1, voltage, tamano, ON);glcd_circle(x+17,y+2,1,ON,ON);} 
05D04:  MOVF   xF7,W
05D06:  MULLW  14
05D08:  MOVF   FF3,W
05D0A:  ADDWF  xF4,W
05D0C:  MOVLB  6
05D0E:  MOVWF  x01
05D10:  MOVLB  5
05D12:  MOVF   xF7,W
05D14:  MULLW  08
05D16:  MOVF   FF3,W
05D18:  ADDWF  xF5,W
05D1A:  MOVLB  6
05D1C:  MOVWF  x02
05D1E:  MOVFF  5F4,605
05D22:  MOVFF  5F5,606
05D26:  MOVFF  601,607
05D2A:  MOVWF  x08
05D2C:  MOVLW  01
05D2E:  MOVWF  x09
05D30:  CLRF   x0A
05D32:  MOVLB  0
05D34:  CALL   4CFE
05D38:  MOVLW  02
05D3A:  MOVLB  5
05D3C:  ADDWF  xF4,W
05D3E:  MOVLB  6
05D40:  MOVWF  x01
05D42:  MOVLW  01
05D44:  MOVLB  5
05D46:  ADDWF  xF5,W
05D48:  MOVLB  6
05D4A:  MOVWF  x02
05D4C:  MOVFF  601,605
05D50:  MOVWF  x06
05D52:  MOVLW  05
05D54:  MOVWF  x08
05D56:  MOVLW  F8
05D58:  MOVWF  x07
05D5A:  MOVFF  5F7,609
05D5E:  MOVLW  01
05D60:  MOVWF  x0A
05D62:  MOVLB  0
05D64:  CALL   1830
05D68:  MOVLW  11
05D6A:  MOVLB  5
05D6C:  ADDWF  xF4,W
05D6E:  MOVLB  6
05D70:  MOVWF  x01
05D72:  MOVLW  02
05D74:  MOVLB  5
05D76:  ADDWF  xF5,W
05D78:  MOVLB  6
05D7A:  MOVWF  x02
05D7C:  MOVFF  601,603
05D80:  MOVWF  x04
05D82:  MOVLW  01
05D84:  MOVWF  x05
05D86:  MOVWF  x06
05D88:  MOVWF  x07
05D8A:  MOVLB  0
05D8C:  RCALL  5A08
05D8E:  MOVLB  5
....................        
.................... } 
05D90:  MOVLB  0
05D92:  GOTO   746A (RETURN)
....................  
.................... void displayfloat(float adc,int x,int y,int sombreado, int tamano) { 
....................    char voltage[9];     
....................       sprintf(voltage, "%2.2f ",adc); // Converts adc to text 
*
05FC2:  MOVLW  05
05FC4:  MOVLB  4
05FC6:  MOVWF  x2B
05FC8:  MOVLW  F8
05FCA:  MOVWF  x2A
05FCC:  MOVLW  89
05FCE:  MOVWF  FE9
05FD0:  MOVFF  5F3,604
05FD4:  MOVFF  5F2,603
05FD8:  MOVFF  5F1,602
05FDC:  MOVFF  5F0,601
05FE0:  MOVLW  02
05FE2:  MOVLB  6
05FE4:  MOVWF  x05
05FE6:  MOVLB  0
05FE8:  RCALL  5806
05FEA:  MOVLW  20
05FEC:  MOVLB  6
05FEE:  MOVWF  x0E
05FF0:  MOVLB  0
05FF2:  CALL   4ABC
....................        
....................    if(sombreado==1) 
05FF6:  MOVLB  5
05FF8:  DECFSZ xF6,W
05FFA:  BRA    6060
....................       {glcd_rect(x, y, x+(tamano*20), y+(tamano*8), YES, ON);glcd_text57(x+2, y+1, voltage, tamano, OFF);} 
05FFC:  MOVF   xF7,W
05FFE:  MULLW  14
06000:  MOVF   FF3,W
06002:  ADDWF  xF4,W
06004:  MOVLB  6
06006:  MOVWF  x01
06008:  MOVLB  5
0600A:  MOVF   xF7,W
0600C:  MULLW  08
0600E:  MOVF   FF3,W
06010:  ADDWF  xF5,W
06012:  MOVLB  6
06014:  MOVWF  x02
06016:  MOVFF  5F4,605
0601A:  MOVFF  5F5,606
0601E:  MOVFF  601,607
06022:  MOVWF  x08
06024:  MOVLW  01
06026:  MOVWF  x09
06028:  MOVWF  x0A
0602A:  MOVLB  0
0602C:  CALL   4CFE
06030:  MOVLW  02
06032:  MOVLB  5
06034:  ADDWF  xF4,W
06036:  MOVLB  6
06038:  MOVWF  x01
0603A:  MOVLW  01
0603C:  MOVLB  5
0603E:  ADDWF  xF5,W
06040:  MOVLB  6
06042:  MOVWF  x02
06044:  MOVFF  601,605
06048:  MOVWF  x06
0604A:  MOVLW  05
0604C:  MOVWF  x08
0604E:  MOVLW  F8
06050:  MOVWF  x07
06052:  MOVFF  5F7,609
06056:  CLRF   x0A
06058:  MOVLB  0
0605A:  CALL   1830
0605E:  MOVLB  5
....................    if(sombreado==0) 
06060:  MOVF   xF6,F
06062:  BNZ   60CA
....................       {glcd_rect(x, y, x+(tamano*20), y+(tamano*8), YES, OFF);glcd_text57(x+2, y+1, voltage, tamano, ON);} 
06064:  MOVF   xF7,W
06066:  MULLW  14
06068:  MOVF   FF3,W
0606A:  ADDWF  xF4,W
0606C:  MOVLB  6
0606E:  MOVWF  x01
06070:  MOVLB  5
06072:  MOVF   xF7,W
06074:  MULLW  08
06076:  MOVF   FF3,W
06078:  ADDWF  xF5,W
0607A:  MOVLB  6
0607C:  MOVWF  x02
0607E:  MOVFF  5F4,605
06082:  MOVFF  5F5,606
06086:  MOVFF  601,607
0608A:  MOVWF  x08
0608C:  MOVLW  01
0608E:  MOVWF  x09
06090:  CLRF   x0A
06092:  MOVLB  0
06094:  CALL   4CFE
06098:  MOVLW  02
0609A:  MOVLB  5
0609C:  ADDWF  xF4,W
0609E:  MOVLB  6
060A0:  MOVWF  x01
060A2:  MOVLW  01
060A4:  MOVLB  5
060A6:  ADDWF  xF5,W
060A8:  MOVLB  6
060AA:  MOVWF  x02
060AC:  MOVFF  601,605
060B0:  MOVWF  x06
060B2:  MOVLW  05
060B4:  MOVWF  x08
060B6:  MOVLW  F8
060B8:  MOVWF  x07
060BA:  MOVFF  5F7,609
060BE:  MOVLW  01
060C0:  MOVWF  x0A
060C2:  MOVLB  0
060C4:  CALL   1830
060C8:  MOVLB  5
....................        
.................... } 
060CA:  MOVLB  0
060CC:  RETLW  00
....................  
.................... // Funcion para conversor analogo-digital 
.................... unsigned int16 sensores(int x){ 
.................... unsigned int16 y;set_adc_channel(x);delay_ms(1);y=read_adc();return (y); 
*
02FB0:  MOVLB  5
02FB2:  RLCF   xFD,W
02FB4:  MOVWF  00
02FB6:  RLCF   00,F
02FB8:  MOVLW  FC
02FBA:  ANDWF  00,F
02FBC:  MOVFF  00,01
02FC0:  MOVF   FC2,W
02FC2:  ANDLW  C3
02FC4:  IORWF  00,W
02FC6:  MOVWF  FC2
02FC8:  MOVLW  01
02FCA:  MOVLB  6
02FCC:  MOVWF  x00
02FCE:  MOVLB  0
02FD0:  CALL   14DC
02FD4:  BSF    FC2.1
02FD6:  BTFSC  FC2.1
02FD8:  BRA    2FD6
02FDA:  MOVFF  FC4,5FF
02FDE:  MOVLB  5
02FE0:  MOVFF  FC3,5FE
02FE4:  MOVFF  5FE,01
02FE8:  MOVFF  5FF,02
.................... } 
02FEC:  MOVLB  0
02FEE:  RETLW  00
....................  
....................  
.................... #define   UP               !input(PIN_A5) 
.................... #define   DOWN             !input(PIN_E0) 
.................... #define   RIGHT            !input(PIN_E1) 
.................... #define   LEFT             !input(PIN_E2) 
.................... #define   VIDRIOUP         !input(PIN_A4) 
.................... #define   VIDRIODN         !input(PIN_A3) 
....................  
.................... #define   Alarma_on           output_bit(PIN_C7,1) 
.................... #define   Alarma_off          output_bit(PIN_C7,0) 
.................... #define   LuzBlanca_on        output_bit(PIN_C0,1) 
.................... #define   LuzBlanca_off       output_bit(PIN_C0,0) 
.................... #define   LuzUV_on            output_bit(PIN_C1,1) 
.................... #define   LuzUV_off           output_bit(PIN_C1,0) 
.................... #define   Motor_on            output_bit(PIN_C2,1) 
.................... #define   Motor_off           output_bit(PIN_C2,0) 
.................... #define   Display_on          output_bit(PIN_B1,1) 
.................... #define   Display_off         output_bit(PIN_B1,0) 
....................  
.................... #define   PresDownFlow 2 
....................  
.................... short Flanco=0,Flanco1=0,Flanco2=0,Flanco3=0,Flanco4=0,Flanco5=0,imprimir=0,flag_blower=0,flag_toma=0,flag_luz=0,flag_alarma=0,w=0; 
.................... short tiempo_purga=0,tiempo_trabajo=0,flag_latencia=0,flag_uv=0,tiempo_uv=0,guardauv=0,tiempocumplido=1; 
.................... short guardatrabajo=0,Lectura=0,n=0; 
.................... char  JP[] = "JP Inglobal", Cabina[] = "Cabina Flujo Laminar",Dos_puntos[]=":"; 
.................... char  Clase[] = "   PCR", Tiempo[] = "Tiempo de Purga",UV[]="UV"; 
.................... char  Inflowt[] = "Vel:",Downflowt[] = "T:", ZF[] = "Fabrica:208.0", ZA[] = "Actual:",AJ[]="Ajuste:"; 
.................... char  Vida_Filtro[] = "Filtro:",ZFP[] = "Fabrica:240.0", Perdida[]="!Filtro Saturado!", Tempo[]="Tempo UV:",Vida_UV[] = "UVLife:"; 
.................... int8 Menu=200, unidad=1, Opcion=1,negativo=10,G_l=0,G_h=0,tiemporeset=0; 
.................... int8 q=0,r=0,l=0,h=0,Entero=0,Decimal1=0,Alarma=10; 
....................  
.................... unsigned int16 Inflow_adc=0,Filtro_Downflow_adc=0,Temporal1=0,segundos_uv=0; 
....................  
.................... int16 t_latencia=0,minutos_uv=0,minutos_trabajo=0,G16=0,tup=0,tdown=0,tright=0,tleft=0,tvidrio=0; 
.................... signed int  Tpurga[4]={0,0,0,0};       // Tiempo de Purga transcurrido 
.................... signed int  Tpurgap[4]={9,0,0,0};      // Tiempo de Purga programado 
.................... signed int  Tppurgap[4]={9,0,0,0};     // Tiempo de Post-Purga programado 
.................... signed int  Tuv[4]={0,0,0,0};          // Tiempo de UV transcurrido(en Horas) 
.................... signed int  Tempouvp[4]={0,0,0,0};        // Tiempo de UV transcurrido 
.................... signed int  Tempouv[4]={0,0,0,0};         // Tiempo de UV transcurrido 
.................... signed int  Ttrabajo[4]={0,0,0,0};        // Tiempo de trabajo transcurrido (en Horas) 
.................... signed int  Contrasena[4]={0,0,0,0};      // Contrasena de 4 digitos 
.................... signed int  Password[4]={0,0,0,0};        // Contrasena Almacenada de 4 digitos 
.................... float Inflow=0.0,Downflow=0.0,Filtro_Downflow=0.0,Diferencia=0.0,barra=0.0,barra_old=0.0; 
.................... float Velocidad=0.0,x_uno=0.0,x_cuadrado=0.0,x_cubo=0.0,Ajuste1=0.0,Ajuste2=0.0; 
.................... float Temporal=0.0,Temporal2=0.0; 
.................... float a=0.00000957915546738639,b=-0.00727819571978831,c= 1.85375754678451,d= -156.816806902063; 
.................... //float t=378.463968402560,f=-18275.0402762787;//Sensor 2 Posible bueno 
....................  
.................... float promedio[8]={0.0,0.0,0.0,0.0,0.0,0.0,0.0,0.0}; 
.................... float promedio2[8]={0.0,0.0,0.0,0.0,0.0,0.0,0.0,0.0}; 
.................... float PromPresion[8]={0.0,0.0,0.0,0.0,0.0,0.0,0.0,0.0}; 
.................... float Flujo=0.0,zero_fabrica=208.0,zero_actual=0.0; 
.................... float V1=0.0,Presion=0.0,G=2.0; 
....................  
.................... int16 pulsos=0,retardo=0; 
.................... int8 i=0,l2=0,h2=0,Temperatura=0; 
.................... short Cruce=OFF,Purga=OFF; 
.................... int16 tiempocruce=0; 
.................... int8 Porcentaje=0,VelMotor=0; 
.................... float Tcruce=0.0,Tcruce2=0; 
....................  
.................... #include "Funciones.h" 
.................... float Leer_Sensor_Presion(int media){ 
*
04810:  MOVLB  5
04812:  CLRF   xF0
04814:  CLRF   xEF
04816:  CLRF   xEE
04818:  CLRF   xED
0481A:  CLRF   xF4
0481C:  CLRF   xF3
0481E:  CLRF   xF2
04820:  CLRF   xF1
04822:  CLRF   xF8
04824:  CLRF   xF7
04826:  CLRF   xF6
04828:  CLRF   xF5
0482A:  CLRF   xFC
0482C:  CLRF   xFB
0482E:  CLRF   xFA
04830:  CLRF   xF9
....................    float promediopresion=0.0; 
....................    float VG=0.0,VS=0.0,G2=0.0; 
....................     
....................    Filtro_Downflow_adc=sensores(PresDownFlow); 
04832:  MOVLW  02
04834:  MOVWF  xFD
04836:  MOVLB  0
04838:  CALL   2FB0
0483C:  MOVFF  02,4DD
04840:  MOVFF  01,4DC
....................    V1=Filtro_Downflow_adc;  
04844:  MOVFF  4DD,622
04848:  MOVFF  4DC,621
0484C:  CALL   19E8
04850:  MOVFF  03,5CF
04854:  MOVFF  02,5CE
04858:  MOVFF  01,5CD
0485C:  MOVFF  00,5CC
....................     
....................    //-----------MPXV5004DP------------------//  
....................     
....................    Presion=(V1/G)-1.0;// Presion=(Voltaje/Ganancia)-1 
04860:  MOVFF  5CF,620
04864:  MOVFF  5CE,61F
04868:  MOVFF  5CD,61E
0486C:  MOVFF  5CC,61D
04870:  MOVFF  5D7,624
04874:  MOVFF  5D6,623
04878:  MOVFF  5D5,622
0487C:  MOVFF  5D4,621
04880:  CALL   1A1E
04884:  MOVFF  00,5FD
04888:  MOVFF  01,5FE
0488C:  MOVFF  02,5FF
04890:  MOVFF  03,600
04894:  BSF    FD8.1
04896:  MOVFF  03,624
0489A:  MOVFF  02,623
0489E:  MOVFF  01,622
048A2:  MOVFF  00,621
048A6:  MOVLB  6
048A8:  CLRF   x28
048AA:  CLRF   x27
048AC:  CLRF   x26
048AE:  MOVLW  7F
048B0:  MOVWF  x25
048B2:  MOVLB  0
048B4:  CALL   1B7C
048B8:  MOVFF  03,5D3
048BC:  MOVFF  02,5D2
048C0:  MOVFF  01,5D1
048C4:  MOVFF  00,5D0
....................     
....................    //-----------MPXV7002DP------------------//  
....................    //VS = (V1*5.0)/1023.0;   //Lectura de Divisor de Voltaje de PT100 con resistencia de 1k (+-10%) 
....................    //G2=G; 
....................    //VG = (G2*5.0)/1023.0; 
....................    //Presion=(VS-VG);// Presion=(Voltaje/Ganancia)-1 
....................    //Presion=(V1/G)-1.0;// Presion=(Voltaje/Ganancia)-1 
....................    if(Presion>0) 
048C8:  MOVLB  6
048CA:  CLRF   x20
048CC:  CLRF   x1F
048CE:  CLRF   x1E
048D0:  CLRF   x1D
048D2:  MOVFF  5D3,624
048D6:  MOVFF  5D2,623
048DA:  MOVFF  5D1,622
048DE:  MOVFF  5D0,621
048E2:  MOVLB  0
048E4:  CALL   2584
048E8:  BNC   48F4
....................       Presion=0.0; 
048EA:  MOVLB  5
048EC:  CLRF   xD3
048EE:  CLRF   xD2
048F0:  CLRF   xD1
048F2:  CLRF   xD0
....................    
....................    if(Presion<0.0){ 
048F4:  MOVFF  5D3,620
048F8:  MOVFF  5D2,61F
048FC:  MOVFF  5D1,61E
04900:  MOVFF  5D0,61D
04904:  MOVLB  6
04906:  CLRF   x24
04908:  CLRF   x23
0490A:  CLRF   x22
0490C:  CLRF   x21
0490E:  MOVLB  0
04910:  CALL   2584
04914:  BNC   494A
....................       Presion=Presion*-1; 
04916:  MOVFF  5D3,620
0491A:  MOVFF  5D2,61F
0491E:  MOVFF  5D1,61E
04922:  MOVFF  5D0,61D
04926:  MOVLB  6
04928:  CLRF   x24
0492A:  CLRF   x23
0492C:  MOVLW  80
0492E:  MOVWF  x22
04930:  MOVLW  7F
04932:  MOVWF  x21
04934:  MOVLB  0
04936:  CALL   302C
0493A:  MOVFF  03,5D3
0493E:  MOVFF  02,5D2
04942:  MOVFF  01,5D1
04946:  MOVFF  00,5D0
....................    } 
....................  
....................    if(r>media-1) 
0494A:  MOVLW  01
0494C:  MOVLB  5
0494E:  SUBWF  xEC,W
04950:  MOVLB  4
04952:  SUBWF  xD4,W
04954:  BZ    495A
04956:  BNC   495A
....................    {r=0;} 
04958:  CLRF   xD4
....................    PromPresion[r]=Presion*4.02;r++; 
0495A:  MOVF   xD4,W
0495C:  MULLW  04
0495E:  MOVF   FF3,W
04960:  CLRF   03
04962:  ADDLW  A0
04964:  MOVWF  FE9
04966:  MOVLW  05
04968:  ADDWFC 03,W
0496A:  MOVWF  FEA
0496C:  MOVFF  5D3,620
04970:  MOVFF  5D2,61F
04974:  MOVFF  5D1,61E
04978:  MOVFF  5D0,61D
0497C:  MOVLW  D7
0497E:  MOVLB  6
04980:  MOVWF  x24
04982:  MOVLW  A3
04984:  MOVWF  x23
04986:  CLRF   x22
04988:  MOVLW  81
0498A:  MOVWF  x21
0498C:  MOVLB  0
0498E:  CALL   302C
04992:  MOVFF  00,FEF
04996:  MOVFF  01,FEC
0499A:  MOVFF  02,FEC
0499E:  MOVFF  03,FEC
049A2:  MOVLB  4
049A4:  INCF   xD4,F
....................           
....................    for(q=0;q<=(media-1);q++) 
049A6:  CLRF   xD3
049A8:  MOVLW  01
049AA:  MOVLB  5
049AC:  SUBWF  xEC,W
049AE:  MOVLB  4
049B0:  SUBWF  xD3,W
049B2:  BZ    49B6
049B4:  BC    4A26
....................    { 
....................       promediopresion+=PromPresion[q]; 
049B6:  MOVF   xD3,W
049B8:  MULLW  04
049BA:  MOVF   FF3,W
049BC:  CLRF   03
049BE:  ADDLW  A0
049C0:  MOVWF  FE9
049C2:  MOVLW  05
049C4:  ADDWFC 03,W
049C6:  MOVWF  FEA
049C8:  MOVFF  FEF,00
049CC:  MOVFF  FEC,01
049D0:  MOVFF  FEC,02
049D4:  MOVFF  FEC,03
049D8:  MOVFF  FEA,5FE
049DC:  MOVFF  FE9,5FD
049E0:  BCF    FD8.1
049E2:  MOVFF  5F0,624
049E6:  MOVFF  5EF,623
049EA:  MOVFF  5EE,622
049EE:  MOVFF  5ED,621
049F2:  MOVFF  03,628
049F6:  MOVFF  02,627
049FA:  MOVFF  01,626
049FE:  MOVFF  00,625
04A02:  MOVLB  0
04A04:  CALL   1B7C
04A08:  MOVFF  5FE,FEA
04A0C:  MOVFF  5FD,FE9
04A10:  MOVFF  03,5F0
04A14:  MOVFF  02,5EF
04A18:  MOVFF  01,5EE
04A1C:  MOVFF  00,5ED
....................    }  
04A20:  MOVLB  4
04A22:  INCF   xD3,F
04A24:  BRA    49A8
....................    promediopresion=promediopresion/media;    
04A26:  MOVLB  6
04A28:  CLRF   x22
04A2A:  MOVFF  5EC,621
04A2E:  MOVLB  0
04A30:  CALL   19E8
04A34:  MOVFF  5F0,620
04A38:  MOVFF  5EF,61F
04A3C:  MOVFF  5EE,61E
04A40:  MOVFF  5ED,61D
04A44:  MOVFF  03,624
04A48:  MOVFF  02,623
04A4C:  MOVFF  01,622
04A50:  MOVFF  00,621
04A54:  CALL   1A1E
04A58:  MOVFF  03,5F0
04A5C:  MOVFF  02,5EF
04A60:  MOVFF  01,5EE
04A64:  MOVFF  00,5ED
....................     
....................    return promediopresion*Ajuste2; 
04A68:  MOVFF  5F0,620
04A6C:  MOVFF  5EF,61F
04A70:  MOVFF  5EE,61E
04A74:  MOVFF  5ED,61D
04A78:  MOVFF  547,624
04A7C:  MOVFF  546,623
04A80:  MOVFF  545,622
04A84:  MOVFF  544,621
04A88:  CALL   302C
.................... } 
04A8C:  GOTO   675E (RETURN)
....................  
.................... float leeTemperatura(int8 media){ 
*
04640:  MOVLB  5
04642:  CLRF   xF0
04644:  CLRF   xEF
04646:  CLRF   xEE
04648:  CLRF   xED
0464A:  CLRF   xF4
0464C:  CLRF   xF3
0464E:  CLRF   xF2
04650:  CLRF   xF1
04652:  CLRF   xF8
04654:  CLRF   xF7
04656:  CLRF   xF6
04658:  CLRF   xF5
0465A:  CLRF   xFC
0465C:  CLRF   xFB
0465E:  CLRF   xFA
04660:  CLRF   xF9
....................    float ADC=0,V=0,T=0,Tempera=0; 
....................    ADC=sensores(0); 
04662:  CLRF   xFD
04664:  MOVLB  0
04666:  CALL   2FB0
0466A:  MOVFF  02,622
0466E:  MOVFF  01,621
04672:  CALL   19E8
04676:  MOVFF  03,5F0
0467A:  MOVFF  02,5EF
0467E:  MOVFF  01,5EE
04682:  MOVFF  00,5ED
....................    V=5*ADC/1023; 
04686:  MOVLB  6
04688:  CLRF   x20
0468A:  CLRF   x1F
0468C:  MOVLW  20
0468E:  MOVWF  x1E
04690:  MOVLW  81
04692:  MOVWF  x1D
04694:  MOVFF  5F0,624
04698:  MOVFF  5EF,623
0469C:  MOVFF  5EE,622
046A0:  MOVFF  5ED,621
046A4:  MOVLB  0
046A6:  CALL   302C
046AA:  MOVFF  00,5FD
046AE:  MOVFF  01,5FE
046B2:  MOVFF  02,5FF
046B6:  MOVFF  03,600
046BA:  MOVFF  03,620
046BE:  MOVFF  02,61F
046C2:  MOVFF  01,61E
046C6:  MOVFF  00,61D
046CA:  MOVLB  6
046CC:  CLRF   x24
046CE:  MOVLW  C0
046D0:  MOVWF  x23
046D2:  MOVLW  7F
046D4:  MOVWF  x22
046D6:  MOVLW  88
046D8:  MOVWF  x21
046DA:  MOVLB  0
046DC:  CALL   1A1E
046E0:  MOVFF  03,5F4
046E4:  MOVFF  02,5F3
046E8:  MOVFF  01,5F2
046EC:  MOVFF  00,5F1
....................    T=V/0.01; 
046F0:  MOVFF  5F4,620
046F4:  MOVFF  5F3,61F
046F8:  MOVFF  5F2,61E
046FC:  MOVFF  5F1,61D
04700:  MOVLW  0A
04702:  MOVLB  6
04704:  MOVWF  x24
04706:  MOVLW  D7
04708:  MOVWF  x23
0470A:  MOVLW  23
0470C:  MOVWF  x22
0470E:  MOVLW  78
04710:  MOVWF  x21
04712:  MOVLB  0
04714:  CALL   1A1E
04718:  MOVFF  03,5F8
0471C:  MOVFF  02,5F7
04720:  MOVFF  01,5F6
04724:  MOVFF  00,5F5
....................    if(l2>media) 
04728:  MOVLB  5
0472A:  MOVF   xDD,W
0472C:  SUBWF  xEC,W
0472E:  BC    4732
....................       l2=0; 
04730:  CLRF   xDD
....................        
....................    promedio2[l2]=T;l2++; 
04732:  MOVF   xDD,W
04734:  MULLW  04
04736:  MOVF   FF3,W
04738:  CLRF   03
0473A:  ADDLW  80
0473C:  MOVWF  FE9
0473E:  MOVLW  05
04740:  ADDWFC 03,W
04742:  MOVWF  FEA
04744:  MOVFF  5F5,FEF
04748:  MOVFF  5F6,FEC
0474C:  MOVFF  5F7,FEC
04750:  MOVFF  5F8,FEC
04754:  INCF   xDD,F
....................    Tempera=0; 
04756:  CLRF   xFC
04758:  CLRF   xFB
0475A:  CLRF   xFA
0475C:  CLRF   xF9
....................       
....................      for(h2=0;h2<=(media-1);h2++){ 
0475E:  CLRF   xDE
04760:  MOVLW  01
04762:  SUBWF  xEC,W
04764:  SUBWF  xDE,W
04766:  BZ    476A
04768:  BC    47DA
....................         Tempera+=promedio2[h2]; 
0476A:  MOVF   xDE,W
0476C:  MULLW  04
0476E:  MOVF   FF3,W
04770:  CLRF   03
04772:  ADDLW  80
04774:  MOVWF  FE9
04776:  MOVLW  05
04778:  ADDWFC 03,W
0477A:  MOVWF  FEA
0477C:  MOVFF  FEF,00
04780:  MOVFF  FEC,01
04784:  MOVFF  FEC,02
04788:  MOVFF  FEC,03
0478C:  MOVFF  FEA,5FE
04790:  MOVFF  FE9,5FD
04794:  BCF    FD8.1
04796:  MOVFF  5FC,624
0479A:  MOVFF  5FB,623
0479E:  MOVFF  5FA,622
047A2:  MOVFF  5F9,621
047A6:  MOVFF  03,628
047AA:  MOVFF  02,627
047AE:  MOVFF  01,626
047B2:  MOVFF  00,625
047B6:  MOVLB  0
047B8:  CALL   1B7C
047BC:  MOVFF  5FE,FEA
047C0:  MOVFF  5FD,FE9
047C4:  MOVFF  03,5FC
047C8:  MOVFF  02,5FB
047CC:  MOVFF  01,5FA
047D0:  MOVFF  00,5F9
....................      }       
047D4:  MOVLB  5
047D6:  INCF   xDE,F
047D8:  BRA    4760
....................    return Tempera/media; 
047DA:  MOVLB  6
047DC:  CLRF   x22
047DE:  MOVFF  5EC,621
047E2:  MOVLB  0
047E4:  CALL   19E8
047E8:  MOVFF  5FC,620
047EC:  MOVFF  5FB,61F
047F0:  MOVFF  5FA,61E
047F4:  MOVFF  5F9,61D
047F8:  MOVFF  03,624
047FC:  MOVFF  02,623
04800:  MOVFF  01,622
04804:  MOVFF  00,621
04808:  CALL   1A1E
.................... } 
0480C:  GOTO   673A (RETURN)
....................  
.................... void LeeEEPROM(void){ 
....................    Password[0]=read_eeprom(0); 
*
01DF4:  MOVFF  FF2,5EC
01DF8:  BCF    FF2.7
01DFA:  CLRF   FAA
01DFC:  CLRF   FA9
01DFE:  BCF    FA6.6
01E00:  BCF    FA6.7
01E02:  BSF    FA6.0
01E04:  MOVF   FA8,W
01E06:  MOVLB  5
01E08:  BTFSC  xEC.7
01E0A:  BSF    FF2.7
01E0C:  MOVWF  x14
....................    delay_ms(10); 
01E0E:  MOVLW  0A
01E10:  MOVLB  6
01E12:  MOVWF  x00
01E14:  MOVLB  0
01E16:  CALL   14DC
....................    Password[1]=read_eeprom(1); 
01E1A:  MOVFF  FF2,5EC
01E1E:  BCF    FF2.7
01E20:  CLRF   FAA
01E22:  MOVLW  01
01E24:  MOVWF  FA9
01E26:  BCF    FA6.6
01E28:  BCF    FA6.7
01E2A:  BSF    FA6.0
01E2C:  MOVF   FA8,W
01E2E:  MOVLB  5
01E30:  BTFSC  xEC.7
01E32:  BSF    FF2.7
01E34:  MOVWF  x15
....................    delay_ms(10); 
01E36:  MOVLW  0A
01E38:  MOVLB  6
01E3A:  MOVWF  x00
01E3C:  MOVLB  0
01E3E:  CALL   14DC
....................    Password[2]=read_eeprom(2); 
01E42:  MOVFF  FF2,5EC
01E46:  BCF    FF2.7
01E48:  CLRF   FAA
01E4A:  MOVLW  02
01E4C:  MOVWF  FA9
01E4E:  BCF    FA6.6
01E50:  BCF    FA6.7
01E52:  BSF    FA6.0
01E54:  MOVF   FA8,W
01E56:  MOVLB  5
01E58:  BTFSC  xEC.7
01E5A:  BSF    FF2.7
01E5C:  MOVWF  x16
....................    delay_ms(10); 
01E5E:  MOVLW  0A
01E60:  MOVLB  6
01E62:  MOVWF  x00
01E64:  MOVLB  0
01E66:  CALL   14DC
....................    Password[3]=read_eeprom(3); 
01E6A:  MOVFF  FF2,5EC
01E6E:  BCF    FF2.7
01E70:  CLRF   FAA
01E72:  MOVLW  03
01E74:  MOVWF  FA9
01E76:  BCF    FA6.6
01E78:  BCF    FA6.7
01E7A:  BSF    FA6.0
01E7C:  MOVF   FA8,W
01E7E:  MOVLB  5
01E80:  BTFSC  xEC.7
01E82:  BSF    FF2.7
01E84:  MOVWF  x17
....................    delay_ms(10); 
01E86:  MOVLW  0A
01E88:  MOVLB  6
01E8A:  MOVWF  x00
01E8C:  MOVLB  0
01E8E:  CALL   14DC
....................    Tpurgap[0]=read_eeprom(4); 
01E92:  MOVFF  FF2,5EC
01E96:  BCF    FF2.7
01E98:  CLRF   FAA
01E9A:  MOVLW  04
01E9C:  MOVWF  FA9
01E9E:  BCF    FA6.6
01EA0:  BCF    FA6.7
01EA2:  BSF    FA6.0
01EA4:  MOVF   FA8,W
01EA6:  MOVLB  5
01EA8:  BTFSC  xEC.7
01EAA:  BSF    FF2.7
01EAC:  MOVLB  4
01EAE:  MOVWF  xF8
....................    delay_ms(10); 
01EB0:  MOVLW  0A
01EB2:  MOVLB  6
01EB4:  MOVWF  x00
01EB6:  MOVLB  0
01EB8:  CALL   14DC
....................    Tpurgap[1]=read_eeprom(5); 
01EBC:  MOVFF  FF2,5EC
01EC0:  BCF    FF2.7
01EC2:  CLRF   FAA
01EC4:  MOVLW  05
01EC6:  MOVWF  FA9
01EC8:  BCF    FA6.6
01ECA:  BCF    FA6.7
01ECC:  BSF    FA6.0
01ECE:  MOVF   FA8,W
01ED0:  MOVLB  5
01ED2:  BTFSC  xEC.7
01ED4:  BSF    FF2.7
01ED6:  MOVLB  4
01ED8:  MOVWF  xF9
....................    delay_ms(10); 
01EDA:  MOVLW  0A
01EDC:  MOVLB  6
01EDE:  MOVWF  x00
01EE0:  MOVLB  0
01EE2:  CALL   14DC
....................    Tpurgap[2]=read_eeprom(6); 
01EE6:  MOVFF  FF2,5EC
01EEA:  BCF    FF2.7
01EEC:  CLRF   FAA
01EEE:  MOVLW  06
01EF0:  MOVWF  FA9
01EF2:  BCF    FA6.6
01EF4:  BCF    FA6.7
01EF6:  BSF    FA6.0
01EF8:  MOVF   FA8,W
01EFA:  MOVLB  5
01EFC:  BTFSC  xEC.7
01EFE:  BSF    FF2.7
01F00:  MOVLB  4
01F02:  MOVWF  xFA
....................    delay_ms(10); 
01F04:  MOVLW  0A
01F06:  MOVLB  6
01F08:  MOVWF  x00
01F0A:  MOVLB  0
01F0C:  CALL   14DC
....................    Tpurgap[3]=read_eeprom(7); 
01F10:  MOVFF  FF2,5EC
01F14:  BCF    FF2.7
01F16:  CLRF   FAA
01F18:  MOVLW  07
01F1A:  MOVWF  FA9
01F1C:  BCF    FA6.6
01F1E:  BCF    FA6.7
01F20:  BSF    FA6.0
01F22:  MOVF   FA8,W
01F24:  MOVLB  5
01F26:  BTFSC  xEC.7
01F28:  BSF    FF2.7
01F2A:  MOVLB  4
01F2C:  MOVWF  xFB
....................    delay_ms(10); 
01F2E:  MOVLW  0A
01F30:  MOVLB  6
01F32:  MOVWF  x00
01F34:  MOVLB  0
01F36:  CALL   14DC
....................    Tppurgap[0]=read_eeprom(8); 
01F3A:  MOVFF  FF2,5EC
01F3E:  BCF    FF2.7
01F40:  CLRF   FAA
01F42:  MOVLW  08
01F44:  MOVWF  FA9
01F46:  BCF    FA6.6
01F48:  BCF    FA6.7
01F4A:  BSF    FA6.0
01F4C:  MOVF   FA8,W
01F4E:  MOVLB  5
01F50:  BTFSC  xEC.7
01F52:  BSF    FF2.7
01F54:  MOVLB  4
01F56:  MOVWF  xFC
....................    delay_ms(10); 
01F58:  MOVLW  0A
01F5A:  MOVLB  6
01F5C:  MOVWF  x00
01F5E:  MOVLB  0
01F60:  CALL   14DC
....................    Tppurgap[1]=read_eeprom(9); 
01F64:  MOVFF  FF2,5EC
01F68:  BCF    FF2.7
01F6A:  CLRF   FAA
01F6C:  MOVLW  09
01F6E:  MOVWF  FA9
01F70:  BCF    FA6.6
01F72:  BCF    FA6.7
01F74:  BSF    FA6.0
01F76:  MOVF   FA8,W
01F78:  MOVLB  5
01F7A:  BTFSC  xEC.7
01F7C:  BSF    FF2.7
01F7E:  MOVLB  4
01F80:  MOVWF  xFD
....................    delay_ms(10); 
01F82:  MOVLW  0A
01F84:  MOVLB  6
01F86:  MOVWF  x00
01F88:  MOVLB  0
01F8A:  CALL   14DC
....................    Tppurgap[2]=read_eeprom(10); 
01F8E:  MOVFF  FF2,5EC
01F92:  BCF    FF2.7
01F94:  CLRF   FAA
01F96:  MOVLW  0A
01F98:  MOVWF  FA9
01F9A:  BCF    FA6.6
01F9C:  BCF    FA6.7
01F9E:  BSF    FA6.0
01FA0:  MOVF   FA8,W
01FA2:  MOVLB  5
01FA4:  BTFSC  xEC.7
01FA6:  BSF    FF2.7
01FA8:  MOVLB  4
01FAA:  MOVWF  xFE
....................    delay_ms(10); 
01FAC:  MOVLW  0A
01FAE:  MOVLB  6
01FB0:  MOVWF  x00
01FB2:  MOVLB  0
01FB4:  CALL   14DC
....................    Tppurgap[3]=read_eeprom(11); 
01FB8:  MOVFF  FF2,5EC
01FBC:  BCF    FF2.7
01FBE:  CLRF   FAA
01FC0:  MOVLW  0B
01FC2:  MOVWF  FA9
01FC4:  BCF    FA6.6
01FC6:  BCF    FA6.7
01FC8:  BSF    FA6.0
01FCA:  MOVF   FA8,W
01FCC:  MOVLB  5
01FCE:  BTFSC  xEC.7
01FD0:  BSF    FF2.7
01FD2:  MOVLB  4
01FD4:  MOVWF  xFF
....................    delay_ms(10); 
01FD6:  MOVLW  0A
01FD8:  MOVLB  6
01FDA:  MOVWF  x00
01FDC:  MOVLB  0
01FDE:  CALL   14DC
....................    Tuv[0]=read_eeprom(12); 
01FE2:  MOVFF  FF2,5EC
01FE6:  BCF    FF2.7
01FE8:  CLRF   FAA
01FEA:  MOVLW  0C
01FEC:  MOVWF  FA9
01FEE:  BCF    FA6.6
01FF0:  BCF    FA6.7
01FF2:  BSF    FA6.0
01FF4:  MOVF   FA8,W
01FF6:  MOVLB  5
01FF8:  BTFSC  xEC.7
01FFA:  BSF    FF2.7
01FFC:  MOVWF  x00
....................    delay_ms(10); 
01FFE:  MOVLW  0A
02000:  MOVLB  6
02002:  MOVWF  x00
02004:  MOVLB  0
02006:  CALL   14DC
....................    Tuv[1]=read_eeprom(13); 
0200A:  MOVFF  FF2,5EC
0200E:  BCF    FF2.7
02010:  CLRF   FAA
02012:  MOVLW  0D
02014:  MOVWF  FA9
02016:  BCF    FA6.6
02018:  BCF    FA6.7
0201A:  BSF    FA6.0
0201C:  MOVF   FA8,W
0201E:  MOVLB  5
02020:  BTFSC  xEC.7
02022:  BSF    FF2.7
02024:  MOVWF  x01
....................    delay_ms(10); 
02026:  MOVLW  0A
02028:  MOVLB  6
0202A:  MOVWF  x00
0202C:  MOVLB  0
0202E:  CALL   14DC
....................    Tuv[2]=read_eeprom(14); 
02032:  MOVFF  FF2,5EC
02036:  BCF    FF2.7
02038:  CLRF   FAA
0203A:  MOVLW  0E
0203C:  MOVWF  FA9
0203E:  BCF    FA6.6
02040:  BCF    FA6.7
02042:  BSF    FA6.0
02044:  MOVF   FA8,W
02046:  MOVLB  5
02048:  BTFSC  xEC.7
0204A:  BSF    FF2.7
0204C:  MOVWF  x02
....................    delay_ms(10); 
0204E:  MOVLW  0A
02050:  MOVLB  6
02052:  MOVWF  x00
02054:  MOVLB  0
02056:  CALL   14DC
....................    Tuv[3]=read_eeprom(15); 
0205A:  MOVFF  FF2,5EC
0205E:  BCF    FF2.7
02060:  CLRF   FAA
02062:  MOVLW  0F
02064:  MOVWF  FA9
02066:  BCF    FA6.6
02068:  BCF    FA6.7
0206A:  BSF    FA6.0
0206C:  MOVF   FA8,W
0206E:  MOVLB  5
02070:  BTFSC  xEC.7
02072:  BSF    FF2.7
02074:  MOVWF  x03
....................    delay_ms(10); 
02076:  MOVLW  0A
02078:  MOVLB  6
0207A:  MOVWF  x00
0207C:  MOVLB  0
0207E:  CALL   14DC
....................    Ttrabajo[0]=read_eeprom(16); 
02082:  MOVFF  FF2,5EC
02086:  BCF    FF2.7
02088:  CLRF   FAA
0208A:  MOVLW  10
0208C:  MOVWF  FA9
0208E:  BCF    FA6.6
02090:  BCF    FA6.7
02092:  BSF    FA6.0
02094:  MOVF   FA8,W
02096:  MOVLB  5
02098:  BTFSC  xEC.7
0209A:  BSF    FF2.7
0209C:  MOVWF  x0C
....................    delay_ms(10); 
0209E:  MOVLW  0A
020A0:  MOVLB  6
020A2:  MOVWF  x00
020A4:  MOVLB  0
020A6:  CALL   14DC
....................    Ttrabajo[1]=read_eeprom(17); 
020AA:  MOVFF  FF2,5EC
020AE:  BCF    FF2.7
020B0:  CLRF   FAA
020B2:  MOVLW  11
020B4:  MOVWF  FA9
020B6:  BCF    FA6.6
020B8:  BCF    FA6.7
020BA:  BSF    FA6.0
020BC:  MOVF   FA8,W
020BE:  MOVLB  5
020C0:  BTFSC  xEC.7
020C2:  BSF    FF2.7
020C4:  MOVWF  x0D
....................    delay_ms(10); 
020C6:  MOVLW  0A
020C8:  MOVLB  6
020CA:  MOVWF  x00
020CC:  MOVLB  0
020CE:  CALL   14DC
....................    Ttrabajo[2]=read_eeprom(18); 
020D2:  MOVFF  FF2,5EC
020D6:  BCF    FF2.7
020D8:  CLRF   FAA
020DA:  MOVLW  12
020DC:  MOVWF  FA9
020DE:  BCF    FA6.6
020E0:  BCF    FA6.7
020E2:  BSF    FA6.0
020E4:  MOVF   FA8,W
020E6:  MOVLB  5
020E8:  BTFSC  xEC.7
020EA:  BSF    FF2.7
020EC:  MOVWF  x0E
....................    delay_ms(10); 
020EE:  MOVLW  0A
020F0:  MOVLB  6
020F2:  MOVWF  x00
020F4:  MOVLB  0
020F6:  CALL   14DC
....................    Ttrabajo[3]=read_eeprom(19); 
020FA:  MOVFF  FF2,5EC
020FE:  BCF    FF2.7
02100:  CLRF   FAA
02102:  MOVLW  13
02104:  MOVWF  FA9
02106:  BCF    FA6.6
02108:  BCF    FA6.7
0210A:  BSF    FA6.0
0210C:  MOVF   FA8,W
0210E:  MOVLB  5
02110:  BTFSC  xEC.7
02112:  BSF    FF2.7
02114:  MOVWF  x0F
....................    delay_ms(10); 
02116:  MOVLW  0A
02118:  MOVLB  6
0211A:  MOVWF  x00
0211C:  MOVLB  0
0211E:  CALL   14DC
....................    //flag_alarma=read_eeprom(20); 
....................    //delay_ms(10); 
....................    Tempouvp[0]=read_eeprom(21); 
02122:  MOVFF  FF2,5EC
02126:  BCF    FF2.7
02128:  CLRF   FAA
0212A:  MOVLW  15
0212C:  MOVWF  FA9
0212E:  BCF    FA6.6
02130:  BCF    FA6.7
02132:  BSF    FA6.0
02134:  MOVF   FA8,W
02136:  MOVLB  5
02138:  BTFSC  xEC.7
0213A:  BSF    FF2.7
0213C:  MOVWF  x04
....................    delay_ms(10); 
0213E:  MOVLW  0A
02140:  MOVLB  6
02142:  MOVWF  x00
02144:  MOVLB  0
02146:  CALL   14DC
....................    Tempouvp[1]=read_eeprom(22); 
0214A:  MOVFF  FF2,5EC
0214E:  BCF    FF2.7
02150:  CLRF   FAA
02152:  MOVLW  16
02154:  MOVWF  FA9
02156:  BCF    FA6.6
02158:  BCF    FA6.7
0215A:  BSF    FA6.0
0215C:  MOVF   FA8,W
0215E:  MOVLB  5
02160:  BTFSC  xEC.7
02162:  BSF    FF2.7
02164:  MOVWF  x05
....................    delay_ms(10); 
02166:  MOVLW  0A
02168:  MOVLB  6
0216A:  MOVWF  x00
0216C:  MOVLB  0
0216E:  CALL   14DC
....................    Tempouvp[2]=read_eeprom(23); 
02172:  MOVFF  FF2,5EC
02176:  BCF    FF2.7
02178:  CLRF   FAA
0217A:  MOVLW  17
0217C:  MOVWF  FA9
0217E:  BCF    FA6.6
02180:  BCF    FA6.7
02182:  BSF    FA6.0
02184:  MOVF   FA8,W
02186:  MOVLB  5
02188:  BTFSC  xEC.7
0218A:  BSF    FF2.7
0218C:  MOVWF  x06
....................    delay_ms(10); 
0218E:  MOVLW  0A
02190:  MOVLB  6
02192:  MOVWF  x00
02194:  MOVLB  0
02196:  CALL   14DC
....................    Tempouvp[3]=read_eeprom(24); 
0219A:  MOVFF  FF2,5EC
0219E:  BCF    FF2.7
021A0:  CLRF   FAA
021A2:  MOVLW  18
021A4:  MOVWF  FA9
021A6:  BCF    FA6.6
021A8:  BCF    FA6.7
021AA:  BSF    FA6.0
021AC:  MOVF   FA8,W
021AE:  MOVLB  5
021B0:  BTFSC  xEC.7
021B2:  BSF    FF2.7
021B4:  MOVWF  x07
....................     
....................    delay_ms(10); 
021B6:  MOVLW  0A
021B8:  MOVLB  6
021BA:  MOVWF  x00
021BC:  MOVLB  0
021BE:  CALL   14DC
....................    Entero=read_eeprom(25);//Decimal1=read_eeprom(26); 
021C2:  MOVFF  FF2,5EC
021C6:  BCF    FF2.7
021C8:  CLRF   FAA
021CA:  MOVLW  19
021CC:  MOVWF  FA9
021CE:  BCF    FA6.6
021D0:  BCF    FA6.7
021D2:  BSF    FA6.0
021D4:  MOVF   FA8,W
021D6:  MOVLB  5
021D8:  BTFSC  xEC.7
021DA:  BSF    FF2.7
021DC:  MOVLB  4
021DE:  MOVWF  xD7
....................    delay_ms(10); 
021E0:  MOVLW  0A
021E2:  MOVLB  6
021E4:  MOVWF  x00
021E6:  MOVLB  0
021E8:  CALL   14DC
....................    Temporal=read_eeprom(26); 
021EC:  MOVFF  FF2,5EC
021F0:  BCF    FF2.7
021F2:  CLRF   FAA
021F4:  MOVLW  1A
021F6:  MOVWF  FA9
021F8:  BCF    FA6.6
021FA:  BCF    FA6.7
021FC:  BSF    FA6.0
021FE:  MOVF   FA8,W
02200:  MOVLB  5
02202:  BTFSC  xEC.7
02204:  BSF    FF2.7
02206:  MOVLB  6
02208:  CLRF   x22
0220A:  MOVWF  x21
0220C:  MOVLB  0
0220E:  CALL   19E8
02212:  MOVFF  03,54B
02216:  MOVFF  02,54A
0221A:  MOVFF  01,549
0221E:  MOVFF  00,548
....................    delay_ms(10); 
02222:  MOVLW  0A
02224:  MOVLB  6
02226:  MOVWF  x00
02228:  MOVLB  0
0222A:  CALL   14DC
....................    Temporal=Temporal/10.0; 
0222E:  MOVFF  54B,620
02232:  MOVFF  54A,61F
02236:  MOVFF  549,61E
0223A:  MOVFF  548,61D
0223E:  MOVLB  6
02240:  CLRF   x24
02242:  CLRF   x23
02244:  MOVLW  20
02246:  MOVWF  x22
02248:  MOVLW  82
0224A:  MOVWF  x21
0224C:  MOVLB  0
0224E:  CALL   1A1E
02252:  MOVFF  03,54B
02256:  MOVFF  02,54A
0225A:  MOVFF  01,549
0225E:  MOVFF  00,548
....................    Ajuste1=Entero+Temporal; 
02262:  MOVLB  6
02264:  CLRF   x22
02266:  MOVFF  4D7,621
0226A:  MOVLB  0
0226C:  CALL   19E8
02270:  BCF    FD8.1
02272:  MOVFF  03,624
02276:  MOVFF  02,623
0227A:  MOVFF  01,622
0227E:  MOVFF  00,621
02282:  MOVFF  54B,628
02286:  MOVFF  54A,627
0228A:  MOVFF  549,626
0228E:  MOVFF  548,625
02292:  RCALL  1B7C
02294:  MOVFF  03,543
02298:  MOVFF  02,542
0229C:  MOVFF  01,541
022A0:  MOVFF  00,540
....................     
....................     
....................    Entero=read_eeprom(27);//Decimal1=read_eeprom(26); 
022A4:  MOVFF  FF2,5EC
022A8:  BCF    FF2.7
022AA:  CLRF   FAA
022AC:  MOVLW  1B
022AE:  MOVWF  FA9
022B0:  BCF    FA6.6
022B2:  BCF    FA6.7
022B4:  BSF    FA6.0
022B6:  MOVF   FA8,W
022B8:  MOVLB  5
022BA:  BTFSC  xEC.7
022BC:  BSF    FF2.7
022BE:  MOVLB  4
022C0:  MOVWF  xD7
....................    delay_ms(10); 
022C2:  MOVLW  0A
022C4:  MOVLB  6
022C6:  MOVWF  x00
022C8:  MOVLB  0
022CA:  CALL   14DC
....................    Temporal=read_eeprom(28); 
022CE:  MOVFF  FF2,5EC
022D2:  BCF    FF2.7
022D4:  CLRF   FAA
022D6:  MOVLW  1C
022D8:  MOVWF  FA9
022DA:  BCF    FA6.6
022DC:  BCF    FA6.7
022DE:  BSF    FA6.0
022E0:  MOVF   FA8,W
022E2:  MOVLB  5
022E4:  BTFSC  xEC.7
022E6:  BSF    FF2.7
022E8:  MOVLB  6
022EA:  CLRF   x22
022EC:  MOVWF  x21
022EE:  MOVLB  0
022F0:  CALL   19E8
022F4:  MOVFF  03,54B
022F8:  MOVFF  02,54A
022FC:  MOVFF  01,549
02300:  MOVFF  00,548
....................    delay_ms(10); 
02304:  MOVLW  0A
02306:  MOVLB  6
02308:  MOVWF  x00
0230A:  MOVLB  0
0230C:  CALL   14DC
....................    Temporal=Temporal/10.0; 
02310:  MOVFF  54B,620
02314:  MOVFF  54A,61F
02318:  MOVFF  549,61E
0231C:  MOVFF  548,61D
02320:  MOVLB  6
02322:  CLRF   x24
02324:  CLRF   x23
02326:  MOVLW  20
02328:  MOVWF  x22
0232A:  MOVLW  82
0232C:  MOVWF  x21
0232E:  MOVLB  0
02330:  CALL   1A1E
02334:  MOVFF  03,54B
02338:  MOVFF  02,54A
0233C:  MOVFF  01,549
02340:  MOVFF  00,548
....................    Ajuste2=Entero+Temporal; 
02344:  MOVLB  6
02346:  CLRF   x22
02348:  MOVFF  4D7,621
0234C:  MOVLB  0
0234E:  CALL   19E8
02352:  BCF    FD8.1
02354:  MOVFF  03,624
02358:  MOVFF  02,623
0235C:  MOVFF  01,622
02360:  MOVFF  00,621
02364:  MOVFF  54B,628
02368:  MOVFF  54A,627
0236C:  MOVFF  549,626
02370:  MOVFF  548,625
02374:  RCALL  1B7C
02376:  MOVFF  03,547
0237A:  MOVFF  02,546
0237E:  MOVFF  01,545
02382:  MOVFF  00,544
....................     
....................    zero_actual=make16(read_eeprom(30),read_eeprom(29)); 
02386:  MOVFF  FF2,5EC
0238A:  BCF    FF2.7
0238C:  CLRF   FAA
0238E:  MOVLW  1E
02390:  MOVWF  FA9
02392:  BCF    FA6.6
02394:  BCF    FA6.7
02396:  BSF    FA6.0
02398:  MOVF   FA8,W
0239A:  MOVLB  5
0239C:  BTFSC  xEC.7
0239E:  BSF    FF2.7
023A0:  MOVWF  xED
023A2:  MOVFF  FF2,5EE
023A6:  BCF    FF2.7
023A8:  CLRF   FAA
023AA:  MOVLW  1D
023AC:  MOVWF  FA9
023AE:  BCF    FA6.6
023B0:  BCF    FA6.7
023B2:  BSF    FA6.0
023B4:  MOVF   FA8,W
023B6:  BTFSC  xEE.7
023B8:  BSF    FF2.7
023BA:  MOVWF  xEF
023BC:  MOVFF  5ED,03
023C0:  MOVF   xEF,W
023C2:  MOVLB  6
023C4:  MOVWF  x21
023C6:  MOVFF  03,622
023CA:  MOVLB  0
023CC:  CALL   19E8
023D0:  MOVFF  03,5CB
023D4:  MOVFF  02,5CA
023D8:  MOVFF  01,5C9
023DC:  MOVFF  00,5C8
....................    delay_ms(10); 
023E0:  MOVLW  0A
023E2:  MOVLB  6
023E4:  MOVWF  x00
023E6:  MOVLB  0
023E8:  CALL   14DC
....................    minutos_trabajo=make16(read_eeprom(34),read_eeprom(33)); 
023EC:  MOVFF  FF2,5EC
023F0:  BCF    FF2.7
023F2:  CLRF   FAA
023F4:  MOVLW  22
023F6:  MOVWF  FA9
023F8:  BCF    FA6.6
023FA:  BCF    FA6.7
023FC:  BSF    FA6.0
023FE:  MOVF   FA8,W
02400:  MOVLB  5
02402:  BTFSC  xEC.7
02404:  BSF    FF2.7
02406:  MOVWF  xED
02408:  MOVFF  FF2,5EE
0240C:  BCF    FF2.7
0240E:  CLRF   FAA
02410:  MOVLW  21
02412:  MOVWF  FA9
02414:  BCF    FA6.6
02416:  BCF    FA6.7
02418:  BSF    FA6.0
0241A:  MOVF   FA8,W
0241C:  BTFSC  xEE.7
0241E:  BSF    FF2.7
02420:  MOVWF  xEF
02422:  MOVFF  5ED,4E7
02426:  MOVFF  5EF,4E6
....................    delay_ms(10); 
0242A:  MOVLW  0A
0242C:  MOVLB  6
0242E:  MOVWF  x00
02430:  MOVLB  0
02432:  CALL   14DC
....................    minutos_uv=read_eeprom(31); 
02436:  MOVFF  FF2,5EC
0243A:  BCF    FF2.7
0243C:  CLRF   FAA
0243E:  MOVLW  1F
02440:  MOVWF  FA9
02442:  BCF    FA6.6
02444:  BCF    FA6.7
02446:  BSF    FA6.0
02448:  MOVF   FA8,W
0244A:  MOVLB  5
0244C:  BTFSC  xEC.7
0244E:  BSF    FF2.7
02450:  MOVLB  4
02452:  CLRF   xE5
02454:  MOVWF  xE4
....................    delay_ms(10); 
02456:  MOVLW  0A
02458:  MOVLB  6
0245A:  MOVWF  x00
0245C:  MOVLB  0
0245E:  CALL   14DC
....................    VelMotor=read_eeprom(32); 
02462:  MOVFF  FF2,5EC
02466:  BCF    FF2.7
02468:  CLRF   FAA
0246A:  MOVLW  20
0246C:  MOVWF  FA9
0246E:  BCF    FA6.6
02470:  BCF    FA6.7
02472:  BSF    FA6.0
02474:  MOVF   FA8,W
02476:  MOVLB  5
02478:  BTFSC  xEC.7
0247A:  BSF    FF2.7
0247C:  MOVWF  xE3
....................    delay_ms(10); 
0247E:  MOVLW  0A
02480:  MOVLB  6
02482:  MOVWF  x00
02484:  MOVLB  0
02486:  CALL   14DC
....................     
....................    Diferencia=make16(read_eeprom(61),read_eeprom(60)); 
0248A:  MOVFF  FF2,5EC
0248E:  BCF    FF2.7
02490:  CLRF   FAA
02492:  MOVLW  3D
02494:  MOVWF  FA9
02496:  BCF    FA6.6
02498:  BCF    FA6.7
0249A:  BSF    FA6.0
0249C:  MOVF   FA8,W
0249E:  MOVLB  5
024A0:  BTFSC  xEC.7
024A2:  BSF    FF2.7
024A4:  MOVWF  xED
024A6:  MOVFF  FF2,5EE
024AA:  BCF    FF2.7
024AC:  CLRF   FAA
024AE:  MOVLW  3C
024B0:  MOVWF  FA9
024B2:  BCF    FA6.6
024B4:  BCF    FA6.7
024B6:  BSF    FA6.0
024B8:  MOVF   FA8,W
024BA:  BTFSC  xEE.7
024BC:  BSF    FF2.7
024BE:  MOVWF  xEF
024C0:  MOVFF  5ED,03
024C4:  MOVF   xEF,W
024C6:  MOVLB  6
024C8:  MOVWF  x21
024CA:  MOVFF  03,622
024CE:  MOVLB  0
024D0:  CALL   19E8
024D4:  MOVFF  03,527
024D8:  MOVFF  02,526
024DC:  MOVFF  01,525
024E0:  MOVFF  00,524
....................    delay_ms(10); 
024E4:  MOVLW  0A
024E6:  MOVLB  6
024E8:  MOVWF  x00
024EA:  MOVLB  0
024EC:  CALL   14DC
....................    G=make16(read_eeprom(63),read_eeprom(62)); 
024F0:  MOVFF  FF2,5EC
024F4:  BCF    FF2.7
024F6:  CLRF   FAA
024F8:  MOVLW  3F
024FA:  MOVWF  FA9
024FC:  BCF    FA6.6
024FE:  BCF    FA6.7
02500:  BSF    FA6.0
02502:  MOVF   FA8,W
02504:  MOVLB  5
02506:  BTFSC  xEC.7
02508:  BSF    FF2.7
0250A:  MOVWF  xED
0250C:  MOVFF  FF2,5EE
02510:  BCF    FF2.7
02512:  CLRF   FAA
02514:  MOVLW  3E
02516:  MOVWF  FA9
02518:  BCF    FA6.6
0251A:  BCF    FA6.7
0251C:  BSF    FA6.0
0251E:  MOVF   FA8,W
02520:  BTFSC  xEE.7
02522:  BSF    FF2.7
02524:  MOVWF  xEF
02526:  MOVFF  5ED,03
0252A:  MOVF   xEF,W
0252C:  MOVLB  6
0252E:  MOVWF  x21
02530:  MOVFF  03,622
02534:  MOVLB  0
02536:  CALL   19E8
0253A:  MOVFF  03,5D7
0253E:  MOVFF  02,5D6
02542:  MOVFF  01,5D5
02546:  MOVFF  00,5D4
....................    delay_ms(10); 
0254A:  MOVLW  0A
0254C:  MOVLB  6
0254E:  MOVWF  x00
02550:  MOVLB  0
02552:  CALL   14DC
....................    negativo=read_eeprom(50); 
02556:  MOVFF  FF2,5EC
0255A:  BCF    FF2.7
0255C:  CLRF   FAA
0255E:  MOVLW  32
02560:  MOVWF  FA9
02562:  BCF    FA6.6
02564:  BCF    FA6.7
02566:  BSF    FA6.0
02568:  MOVF   FA8,W
0256A:  MOVLB  5
0256C:  BTFSC  xEC.7
0256E:  BSF    FF2.7
02570:  MOVLB  4
02572:  MOVWF  xCF
....................    delay_ms(10); 
02574:  MOVLW  0A
02576:  MOVLB  6
02578:  MOVWF  x00
0257A:  MOVLB  0
0257C:  CALL   14DC
....................  
.................... } 
02580:  GOTO   6702 (RETURN)
....................  
.................... void LimitaValores(void){ 
....................    if(Password[0]>9 || Password[0]<0){ 
*
025FE:  MOVLB  5
02600:  BTFSC  x14.7
02602:  BRA    260A
02604:  MOVF   x14,W
02606:  SUBLW  09
02608:  BNC   2610
0260A:  BTFSC  x14.7
0260C:  BRA    2610
0260E:  BRA    263C
....................       Password[0]=0;write_eeprom(0,0); 
02610:  CLRF   x14
02612:  CLRF   FAA
02614:  CLRF   FA9
02616:  CLRF   FA8
02618:  BCF    FA6.6
0261A:  BCF    FA6.7
0261C:  BSF    FA6.2
0261E:  MOVF   FF2,W
02620:  MOVWF  00
02622:  BCF    FF2.7
02624:  MOVLB  F
02626:  MOVLW  55
02628:  MOVWF  FA7
0262A:  MOVLW  AA
0262C:  MOVWF  FA7
0262E:  BSF    FA6.1
02630:  BTFSC  FA6.1
02632:  BRA    2630
02634:  BCF    FA6.2
02636:  MOVF   00,W
02638:  IORWF  FF2,F
0263A:  MOVLB  5
....................    } 
....................    if(Password[1]>9 || Password[1]<0){ 
0263C:  BTFSC  x15.7
0263E:  BRA    2646
02640:  MOVF   x15,W
02642:  SUBLW  09
02644:  BNC   264C
02646:  BTFSC  x15.7
02648:  BRA    264C
0264A:  BRA    267A
....................       Password[1]=0;write_eeprom(1,0); 
0264C:  CLRF   x15
0264E:  CLRF   FAA
02650:  MOVLW  01
02652:  MOVWF  FA9
02654:  CLRF   FA8
02656:  BCF    FA6.6
02658:  BCF    FA6.7
0265A:  BSF    FA6.2
0265C:  MOVF   FF2,W
0265E:  MOVWF  00
02660:  BCF    FF2.7
02662:  MOVLB  F
02664:  MOVLW  55
02666:  MOVWF  FA7
02668:  MOVLW  AA
0266A:  MOVWF  FA7
0266C:  BSF    FA6.1
0266E:  BTFSC  FA6.1
02670:  BRA    266E
02672:  BCF    FA6.2
02674:  MOVF   00,W
02676:  IORWF  FF2,F
02678:  MOVLB  5
....................    } 
....................    if(Password[2]>9 || Password[2]<0){ 
0267A:  BTFSC  x16.7
0267C:  BRA    2684
0267E:  MOVF   x16,W
02680:  SUBLW  09
02682:  BNC   268A
02684:  BTFSC  x16.7
02686:  BRA    268A
02688:  BRA    26B8
....................       Password[2]=0;write_eeprom(2,0); 
0268A:  CLRF   x16
0268C:  CLRF   FAA
0268E:  MOVLW  02
02690:  MOVWF  FA9
02692:  CLRF   FA8
02694:  BCF    FA6.6
02696:  BCF    FA6.7
02698:  BSF    FA6.2
0269A:  MOVF   FF2,W
0269C:  MOVWF  00
0269E:  BCF    FF2.7
026A0:  MOVLB  F
026A2:  MOVLW  55
026A4:  MOVWF  FA7
026A6:  MOVLW  AA
026A8:  MOVWF  FA7
026AA:  BSF    FA6.1
026AC:  BTFSC  FA6.1
026AE:  BRA    26AC
026B0:  BCF    FA6.2
026B2:  MOVF   00,W
026B4:  IORWF  FF2,F
026B6:  MOVLB  5
....................    } 
....................    if(Password[3]>9 || Password[3]<0){ 
026B8:  BTFSC  x17.7
026BA:  BRA    26C2
026BC:  MOVF   x17,W
026BE:  SUBLW  09
026C0:  BNC   26C8
026C2:  BTFSC  x17.7
026C4:  BRA    26C8
026C6:  BRA    26F4
....................       Password[3]=0;write_eeprom(3,0); 
026C8:  CLRF   x17
026CA:  CLRF   FAA
026CC:  MOVLW  03
026CE:  MOVWF  FA9
026D0:  CLRF   FA8
026D2:  BCF    FA6.6
026D4:  BCF    FA6.7
026D6:  BSF    FA6.2
026D8:  MOVF   FF2,W
026DA:  MOVWF  00
026DC:  BCF    FF2.7
026DE:  MOVLB  F
026E0:  MOVLW  55
026E2:  MOVWF  FA7
026E4:  MOVLW  AA
026E6:  MOVWF  FA7
026E8:  BSF    FA6.1
026EA:  BTFSC  FA6.1
026EC:  BRA    26EA
026EE:  BCF    FA6.2
026F0:  MOVF   00,W
026F2:  IORWF  FF2,F
....................    } 
....................    if(Tpurgap[0]>9 || Tpurgap[0]<0){ 
026F4:  MOVLB  4
026F6:  BTFSC  xF8.7
026F8:  BRA    2700
026FA:  MOVF   xF8,W
026FC:  SUBLW  09
026FE:  BNC   2706
02700:  BTFSC  xF8.7
02702:  BRA    2706
02704:  BRA    2734
....................       Tpurgap[0]=0;write_eeprom(4,0); 
02706:  CLRF   xF8
02708:  CLRF   FAA
0270A:  MOVLW  04
0270C:  MOVWF  FA9
0270E:  CLRF   FA8
02710:  BCF    FA6.6
02712:  BCF    FA6.7
02714:  BSF    FA6.2
02716:  MOVF   FF2,W
02718:  MOVWF  00
0271A:  BCF    FF2.7
0271C:  MOVLB  F
0271E:  MOVLW  55
02720:  MOVWF  FA7
02722:  MOVLW  AA
02724:  MOVWF  FA7
02726:  BSF    FA6.1
02728:  BTFSC  FA6.1
0272A:  BRA    2728
0272C:  BCF    FA6.2
0272E:  MOVF   00,W
02730:  IORWF  FF2,F
02732:  MOVLB  4
....................    } 
....................    if(Tpurgap[1]>9 || Tpurgap[1]<0){ 
02734:  BTFSC  xF9.7
02736:  BRA    273E
02738:  MOVF   xF9,W
0273A:  SUBLW  09
0273C:  BNC   2744
0273E:  BTFSC  xF9.7
02740:  BRA    2744
02742:  BRA    2772
....................       Tpurgap[1]=0;write_eeprom(5,0); 
02744:  CLRF   xF9
02746:  CLRF   FAA
02748:  MOVLW  05
0274A:  MOVWF  FA9
0274C:  CLRF   FA8
0274E:  BCF    FA6.6
02750:  BCF    FA6.7
02752:  BSF    FA6.2
02754:  MOVF   FF2,W
02756:  MOVWF  00
02758:  BCF    FF2.7
0275A:  MOVLB  F
0275C:  MOVLW  55
0275E:  MOVWF  FA7
02760:  MOVLW  AA
02762:  MOVWF  FA7
02764:  BSF    FA6.1
02766:  BTFSC  FA6.1
02768:  BRA    2766
0276A:  BCF    FA6.2
0276C:  MOVF   00,W
0276E:  IORWF  FF2,F
02770:  MOVLB  4
....................    } 
....................    if(Tpurgap[2]>9 || Tpurgap[2]<0){ 
02772:  BTFSC  xFA.7
02774:  BRA    277C
02776:  MOVF   xFA,W
02778:  SUBLW  09
0277A:  BNC   2782
0277C:  BTFSC  xFA.7
0277E:  BRA    2782
02780:  BRA    27B4
....................       Tpurgap[2]=2;write_eeprom(6,2); 
02782:  MOVLW  02
02784:  MOVWF  xFA
02786:  CLRF   FAA
02788:  MOVLW  06
0278A:  MOVWF  FA9
0278C:  MOVLW  02
0278E:  MOVWF  FA8
02790:  BCF    FA6.6
02792:  BCF    FA6.7
02794:  BSF    FA6.2
02796:  MOVF   FF2,W
02798:  MOVWF  00
0279A:  BCF    FF2.7
0279C:  MOVLB  F
0279E:  MOVLW  55
027A0:  MOVWF  FA7
027A2:  MOVLW  AA
027A4:  MOVWF  FA7
027A6:  BSF    FA6.1
027A8:  BTFSC  FA6.1
027AA:  BRA    27A8
027AC:  BCF    FA6.2
027AE:  MOVF   00,W
027B0:  IORWF  FF2,F
027B2:  MOVLB  4
....................    } 
....................    if(Tpurgap[3]>9 || Tpurgap[3]<0){ 
027B4:  BTFSC  xFB.7
027B6:  BRA    27BE
027B8:  MOVF   xFB,W
027BA:  SUBLW  09
027BC:  BNC   27C4
027BE:  BTFSC  xFB.7
027C0:  BRA    27C4
027C2:  BRA    27F2
....................       Tpurgap[3]=0;write_eeprom(7,0); 
027C4:  CLRF   xFB
027C6:  CLRF   FAA
027C8:  MOVLW  07
027CA:  MOVWF  FA9
027CC:  CLRF   FA8
027CE:  BCF    FA6.6
027D0:  BCF    FA6.7
027D2:  BSF    FA6.2
027D4:  MOVF   FF2,W
027D6:  MOVWF  00
027D8:  BCF    FF2.7
027DA:  MOVLB  F
027DC:  MOVLW  55
027DE:  MOVWF  FA7
027E0:  MOVLW  AA
027E2:  MOVWF  FA7
027E4:  BSF    FA6.1
027E6:  BTFSC  FA6.1
027E8:  BRA    27E6
027EA:  BCF    FA6.2
027EC:  MOVF   00,W
027EE:  IORWF  FF2,F
027F0:  MOVLB  4
....................    } 
....................    if(Tppurgap[0]>9 || Tppurgap[0]<0){ 
027F2:  BTFSC  xFC.7
027F4:  BRA    27FC
027F6:  MOVF   xFC,W
027F8:  SUBLW  09
027FA:  BNC   2802
027FC:  BTFSC  xFC.7
027FE:  BRA    2802
02800:  BRA    2830
....................       Tppurgap[0]=0;write_eeprom(8,0); 
02802:  CLRF   xFC
02804:  CLRF   FAA
02806:  MOVLW  08
02808:  MOVWF  FA9
0280A:  CLRF   FA8
0280C:  BCF    FA6.6
0280E:  BCF    FA6.7
02810:  BSF    FA6.2
02812:  MOVF   FF2,W
02814:  MOVWF  00
02816:  BCF    FF2.7
02818:  MOVLB  F
0281A:  MOVLW  55
0281C:  MOVWF  FA7
0281E:  MOVLW  AA
02820:  MOVWF  FA7
02822:  BSF    FA6.1
02824:  BTFSC  FA6.1
02826:  BRA    2824
02828:  BCF    FA6.2
0282A:  MOVF   00,W
0282C:  IORWF  FF2,F
0282E:  MOVLB  4
....................    } 
....................    if(Tppurgap[1]>9 || Tppurgap[1]<0){ 
02830:  BTFSC  xFD.7
02832:  BRA    283A
02834:  MOVF   xFD,W
02836:  SUBLW  09
02838:  BNC   2840
0283A:  BTFSC  xFD.7
0283C:  BRA    2840
0283E:  BRA    286E
....................       Tppurgap[1]=0;write_eeprom(9,0); 
02840:  CLRF   xFD
02842:  CLRF   FAA
02844:  MOVLW  09
02846:  MOVWF  FA9
02848:  CLRF   FA8
0284A:  BCF    FA6.6
0284C:  BCF    FA6.7
0284E:  BSF    FA6.2
02850:  MOVF   FF2,W
02852:  MOVWF  00
02854:  BCF    FF2.7
02856:  MOVLB  F
02858:  MOVLW  55
0285A:  MOVWF  FA7
0285C:  MOVLW  AA
0285E:  MOVWF  FA7
02860:  BSF    FA6.1
02862:  BTFSC  FA6.1
02864:  BRA    2862
02866:  BCF    FA6.2
02868:  MOVF   00,W
0286A:  IORWF  FF2,F
0286C:  MOVLB  4
....................    } 
....................    if(Tppurgap[2]>9 || Tppurgap[2]<0){ 
0286E:  BTFSC  xFE.7
02870:  BRA    2878
02872:  MOVF   xFE,W
02874:  SUBLW  09
02876:  BNC   287E
02878:  BTFSC  xFE.7
0287A:  BRA    287E
0287C:  BRA    28B0
....................       Tppurgap[2]=2;write_eeprom(10,2); 
0287E:  MOVLW  02
02880:  MOVWF  xFE
02882:  CLRF   FAA
02884:  MOVLW  0A
02886:  MOVWF  FA9
02888:  MOVLW  02
0288A:  MOVWF  FA8
0288C:  BCF    FA6.6
0288E:  BCF    FA6.7
02890:  BSF    FA6.2
02892:  MOVF   FF2,W
02894:  MOVWF  00
02896:  BCF    FF2.7
02898:  MOVLB  F
0289A:  MOVLW  55
0289C:  MOVWF  FA7
0289E:  MOVLW  AA
028A0:  MOVWF  FA7
028A2:  BSF    FA6.1
028A4:  BTFSC  FA6.1
028A6:  BRA    28A4
028A8:  BCF    FA6.2
028AA:  MOVF   00,W
028AC:  IORWF  FF2,F
028AE:  MOVLB  4
....................    } 
....................    if(Tppurgap[3]>9 || Tppurgap[3]<0){ 
028B0:  BTFSC  xFF.7
028B2:  BRA    28BA
028B4:  MOVF   xFF,W
028B6:  SUBLW  09
028B8:  BNC   28C0
028BA:  BTFSC  xFF.7
028BC:  BRA    28C0
028BE:  BRA    28EC
....................       Tppurgap[3]=0;write_eeprom(11,0); 
028C0:  CLRF   xFF
028C2:  CLRF   FAA
028C4:  MOVLW  0B
028C6:  MOVWF  FA9
028C8:  CLRF   FA8
028CA:  BCF    FA6.6
028CC:  BCF    FA6.7
028CE:  BSF    FA6.2
028D0:  MOVF   FF2,W
028D2:  MOVWF  00
028D4:  BCF    FF2.7
028D6:  MOVLB  F
028D8:  MOVLW  55
028DA:  MOVWF  FA7
028DC:  MOVLW  AA
028DE:  MOVWF  FA7
028E0:  BSF    FA6.1
028E2:  BTFSC  FA6.1
028E4:  BRA    28E2
028E6:  BCF    FA6.2
028E8:  MOVF   00,W
028EA:  IORWF  FF2,F
....................    } 
....................    if(Tuv[0]>9 || Tuv[0]<0){ 
028EC:  MOVLB  5
028EE:  BTFSC  x00.7
028F0:  BRA    28F8
028F2:  MOVF   x00,W
028F4:  SUBLW  09
028F6:  BNC   28FE
028F8:  BTFSC  x00.7
028FA:  BRA    28FE
028FC:  BRA    292C
....................       Tuv[0]=0;write_eeprom(12,0); 
028FE:  CLRF   x00
02900:  CLRF   FAA
02902:  MOVLW  0C
02904:  MOVWF  FA9
02906:  CLRF   FA8
02908:  BCF    FA6.6
0290A:  BCF    FA6.7
0290C:  BSF    FA6.2
0290E:  MOVF   FF2,W
02910:  MOVWF  00
02912:  BCF    FF2.7
02914:  MOVLB  F
02916:  MOVLW  55
02918:  MOVWF  FA7
0291A:  MOVLW  AA
0291C:  MOVWF  FA7
0291E:  BSF    FA6.1
02920:  BTFSC  FA6.1
02922:  BRA    2920
02924:  BCF    FA6.2
02926:  MOVF   00,W
02928:  IORWF  FF2,F
0292A:  MOVLB  5
....................    } 
....................    if(Tuv[1]>9 || Tuv[1]<0){ 
0292C:  BTFSC  x01.7
0292E:  BRA    2936
02930:  MOVF   x01,W
02932:  SUBLW  09
02934:  BNC   293C
02936:  BTFSC  x01.7
02938:  BRA    293C
0293A:  BRA    296A
....................       Tuv[1]=0;write_eeprom(13,0); 
0293C:  CLRF   x01
0293E:  CLRF   FAA
02940:  MOVLW  0D
02942:  MOVWF  FA9
02944:  CLRF   FA8
02946:  BCF    FA6.6
02948:  BCF    FA6.7
0294A:  BSF    FA6.2
0294C:  MOVF   FF2,W
0294E:  MOVWF  00
02950:  BCF    FF2.7
02952:  MOVLB  F
02954:  MOVLW  55
02956:  MOVWF  FA7
02958:  MOVLW  AA
0295A:  MOVWF  FA7
0295C:  BSF    FA6.1
0295E:  BTFSC  FA6.1
02960:  BRA    295E
02962:  BCF    FA6.2
02964:  MOVF   00,W
02966:  IORWF  FF2,F
02968:  MOVLB  5
....................    } 
....................    if(Tuv[2]>9 || Tuv[2]<0){ 
0296A:  BTFSC  x02.7
0296C:  BRA    2974
0296E:  MOVF   x02,W
02970:  SUBLW  09
02972:  BNC   297A
02974:  BTFSC  x02.7
02976:  BRA    297A
02978:  BRA    29A8
....................       Tuv[2]=0;write_eeprom(14,0); 
0297A:  CLRF   x02
0297C:  CLRF   FAA
0297E:  MOVLW  0E
02980:  MOVWF  FA9
02982:  CLRF   FA8
02984:  BCF    FA6.6
02986:  BCF    FA6.7
02988:  BSF    FA6.2
0298A:  MOVF   FF2,W
0298C:  MOVWF  00
0298E:  BCF    FF2.7
02990:  MOVLB  F
02992:  MOVLW  55
02994:  MOVWF  FA7
02996:  MOVLW  AA
02998:  MOVWF  FA7
0299A:  BSF    FA6.1
0299C:  BTFSC  FA6.1
0299E:  BRA    299C
029A0:  BCF    FA6.2
029A2:  MOVF   00,W
029A4:  IORWF  FF2,F
029A6:  MOVLB  5
....................    } 
....................    if(Tuv[3]>9 || Tuv[3]<0){ 
029A8:  BTFSC  x03.7
029AA:  BRA    29B2
029AC:  MOVF   x03,W
029AE:  SUBLW  09
029B0:  BNC   29B8
029B2:  BTFSC  x03.7
029B4:  BRA    29B8
029B6:  BRA    29E6
....................       Tuv[3]=0;write_eeprom(15,0); 
029B8:  CLRF   x03
029BA:  CLRF   FAA
029BC:  MOVLW  0F
029BE:  MOVWF  FA9
029C0:  CLRF   FA8
029C2:  BCF    FA6.6
029C4:  BCF    FA6.7
029C6:  BSF    FA6.2
029C8:  MOVF   FF2,W
029CA:  MOVWF  00
029CC:  BCF    FF2.7
029CE:  MOVLB  F
029D0:  MOVLW  55
029D2:  MOVWF  FA7
029D4:  MOVLW  AA
029D6:  MOVWF  FA7
029D8:  BSF    FA6.1
029DA:  BTFSC  FA6.1
029DC:  BRA    29DA
029DE:  BCF    FA6.2
029E0:  MOVF   00,W
029E2:  IORWF  FF2,F
029E4:  MOVLB  5
....................    } 
....................    if(Ttrabajo[0]>9 || Ttrabajo[0]<0){ 
029E6:  BTFSC  x0C.7
029E8:  BRA    29F0
029EA:  MOVF   x0C,W
029EC:  SUBLW  09
029EE:  BNC   29F6
029F0:  BTFSC  x0C.7
029F2:  BRA    29F6
029F4:  BRA    2A24
....................       Ttrabajo[0]=0;write_eeprom(16,0); 
029F6:  CLRF   x0C
029F8:  CLRF   FAA
029FA:  MOVLW  10
029FC:  MOVWF  FA9
029FE:  CLRF   FA8
02A00:  BCF    FA6.6
02A02:  BCF    FA6.7
02A04:  BSF    FA6.2
02A06:  MOVF   FF2,W
02A08:  MOVWF  00
02A0A:  BCF    FF2.7
02A0C:  MOVLB  F
02A0E:  MOVLW  55
02A10:  MOVWF  FA7
02A12:  MOVLW  AA
02A14:  MOVWF  FA7
02A16:  BSF    FA6.1
02A18:  BTFSC  FA6.1
02A1A:  BRA    2A18
02A1C:  BCF    FA6.2
02A1E:  MOVF   00,W
02A20:  IORWF  FF2,F
02A22:  MOVLB  5
....................    } 
....................    if(Ttrabajo[1]>9 || Ttrabajo[1]<0){ 
02A24:  BTFSC  x0D.7
02A26:  BRA    2A2E
02A28:  MOVF   x0D,W
02A2A:  SUBLW  09
02A2C:  BNC   2A34
02A2E:  BTFSC  x0D.7
02A30:  BRA    2A34
02A32:  BRA    2A62
....................       Ttrabajo[1]=0;write_eeprom(17,0); 
02A34:  CLRF   x0D
02A36:  CLRF   FAA
02A38:  MOVLW  11
02A3A:  MOVWF  FA9
02A3C:  CLRF   FA8
02A3E:  BCF    FA6.6
02A40:  BCF    FA6.7
02A42:  BSF    FA6.2
02A44:  MOVF   FF2,W
02A46:  MOVWF  00
02A48:  BCF    FF2.7
02A4A:  MOVLB  F
02A4C:  MOVLW  55
02A4E:  MOVWF  FA7
02A50:  MOVLW  AA
02A52:  MOVWF  FA7
02A54:  BSF    FA6.1
02A56:  BTFSC  FA6.1
02A58:  BRA    2A56
02A5A:  BCF    FA6.2
02A5C:  MOVF   00,W
02A5E:  IORWF  FF2,F
02A60:  MOVLB  5
....................    } 
....................    if(Ttrabajo[2]>9 || Ttrabajo[2]<0){ 
02A62:  BTFSC  x0E.7
02A64:  BRA    2A6C
02A66:  MOVF   x0E,W
02A68:  SUBLW  09
02A6A:  BNC   2A72
02A6C:  BTFSC  x0E.7
02A6E:  BRA    2A72
02A70:  BRA    2AA0
....................       Ttrabajo[2]=0;write_eeprom(18,0); 
02A72:  CLRF   x0E
02A74:  CLRF   FAA
02A76:  MOVLW  12
02A78:  MOVWF  FA9
02A7A:  CLRF   FA8
02A7C:  BCF    FA6.6
02A7E:  BCF    FA6.7
02A80:  BSF    FA6.2
02A82:  MOVF   FF2,W
02A84:  MOVWF  00
02A86:  BCF    FF2.7
02A88:  MOVLB  F
02A8A:  MOVLW  55
02A8C:  MOVWF  FA7
02A8E:  MOVLW  AA
02A90:  MOVWF  FA7
02A92:  BSF    FA6.1
02A94:  BTFSC  FA6.1
02A96:  BRA    2A94
02A98:  BCF    FA6.2
02A9A:  MOVF   00,W
02A9C:  IORWF  FF2,F
02A9E:  MOVLB  5
....................    } 
....................    if(Ttrabajo[3]>9 || Ttrabajo[3]<0){ 
02AA0:  BTFSC  x0F.7
02AA2:  BRA    2AAA
02AA4:  MOVF   x0F,W
02AA6:  SUBLW  09
02AA8:  BNC   2AB0
02AAA:  BTFSC  x0F.7
02AAC:  BRA    2AB0
02AAE:  BRA    2ADE
....................       Ttrabajo[3]=0;write_eeprom(19,0); 
02AB0:  CLRF   x0F
02AB2:  CLRF   FAA
02AB4:  MOVLW  13
02AB6:  MOVWF  FA9
02AB8:  CLRF   FA8
02ABA:  BCF    FA6.6
02ABC:  BCF    FA6.7
02ABE:  BSF    FA6.2
02AC0:  MOVF   FF2,W
02AC2:  MOVWF  00
02AC4:  BCF    FF2.7
02AC6:  MOVLB  F
02AC8:  MOVLW  55
02ACA:  MOVWF  FA7
02ACC:  MOVLW  AA
02ACE:  MOVWF  FA7
02AD0:  BSF    FA6.1
02AD2:  BTFSC  FA6.1
02AD4:  BRA    2AD2
02AD6:  BCF    FA6.2
02AD8:  MOVF   00,W
02ADA:  IORWF  FF2,F
02ADC:  MOVLB  5
....................    } 
....................    if(Tempouvp[0]>9 || Tempouvp[0]<0){ 
02ADE:  BTFSC  x04.7
02AE0:  BRA    2AE8
02AE2:  MOVF   x04,W
02AE4:  SUBLW  09
02AE6:  BNC   2AEE
02AE8:  BTFSC  x04.7
02AEA:  BRA    2AEE
02AEC:  BRA    2B1C
....................       Tempouvp[0]=0;write_eeprom(21,0); 
02AEE:  CLRF   x04
02AF0:  CLRF   FAA
02AF2:  MOVLW  15
02AF4:  MOVWF  FA9
02AF6:  CLRF   FA8
02AF8:  BCF    FA6.6
02AFA:  BCF    FA6.7
02AFC:  BSF    FA6.2
02AFE:  MOVF   FF2,W
02B00:  MOVWF  00
02B02:  BCF    FF2.7
02B04:  MOVLB  F
02B06:  MOVLW  55
02B08:  MOVWF  FA7
02B0A:  MOVLW  AA
02B0C:  MOVWF  FA7
02B0E:  BSF    FA6.1
02B10:  BTFSC  FA6.1
02B12:  BRA    2B10
02B14:  BCF    FA6.2
02B16:  MOVF   00,W
02B18:  IORWF  FF2,F
02B1A:  MOVLB  5
....................    } 
....................    if(Tempouvp[1]>9 || Tempouvp[1]<0){ 
02B1C:  BTFSC  x05.7
02B1E:  BRA    2B26
02B20:  MOVF   x05,W
02B22:  SUBLW  09
02B24:  BNC   2B2C
02B26:  BTFSC  x05.7
02B28:  BRA    2B2C
02B2A:  BRA    2B5A
....................       Tempouvp[1]=0;write_eeprom(22,0); 
02B2C:  CLRF   x05
02B2E:  CLRF   FAA
02B30:  MOVLW  16
02B32:  MOVWF  FA9
02B34:  CLRF   FA8
02B36:  BCF    FA6.6
02B38:  BCF    FA6.7
02B3A:  BSF    FA6.2
02B3C:  MOVF   FF2,W
02B3E:  MOVWF  00
02B40:  BCF    FF2.7
02B42:  MOVLB  F
02B44:  MOVLW  55
02B46:  MOVWF  FA7
02B48:  MOVLW  AA
02B4A:  MOVWF  FA7
02B4C:  BSF    FA6.1
02B4E:  BTFSC  FA6.1
02B50:  BRA    2B4E
02B52:  BCF    FA6.2
02B54:  MOVF   00,W
02B56:  IORWF  FF2,F
02B58:  MOVLB  5
....................    } 
....................    if(Tempouvp[2]>9 || Tempouvp[2]<0){ 
02B5A:  BTFSC  x06.7
02B5C:  BRA    2B64
02B5E:  MOVF   x06,W
02B60:  SUBLW  09
02B62:  BNC   2B6A
02B64:  BTFSC  x06.7
02B66:  BRA    2B6A
02B68:  BRA    2B98
....................       Tempouvp[2]=0;write_eeprom(23,0); 
02B6A:  CLRF   x06
02B6C:  CLRF   FAA
02B6E:  MOVLW  17
02B70:  MOVWF  FA9
02B72:  CLRF   FA8
02B74:  BCF    FA6.6
02B76:  BCF    FA6.7
02B78:  BSF    FA6.2
02B7A:  MOVF   FF2,W
02B7C:  MOVWF  00
02B7E:  BCF    FF2.7
02B80:  MOVLB  F
02B82:  MOVLW  55
02B84:  MOVWF  FA7
02B86:  MOVLW  AA
02B88:  MOVWF  FA7
02B8A:  BSF    FA6.1
02B8C:  BTFSC  FA6.1
02B8E:  BRA    2B8C
02B90:  BCF    FA6.2
02B92:  MOVF   00,W
02B94:  IORWF  FF2,F
02B96:  MOVLB  5
....................    } 
....................    if(Tempouvp[3]>9 || Tempouvp[3]<0){ 
02B98:  BTFSC  x07.7
02B9A:  BRA    2BA2
02B9C:  MOVF   x07,W
02B9E:  SUBLW  09
02BA0:  BNC   2BA8
02BA2:  BTFSC  x07.7
02BA4:  BRA    2BA8
02BA6:  BRA    2BD8
....................       Tempouvp[3]=1;write_eeprom(24,1); 
02BA8:  MOVLW  01
02BAA:  MOVWF  x07
02BAC:  CLRF   FAA
02BAE:  MOVLW  18
02BB0:  MOVWF  FA9
02BB2:  MOVLW  01
02BB4:  MOVWF  FA8
02BB6:  BCF    FA6.6
02BB8:  BCF    FA6.7
02BBA:  BSF    FA6.2
02BBC:  MOVF   FF2,W
02BBE:  MOVWF  00
02BC0:  BCF    FF2.7
02BC2:  MOVLB  F
02BC4:  MOVLW  55
02BC6:  MOVWF  FA7
02BC8:  MOVLW  AA
02BCA:  MOVWF  FA7
02BCC:  BSF    FA6.1
02BCE:  BTFSC  FA6.1
02BD0:  BRA    2BCE
02BD2:  BCF    FA6.2
02BD4:  MOVF   00,W
02BD6:  IORWF  FF2,F
....................    } 
....................    if(Ajuste1>2.0){ 
02BD8:  MOVLB  6
02BDA:  CLRF   x20
02BDC:  CLRF   x1F
02BDE:  CLRF   x1E
02BE0:  MOVLW  80
02BE2:  MOVWF  x1D
02BE4:  MOVFF  543,624
02BE8:  MOVFF  542,623
02BEC:  MOVFF  541,622
02BF0:  MOVFF  540,621
02BF4:  MOVLB  0
02BF6:  RCALL  2584
02BF8:  BNC   2C5E
....................       Ajuste1=1.5;write_eeprom(25,1);write_eeprom(26,5); 
02BFA:  MOVLB  5
02BFC:  CLRF   x43
02BFE:  CLRF   x42
02C00:  MOVLW  40
02C02:  MOVWF  x41
02C04:  MOVLW  7F
02C06:  MOVWF  x40
02C08:  CLRF   FAA
02C0A:  MOVLW  19
02C0C:  MOVWF  FA9
02C0E:  MOVLW  01
02C10:  MOVWF  FA8
02C12:  BCF    FA6.6
02C14:  BCF    FA6.7
02C16:  BSF    FA6.2
02C18:  MOVF   FF2,W
02C1A:  MOVWF  00
02C1C:  BCF    FF2.7
02C1E:  MOVLB  F
02C20:  MOVLW  55
02C22:  MOVWF  FA7
02C24:  MOVLW  AA
02C26:  MOVWF  FA7
02C28:  BSF    FA6.1
02C2A:  BTFSC  FA6.1
02C2C:  BRA    2C2A
02C2E:  BCF    FA6.2
02C30:  MOVF   00,W
02C32:  IORWF  FF2,F
02C34:  CLRF   FAA
02C36:  MOVLW  1A
02C38:  MOVWF  FA9
02C3A:  MOVLW  05
02C3C:  MOVWF  FA8
02C3E:  BCF    FA6.6
02C40:  BCF    FA6.7
02C42:  BSF    FA6.2
02C44:  MOVF   FF2,W
02C46:  MOVWF  00
02C48:  BCF    FF2.7
02C4A:  MOVLW  55
02C4C:  MOVWF  FA7
02C4E:  MOVLW  AA
02C50:  MOVWF  FA7
02C52:  BSF    FA6.1
02C54:  BTFSC  FA6.1
02C56:  BRA    2C54
02C58:  BCF    FA6.2
02C5A:  MOVF   00,W
02C5C:  IORWF  FF2,F
....................    } 
....................    if(Ajuste2>2.0){ 
02C5E:  MOVLB  6
02C60:  CLRF   x20
02C62:  CLRF   x1F
02C64:  CLRF   x1E
02C66:  MOVLW  80
02C68:  MOVWF  x1D
02C6A:  MOVFF  547,624
02C6E:  MOVFF  546,623
02C72:  MOVFF  545,622
02C76:  MOVFF  544,621
02C7A:  MOVLB  0
02C7C:  RCALL  2584
02C7E:  BNC   2CE0
....................       Ajuste2=1.0;write_eeprom(27,1);write_eeprom(28,0); 
02C80:  MOVLB  5
02C82:  CLRF   x47
02C84:  CLRF   x46
02C86:  CLRF   x45
02C88:  MOVLW  7F
02C8A:  MOVWF  x44
02C8C:  CLRF   FAA
02C8E:  MOVLW  1B
02C90:  MOVWF  FA9
02C92:  MOVLW  01
02C94:  MOVWF  FA8
02C96:  BCF    FA6.6
02C98:  BCF    FA6.7
02C9A:  BSF    FA6.2
02C9C:  MOVF   FF2,W
02C9E:  MOVWF  00
02CA0:  BCF    FF2.7
02CA2:  MOVLB  F
02CA4:  MOVLW  55
02CA6:  MOVWF  FA7
02CA8:  MOVLW  AA
02CAA:  MOVWF  FA7
02CAC:  BSF    FA6.1
02CAE:  BTFSC  FA6.1
02CB0:  BRA    2CAE
02CB2:  BCF    FA6.2
02CB4:  MOVF   00,W
02CB6:  IORWF  FF2,F
02CB8:  CLRF   FAA
02CBA:  MOVLW  1C
02CBC:  MOVWF  FA9
02CBE:  CLRF   FA8
02CC0:  BCF    FA6.6
02CC2:  BCF    FA6.7
02CC4:  BSF    FA6.2
02CC6:  MOVF   FF2,W
02CC8:  MOVWF  00
02CCA:  BCF    FF2.7
02CCC:  MOVLW  55
02CCE:  MOVWF  FA7
02CD0:  MOVLW  AA
02CD2:  MOVWF  FA7
02CD4:  BSF    FA6.1
02CD6:  BTFSC  FA6.1
02CD8:  BRA    2CD6
02CDA:  BCF    FA6.2
02CDC:  MOVF   00,W
02CDE:  IORWF  FF2,F
....................    } 
....................    if(zero_actual>300){ 
02CE0:  MOVLB  6
02CE2:  CLRF   x20
02CE4:  CLRF   x1F
02CE6:  MOVLW  16
02CE8:  MOVWF  x1E
02CEA:  MOVLW  87
02CEC:  MOVWF  x1D
02CEE:  MOVFF  5CB,624
02CF2:  MOVFF  5CA,623
02CF6:  MOVFF  5C9,622
02CFA:  MOVFF  5C8,621
02CFE:  MOVLB  0
02D00:  RCALL  2584
02D02:  BNC   2D66
....................       zero_actual=203;write_eeprom(29,203);write_eeprom(30,0); 
02D04:  MOVLB  5
02D06:  CLRF   xCB
02D08:  CLRF   xCA
02D0A:  MOVLW  4B
02D0C:  MOVWF  xC9
02D0E:  MOVLW  86
02D10:  MOVWF  xC8
02D12:  CLRF   FAA
02D14:  MOVLW  1D
02D16:  MOVWF  FA9
02D18:  MOVLW  CB
02D1A:  MOVWF  FA8
02D1C:  BCF    FA6.6
02D1E:  BCF    FA6.7
02D20:  BSF    FA6.2
02D22:  MOVF   FF2,W
02D24:  MOVWF  00
02D26:  BCF    FF2.7
02D28:  MOVLB  F
02D2A:  MOVLW  55
02D2C:  MOVWF  FA7
02D2E:  MOVLW  AA
02D30:  MOVWF  FA7
02D32:  BSF    FA6.1
02D34:  BTFSC  FA6.1
02D36:  BRA    2D34
02D38:  BCF    FA6.2
02D3A:  MOVF   00,W
02D3C:  IORWF  FF2,F
02D3E:  CLRF   FAA
02D40:  MOVLW  1E
02D42:  MOVWF  FA9
02D44:  CLRF   FA8
02D46:  BCF    FA6.6
02D48:  BCF    FA6.7
02D4A:  BSF    FA6.2
02D4C:  MOVF   FF2,W
02D4E:  MOVWF  00
02D50:  BCF    FF2.7
02D52:  MOVLW  55
02D54:  MOVWF  FA7
02D56:  MOVLW  AA
02D58:  MOVWF  FA7
02D5A:  BSF    FA6.1
02D5C:  BTFSC  FA6.1
02D5E:  BRA    2D5C
02D60:  BCF    FA6.2
02D62:  MOVF   00,W
02D64:  IORWF  FF2,F
....................    } 
....................    if(minutos_uv>60){ 
02D66:  MOVLB  4
02D68:  MOVF   xE5,F
02D6A:  BNZ   2D72
02D6C:  MOVF   xE4,W
02D6E:  SUBLW  3C
02D70:  BC    2DA0
....................       minutos_uv=0;write_eeprom(31,0); 
02D72:  CLRF   xE5
02D74:  CLRF   xE4
02D76:  CLRF   FAA
02D78:  MOVLW  1F
02D7A:  MOVWF  FA9
02D7C:  CLRF   FA8
02D7E:  BCF    FA6.6
02D80:  BCF    FA6.7
02D82:  BSF    FA6.2
02D84:  MOVF   FF2,W
02D86:  MOVWF  00
02D88:  BCF    FF2.7
02D8A:  MOVLB  F
02D8C:  MOVLW  55
02D8E:  MOVWF  FA7
02D90:  MOVLW  AA
02D92:  MOVWF  FA7
02D94:  BSF    FA6.1
02D96:  BTFSC  FA6.1
02D98:  BRA    2D96
02D9A:  BCF    FA6.2
02D9C:  MOVF   00,W
02D9E:  IORWF  FF2,F
....................    } 
....................    if(VelMotor>6){ 
02DA0:  MOVLB  5
02DA2:  MOVF   xE3,W
02DA4:  SUBLW  06
02DA6:  BC    2DD8
....................       VelMotor=2;write_eeprom(32,2); 
02DA8:  MOVLW  02
02DAA:  MOVWF  xE3
02DAC:  CLRF   FAA
02DAE:  MOVLW  20
02DB0:  MOVWF  FA9
02DB2:  MOVLW  02
02DB4:  MOVWF  FA8
02DB6:  BCF    FA6.6
02DB8:  BCF    FA6.7
02DBA:  BSF    FA6.2
02DBC:  MOVF   FF2,W
02DBE:  MOVWF  00
02DC0:  BCF    FF2.7
02DC2:  MOVLB  F
02DC4:  MOVLW  55
02DC6:  MOVWF  FA7
02DC8:  MOVLW  AA
02DCA:  MOVWF  FA7
02DCC:  BSF    FA6.1
02DCE:  BTFSC  FA6.1
02DD0:  BRA    2DCE
02DD2:  BCF    FA6.2
02DD4:  MOVF   00,W
02DD6:  IORWF  FF2,F
....................    }    
....................    if(minutos_trabajo>3600){ 
02DD8:  MOVLB  4
02DDA:  MOVF   xE7,W
02DDC:  SUBLW  0D
02DDE:  BC    2E40
02DE0:  XORLW  FF
02DE2:  BNZ   2DEA
02DE4:  MOVF   xE6,W
02DE6:  SUBLW  10
02DE8:  BC    2E40
....................       minutos_trabajo=0;write_eeprom(33,0);write_eeprom(34,0); 
02DEA:  CLRF   xE7
02DEC:  CLRF   xE6
02DEE:  CLRF   FAA
02DF0:  MOVLW  21
02DF2:  MOVWF  FA9
02DF4:  CLRF   FA8
02DF6:  BCF    FA6.6
02DF8:  BCF    FA6.7
02DFA:  BSF    FA6.2
02DFC:  MOVF   FF2,W
02DFE:  MOVWF  00
02E00:  BCF    FF2.7
02E02:  MOVLB  F
02E04:  MOVLW  55
02E06:  MOVWF  FA7
02E08:  MOVLW  AA
02E0A:  MOVWF  FA7
02E0C:  BSF    FA6.1
02E0E:  BTFSC  FA6.1
02E10:  BRA    2E0E
02E12:  BCF    FA6.2
02E14:  MOVF   00,W
02E16:  IORWF  FF2,F
02E18:  CLRF   FAA
02E1A:  MOVLW  22
02E1C:  MOVWF  FA9
02E1E:  CLRF   FA8
02E20:  BCF    FA6.6
02E22:  BCF    FA6.7
02E24:  BSF    FA6.2
02E26:  MOVF   FF2,W
02E28:  MOVWF  00
02E2A:  BCF    FF2.7
02E2C:  MOVLW  55
02E2E:  MOVWF  FA7
02E30:  MOVLW  AA
02E32:  MOVWF  FA7
02E34:  BSF    FA6.1
02E36:  BTFSC  FA6.1
02E38:  BRA    2E36
02E3A:  BCF    FA6.2
02E3C:  MOVF   00,W
02E3E:  IORWF  FF2,F
....................    } 
....................    //if(Relacion>2.0){ 
....................       //Relacion=0.57;write_eeprom(35,0);write_eeprom(36,57); 
....................    //} 
....................    if(Diferencia>200){ 
02E40:  MOVLB  6
02E42:  CLRF   x20
02E44:  CLRF   x1F
02E46:  MOVLW  48
02E48:  MOVWF  x1E
02E4A:  MOVLW  86
02E4C:  MOVWF  x1D
02E4E:  MOVFF  527,624
02E52:  MOVFF  526,623
02E56:  MOVFF  525,622
02E5A:  MOVFF  524,621
02E5E:  MOVLB  0
02E60:  CALL   2584
02E64:  BNC   2EC2
....................       Diferencia=0;write_eeprom(60,0);write_eeprom(61,0); 
02E66:  MOVLB  5
02E68:  CLRF   x27
02E6A:  CLRF   x26
02E6C:  CLRF   x25
02E6E:  CLRF   x24
02E70:  CLRF   FAA
02E72:  MOVLW  3C
02E74:  MOVWF  FA9
02E76:  CLRF   FA8
02E78:  BCF    FA6.6
02E7A:  BCF    FA6.7
02E7C:  BSF    FA6.2
02E7E:  MOVF   FF2,W
02E80:  MOVWF  00
02E82:  BCF    FF2.7
02E84:  MOVLB  F
02E86:  MOVLW  55
02E88:  MOVWF  FA7
02E8A:  MOVLW  AA
02E8C:  MOVWF  FA7
02E8E:  BSF    FA6.1
02E90:  BTFSC  FA6.1
02E92:  BRA    2E90
02E94:  BCF    FA6.2
02E96:  MOVF   00,W
02E98:  IORWF  FF2,F
02E9A:  CLRF   FAA
02E9C:  MOVLW  3D
02E9E:  MOVWF  FA9
02EA0:  CLRF   FA8
02EA2:  BCF    FA6.6
02EA4:  BCF    FA6.7
02EA6:  BSF    FA6.2
02EA8:  MOVF   FF2,W
02EAA:  MOVWF  00
02EAC:  BCF    FF2.7
02EAE:  MOVLW  55
02EB0:  MOVWF  FA7
02EB2:  MOVLW  AA
02EB4:  MOVWF  FA7
02EB6:  BSF    FA6.1
02EB8:  BTFSC  FA6.1
02EBA:  BRA    2EB8
02EBC:  BCF    FA6.2
02EBE:  MOVF   00,W
02EC0:  IORWF  FF2,F
....................    } 
....................    if(G<180 || G>350){ 
02EC2:  MOVFF  5D7,620
02EC6:  MOVFF  5D6,61F
02ECA:  MOVFF  5D5,61E
02ECE:  MOVFF  5D4,61D
02ED2:  MOVLB  6
02ED4:  CLRF   x24
02ED6:  CLRF   x23
02ED8:  MOVLW  34
02EDA:  MOVWF  x22
02EDC:  MOVLW  86
02EDE:  MOVWF  x21
02EE0:  MOVLB  0
02EE2:  CALL   2584
02EE6:  BC    2F0E
02EE8:  MOVLB  6
02EEA:  CLRF   x20
02EEC:  CLRF   x1F
02EEE:  MOVLW  2F
02EF0:  MOVWF  x1E
02EF2:  MOVLW  87
02EF4:  MOVWF  x1D
02EF6:  MOVFF  5D7,624
02EFA:  MOVFF  5D6,623
02EFE:  MOVFF  5D5,622
02F02:  MOVFF  5D4,621
02F06:  MOVLB  0
02F08:  CALL   2584
02F0C:  BNC   2F70
....................       G=240;write_eeprom(62,240);write_eeprom(63,0); 
02F0E:  MOVLB  5
02F10:  CLRF   xD7
02F12:  CLRF   xD6
02F14:  MOVLW  70
02F16:  MOVWF  xD5
02F18:  MOVLW  86
02F1A:  MOVWF  xD4
02F1C:  CLRF   FAA
02F1E:  MOVLW  3E
02F20:  MOVWF  FA9
02F22:  MOVLW  F0
02F24:  MOVWF  FA8
02F26:  BCF    FA6.6
02F28:  BCF    FA6.7
02F2A:  BSF    FA6.2
02F2C:  MOVF   FF2,W
02F2E:  MOVWF  00
02F30:  BCF    FF2.7
02F32:  MOVLB  F
02F34:  MOVLW  55
02F36:  MOVWF  FA7
02F38:  MOVLW  AA
02F3A:  MOVWF  FA7
02F3C:  BSF    FA6.1
02F3E:  BTFSC  FA6.1
02F40:  BRA    2F3E
02F42:  BCF    FA6.2
02F44:  MOVF   00,W
02F46:  IORWF  FF2,F
02F48:  CLRF   FAA
02F4A:  MOVLW  3F
02F4C:  MOVWF  FA9
02F4E:  CLRF   FA8
02F50:  BCF    FA6.6
02F52:  BCF    FA6.7
02F54:  BSF    FA6.2
02F56:  MOVF   FF2,W
02F58:  MOVWF  00
02F5A:  BCF    FF2.7
02F5C:  MOVLW  55
02F5E:  MOVWF  FA7
02F60:  MOVLW  AA
02F62:  MOVWF  FA7
02F64:  BSF    FA6.1
02F66:  BTFSC  FA6.1
02F68:  BRA    2F66
02F6A:  BCF    FA6.2
02F6C:  MOVF   00,W
02F6E:  IORWF  FF2,F
....................    } 
....................    if(negativo>20){ 
02F70:  MOVLB  4
02F72:  MOVF   xCF,W
02F74:  SUBLW  14
02F76:  BC    2FAA
....................       negativo=10;write_eeprom(50,10); 
02F78:  MOVLW  0A
02F7A:  MOVWF  xCF
02F7C:  CLRF   FAA
02F7E:  MOVLW  32
02F80:  MOVWF  FA9
02F82:  MOVLW  0A
02F84:  MOVWF  FA8
02F86:  BCF    FA6.6
02F88:  BCF    FA6.7
02F8A:  BSF    FA6.2
02F8C:  MOVF   FF2,W
02F8E:  MOVWF  00
02F90:  BCF    FF2.7
02F92:  MOVLB  F
02F94:  MOVLW  55
02F96:  MOVWF  FA7
02F98:  MOVLW  AA
02F9A:  MOVWF  FA7
02F9C:  BSF    FA6.1
02F9E:  BTFSC  FA6.1
02FA0:  BRA    2F9E
02FA2:  BCF    FA6.2
02FA4:  MOVF   00,W
02FA6:  IORWF  FF2,F
02FA8:  MOVLB  4
....................    } 
.................... } 
02FAA:  MOVLB  0
02FAC:  GOTO   6706 (RETURN)
....................  
.................... void VelocidadMotor(int8 Vel){ 
....................    if(Vel==6){ 
*
01502:  MOVLB  5
01504:  MOVF   xEC,W
01506:  SUBLW  06
01508:  BNZ   1512
....................       Porcentaje=0; 
0150A:  CLRF   xE2
....................       Motor_on; 
0150C:  BSF    F8B.2
0150E:  BCF    F94.2
....................    }else if(Vel==5){ 
01510:  BRA    1580
01512:  MOVF   xEC,W
01514:  SUBLW  05
01516:  BNZ   1526
....................       Porcentaje=15; 
01518:  MOVLW  0F
0151A:  MOVWF  xE2
....................       retardo=2000; 
0151C:  MOVLW  07
0151E:  MOVWF  xDB
01520:  MOVLW  D0
01522:  MOVWF  xDA
....................    }else if(Vel==4){ 
01524:  BRA    1580
01526:  MOVF   xEC,W
01528:  SUBLW  04
0152A:  BNZ   153A
....................       Porcentaje=25; 
0152C:  MOVLW  19
0152E:  MOVWF  xE2
....................       retardo=3000; 
01530:  MOVLW  0B
01532:  MOVWF  xDB
01534:  MOVLW  B8
01536:  MOVWF  xDA
....................    }else if(Vel==3){ 
01538:  BRA    1580
0153A:  MOVF   xEC,W
0153C:  SUBLW  03
0153E:  BNZ   154E
....................       Porcentaje=35; 
01540:  MOVLW  23
01542:  MOVWF  xE2
....................       retardo=3600; 
01544:  MOVLW  0E
01546:  MOVWF  xDB
01548:  MOVLW  10
0154A:  MOVWF  xDA
....................    }else if(Vel==2){ 
0154C:  BRA    1580
0154E:  MOVF   xEC,W
01550:  SUBLW  02
01552:  BNZ   1562
....................       Porcentaje=45; 
01554:  MOVLW  2D
01556:  MOVWF  xE2
....................       retardo=4300; 
01558:  MOVLW  10
0155A:  MOVWF  xDB
0155C:  MOVLW  CC
0155E:  MOVWF  xDA
....................    }else if(Vel==1){ 
01560:  BRA    1580
01562:  DECFSZ xEC,W
01564:  BRA    1574
....................       Porcentaje=50; 
01566:  MOVLW  32
01568:  MOVWF  xE2
....................       retardo=5000; 
0156A:  MOVLW  13
0156C:  MOVWF  xDB
0156E:  MOVLW  88
01570:  MOVWF  xDA
....................    }else if(Vel==0){ 
01572:  BRA    1580
01574:  MOVF   xEC,F
01576:  BNZ   1580
....................       Porcentaje=100; 
01578:  MOVLW  64
0157A:  MOVWF  xE2
....................       Motor_off; 
0157C:  BCF    F8B.2
0157E:  BCF    F94.2
....................    } 
.................... } 
01580:  MOVLB  0
01582:  RETLW  00
....................  
.................... short PidePassword(int8 MenuAnt, int8 MenuActual, int8 MenuPost, int8 clave0,int8 clave1, int8 clave2,int8 clave3){ 
....................       if(n==0) 
*
04F72:  MOVLB  4
04F74:  BTFSC  x2E.5
04F76:  BRA    500E
....................       { 
....................          displayContrasena(Contrasena[0],20,30,1);displayContrasena(Contrasena[1],40,30,0); 
04F78:  MOVFF  510,5F6
04F7C:  MOVLW  14
04F7E:  MOVLB  5
04F80:  MOVWF  xF7
04F82:  MOVLW  1E
04F84:  MOVWF  xF8
04F86:  MOVLW  01
04F88:  MOVWF  xF9
04F8A:  MOVLB  0
04F8C:  RCALL  4DC2
04F8E:  MOVFF  511,5F6
04F92:  MOVLW  28
04F94:  MOVLB  5
04F96:  MOVWF  xF7
04F98:  MOVLW  1E
04F9A:  MOVWF  xF8
04F9C:  CLRF   xF9
04F9E:  MOVLB  0
04FA0:  RCALL  4DC2
....................          displayContrasena(Contrasena[2],60,30,0);displayContrasena(Contrasena[0],80,30,0); 
04FA2:  MOVFF  512,5F6
04FA6:  MOVLW  3C
04FA8:  MOVLB  5
04FAA:  MOVWF  xF7
04FAC:  MOVLW  1E
04FAE:  MOVWF  xF8
04FB0:  CLRF   xF9
04FB2:  MOVLB  0
04FB4:  RCALL  4DC2
04FB6:  MOVFF  510,5F6
04FBA:  MOVLW  50
04FBC:  MOVLB  5
04FBE:  MOVWF  xF7
04FC0:  MOVLW  1E
04FC2:  MOVWF  xF8
04FC4:  CLRF   xF9
04FC6:  MOVLB  0
04FC8:  RCALL  4DC2
....................          strcpy(Menus.Letra,"Clave"); 
04FCA:  MOVLW  04
04FCC:  MOVWF  FEA
04FCE:  MOVLW  16
04FD0:  MOVWF  FE9
04FD2:  MOVFF  FF2,5F4
04FD6:  BCF    FF2.7
04FD8:  MOVLW  00
04FDA:  CALL   0EEE
04FDE:  TBLRD*-
04FE0:  TBLRD*+
04FE2:  MOVF   FF5,W
04FE4:  MOVWF  FEE
04FE6:  IORLW  00
04FE8:  BNZ   4FE0
04FEA:  MOVLB  5
04FEC:  BTFSC  xF4.7
04FEE:  BSF    FF2.7
....................          displayMenu(Menus.Letra,20,0,1,3); 
04FF0:  MOVLW  04
04FF2:  MOVWF  xF5
04FF4:  MOVLW  16
04FF6:  MOVWF  xF4
04FF8:  MOVLW  14
04FFA:  MOVWF  xF6
04FFC:  CLRF   xF7
04FFE:  MOVLW  01
05000:  MOVWF  xF8
05002:  MOVLW  03
05004:  MOVWF  xF9
05006:  MOVLB  0
05008:  RCALL  4E96
....................          n=1; 
0500A:  MOVLB  4
0500C:  BSF    x2E.5
....................       } 
....................        
....................       if(UP){ 
0500E:  BSF    F92.5
05010:  BTFSC  F80.5
05012:  BRA    50EE
....................          flag_latencia=0;t_latencia=0; 
05014:  BCF    x2D.6
05016:  CLRF   xE3
05018:  CLRF   xE2
....................          if(Flanco == 0){ 
0501A:  BTFSC  x2C.0
0501C:  BRA    50EC
....................             Flanco = 1;delay_ms(5); 
0501E:  BSF    x2C.0
05020:  MOVLW  05
05022:  MOVLB  6
05024:  MOVWF  x00
05026:  MOVLB  0
05028:  CALL   14DC
....................             for(i=1;i<=4;i++){ 
0502C:  MOVLW  01
0502E:  MOVLB  5
05030:  MOVWF  xDC
05032:  MOVF   xDC,W
05034:  SUBLW  04
05036:  BNC   50EA
....................                if(unidad==i){ 
05038:  MOVF   xDC,W
0503A:  MOVLB  4
0503C:  SUBWF  xCD,W
0503E:  BNZ   50B4
....................                   Contrasena[i-1]++; 
05040:  MOVLW  01
05042:  MOVLB  5
05044:  SUBWF  xDC,W
05046:  CLRF   03
05048:  ADDLW  10
0504A:  MOVWF  FE9
0504C:  MOVLW  05
0504E:  ADDWFC 03,W
05050:  MOVWF  FEA
05052:  INCF   FEF,F
....................                   if(Contrasena[i-1]>9){ 
05054:  MOVLW  01
05056:  SUBWF  xDC,W
05058:  CLRF   03
0505A:  ADDLW  10
0505C:  MOVWF  FE9
0505E:  MOVLW  05
05060:  ADDWFC 03,W
05062:  MOVWF  FEA
05064:  BTFSC  FEF.7
05066:  BRA    5080
05068:  MOVF   FEF,W
0506A:  SUBLW  09
0506C:  BC    5080
....................                      Contrasena[i-1]=0; 
0506E:  MOVLW  01
05070:  SUBWF  xDC,W
05072:  CLRF   03
05074:  ADDLW  10
05076:  MOVWF  FE9
05078:  MOVLW  05
0507A:  ADDWFC 03,W
0507C:  MOVWF  FEA
0507E:  CLRF   FEF
....................                   } 
....................                   displayContrasena(Contrasena[i-1],i*20,30,1); 
05080:  MOVLW  01
05082:  SUBWF  xDC,W
05084:  CLRF   03
05086:  ADDLW  10
05088:  MOVWF  FE9
0508A:  MOVLW  05
0508C:  ADDWFC 03,W
0508E:  MOVWF  FEA
05090:  MOVFF  FEF,5F4
05094:  MOVF   xDC,W
05096:  MULLW  14
05098:  MOVFF  FF3,5F5
0509C:  MOVFF  5F4,5F6
050A0:  MOVFF  5F5,5F7
050A4:  MOVLW  1E
050A6:  MOVWF  xF8
050A8:  MOVLW  01
050AA:  MOVWF  xF9
050AC:  MOVLB  0
050AE:  RCALL  4DC2
....................                }else{ 
050B0:  BRA    50E4
050B2:  MOVLB  4
....................                   displayContrasena(Contrasena[i-1],i*20,30,0); 
050B4:  MOVLW  01
050B6:  MOVLB  5
050B8:  SUBWF  xDC,W
050BA:  CLRF   03
050BC:  ADDLW  10
050BE:  MOVWF  FE9
050C0:  MOVLW  05
050C2:  ADDWFC 03,W
050C4:  MOVWF  FEA
050C6:  MOVFF  FEF,5F4
050CA:  MOVF   xDC,W
050CC:  MULLW  14
050CE:  MOVFF  FF3,5F5
050D2:  MOVFF  5F4,5F6
050D6:  MOVFF  5F5,5F7
050DA:  MOVLW  1E
050DC:  MOVWF  xF8
050DE:  CLRF   xF9
050E0:  MOVLB  0
050E2:  RCALL  4DC2
....................                } 
....................             } 
050E4:  MOVLB  5
050E6:  INCF   xDC,F
050E8:  BRA    5032
050EA:  MOVLB  4
....................          } 
....................       }else{ 
050EC:  BRA    50F0
....................          Flanco = 0; 
050EE:  BCF    x2C.0
....................       } 
....................              
....................       if(DOWN){ 
050F0:  BSF    F96.0
050F2:  BTFSC  F84.0
050F4:  BRA    51CC
....................          flag_latencia=0;t_latencia=0; 
050F6:  BCF    x2D.6
050F8:  CLRF   xE3
050FA:  CLRF   xE2
....................          if(Flanco2 == 0){ 
050FC:  BTFSC  x2C.2
050FE:  BRA    51CA
....................             Flanco2 = 1;delay_ms(5); 
05100:  BSF    x2C.2
05102:  MOVLW  05
05104:  MOVLB  6
05106:  MOVWF  x00
05108:  MOVLB  0
0510A:  CALL   14DC
....................             for(i=1;i<=4;i++){ 
0510E:  MOVLW  01
05110:  MOVLB  5
05112:  MOVWF  xDC
05114:  MOVF   xDC,W
05116:  SUBLW  04
05118:  BNC   51C8
....................                if(unidad==i){ 
0511A:  MOVF   xDC,W
0511C:  MOVLB  4
0511E:  SUBWF  xCD,W
05120:  BNZ   5192
....................                   Contrasena[i-1]--; 
05122:  MOVLW  01
05124:  MOVLB  5
05126:  SUBWF  xDC,W
05128:  CLRF   03
0512A:  ADDLW  10
0512C:  MOVWF  FE9
0512E:  MOVLW  05
05130:  ADDWFC 03,W
05132:  MOVWF  FEA
05134:  DECF   FEF,F
....................                   if(Contrasena[i-1]<0){ 
05136:  MOVLW  01
05138:  SUBWF  xDC,W
0513A:  CLRF   03
0513C:  ADDLW  10
0513E:  MOVWF  FE9
05140:  MOVLW  05
05142:  ADDWFC 03,W
05144:  MOVWF  FEA
05146:  BTFSS  FEF.7
05148:  BRA    515E
....................                      Contrasena[i-1]=9; 
0514A:  MOVLW  01
0514C:  SUBWF  xDC,W
0514E:  CLRF   03
05150:  ADDLW  10
05152:  MOVWF  FE9
05154:  MOVLW  05
05156:  ADDWFC 03,W
05158:  MOVWF  FEA
0515A:  MOVLW  09
0515C:  MOVWF  FEF
....................                   } 
....................                   displayContrasena(Contrasena[i-1],i*20,30,1); 
0515E:  MOVLW  01
05160:  SUBWF  xDC,W
05162:  CLRF   03
05164:  ADDLW  10
05166:  MOVWF  FE9
05168:  MOVLW  05
0516A:  ADDWFC 03,W
0516C:  MOVWF  FEA
0516E:  MOVFF  FEF,5F4
05172:  MOVF   xDC,W
05174:  MULLW  14
05176:  MOVFF  FF3,5F5
0517A:  MOVFF  5F4,5F6
0517E:  MOVFF  5F5,5F7
05182:  MOVLW  1E
05184:  MOVWF  xF8
05186:  MOVLW  01
05188:  MOVWF  xF9
0518A:  MOVLB  0
0518C:  RCALL  4DC2
....................                }else{ 
0518E:  BRA    51C2
05190:  MOVLB  4
....................                   displayContrasena(Contrasena[i-1],i*20,30,0); 
05192:  MOVLW  01
05194:  MOVLB  5
05196:  SUBWF  xDC,W
05198:  CLRF   03
0519A:  ADDLW  10
0519C:  MOVWF  FE9
0519E:  MOVLW  05
051A0:  ADDWFC 03,W
051A2:  MOVWF  FEA
051A4:  MOVFF  FEF,5F4
051A8:  MOVF   xDC,W
051AA:  MULLW  14
051AC:  MOVFF  FF3,5F5
051B0:  MOVFF  5F4,5F6
051B4:  MOVFF  5F5,5F7
051B8:  MOVLW  1E
051BA:  MOVWF  xF8
051BC:  CLRF   xF9
051BE:  MOVLB  0
051C0:  RCALL  4DC2
....................                } 
....................             }       
051C2:  MOVLB  5
051C4:  INCF   xDC,F
051C6:  BRA    5114
051C8:  MOVLB  4
....................          }      
....................       }else{ 
051CA:  BRA    51CE
....................          Flanco2 = 0; 
051CC:  BCF    x2C.2
....................       } 
....................              
....................       if(RIGHT){ 
051CE:  BSF    F96.1
051D0:  BTFSC  F84.1
051D2:  BRA    5274
....................          flag_latencia=0;t_latencia=0; 
051D4:  BCF    x2D.6
051D6:  CLRF   xE3
051D8:  CLRF   xE2
....................          if(Flanco1 == 0){ 
051DA:  BTFSC  x2C.1
051DC:  BRA    5272
....................             Flanco1 = 1;delay_ms(5);unidad++; 
051DE:  BSF    x2C.1
051E0:  MOVLW  05
051E2:  MOVLB  6
051E4:  MOVWF  x00
051E6:  MOVLB  0
051E8:  CALL   14DC
051EC:  MOVLB  4
051EE:  INCF   xCD,F
....................             for(i=1;i<=4;i++){ 
051F0:  MOVLW  01
051F2:  MOVLB  5
051F4:  MOVWF  xDC
051F6:  MOVF   xDC,W
051F8:  SUBLW  04
051FA:  BNC   5270
....................                if(unidad==i){ 
051FC:  MOVF   xDC,W
051FE:  MOVLB  4
05200:  SUBWF  xCD,W
05202:  BNZ   523A
....................                   displayContrasena(Contrasena[i-1],i*20,30,1); 
05204:  MOVLW  01
05206:  MOVLB  5
05208:  SUBWF  xDC,W
0520A:  CLRF   03
0520C:  ADDLW  10
0520E:  MOVWF  FE9
05210:  MOVLW  05
05212:  ADDWFC 03,W
05214:  MOVWF  FEA
05216:  MOVFF  FEF,5F4
0521A:  MOVF   xDC,W
0521C:  MULLW  14
0521E:  MOVFF  FF3,5F5
05222:  MOVFF  5F4,5F6
05226:  MOVFF  5F5,5F7
0522A:  MOVLW  1E
0522C:  MOVWF  xF8
0522E:  MOVLW  01
05230:  MOVWF  xF9
05232:  MOVLB  0
05234:  RCALL  4DC2
....................                }else{ 
05236:  BRA    526A
05238:  MOVLB  4
....................                   displayContrasena(Contrasena[i-1],i*20,30,0); 
0523A:  MOVLW  01
0523C:  MOVLB  5
0523E:  SUBWF  xDC,W
05240:  CLRF   03
05242:  ADDLW  10
05244:  MOVWF  FE9
05246:  MOVLW  05
05248:  ADDWFC 03,W
0524A:  MOVWF  FEA
0524C:  MOVFF  FEF,5F4
05250:  MOVF   xDC,W
05252:  MULLW  14
05254:  MOVFF  FF3,5F5
05258:  MOVFF  5F4,5F6
0525C:  MOVFF  5F5,5F7
05260:  MOVLW  1E
05262:  MOVWF  xF8
05264:  CLRF   xF9
05266:  MOVLB  0
05268:  RCALL  4DC2
....................                } 
....................             } 
0526A:  MOVLB  5
0526C:  INCF   xDC,F
0526E:  BRA    51F6
05270:  MOVLB  4
....................          } 
....................       }else{ 
05272:  BRA    5276
....................          Flanco1 = 0; 
05274:  BCF    x2C.1
....................       } 
....................        
....................       if(LEFT){ 
05276:  BSF    F96.2
05278:  BTFSC  F84.2
0527A:  BRA    52C4
....................          delay_ms(100); 
0527C:  MOVLW  64
0527E:  MOVLB  6
05280:  MOVWF  x00
05282:  MOVLB  0
05284:  CALL   14DC
....................          if(LEFT){ 
05288:  BSF    F96.2
0528A:  BTFSC  F84.2
0528C:  BRA    52C2
....................             Menu=MenuAnt;glcd_fillScreen(OFF);n=0;Opcion=1;unidad=1; 
0528E:  MOVFF  5ED,4CC
05292:  MOVLB  5
05294:  CLRF   xF4
05296:  MOVLB  0
05298:  CALL   15BA
0529C:  MOVLB  4
0529E:  BCF    x2E.5
052A0:  MOVLW  01
052A2:  MOVWF  xCE
052A4:  MOVWF  xCD
....................             Contrasena[0]=0;Contrasena[1]=0;Contrasena[2]=0;Contrasena[3]=0; 
052A6:  MOVLB  5
052A8:  CLRF   x10
052AA:  CLRF   x11
052AC:  CLRF   x12
052AE:  CLRF   x13
....................             glcd_fillScreen(OFF);glcd_update(); 
052B0:  CLRF   xF4
052B2:  MOVLB  0
052B4:  CALL   15BA
052B8:  CALL   1614
....................             return 1; 
052BC:  MOVLW  01
052BE:  MOVWF  01
052C0:  BRA    5652
052C2:  MOVLB  4
....................          } 
....................       } 
....................      
....................       if(unidad>4){ 
052C4:  MOVF   xCD,W
052C6:  SUBLW  04
052C8:  BTFSC  FD8.0
052CA:  BRA    5654
....................          glcd_fillScreen(OFF);unidad=1;flag_latencia=0;t_latencia=0; 
052CC:  MOVLB  5
052CE:  CLRF   xF4
052D0:  MOVLB  0
052D2:  CALL   15BA
052D6:  MOVLW  01
052D8:  MOVLB  4
052DA:  MOVWF  xCD
052DC:  BCF    x2D.6
052DE:  CLRF   xE3
052E0:  CLRF   xE2
....................           
....................          if(Contrasena[0]==3&&Contrasena[1]==8&&Contrasena[2]==9&&Contrasena[3]==2 && MenuActual==0){ // Si Ingresa clave para reset general del sistema. 
052E2:  MOVLB  5
052E4:  MOVF   x10,W
052E6:  SUBLW  03
052E8:  BTFSS  FD8.2
052EA:  BRA    53DE
052EC:  MOVF   x11,W
052EE:  SUBLW  08
052F0:  BTFSS  FD8.2
052F2:  BRA    53DE
052F4:  MOVF   x12,W
052F6:  SUBLW  09
052F8:  BNZ   53DE
052FA:  MOVF   x13,W
052FC:  SUBLW  02
052FE:  BNZ   53DE
05300:  MOVF   xEE,F
05302:  BNZ   53DE
....................             write_eeprom(0,0);delay_ms(20);write_eeprom(1,0);delay_ms(20);// Reestablece a contrasea de Fabrica y reinicia Programa. 
05304:  CLRF   FAA
05306:  CLRF   FA9
05308:  CLRF   FA8
0530A:  BCF    FA6.6
0530C:  BCF    FA6.7
0530E:  BSF    FA6.2
05310:  MOVF   FF2,W
05312:  MOVWF  00
05314:  BCF    FF2.7
05316:  MOVLB  F
05318:  MOVLW  55
0531A:  MOVWF  FA7
0531C:  MOVLW  AA
0531E:  MOVWF  FA7
05320:  BSF    FA6.1
05322:  BTFSC  FA6.1
05324:  BRA    5322
05326:  BCF    FA6.2
05328:  MOVF   00,W
0532A:  IORWF  FF2,F
0532C:  MOVLW  14
0532E:  MOVLB  6
05330:  MOVWF  x00
05332:  MOVLB  0
05334:  CALL   14DC
05338:  CLRF   FAA
0533A:  MOVLW  01
0533C:  MOVWF  FA9
0533E:  CLRF   FA8
05340:  BCF    FA6.6
05342:  BCF    FA6.7
05344:  BSF    FA6.2
05346:  MOVF   FF2,W
05348:  MOVWF  00
0534A:  BCF    FF2.7
0534C:  MOVLB  F
0534E:  MOVLW  55
05350:  MOVWF  FA7
05352:  MOVLW  AA
05354:  MOVWF  FA7
05356:  BSF    FA6.1
05358:  BTFSC  FA6.1
0535A:  BRA    5358
0535C:  BCF    FA6.2
0535E:  MOVF   00,W
05360:  IORWF  FF2,F
05362:  MOVLW  14
05364:  MOVLB  6
05366:  MOVWF  x00
05368:  MOVLB  0
0536A:  CALL   14DC
....................             write_eeprom(2,0);delay_ms(20);write_eeprom(3,0);delay_ms(20); 
0536E:  CLRF   FAA
05370:  MOVLW  02
05372:  MOVWF  FA9
05374:  CLRF   FA8
05376:  BCF    FA6.6
05378:  BCF    FA6.7
0537A:  BSF    FA6.2
0537C:  MOVF   FF2,W
0537E:  MOVWF  00
05380:  BCF    FF2.7
05382:  MOVLB  F
05384:  MOVLW  55
05386:  MOVWF  FA7
05388:  MOVLW  AA
0538A:  MOVWF  FA7
0538C:  BSF    FA6.1
0538E:  BTFSC  FA6.1
05390:  BRA    538E
05392:  BCF    FA6.2
05394:  MOVF   00,W
05396:  IORWF  FF2,F
05398:  MOVLW  14
0539A:  MOVLB  6
0539C:  MOVWF  x00
0539E:  MOVLB  0
053A0:  CALL   14DC
053A4:  CLRF   FAA
053A6:  MOVLW  03
053A8:  MOVWF  FA9
053AA:  CLRF   FA8
053AC:  BCF    FA6.6
053AE:  BCF    FA6.7
053B0:  BSF    FA6.2
053B2:  MOVF   FF2,W
053B4:  MOVWF  00
053B6:  BCF    FF2.7
053B8:  MOVLB  F
053BA:  MOVLW  55
053BC:  MOVWF  FA7
053BE:  MOVLW  AA
053C0:  MOVWF  FA7
053C2:  BSF    FA6.1
053C4:  BTFSC  FA6.1
053C6:  BRA    53C4
053C8:  BCF    FA6.2
053CA:  MOVF   00,W
053CC:  IORWF  FF2,F
053CE:  MOVLW  14
053D0:  MOVLB  6
053D2:  MOVWF  x00
053D4:  MOVLB  0
053D6:  CALL   14DC
....................             reset_cpu(); 
053DA:  RESET
053DC:  MOVLB  5
....................          } 
....................        
....................          if((Contrasena[0]==clave0)&&(Contrasena[1]==clave1)&&(Contrasena[2]==clave2)&&(Contrasena[3]==clave3)){ 
053DE:  MOVF   xF0,W
053E0:  SUBWF  x10,W
053E2:  BTFSS  FD8.2
053E4:  BRA    54C8
053E6:  MOVF   xF1,W
053E8:  SUBWF  x11,W
053EA:  BNZ   54C8
053EC:  MOVF   xF2,W
053EE:  SUBWF  x12,W
053F0:  BNZ   54C8
053F2:  MOVF   xF3,W
053F4:  SUBWF  x13,W
053F6:  BNZ   54C8
....................             glcd_fillScreen(OFF); 
053F8:  CLRF   xF4
053FA:  MOVLB  0
053FC:  CALL   15BA
....................             strcpy(Menus.Letra,"Clave"); 
05400:  MOVLW  04
05402:  MOVWF  FEA
05404:  MOVLW  16
05406:  MOVWF  FE9
05408:  MOVFF  FF2,5F4
0540C:  BCF    FF2.7
0540E:  MOVLW  00
05410:  CALL   0EEE
05414:  TBLRD*-
05416:  TBLRD*+
05418:  MOVF   FF5,W
0541A:  MOVWF  FEE
0541C:  IORLW  00
0541E:  BNZ   5416
05420:  MOVLB  5
05422:  BTFSC  xF4.7
05424:  BSF    FF2.7
....................             displayMenu(Menus.Letra,30,0,0,2); 
05426:  MOVLW  04
05428:  MOVWF  xF5
0542A:  MOVLW  16
0542C:  MOVWF  xF4
0542E:  MOVLW  1E
05430:  MOVWF  xF6
05432:  CLRF   xF7
05434:  CLRF   xF8
05436:  MOVLW  02
05438:  MOVWF  xF9
0543A:  MOVLB  0
0543C:  RCALL  4E96
....................             strcpy(Menus.Letra,"Correcta"); 
0543E:  MOVLW  04
05440:  MOVWF  FEA
05442:  MOVLW  16
05444:  MOVWF  FE9
05446:  MOVFF  FF2,5F4
0544A:  BCF    FF2.7
0544C:  MOVLW  00
0544E:  CALL   0F0E
05452:  TBLRD*-
05454:  TBLRD*+
05456:  MOVF   FF5,W
05458:  MOVWF  FEE
0545A:  IORLW  00
0545C:  BNZ   5454
0545E:  MOVLB  5
05460:  BTFSC  xF4.7
05462:  BSF    FF2.7
....................             displayMenu(Menus.Letra,15,30,0,2); 
05464:  MOVLW  04
05466:  MOVWF  xF5
05468:  MOVLW  16
0546A:  MOVWF  xF4
0546C:  MOVLW  0F
0546E:  MOVWF  xF6
05470:  MOVLW  1E
05472:  MOVWF  xF7
05474:  CLRF   xF8
05476:  MOVLW  02
05478:  MOVWF  xF9
0547A:  MOVLB  0
0547C:  RCALL  4E96
....................             Menu=MenuPost;glcd_update();delay_ms(1000);glcd_fillScreen(OFF); 
0547E:  MOVFF  5EF,4CC
05482:  CALL   1614
05486:  MOVLW  04
05488:  MOVLB  5
0548A:  MOVWF  xF4
0548C:  MOVLW  FA
0548E:  MOVLB  6
05490:  MOVWF  x00
05492:  MOVLB  0
05494:  CALL   14DC
05498:  MOVLB  5
0549A:  DECFSZ xF4,F
0549C:  BRA    548C
0549E:  CLRF   xF4
054A0:  MOVLB  0
054A2:  CALL   15BA
....................             Contrasena[0]=0;Contrasena[1]=0;Contrasena[2]=0;Contrasena[3]=0; 
054A6:  MOVLB  5
054A8:  CLRF   x10
054AA:  CLRF   x11
054AC:  CLRF   x12
054AE:  CLRF   x13
....................             if(MenuActual==0)tiempo_purga=1;n=0; 
054B0:  MOVF   xEE,F
054B2:  BNZ   54B8
054B4:  MOVLB  4
054B6:  BSF    x2D.4
054B8:  MOVLB  4
054BA:  BCF    x2E.5
....................             return 1; 
054BC:  MOVLW  01
054BE:  MOVWF  01
054C0:  MOVLB  0
054C2:  BRA    5652
....................          }else{ 
054C4:  BRA    5652
054C6:  MOVLB  5
....................             glcd_fillScreen(OFF); 
054C8:  CLRF   xF4
054CA:  MOVLB  0
054CC:  CALL   15BA
....................             strcpy(Menus.Letra,"Clave"); 
054D0:  MOVLW  04
054D2:  MOVWF  FEA
054D4:  MOVLW  16
054D6:  MOVWF  FE9
054D8:  MOVFF  FF2,5F4
054DC:  BCF    FF2.7
054DE:  MOVLW  00
054E0:  CALL   0EEE
054E4:  TBLRD*-
054E6:  TBLRD*+
054E8:  MOVF   FF5,W
054EA:  MOVWF  FEE
054EC:  IORLW  00
054EE:  BNZ   54E6
054F0:  MOVLB  5
054F2:  BTFSC  xF4.7
054F4:  BSF    FF2.7
....................             displayMenu(Menus.Letra,30,0,0,2); 
054F6:  MOVLW  04
054F8:  MOVWF  xF5
054FA:  MOVLW  16
054FC:  MOVWF  xF4
054FE:  MOVLW  1E
05500:  MOVWF  xF6
05502:  CLRF   xF7
05504:  CLRF   xF8
05506:  MOVLW  02
05508:  MOVWF  xF9
0550A:  MOVLB  0
0550C:  RCALL  4E96
....................             strcpy(Menus.Letra,"Incorrecta"); 
0550E:  MOVLW  04
05510:  MOVWF  FEA
05512:  MOVLW  16
05514:  MOVWF  FE9
05516:  MOVFF  FF2,5F4
0551A:  BCF    FF2.7
0551C:  MOVLW  00
0551E:  CALL   0F32
05522:  TBLRD*-
05524:  TBLRD*+
05526:  MOVF   FF5,W
05528:  MOVWF  FEE
0552A:  IORLW  00
0552C:  BNZ   5524
0552E:  MOVLB  5
05530:  BTFSC  xF4.7
05532:  BSF    FF2.7
....................             displayMenu(Menus.Letra,0,30,0,2); 
05534:  MOVLW  04
05536:  MOVWF  xF5
05538:  MOVLW  16
0553A:  MOVWF  xF4
0553C:  CLRF   xF6
0553E:  MOVLW  1E
05540:  MOVWF  xF7
05542:  CLRF   xF8
05544:  MOVLW  02
05546:  MOVWF  xF9
05548:  MOVLB  0
0554A:  RCALL  4E96
....................             unidad=1;glcd_update();delay_ms(1000);Contrasena[0]=0;Contrasena[1]=0;Contrasena[2]=0;Contrasena[3]=0;glcd_fillScreen(OFF); 
0554C:  MOVLW  01
0554E:  MOVLB  4
05550:  MOVWF  xCD
05552:  MOVLB  0
05554:  CALL   1614
05558:  MOVLW  04
0555A:  MOVLB  5
0555C:  MOVWF  xF4
0555E:  MOVLW  FA
05560:  MOVLB  6
05562:  MOVWF  x00
05564:  MOVLB  0
05566:  CALL   14DC
0556A:  MOVLB  5
0556C:  DECFSZ xF4,F
0556E:  BRA    555E
05570:  CLRF   x10
05572:  CLRF   x11
05574:  CLRF   x12
05576:  CLRF   x13
05578:  CLRF   xF4
0557A:  MOVLB  0
0557C:  CALL   15BA
....................             glcd_rect(0, 0, 127, 25, YES, ON);strcpy(Menus.Letra,"Clave");glcd_text57(25, 1, Menus.Letra, 3, OFF);displayContrasena(Contrasena[0],20,30,1); 
05580:  MOVLB  6
05582:  CLRF   x05
05584:  CLRF   x06
05586:  MOVLW  7F
05588:  MOVWF  x07
0558A:  MOVLW  19
0558C:  MOVWF  x08
0558E:  MOVLW  01
05590:  MOVWF  x09
05592:  MOVWF  x0A
05594:  MOVLB  0
05596:  CALL   4CFE
0559A:  MOVLW  04
0559C:  MOVWF  FEA
0559E:  MOVLW  16
055A0:  MOVWF  FE9
055A2:  MOVFF  FF2,5F4
055A6:  BCF    FF2.7
055A8:  MOVLW  00
055AA:  CALL   0EEE
055AE:  TBLRD*-
055B0:  TBLRD*+
055B2:  MOVF   FF5,W
055B4:  MOVWF  FEE
055B6:  IORLW  00
055B8:  BNZ   55B0
055BA:  MOVLB  5
055BC:  BTFSC  xF4.7
055BE:  BSF    FF2.7
055C0:  MOVLW  19
055C2:  MOVLB  6
055C4:  MOVWF  x05
055C6:  MOVLW  01
055C8:  MOVWF  x06
055CA:  MOVLW  04
055CC:  MOVWF  x08
055CE:  MOVLW  16
055D0:  MOVWF  x07
055D2:  MOVLW  03
055D4:  MOVWF  x09
055D6:  CLRF   x0A
055D8:  MOVLB  0
055DA:  CALL   1830
055DE:  MOVFF  510,5F6
055E2:  MOVLW  14
055E4:  MOVLB  5
055E6:  MOVWF  xF7
055E8:  MOVLW  1E
055EA:  MOVWF  xF8
055EC:  MOVLW  01
055EE:  MOVWF  xF9
055F0:  MOVLB  0
055F2:  CALL   4DC2
....................             displayContrasena(Contrasena[1],40,30,0);displayContrasena(Contrasena[2],60,30,0);displayContrasena(Contrasena[0],80,30,0); 
055F6:  MOVFF  511,5F6
055FA:  MOVLW  28
055FC:  MOVLB  5
055FE:  MOVWF  xF7
05600:  MOVLW  1E
05602:  MOVWF  xF8
05604:  CLRF   xF9
05606:  MOVLB  0
05608:  CALL   4DC2
0560C:  MOVFF  512,5F6
05610:  MOVLW  3C
05612:  MOVLB  5
05614:  MOVWF  xF7
05616:  MOVLW  1E
05618:  MOVWF  xF8
0561A:  CLRF   xF9
0561C:  MOVLB  0
0561E:  CALL   4DC2
05622:  MOVFF  510,5F6
05626:  MOVLW  50
05628:  MOVLB  5
0562A:  MOVWF  xF7
0562C:  MOVLW  1E
0562E:  MOVWF  xF8
05630:  CLRF   xF9
05632:  MOVLB  0
05634:  CALL   4DC2
....................             Menu=MenuAnt;glcd_fillScreen(OFF);n=0; 
05638:  MOVFF  5ED,4CC
0563C:  MOVLB  5
0563E:  CLRF   xF4
05640:  MOVLB  0
05642:  CALL   15BA
05646:  MOVLB  4
05648:  BCF    x2E.5
....................             return 0; 
0564A:  MOVLW  00
0564C:  MOVWF  01
0564E:  MOVLB  0
05650:  BRA    5652
05652:  MOVLB  4
....................          } 
....................       } 
.................... } 
05654:  MOVLB  0
05656:  RETLW  00
....................  
....................  
.................... #int_EXT            // Interrupcin de encoder para control. 
.................... void ext0() {       // 6 pulsos por vuelta. 
....................       if(UP) 
*
0135A:  BSF    F92.5
0135C:  BTFSC  F80.5
0135E:  BRA    136A
....................          tup++; 
01360:  MOVLB  4
01362:  INCF   xEA,F
01364:  BTFSC  FD8.2
01366:  INCF   xEB,F
....................       else 
01368:  BRA    1370
....................          tup=0; 
0136A:  MOVLB  4
0136C:  CLRF   xEB
0136E:  CLRF   xEA
....................           
....................       if(DOWN) 
01370:  BSF    F96.0
01372:  BTFSC  F84.0
01374:  BRA    137E
....................          tdown++; 
01376:  INCF   xEC,F
01378:  BTFSC  FD8.2
0137A:  INCF   xED,F
....................       else 
0137C:  BRA    1382
....................          tdown=0; 
0137E:  CLRF   xED
01380:  CLRF   xEC
....................           
....................       if(RIGHT) 
01382:  BSF    F96.1
01384:  BTFSC  F84.1
01386:  BRA    1390
....................          tright++; 
01388:  INCF   xEE,F
0138A:  BTFSC  FD8.2
0138C:  INCF   xEF,F
....................       else 
0138E:  BRA    1394
....................          tright=0; 
01390:  CLRF   xEF
01392:  CLRF   xEE
....................        
....................       if(LEFT) 
01394:  BSF    F96.2
01396:  BTFSC  F84.2
01398:  BRA    13A2
....................          tleft++; 
0139A:  INCF   xF0,F
0139C:  BTFSC  FD8.2
0139E:  INCF   xF1,F
....................       else 
013A0:  BRA    13A6
....................          tleft=0; 
013A2:  CLRF   xF1
013A4:  CLRF   xF0
....................           
....................       if(VIDRIODN){ 
013A6:  BSF    F92.3
013A8:  BTFSC  F80.3
013AA:  BRA    13BE
....................          if(tvidrio<60){ 
013AC:  MOVF   xF3,F
013AE:  BNZ   13BC
013B0:  MOVF   xF2,W
013B2:  SUBLW  3B
013B4:  BNC   13BC
....................             tvidrio++; 
013B6:  INCF   xF2,F
013B8:  BTFSC  FD8.2
013BA:  INCF   xF3,F
....................          } 
....................       }else{ 
013BC:  BRA    13C2
....................          tvidrio=0; 
013BE:  CLRF   xF3
013C0:  CLRF   xF2
....................       } 
....................        
....................    pulsos++; 
013C2:  MOVLB  5
013C4:  INCF   xD8,F
013C6:  BTFSC  FD8.2
013C8:  INCF   xD9,F
....................    if(pulsos>=120){ 
013CA:  MOVF   xD9,F
013CC:  BNZ   13D4
013CE:  MOVF   xD8,W
013D0:  SUBLW  77
013D2:  BC    1484
....................       pulsos=0; 
013D4:  CLRF   xD9
013D6:  CLRF   xD8
....................       imprimir=1;Lectura=1;tiemporeset++; 
013D8:  MOVLB  4
013DA:  BSF    x2C.6
013DC:  BSF    x2E.4
013DE:  INCF   xD2,F
....................     
....................       if(flag_blower==1) 
013E0:  BTFSS  x2C.7
013E2:  BRA    13EA
....................          minutos_trabajo++;  
013E4:  INCF   xE6,F
013E6:  BTFSC  FD8.2
013E8:  INCF   xE7,F
....................        
....................       if(tiempo_uv==1){ 
013EA:  BTFSS  x2E.0
013EC:  BRA    143E
....................          segundos_uv++; 
013EE:  INCF   xE0,F
013F0:  BTFSC  FD8.2
013F2:  INCF   xE1,F
....................        
....................          if(Tempouv[0]>0){ 
013F4:  MOVLB  5
013F6:  BTFSC  x08.7
013F8:  BRA    1404
013FA:  MOVF   x08,W
013FC:  SUBLW  00
013FE:  BC    1404
....................             Tempouv[0]--; 
01400:  DECF   x08,F
....................          }else{ 
01402:  BRA    1440
....................             Tempouv[0]=9; 
01404:  MOVLW  09
01406:  MOVWF  x08
....................             if(Tempouv[1]>0){ 
01408:  BTFSC  x09.7
0140A:  BRA    1416
0140C:  MOVF   x09,W
0140E:  SUBLW  00
01410:  BC    1416
....................                Tempouv[1]--; 
01412:  DECF   x09,F
....................             }else{ 
01414:  BRA    1440
....................                Tempouv[1]=5; 
01416:  MOVLW  05
01418:  MOVWF  x09
....................                if(Tempouv[2]>0){ 
0141A:  BTFSC  x0A.7
0141C:  BRA    1428
0141E:  MOVF   x0A,W
01420:  SUBLW  00
01422:  BC    1428
....................                   Tempouv[2]--; 
01424:  DECF   x0A,F
....................                }else{ 
01426:  BRA    1440
....................                   Tempouv[2]=9; 
01428:  MOVLW  09
0142A:  MOVWF  x0A
....................                   if(Tempouv[3]>0){ 
0142C:  BTFSC  x0B.7
0142E:  BRA    143A
01430:  MOVF   x0B,W
01432:  SUBLW  00
01434:  BC    143A
....................                      Tempouv[3]--; 
01436:  DECF   x0B,F
....................                   }else{ 
01438:  BRA    1440
....................                      tiempocumplido=1; 
0143A:  MOVLB  4
0143C:  BSF    x2E.2
0143E:  MOVLB  5
....................                   } 
....................                } 
....................             } 
....................          }     
....................       } 
....................    
....................       if(tiempo_purga==1 || Purga){                   
01440:  MOVLB  4
01442:  BTFSC  x2D.4
01444:  BRA    144A
01446:  BTFSS  x2E.7
01448:  BRA    1482
....................          Tpurga[0]++; 
0144A:  INCF   xF4,F
....................          if(Tpurga[0]>9){ 
0144C:  BTFSC  xF4.7
0144E:  BRA    145A
01450:  MOVF   xF4,W
01452:  SUBLW  09
01454:  BC    145A
....................             Tpurga[0]=0; 
01456:  CLRF   xF4
....................             Tpurga[1]++; 
01458:  INCF   xF5,F
....................          } 
....................          if(Tpurga[1]>5){ 
0145A:  BTFSC  xF5.7
0145C:  BRA    1468
0145E:  MOVF   xF5,W
01460:  SUBLW  05
01462:  BC    1468
....................             Tpurga[1]=0; 
01464:  CLRF   xF5
....................             Tpurga[2]++; 
01466:  INCF   xF6,F
....................          } 
....................          if(Tpurga[2]>9){ 
01468:  BTFSC  xF6.7
0146A:  BRA    1476
0146C:  MOVF   xF6,W
0146E:  SUBLW  09
01470:  BC    1476
....................             Tpurga[2]=0; 
01472:  CLRF   xF6
....................             Tpurga[3]++; 
01474:  INCF   xF7,F
....................          } 
....................          if(Tpurga[3]>5){ 
01476:  BTFSC  xF7.7
01478:  BRA    1482
0147A:  MOVF   xF7,W
0147C:  SUBLW  05
0147E:  BC    1482
....................             Tpurga[3]=0; 
01480:  CLRF   xF7
01482:  MOVLB  5
....................          } 
....................       }  
....................    } 
....................    tiempocruce=0; 
01484:  CLRF   xE1
01486:  CLRF   xE0
....................    Cruce=ON; 
01488:  MOVLB  4
0148A:  BSF    x2E.6
....................    if(VelMotor<6){ 
0148C:  MOVLB  5
0148E:  MOVF   xE3,W
01490:  SUBLW  05
01492:  BNC   14D4
....................       if(VelMotor>0 && Porcentaje<100){ 
01494:  MOVF   xE3,F
01496:  BZ    14D0
01498:  MOVF   xE2,W
0149A:  SUBLW  63
0149C:  BNC   14D0
....................          delay_us(retardo);       
0149E:  MOVFF  5DB,637
014A2:  MOVLB  6
014A4:  INCF   x37,F
014A6:  DECF   x37,F
014A8:  BTFSC  FD8.2
014AA:  BRA    14B8
014AC:  MOVLW  FF
014AE:  MOVWF  x38
014B0:  MOVLB  0
014B2:  RCALL  133A
014B4:  MOVLB  6
014B6:  BRA    14A6
014B8:  MOVFF  5DA,638
014BC:  MOVLB  0
014BE:  RCALL  133A
....................          Motor_on; 
014C0:  BSF    F8B.2
014C2:  BCF    F94.2
....................          delay_us(100);       
014C4:  MOVLW  A6
014C6:  MOVWF  00
014C8:  DECFSZ 00,F
014CA:  BRA    14C8
014CC:  NOP   
014CE:  MOVLB  5
....................       } 
....................       Motor_off; 
014D0:  BCF    F8B.2
014D2:  BCF    F94.2
....................    } 
.................... } 
....................  
014D4:  BCF    FF2.1
014D6:  MOVLB  0
014D8:  GOTO   0054
.................... void glcd_imagen(int8 x) 
.................... { 
....................    char i,j; 
....................    signed char k;  
....................       
....................    if(x==3){ 
*
05DB8:  MOVLB  5
05DBA:  MOVF   xEC,W
05DBC:  SUBLW  03
05DBE:  BNZ   5E66
....................    for( i = 0 ; i < 64 ; i ++ ) 
05DC0:  CLRF   xED
05DC2:  MOVF   xED,W
05DC4:  SUBLW  3F
05DC6:  BNC   5E66
....................    {  for( j = 0 ; j < 16 ; j ++) 
05DC8:  CLRF   xEE
05DCA:  MOVF   xEE,W
05DCC:  SUBLW  0F
05DCE:  BNC   5E62
....................       {  for(k=7;k>-1;k--) 
05DD0:  MOVLW  07
05DD2:  MOVWF  xEF
05DD4:  MOVF   xEF,W
05DD6:  XORLW  80
05DD8:  SUBLW  7F
05DDA:  BC    5E5E
....................          {       
....................             if( bit_test(Bombillo[i][j] ,7-k ))  
05DDC:  CLRF   xF1
05DDE:  MOVFF  5ED,5F0
05DE2:  CLRF   xF3
05DE4:  MOVLW  10
05DE6:  MOVWF  xF2
05DE8:  MOVLB  0
05DEA:  RCALL  5D96
05DEC:  MOVFF  02,5F1
05DF0:  MOVFF  01,5F0
05DF4:  MOVLB  5
05DF6:  MOVF   xEE,W
05DF8:  ADDWF  01,W
05DFA:  MOVWF  01
05DFC:  MOVLW  00
05DFE:  ADDWFC 02,W
05E00:  MOVWF  03
05E02:  MOVF   01,W
05E04:  MOVFF  FF2,5F0
05E08:  BCF    FF2.7
05E0A:  MOVFF  03,FF7
05E0E:  MOVLB  0
05E10:  CALL   02A6
05E14:  MOVLB  5
05E16:  BTFSC  xF0.7
05E18:  BSF    FF2.7
05E1A:  MOVWF  xF0
05E1C:  MOVLW  07
05E1E:  BSF    FD8.0
05E20:  SUBFWB xEF,W
05E22:  MOVWF  xF1
05E24:  MOVFF  5F0,00
05E28:  MOVF   xF1,W
05E2A:  MOVWF  01
05E2C:  BZ    5E36
05E2E:  BCF    FD8.0
05E30:  RRCF   00,F
05E32:  DECFSZ 01,F
05E34:  BRA    5E2E
05E36:  BTFSS  00.0
05E38:  BRA    5E5A
....................                glcd_pixel( j*8+k,i, ON ); 
05E3A:  MOVF   xEE,W
05E3C:  MULLW  08
05E3E:  MOVF   FF3,W
05E40:  ADDWF  xEF,W
05E42:  MOVWF  xF0
05E44:  MOVFF  FE8,620
05E48:  MOVFF  5ED,621
05E4C:  MOVLW  01
05E4E:  MOVLB  6
05E50:  MOVWF  x22
05E52:  MOVLB  0
05E54:  CALL   1774
05E58:  MOVLB  5
....................          }   
05E5A:  DECF   xEF,F
05E5C:  BRA    5DD4
....................       } 
05E5E:  INCF   xEE,F
05E60:  BRA    5DCA
....................    } 
05E62:  INCF   xED,F
05E64:  BRA    5DC2
....................    } 
....................     
....................    if(x==4){ 
05E66:  MOVF   xEC,W
05E68:  SUBLW  04
05E6A:  BNZ   5F12
....................    for( i = 0 ; i < 64 ; i ++ ) 
05E6C:  CLRF   xED
05E6E:  MOVF   xED,W
05E70:  SUBLW  3F
05E72:  BNC   5F12
....................    {  for( j = 0 ; j < 16 ; j ++) 
05E74:  CLRF   xEE
05E76:  MOVF   xEE,W
05E78:  SUBLW  0F
05E7A:  BNC   5F0E
....................       {  for(k=7;k>-1;k--) 
05E7C:  MOVLW  07
05E7E:  MOVWF  xEF
05E80:  MOVF   xEF,W
05E82:  XORLW  80
05E84:  SUBLW  7F
05E86:  BC    5F0A
....................          {       
....................             if( bit_test(Tomai[i][j] ,7-k ))  
05E88:  CLRF   xF1
05E8A:  MOVFF  5ED,5F0
05E8E:  CLRF   xF3
05E90:  MOVLW  10
05E92:  MOVWF  xF2
05E94:  MOVLB  0
05E96:  RCALL  5D96
05E98:  MOVFF  02,5F1
05E9C:  MOVFF  01,5F0
05EA0:  MOVLB  5
05EA2:  MOVF   xEE,W
05EA4:  ADDWF  01,W
05EA6:  MOVWF  01
05EA8:  MOVLW  00
05EAA:  ADDWFC 02,W
05EAC:  MOVWF  03
05EAE:  MOVF   01,W
05EB0:  MOVFF  FF2,5F0
05EB4:  BCF    FF2.7
05EB6:  MOVFF  03,FF7
05EBA:  MOVLB  0
05EBC:  CALL   06BE
05EC0:  MOVLB  5
05EC2:  BTFSC  xF0.7
05EC4:  BSF    FF2.7
05EC6:  MOVWF  xF0
05EC8:  MOVLW  07
05ECA:  BSF    FD8.0
05ECC:  SUBFWB xEF,W
05ECE:  MOVWF  xF1
05ED0:  MOVFF  5F0,00
05ED4:  MOVF   xF1,W
05ED6:  MOVWF  01
05ED8:  BZ    5EE2
05EDA:  BCF    FD8.0
05EDC:  RRCF   00,F
05EDE:  DECFSZ 01,F
05EE0:  BRA    5EDA
05EE2:  BTFSS  00.0
05EE4:  BRA    5F06
....................                glcd_pixel( j*8+k,i, ON ); 
05EE6:  MOVF   xEE,W
05EE8:  MULLW  08
05EEA:  MOVF   FF3,W
05EEC:  ADDWF  xEF,W
05EEE:  MOVWF  xF0
05EF0:  MOVFF  FE8,620
05EF4:  MOVFF  5ED,621
05EF8:  MOVLW  01
05EFA:  MOVLB  6
05EFC:  MOVWF  x22
05EFE:  MOVLB  0
05F00:  CALL   1774
05F04:  MOVLB  5
....................          }   
05F06:  DECF   xEF,F
05F08:  BRA    5E80
....................       } 
05F0A:  INCF   xEE,F
05F0C:  BRA    5E76
....................    } 
05F0E:  INCF   xED,F
05F10:  BRA    5E6E
....................    } 
....................     
....................    if(x==5){ 
05F12:  MOVF   xEC,W
05F14:  SUBLW  05
05F16:  BNZ   5FBE
....................    for( i = 0 ; i < 64 ; i ++ ) 
05F18:  CLRF   xED
05F1A:  MOVF   xED,W
05F1C:  SUBLW  3F
05F1E:  BNC   5FBE
....................    {  for( j = 0 ; j < 16 ; j ++) 
05F20:  CLRF   xEE
05F22:  MOVF   xEE,W
05F24:  SUBLW  0F
05F26:  BNC   5FBA
....................       {  for(k=7;k>-1;k--) 
05F28:  MOVLW  07
05F2A:  MOVWF  xEF
05F2C:  MOVF   xEF,W
05F2E:  XORLW  80
05F30:  SUBLW  7F
05F32:  BC    5FB6
....................          {       
....................             if( bit_test(Ventilador[i][j] ,7-k ))  
05F34:  CLRF   xF1
05F36:  MOVFF  5ED,5F0
05F3A:  CLRF   xF3
05F3C:  MOVLW  10
05F3E:  MOVWF  xF2
05F40:  MOVLB  0
05F42:  RCALL  5D96
05F44:  MOVFF  02,5F1
05F48:  MOVFF  01,5F0
05F4C:  MOVLB  5
05F4E:  MOVF   xEE,W
05F50:  ADDWF  01,W
05F52:  MOVWF  01
05F54:  MOVLW  00
05F56:  ADDWFC 02,W
05F58:  MOVWF  03
05F5A:  MOVF   01,W
05F5C:  MOVFF  FF2,5F0
05F60:  BCF    FF2.7
05F62:  MOVFF  03,FF7
05F66:  MOVLB  0
05F68:  CALL   0AD6
05F6C:  MOVLB  5
05F6E:  BTFSC  xF0.7
05F70:  BSF    FF2.7
05F72:  MOVWF  xF0
05F74:  MOVLW  07
05F76:  BSF    FD8.0
05F78:  SUBFWB xEF,W
05F7A:  MOVWF  xF1
05F7C:  MOVFF  5F0,00
05F80:  MOVF   xF1,W
05F82:  MOVWF  01
05F84:  BZ    5F8E
05F86:  BCF    FD8.0
05F88:  RRCF   00,F
05F8A:  DECFSZ 01,F
05F8C:  BRA    5F86
05F8E:  BTFSS  00.0
05F90:  BRA    5FB2
....................                glcd_pixel( j*8+k,i, ON ); 
05F92:  MOVF   xEE,W
05F94:  MULLW  08
05F96:  MOVF   FF3,W
05F98:  ADDWF  xEF,W
05F9A:  MOVWF  xF0
05F9C:  MOVFF  FE8,620
05FA0:  MOVFF  5ED,621
05FA4:  MOVLW  01
05FA6:  MOVLB  6
05FA8:  MOVWF  x22
05FAA:  MOVLB  0
05FAC:  CALL   1774
05FB0:  MOVLB  5
....................          }   
05FB2:  DECF   xEF,F
05FB4:  BRA    5F2C
....................       } 
05FB6:  INCF   xEE,F
05FB8:  BRA    5F22
....................    } 
05FBA:  INCF   xED,F
05FBC:  BRA    5F1A
....................    } 
.................... } 
05FBE:  MOVLB  0
05FC0:  RETLW  00
....................  
....................  
.................... Float LeerFlujoInFlow(int media) 
.................... { 
....................     InFlow_adc=sensores(1); 
*
04272:  MOVLW  01
04274:  MOVLB  5
04276:  MOVWF  xFD
04278:  MOVLB  0
0427A:  CALL   2FB0
0427E:  MOVFF  02,4DB
04282:  MOVFF  01,4DA
....................        
....................     if(negativo==10) 
04286:  MOVLB  4
04288:  MOVF   xCF,W
0428A:  SUBLW  0A
0428C:  BNZ   42D4
....................     { 
....................       x_uno=Inflow_adc+Diferencia; 
0428E:  MOVFF  4DB,622
04292:  MOVFF  4DA,621
04296:  MOVLB  0
04298:  CALL   19E8
0429C:  BCF    FD8.1
0429E:  MOVFF  03,624
042A2:  MOVFF  02,623
042A6:  MOVFF  01,622
042AA:  MOVFF  00,621
042AE:  MOVFF  527,628
042B2:  MOVFF  526,627
042B6:  MOVFF  525,626
042BA:  MOVFF  524,625
042BE:  CALL   1B7C
042C2:  MOVFF  03,537
042C6:  MOVFF  02,536
042CA:  MOVFF  01,535
042CE:  MOVFF  00,534
042D2:  MOVLB  4
....................     } 
....................     if(negativo==20) 
042D4:  MOVF   xCF,W
042D6:  SUBLW  14
042D8:  BNZ   431E
....................     { 
....................       x_uno=Inflow_adc-Diferencia; 
042DA:  MOVFF  4DB,622
042DE:  MOVFF  4DA,621
042E2:  MOVLB  0
042E4:  CALL   19E8
042E8:  BSF    FD8.1
042EA:  MOVFF  03,624
042EE:  MOVFF  02,623
042F2:  MOVFF  01,622
042F6:  MOVFF  00,621
042FA:  MOVFF  527,628
042FE:  MOVFF  526,627
04302:  MOVFF  525,626
04306:  MOVFF  524,625
0430A:  CALL   1B7C
0430E:  MOVFF  03,537
04312:  MOVFF  02,536
04316:  MOVFF  01,535
0431A:  MOVFF  00,534
....................     } 
....................     Velocidad=(pow(x_uno,3)*a)+(pow(x_uno,2)*b)+(x_uno*c)+(d); 
0431E:  MOVFF  537,5F4
04322:  MOVFF  536,5F3
04326:  MOVFF  535,5F2
0432A:  MOVFF  534,5F1
0432E:  MOVLB  5
04330:  CLRF   xF8
04332:  CLRF   xF7
04334:  MOVLW  40
04336:  MOVWF  xF6
04338:  MOVLW  80
0433A:  MOVWF  xF5
0433C:  MOVLB  0
0433E:  RCALL  3F60
04340:  MOVFF  00,5ED
04344:  MOVFF  01,5EE
04348:  MOVFF  02,5EF
0434C:  MOVFF  03,5F0
04350:  MOVFF  03,620
04354:  MOVFF  02,61F
04358:  MOVFF  01,61E
0435C:  MOVFF  00,61D
04360:  MOVFF  553,624
04364:  MOVFF  552,623
04368:  MOVFF  551,622
0436C:  MOVFF  550,621
04370:  CALL   302C
04374:  MOVFF  00,5ED
04378:  MOVFF  01,5EE
0437C:  MOVFF  02,5EF
04380:  MOVFF  03,5F0
04384:  MOVFF  537,5F4
04388:  MOVFF  536,5F3
0438C:  MOVFF  535,5F2
04390:  MOVFF  534,5F1
04394:  MOVLB  5
04396:  CLRF   xF8
04398:  CLRF   xF7
0439A:  CLRF   xF6
0439C:  MOVLW  80
0439E:  MOVWF  xF5
043A0:  MOVLB  0
043A2:  RCALL  3F60
043A4:  MOVFF  00,5F1
043A8:  MOVFF  01,5F2
043AC:  MOVFF  02,5F3
043B0:  MOVFF  03,5F4
043B4:  MOVFF  03,620
043B8:  MOVFF  02,61F
043BC:  MOVFF  01,61E
043C0:  MOVFF  00,61D
043C4:  MOVFF  557,624
043C8:  MOVFF  556,623
043CC:  MOVFF  555,622
043D0:  MOVFF  554,621
043D4:  CALL   302C
043D8:  MOVFF  FEA,5F2
043DC:  MOVFF  FE9,5F1
043E0:  BCF    FD8.1
043E2:  MOVFF  5F0,624
043E6:  MOVFF  5EF,623
043EA:  MOVFF  5EE,622
043EE:  MOVFF  5ED,621
043F2:  MOVFF  03,628
043F6:  MOVFF  02,627
043FA:  MOVFF  01,626
043FE:  MOVFF  00,625
04402:  CALL   1B7C
04406:  MOVFF  5F2,FEA
0440A:  MOVFF  5F1,FE9
0440E:  MOVFF  00,5ED
04412:  MOVFF  01,5EE
04416:  MOVFF  02,5EF
0441A:  MOVFF  03,5F0
0441E:  MOVFF  537,620
04422:  MOVFF  536,61F
04426:  MOVFF  535,61E
0442A:  MOVFF  534,61D
0442E:  MOVFF  55B,624
04432:  MOVFF  55A,623
04436:  MOVFF  559,622
0443A:  MOVFF  558,621
0443E:  CALL   302C
04442:  MOVFF  FEA,5F4
04446:  MOVFF  FE9,5F3
0444A:  BCF    FD8.1
0444C:  MOVFF  5F0,624
04450:  MOVFF  5EF,623
04454:  MOVFF  5EE,622
04458:  MOVFF  5ED,621
0445C:  MOVFF  03,628
04460:  MOVFF  02,627
04464:  MOVFF  01,626
04468:  MOVFF  00,625
0446C:  CALL   1B7C
04470:  MOVFF  5F4,FEA
04474:  MOVFF  5F3,FE9
04478:  MOVFF  00,5ED
0447C:  MOVFF  01,5EE
04480:  MOVFF  02,5EF
04484:  MOVFF  03,5F0
04488:  MOVFF  FEA,5F6
0448C:  MOVFF  FE9,5F5
04490:  BCF    FD8.1
04492:  MOVFF  03,624
04496:  MOVFF  02,623
0449A:  MOVFF  01,622
0449E:  MOVFF  00,621
044A2:  MOVFF  55F,628
044A6:  MOVFF  55E,627
044AA:  MOVFF  55D,626
044AE:  MOVFF  55C,625
044B2:  CALL   1B7C
044B6:  MOVFF  5F6,FEA
044BA:  MOVFF  5F5,FE9
044BE:  MOVFF  03,533
044C2:  MOVFF  02,532
044C6:  MOVFF  01,531
044CA:  MOVFF  00,530
....................     //Velocidad=Velocidad*correccion;//Ajuste de Temperatura 
....................      
....................     if(Velocidad<0.0) 
044CE:  MOVFF  533,620
044D2:  MOVFF  532,61F
044D6:  MOVFF  531,61E
044DA:  MOVFF  530,61D
044DE:  MOVLB  6
044E0:  CLRF   x24
044E2:  CLRF   x23
044E4:  CLRF   x22
044E6:  CLRF   x21
044E8:  MOVLB  0
044EA:  CALL   2584
044EE:  BNC   44FA
....................      {Velocidad=0.0;} 
044F0:  MOVLB  5
044F2:  CLRF   x33
044F4:  CLRF   x32
044F6:  CLRF   x31
044F8:  CLRF   x30
....................       
....................      if(l>=media) 
044FA:  MOVLB  5
044FC:  MOVF   xEC,W
044FE:  MOVLB  4
04500:  SUBWF  xD5,W
04502:  BNC   4506
....................        {l=0;} 
04504:  CLRF   xD5
....................       
....................      promedio[l]=Velocidad;l++; 
04506:  MOVF   xD5,W
04508:  MULLW  04
0450A:  MOVF   FF3,W
0450C:  CLRF   03
0450E:  ADDLW  60
04510:  MOVWF  FE9
04512:  MOVLW  05
04514:  ADDWFC 03,W
04516:  MOVWF  FEA
04518:  MOVFF  530,FEF
0451C:  MOVFF  531,FEC
04520:  MOVFF  532,FEC
04524:  MOVFF  533,FEC
04528:  INCF   xD5,F
....................      Flujo=0; 
0452A:  MOVLB  5
0452C:  CLRF   xC3
0452E:  CLRF   xC2
04530:  CLRF   xC1
04532:  CLRF   xC0
....................         for(h=0;h<=(media-1);h++) 
04534:  MOVLB  4
04536:  CLRF   xD6
04538:  MOVLW  01
0453A:  MOVLB  5
0453C:  SUBWF  xEC,W
0453E:  MOVLB  4
04540:  SUBWF  xD6,W
04542:  BZ    4546
04544:  BC    45B6
....................         { 
....................            Flujo+=promedio[h]; 
04546:  MOVF   xD6,W
04548:  MULLW  04
0454A:  MOVF   FF3,W
0454C:  CLRF   03
0454E:  ADDLW  60
04550:  MOVWF  FE9
04552:  MOVLW  05
04554:  ADDWFC 03,W
04556:  MOVWF  FEA
04558:  MOVFF  FEF,00
0455C:  MOVFF  FEC,01
04560:  MOVFF  FEC,02
04564:  MOVFF  FEC,03
04568:  MOVFF  FEA,5EE
0456C:  MOVFF  FE9,5ED
04570:  BCF    FD8.1
04572:  MOVFF  5C3,624
04576:  MOVFF  5C2,623
0457A:  MOVFF  5C1,622
0457E:  MOVFF  5C0,621
04582:  MOVFF  03,628
04586:  MOVFF  02,627
0458A:  MOVFF  01,626
0458E:  MOVFF  00,625
04592:  MOVLB  0
04594:  CALL   1B7C
04598:  MOVFF  5EE,FEA
0459C:  MOVFF  5ED,FE9
045A0:  MOVFF  03,5C3
045A4:  MOVFF  02,5C2
045A8:  MOVFF  01,5C1
045AC:  MOVFF  00,5C0
....................         }  
045B0:  MOVLB  4
045B2:  INCF   xD6,F
045B4:  BRA    4538
....................            Flujo=(Flujo/media)*Ajuste1;  
045B6:  MOVLB  6
045B8:  CLRF   x22
045BA:  MOVFF  5EC,621
045BE:  MOVLB  0
045C0:  CALL   19E8
045C4:  MOVFF  5C3,620
045C8:  MOVFF  5C2,61F
045CC:  MOVFF  5C1,61E
045D0:  MOVFF  5C0,61D
045D4:  MOVFF  03,624
045D8:  MOVFF  02,623
045DC:  MOVFF  01,622
045E0:  MOVFF  00,621
045E4:  CALL   1A1E
045E8:  MOVFF  00,5ED
045EC:  MOVFF  01,5EE
045F0:  MOVFF  02,5EF
045F4:  MOVFF  03,5F0
045F8:  MOVFF  03,620
045FC:  MOVFF  02,61F
04600:  MOVFF  01,61E
04604:  MOVFF  00,61D
04608:  MOVFF  543,624
0460C:  MOVFF  542,623
04610:  MOVFF  541,622
04614:  MOVFF  540,621
04618:  CALL   302C
0461C:  MOVFF  03,5C3
04620:  MOVFF  02,5C2
04624:  MOVFF  01,5C1
04628:  MOVFF  00,5C0
....................            return Flujo; 
0462C:  MOVFF  5C0,00
04630:  MOVFF  5C1,01
04634:  MOVFF  5C2,02
04638:  MOVFF  5C3,03
.................... } 
0463C:  GOTO   671E (RETURN)
....................  
.................... void main(){ 
*
060CE:  CLRF   FF8
060D0:  BCF    FD0.7
060D2:  BSF    07.7
060D4:  CLRF   FEA
060D6:  CLRF   FE9
060D8:  MOVLB  4
060DA:  BCF    x2C.0
060DC:  BCF    x2C.1
060DE:  BCF    x2C.2
060E0:  BCF    x2C.3
060E2:  BCF    x2C.4
060E4:  BCF    x2C.5
060E6:  BCF    x2C.6
060E8:  BCF    x2C.7
060EA:  BCF    x2D.0
060EC:  BCF    x2D.1
060EE:  BCF    x2D.2
060F0:  BCF    x2D.3
060F2:  BCF    x2D.4
060F4:  BCF    x2D.5
060F6:  BCF    x2D.6
060F8:  BCF    x2D.7
060FA:  BCF    x2E.0
060FC:  BCF    x2E.1
060FE:  BSF    x2E.2
06100:  BCF    x2E.3
06102:  BCF    x2E.4
06104:  BCF    x2E.5
06106:  MOVLW  C8
06108:  MOVWF  xCC
0610A:  MOVLW  01
0610C:  MOVWF  xCD
0610E:  MOVWF  xCE
06110:  MOVLW  0A
06112:  MOVWF  xCF
06114:  CLRF   xD0
06116:  CLRF   xD1
06118:  CLRF   xD2
0611A:  CLRF   xD3
0611C:  CLRF   xD4
0611E:  CLRF   xD5
06120:  CLRF   xD6
06122:  CLRF   xD7
06124:  CLRF   xD8
06126:  MOVWF  xD9
06128:  CLRF   xDB
0612A:  CLRF   xDA
0612C:  CLRF   xDD
0612E:  CLRF   xDC
06130:  CLRF   xDF
06132:  CLRF   xDE
06134:  CLRF   xE1
06136:  CLRF   xE0
06138:  CLRF   xE3
0613A:  CLRF   xE2
0613C:  CLRF   xE5
0613E:  CLRF   xE4
06140:  CLRF   xE7
06142:  CLRF   xE6
06144:  CLRF   xE9
06146:  CLRF   xE8
06148:  CLRF   xEB
0614A:  CLRF   xEA
0614C:  CLRF   xED
0614E:  CLRF   xEC
06150:  CLRF   xEF
06152:  CLRF   xEE
06154:  CLRF   xF1
06156:  CLRF   xF0
06158:  CLRF   xF3
0615A:  CLRF   xF2
0615C:  MOVLB  5
0615E:  CLRF   x1B
06160:  CLRF   x1A
06162:  CLRF   x19
06164:  CLRF   x18
06166:  CLRF   x1F
06168:  CLRF   x1E
0616A:  CLRF   x1D
0616C:  CLRF   x1C
0616E:  CLRF   x23
06170:  CLRF   x22
06172:  CLRF   x21
06174:  CLRF   x20
06176:  CLRF   x27
06178:  CLRF   x26
0617A:  CLRF   x25
0617C:  CLRF   x24
0617E:  CLRF   x2B
06180:  CLRF   x2A
06182:  CLRF   x29
06184:  CLRF   x28
06186:  CLRF   x2F
06188:  CLRF   x2E
0618A:  CLRF   x2D
0618C:  CLRF   x2C
0618E:  CLRF   x33
06190:  CLRF   x32
06192:  CLRF   x31
06194:  CLRF   x30
06196:  CLRF   x37
06198:  CLRF   x36
0619A:  CLRF   x35
0619C:  CLRF   x34
0619E:  CLRF   x3B
061A0:  CLRF   x3A
061A2:  CLRF   x39
061A4:  CLRF   x38
061A6:  CLRF   x3F
061A8:  CLRF   x3E
061AA:  CLRF   x3D
061AC:  CLRF   x3C
061AE:  CLRF   x43
061B0:  CLRF   x42
061B2:  CLRF   x41
061B4:  CLRF   x40
061B6:  CLRF   x47
061B8:  CLRF   x46
061BA:  CLRF   x45
061BC:  CLRF   x44
061BE:  CLRF   x4B
061C0:  CLRF   x4A
061C2:  CLRF   x49
061C4:  CLRF   x48
061C6:  CLRF   x4F
061C8:  CLRF   x4E
061CA:  CLRF   x4D
061CC:  CLRF   x4C
061CE:  MOVLW  29
061D0:  MOVWF  x53
061D2:  MOVLW  B6
061D4:  MOVWF  x52
061D6:  MOVLW  20
061D8:  MOVWF  x51
061DA:  MOVLW  6E
061DC:  MOVWF  x50
061DE:  MOVLW  EE
061E0:  MOVWF  x57
061E2:  MOVLW  7D
061E4:  MOVWF  x56
061E6:  MOVLW  EE
061E8:  MOVWF  x55
061EA:  MOVLW  77
061EC:  MOVWF  x54
061EE:  MOVLW  ED
061F0:  MOVWF  x5B
061F2:  MOVLW  47
061F4:  MOVWF  x5A
061F6:  MOVLW  6D
061F8:  MOVWF  x59
061FA:  MOVLW  7F
061FC:  MOVWF  x58
061FE:  MOVLW  1A
06200:  MOVWF  x5F
06202:  MOVLW  D1
06204:  MOVWF  x5E
06206:  MOVLW  9C
06208:  MOVWF  x5D
0620A:  MOVLW  86
0620C:  MOVWF  x5C
0620E:  CLRF   xC3
06210:  CLRF   xC2
06212:  CLRF   xC1
06214:  CLRF   xC0
06216:  CLRF   xC7
06218:  CLRF   xC6
0621A:  MOVLW  50
0621C:  MOVWF  xC5
0621E:  MOVLW  86
06220:  MOVWF  xC4
06222:  CLRF   xCB
06224:  CLRF   xCA
06226:  CLRF   xC9
06228:  CLRF   xC8
0622A:  CLRF   xCF
0622C:  CLRF   xCE
0622E:  CLRF   xCD
06230:  CLRF   xCC
06232:  CLRF   xD3
06234:  CLRF   xD2
06236:  CLRF   xD1
06238:  CLRF   xD0
0623A:  CLRF   xD7
0623C:  CLRF   xD6
0623E:  CLRF   xD5
06240:  MOVLW  80
06242:  MOVWF  xD4
06244:  CLRF   xD9
06246:  CLRF   xD8
06248:  CLRF   xDB
0624A:  CLRF   xDA
0624C:  CLRF   xDC
0624E:  CLRF   xDD
06250:  CLRF   xDE
06252:  CLRF   xDF
06254:  MOVLB  4
06256:  BCF    x2E.6
06258:  BCF    x2E.7
0625A:  MOVLB  5
0625C:  CLRF   xE1
0625E:  CLRF   xE0
06260:  CLRF   xE2
06262:  CLRF   xE3
06264:  CLRF   xE7
06266:  CLRF   xE6
06268:  CLRF   xE5
0626A:  CLRF   xE4
0626C:  CLRF   xEB
0626E:  CLRF   xEA
06270:  CLRF   xE9
06272:  CLRF   xE8
06274:  MOVF   FC1,W
06276:  ANDLW  C0
06278:  IORLW  0F
0627A:  MOVWF  FC1
0627C:  MOVLW  07
0627E:  MOVWF  FB4
06280:  MOVLB  4
06282:  CLRF   x2A
06284:  CLRF   x2B
06286:  MOVLW  4A
06288:  MOVWF  x2F
0628A:  MOVLW  50
0628C:  MOVWF  x30
0628E:  MOVLW  20
06290:  MOVWF  x31
06292:  MOVLW  49
06294:  MOVWF  x32
06296:  MOVLW  6E
06298:  MOVWF  x33
0629A:  MOVLW  67
0629C:  MOVWF  x34
0629E:  MOVLW  6C
062A0:  MOVWF  x35
062A2:  MOVLW  6F
062A4:  MOVWF  x36
062A6:  MOVLW  62
062A8:  MOVWF  x37
062AA:  MOVLW  61
062AC:  MOVWF  x38
062AE:  MOVLW  6C
062B0:  MOVWF  x39
062B2:  CLRF   x3A
062B4:  MOVLW  43
062B6:  MOVWF  x3B
062B8:  MOVLW  61
062BA:  MOVWF  x3C
062BC:  MOVLW  62
062BE:  MOVWF  x3D
062C0:  MOVLW  69
062C2:  MOVWF  x3E
062C4:  MOVLW  6E
062C6:  MOVWF  x3F
062C8:  MOVLW  61
062CA:  MOVWF  x40
062CC:  MOVLW  20
062CE:  MOVWF  x41
062D0:  MOVLW  46
062D2:  MOVWF  x42
062D4:  MOVLW  6C
062D6:  MOVWF  x43
062D8:  MOVLW  75
062DA:  MOVWF  x44
062DC:  MOVLW  6A
062DE:  MOVWF  x45
062E0:  MOVLW  6F
062E2:  MOVWF  x46
062E4:  MOVLW  20
062E6:  MOVWF  x47
062E8:  MOVLW  4C
062EA:  MOVWF  x48
062EC:  MOVLW  61
062EE:  MOVWF  x49
062F0:  MOVLW  6D
062F2:  MOVWF  x4A
062F4:  MOVLW  69
062F6:  MOVWF  x4B
062F8:  MOVLW  6E
062FA:  MOVWF  x4C
062FC:  MOVLW  61
062FE:  MOVWF  x4D
06300:  MOVLW  72
06302:  MOVWF  x4E
06304:  CLRF   x4F
06306:  MOVLW  3A
06308:  MOVWF  x50
0630A:  CLRF   x51
0630C:  MOVLW  20
0630E:  MOVWF  x52
06310:  MOVWF  x53
06312:  MOVWF  x54
06314:  MOVLW  50
06316:  MOVWF  x55
06318:  MOVLW  43
0631A:  MOVWF  x56
0631C:  MOVLW  52
0631E:  MOVWF  x57
06320:  CLRF   x58
06322:  MOVLW  54
06324:  MOVWF  x59
06326:  MOVLW  69
06328:  MOVWF  x5A
0632A:  MOVLW  65
0632C:  MOVWF  x5B
0632E:  MOVLW  6D
06330:  MOVWF  x5C
06332:  MOVLW  70
06334:  MOVWF  x5D
06336:  MOVLW  6F
06338:  MOVWF  x5E
0633A:  MOVLW  20
0633C:  MOVWF  x5F
0633E:  MOVLW  64
06340:  MOVWF  x60
06342:  MOVLW  65
06344:  MOVWF  x61
06346:  MOVLW  20
06348:  MOVWF  x62
0634A:  MOVLW  50
0634C:  MOVWF  x63
0634E:  MOVLW  75
06350:  MOVWF  x64
06352:  MOVLW  72
06354:  MOVWF  x65
06356:  MOVLW  67
06358:  MOVWF  x66
0635A:  MOVLW  61
0635C:  MOVWF  x67
0635E:  CLRF   x68
06360:  MOVLW  55
06362:  MOVWF  x69
06364:  MOVLW  56
06366:  MOVWF  x6A
06368:  CLRF   x6B
0636A:  MOVWF  x6C
0636C:  MOVLW  65
0636E:  MOVWF  x6D
06370:  MOVLW  6C
06372:  MOVWF  x6E
06374:  MOVLW  3A
06376:  MOVWF  x6F
06378:  CLRF   x70
0637A:  MOVLW  54
0637C:  MOVWF  x71
0637E:  MOVLW  3A
06380:  MOVWF  x72
06382:  CLRF   x73
06384:  MOVLW  46
06386:  MOVWF  x74
06388:  MOVLW  61
0638A:  MOVWF  x75
0638C:  MOVLW  62
0638E:  MOVWF  x76
06390:  MOVLW  72
06392:  MOVWF  x77
06394:  MOVLW  69
06396:  MOVWF  x78
06398:  MOVLW  63
0639A:  MOVWF  x79
0639C:  MOVLW  61
0639E:  MOVWF  x7A
063A0:  MOVLW  3A
063A2:  MOVWF  x7B
063A4:  MOVLW  32
063A6:  MOVWF  x7C
063A8:  MOVLW  30
063AA:  MOVWF  x7D
063AC:  MOVLW  38
063AE:  MOVWF  x7E
063B0:  MOVLW  2E
063B2:  MOVWF  x7F
063B4:  MOVLW  30
063B6:  MOVWF  x80
063B8:  CLRF   x81
063BA:  MOVLW  41
063BC:  MOVWF  x82
063BE:  MOVLW  63
063C0:  MOVWF  x83
063C2:  MOVLW  74
063C4:  MOVWF  x84
063C6:  MOVLW  75
063C8:  MOVWF  x85
063CA:  MOVLW  61
063CC:  MOVWF  x86
063CE:  MOVLW  6C
063D0:  MOVWF  x87
063D2:  MOVLW  3A
063D4:  MOVWF  x88
063D6:  CLRF   x89
063D8:  MOVLW  41
063DA:  MOVWF  x8A
063DC:  MOVLW  6A
063DE:  MOVWF  x8B
063E0:  MOVLW  75
063E2:  MOVWF  x8C
063E4:  MOVLW  73
063E6:  MOVWF  x8D
063E8:  MOVLW  74
063EA:  MOVWF  x8E
063EC:  MOVLW  65
063EE:  MOVWF  x8F
063F0:  MOVLW  3A
063F2:  MOVWF  x90
063F4:  CLRF   x91
063F6:  MOVLW  46
063F8:  MOVWF  x92
063FA:  MOVLW  69
063FC:  MOVWF  x93
063FE:  MOVLW  6C
06400:  MOVWF  x94
06402:  MOVLW  74
06404:  MOVWF  x95
06406:  MOVLW  72
06408:  MOVWF  x96
0640A:  MOVLW  6F
0640C:  MOVWF  x97
0640E:  MOVLW  3A
06410:  MOVWF  x98
06412:  CLRF   x99
06414:  MOVLW  46
06416:  MOVWF  x9A
06418:  MOVLW  61
0641A:  MOVWF  x9B
0641C:  MOVLW  62
0641E:  MOVWF  x9C
06420:  MOVLW  72
06422:  MOVWF  x9D
06424:  MOVLW  69
06426:  MOVWF  x9E
06428:  MOVLW  63
0642A:  MOVWF  x9F
0642C:  MOVLW  61
0642E:  MOVWF  xA0
06430:  MOVLW  3A
06432:  MOVWF  xA1
06434:  MOVLW  32
06436:  MOVWF  xA2
06438:  MOVLW  34
0643A:  MOVWF  xA3
0643C:  MOVLW  30
0643E:  MOVWF  xA4
06440:  MOVLW  2E
06442:  MOVWF  xA5
06444:  MOVLW  30
06446:  MOVWF  xA6
06448:  CLRF   xA7
0644A:  MOVLW  21
0644C:  MOVWF  xA8
0644E:  MOVLW  46
06450:  MOVWF  xA9
06452:  MOVLW  69
06454:  MOVWF  xAA
06456:  MOVLW  6C
06458:  MOVWF  xAB
0645A:  MOVLW  74
0645C:  MOVWF  xAC
0645E:  MOVLW  72
06460:  MOVWF  xAD
06462:  MOVLW  6F
06464:  MOVWF  xAE
06466:  MOVLW  20
06468:  MOVWF  xAF
0646A:  MOVLW  53
0646C:  MOVWF  xB0
0646E:  MOVLW  61
06470:  MOVWF  xB1
06472:  MOVLW  74
06474:  MOVWF  xB2
06476:  MOVLW  75
06478:  MOVWF  xB3
0647A:  MOVLW  72
0647C:  MOVWF  xB4
0647E:  MOVLW  61
06480:  MOVWF  xB5
06482:  MOVLW  64
06484:  MOVWF  xB6
06486:  MOVLW  6F
06488:  MOVWF  xB7
0648A:  MOVLW  21
0648C:  MOVWF  xB8
0648E:  CLRF   xB9
06490:  MOVLW  54
06492:  MOVWF  xBA
06494:  MOVLW  65
06496:  MOVWF  xBB
06498:  MOVLW  6D
0649A:  MOVWF  xBC
0649C:  MOVLW  70
0649E:  MOVWF  xBD
064A0:  MOVLW  6F
064A2:  MOVWF  xBE
064A4:  MOVLW  20
064A6:  MOVWF  xBF
064A8:  MOVLW  55
064AA:  MOVWF  xC0
064AC:  MOVLW  56
064AE:  MOVWF  xC1
064B0:  MOVLW  3A
064B2:  MOVWF  xC2
064B4:  CLRF   xC3
064B6:  MOVLW  55
064B8:  MOVWF  xC4
064BA:  MOVLW  56
064BC:  MOVWF  xC5
064BE:  MOVLW  4C
064C0:  MOVWF  xC6
064C2:  MOVLW  69
064C4:  MOVWF  xC7
064C6:  MOVLW  66
064C8:  MOVWF  xC8
064CA:  MOVLW  65
064CC:  MOVWF  xC9
064CE:  MOVLW  3A
064D0:  MOVWF  xCA
064D2:  CLRF   xCB
064D4:  CLRF   xF4
064D6:  CLRF   xF5
064D8:  CLRF   xF6
064DA:  CLRF   xF7
064DC:  MOVLW  09
064DE:  MOVWF  xF8
064E0:  CLRF   xF9
064E2:  CLRF   xFA
064E4:  CLRF   xFB
064E6:  MOVWF  xFC
064E8:  CLRF   xFD
064EA:  CLRF   xFE
064EC:  CLRF   xFF
064EE:  MOVLB  5
064F0:  CLRF   x00
064F2:  CLRF   x01
064F4:  CLRF   x02
064F6:  CLRF   x03
064F8:  CLRF   x04
064FA:  CLRF   x05
064FC:  CLRF   x06
064FE:  CLRF   x07
06500:  CLRF   x08
06502:  CLRF   x09
06504:  CLRF   x0A
06506:  CLRF   x0B
06508:  CLRF   x0C
0650A:  CLRF   x0D
0650C:  CLRF   x0E
0650E:  CLRF   x0F
06510:  CLRF   x10
06512:  CLRF   x11
06514:  CLRF   x12
06516:  CLRF   x13
06518:  CLRF   x14
0651A:  CLRF   x15
0651C:  CLRF   x16
0651E:  CLRF   x17
06520:  CLRF   x60
06522:  CLRF   x61
06524:  CLRF   x62
06526:  CLRF   x63
06528:  CLRF   x64
0652A:  CLRF   x65
0652C:  CLRF   x66
0652E:  CLRF   x67
06530:  CLRF   x68
06532:  CLRF   x69
06534:  CLRF   x6A
06536:  CLRF   x6B
06538:  CLRF   x6C
0653A:  CLRF   x6D
0653C:  CLRF   x6E
0653E:  CLRF   x6F
06540:  CLRF   x70
06542:  CLRF   x71
06544:  CLRF   x72
06546:  CLRF   x73
06548:  CLRF   x74
0654A:  CLRF   x75
0654C:  CLRF   x76
0654E:  CLRF   x77
06550:  CLRF   x78
06552:  CLRF   x79
06554:  CLRF   x7A
06556:  CLRF   x7B
06558:  CLRF   x7C
0655A:  CLRF   x7D
0655C:  CLRF   x7E
0655E:  CLRF   x7F
06560:  CLRF   x80
06562:  CLRF   x81
06564:  CLRF   x82
06566:  CLRF   x83
06568:  CLRF   x84
0656A:  CLRF   x85
0656C:  CLRF   x86
0656E:  CLRF   x87
06570:  CLRF   x88
06572:  CLRF   x89
06574:  CLRF   x8A
06576:  CLRF   x8B
06578:  CLRF   x8C
0657A:  CLRF   x8D
0657C:  CLRF   x8E
0657E:  CLRF   x8F
06580:  CLRF   x90
06582:  CLRF   x91
06584:  CLRF   x92
06586:  CLRF   x93
06588:  CLRF   x94
0658A:  CLRF   x95
0658C:  CLRF   x96
0658E:  CLRF   x97
06590:  CLRF   x98
06592:  CLRF   x99
06594:  CLRF   x9A
06596:  CLRF   x9B
06598:  CLRF   x9C
0659A:  CLRF   x9D
0659C:  CLRF   x9E
0659E:  CLRF   x9F
065A0:  CLRF   xA0
065A2:  CLRF   xA1
065A4:  CLRF   xA2
065A6:  CLRF   xA3
065A8:  CLRF   xA4
065AA:  CLRF   xA5
065AC:  CLRF   xA6
065AE:  CLRF   xA7
065B0:  CLRF   xA8
065B2:  CLRF   xA9
065B4:  CLRF   xAA
065B6:  CLRF   xAB
065B8:  CLRF   xAC
065BA:  CLRF   xAD
065BC:  CLRF   xAE
065BE:  CLRF   xAF
065C0:  CLRF   xB0
065C2:  CLRF   xB1
065C4:  CLRF   xB2
065C6:  CLRF   xB3
065C8:  CLRF   xB4
065CA:  CLRF   xB5
065CC:  CLRF   xB6
065CE:  CLRF   xB7
065D0:  CLRF   xB8
065D2:  CLRF   xB9
065D4:  CLRF   xBA
065D6:  CLRF   xBB
065D8:  CLRF   xBC
065DA:  CLRF   xBD
065DC:  CLRF   xBE
065DE:  CLRF   xBF
....................    delay_ms(1000); 
065E0:  MOVLW  04
065E2:  MOVWF  xEC
065E4:  MOVLW  FA
065E6:  MOVLB  6
065E8:  MOVWF  x00
065EA:  MOVLB  0
065EC:  CALL   14DC
065F0:  MOVLB  5
065F2:  DECFSZ xEC,F
065F4:  BRA    65E4
....................    Cruce=OFF; 
065F6:  MOVLB  4
065F8:  BCF    x2E.6
....................    VelocidadMotor(0); 
065FA:  MOVLB  5
065FC:  CLRF   xEC
065FE:  MOVLB  0
06600:  CALL   1502
....................    Tcruce2=83; 
06604:  MOVLB  5
06606:  CLRF   xEB
06608:  CLRF   xEA
0660A:  MOVLW  26
0660C:  MOVWF  xE9
0660E:  MOVLW  85
06610:  MOVWF  xE8
....................    Tcruce=8300; 
06612:  CLRF   xE7
06614:  MOVLW  B0
06616:  MOVWF  xE6
06618:  MOVLW  01
0661A:  MOVWF  xE5
0661C:  MOVLW  8C
0661E:  MOVWF  xE4
....................    Motor_off; 
06620:  BCF    F8B.2
06622:  BCF    F94.2
....................    //setup_timer_1(T1_INTERNAL|T1_DIV_BY_1); 
....................    //enable_interrupts(INT_TIMER1); 
....................    enable_interrupts(INT_EXT_L2H); 
06624:  BSF    FF2.4
06626:  BSF    FF1.6
....................    setup_adc_ports(AN0_TO_AN1); 
06628:  MOVF   FC1,W
0662A:  ANDLW  C0
0662C:  IORLW  0D
0662E:  MOVWF  FC1
....................    setup_adc(ADC_CLOCK_DIV_32 ); 
06630:  MOVF   FC0,W
06632:  ANDLW  C0
06634:  IORLW  02
06636:  MOVWF  FC0
06638:  BSF    FC0.7
0663A:  BSF    FC2.0
....................    enable_interrupts(global);   
0663C:  MOVLW  C0
0663E:  IORWF  FF2,F
....................    VelocidadMotor(0); 
06640:  CLRF   xEC
06642:  MOVLB  0
06644:  CALL   1502
....................    Motor_off; 
06648:  BCF    F8B.2
0664A:  BCF    F94.2
.................... //-------Inicio de Cabina-------------------------------------------------------------------------// 
....................    Display_on; 
0664C:  BSF    F8A.1
0664E:  BCF    F93.1
....................    glcd_init(ON);             //Inicializa la glcd 
06650:  MOVLW  01
06652:  MOVLB  5
06654:  MOVWF  xEC
06656:  MOVLB  0
06658:  CALL   16CC
....................    glcd_fillScreen(OFF);      //Limpia la pantalla 
0665C:  MOVLB  5
0665E:  CLRF   xF4
06660:  MOVLB  0
06662:  CALL   15BA
....................    glcd_text57(0, 0, JP, 2, ON);glcd_text57(5, 20, Cabina, 1, ON);glcd_text57(10, 40, Clase, 2, ON);              
06666:  MOVLB  6
06668:  CLRF   x05
0666A:  CLRF   x06
0666C:  MOVLW  04
0666E:  MOVWF  x08
06670:  MOVLW  2F
06672:  MOVWF  x07
06674:  MOVLW  02
06676:  MOVWF  x09
06678:  MOVLW  01
0667A:  MOVWF  x0A
0667C:  MOVLB  0
0667E:  CALL   1830
06682:  MOVLW  05
06684:  MOVLB  6
06686:  MOVWF  x05
06688:  MOVLW  14
0668A:  MOVWF  x06
0668C:  MOVLW  04
0668E:  MOVWF  x08
06690:  MOVLW  3B
06692:  MOVWF  x07
06694:  MOVLW  01
06696:  MOVWF  x09
06698:  MOVWF  x0A
0669A:  MOVLB  0
0669C:  CALL   1830
066A0:  MOVLW  0A
066A2:  MOVLB  6
066A4:  MOVWF  x05
066A6:  MOVLW  28
066A8:  MOVWF  x06
066AA:  MOVLW  04
066AC:  MOVWF  x08
066AE:  MOVLW  52
066B0:  MOVWF  x07
066B2:  MOVLW  02
066B4:  MOVWF  x09
066B6:  MOVLW  01
066B8:  MOVWF  x0A
066BA:  MOVLB  0
066BC:  CALL   1830
....................    glcd_update(); 
066C0:  CALL   1614
....................    delay_ms(3000); 
066C4:  MOVLW  0C
066C6:  MOVLB  5
066C8:  MOVWF  xEC
066CA:  MOVLW  FA
066CC:  MOVLB  6
066CE:  MOVWF  x00
066D0:  MOVLB  0
066D2:  CALL   14DC
066D6:  MOVLB  5
066D8:  DECFSZ xEC,F
066DA:  BRA    66CA
....................                         
....................    glcd_fillScreen(OFF);      //Limpia la pantalla 
066DC:  CLRF   xF4
066DE:  MOVLB  0
066E0:  CALL   15BA
....................    Menu=0; 
066E4:  MOVLB  4
066E6:  CLRF   xCC
....................    LuzBlanca_off;Alarma_off; 
066E8:  BCF    F8B.0
066EA:  BCF    F94.0
066EC:  BCF    F8B.7
066EE:  BCF    F94.7
.................... //-------Inicio de Cabina-------------------------------------------------------------------------// 
....................    VelocidadMotor(0); 
066F0:  MOVLB  5
066F2:  CLRF   xEC
066F4:  MOVLB  0
066F6:  CALL   1502
....................    Motor_off; 
066FA:  BCF    F8B.2
066FC:  BCF    F94.2
....................    LeeEEPROM(); // Lectura de variables almacenadas en la EEPROM  
066FE:  GOTO   1DF4
....................    LimitaValores(); 
06702:  GOTO   25FE
....................    //Menu=2; 
....................    while(true){  
....................    glcd_update(); 
06706:  CALL   1614
.................... //**Actualizacin de Lectura de Sensores**//    
....................    if(Lectura==1){ 
0670A:  MOVLB  4
0670C:  BTFSS  x2E.4
0670E:  BRA    6770
....................       Lectura=0; 
06710:  BCF    x2E.4
....................       InFlow=LeerFlujoInFlow(8); 
06712:  MOVLW  08
06714:  MOVLB  5
06716:  MOVWF  xEC
06718:  MOVLB  0
0671A:  GOTO   4272
0671E:  MOVFF  03,51B
06722:  MOVFF  02,51A
06726:  MOVFF  01,519
0672A:  MOVFF  00,518
....................       Temperatura=leeTemperatura(5); 
0672E:  MOVLW  05
06730:  MOVLB  5
06732:  MOVWF  xEC
06734:  MOVLB  0
06736:  GOTO   4640
0673A:  MOVFF  03,620
0673E:  MOVFF  02,61F
06742:  MOVFF  01,61E
06746:  MOVFF  00,61D
0674A:  CALL   2FF0
0674E:  MOVFF  01,5DF
....................       Filtro_DownFlow=Leer_Sensor_Presion(8); 
06752:  MOVLW  08
06754:  MOVLB  5
06756:  MOVWF  xEC
06758:  MOVLB  0
0675A:  GOTO   4810
0675E:  MOVFF  03,523
06762:  MOVFF  02,522
06766:  MOVFF  01,521
0676A:  MOVFF  00,520
0676E:  MOVLB  4
....................    } 
.................... //----------------------------------------// 
....................  
.................... //**Contador de Tiempo de Trabajo del filtro**// 
....................    if(minutos_trabajo>=3600){ // Tiempo de Trabajo 
06770:  MOVF   xE7,W
06772:  SUBLW  0D
06774:  BTFSC  FD8.0
06776:  BRA    691E
06778:  XORLW  FF
0677A:  BNZ   6784
0677C:  MOVF   xE6,W
0677E:  SUBLW  0F
06780:  BTFSC  FD8.0
06782:  BRA    691E
....................       minutos_trabajo=0; //Minutos Trabajo realmente son segundos. 
06784:  CLRF   xE7
06786:  CLRF   xE6
....................       write_eeprom(33,make8(minutos_trabajo,0)); 
06788:  MOVFF  4E6,5EC
0678C:  CLRF   FAA
0678E:  MOVLW  21
06790:  MOVWF  FA9
06792:  MOVFF  5EC,FA8
06796:  BCF    FA6.6
06798:  BCF    FA6.7
0679A:  BSF    FA6.2
0679C:  MOVF   FF2,W
0679E:  MOVWF  00
067A0:  BCF    FF2.7
067A2:  MOVLB  F
067A4:  MOVLW  55
067A6:  MOVWF  FA7
067A8:  MOVLW  AA
067AA:  MOVWF  FA7
067AC:  BSF    FA6.1
067AE:  BTFSC  FA6.1
067B0:  BRA    67AE
067B2:  BCF    FA6.2
067B4:  MOVF   00,W
067B6:  IORWF  FF2,F
....................       delay_ms(20); 
067B8:  MOVLW  14
067BA:  MOVLB  6
067BC:  MOVWF  x00
067BE:  MOVLB  0
067C0:  CALL   14DC
....................       write_eeprom(34,make8(minutos_trabajo,1)); 
067C4:  MOVFF  4E7,5EC
067C8:  CLRF   FAA
067CA:  MOVLW  22
067CC:  MOVWF  FA9
067CE:  MOVFF  5EC,FA8
067D2:  BCF    FA6.6
067D4:  BCF    FA6.7
067D6:  BSF    FA6.2
067D8:  MOVF   FF2,W
067DA:  MOVWF  00
067DC:  BCF    FF2.7
067DE:  MOVLB  F
067E0:  MOVLW  55
067E2:  MOVWF  FA7
067E4:  MOVLW  AA
067E6:  MOVWF  FA7
067E8:  BSF    FA6.1
067EA:  BTFSC  FA6.1
067EC:  BRA    67EA
067EE:  BCF    FA6.2
067F0:  MOVF   00,W
067F2:  IORWF  FF2,F
....................       delay_ms(20); 
067F4:  MOVLW  14
067F6:  MOVLB  6
067F8:  MOVWF  x00
067FA:  MOVLB  0
067FC:  CALL   14DC
....................       Ttrabajo[0]++; 
06800:  MOVLB  5
06802:  INCF   x0C,F
....................       if(Ttrabajo[0]>9){ 
06804:  BTFSC  x0C.7
06806:  BRA    6812
06808:  MOVF   x0C,W
0680A:  SUBLW  09
0680C:  BC    6812
....................          Ttrabajo[0]=0; 
0680E:  CLRF   x0C
....................          Ttrabajo[1]++; 
06810:  INCF   x0D,F
....................       } 
....................       if(Ttrabajo[1]>9){ 
06812:  BTFSC  x0D.7
06814:  BRA    6820
06816:  MOVF   x0D,W
06818:  SUBLW  09
0681A:  BC    6820
....................          Ttrabajo[1]=0; 
0681C:  CLRF   x0D
....................          Ttrabajo[2]++; 
0681E:  INCF   x0E,F
....................       } 
....................       if(Ttrabajo[2]>9){ 
06820:  BTFSC  x0E.7
06822:  BRA    682E
06824:  MOVF   x0E,W
06826:  SUBLW  09
06828:  BC    682E
....................          Ttrabajo[2]=0; 
0682A:  CLRF   x0E
....................          Ttrabajo[3]++; 
0682C:  INCF   x0F,F
....................       } 
....................       if(Ttrabajo[3]>9){ 
0682E:  BTFSC  x0F.7
06830:  BRA    683A
06832:  MOVF   x0F,W
06834:  SUBLW  09
06836:  BC    683A
....................          Ttrabajo[3]=0; 
06838:  CLRF   x0F
....................       } 
....................       write_eeprom(16,Ttrabajo[0]); 
0683A:  CLRF   FAA
0683C:  MOVLW  10
0683E:  MOVWF  FA9
06840:  MOVFF  50C,FA8
06844:  BCF    FA6.6
06846:  BCF    FA6.7
06848:  BSF    FA6.2
0684A:  MOVF   FF2,W
0684C:  MOVWF  00
0684E:  BCF    FF2.7
06850:  MOVLB  F
06852:  MOVLW  55
06854:  MOVWF  FA7
06856:  MOVLW  AA
06858:  MOVWF  FA7
0685A:  BSF    FA6.1
0685C:  BTFSC  FA6.1
0685E:  BRA    685C
06860:  BCF    FA6.2
06862:  MOVF   00,W
06864:  IORWF  FF2,F
....................       delay_ms(20); 
06866:  MOVLW  14
06868:  MOVLB  6
0686A:  MOVWF  x00
0686C:  MOVLB  0
0686E:  CALL   14DC
....................       write_eeprom(17,Ttrabajo[1]); 
06872:  CLRF   FAA
06874:  MOVLW  11
06876:  MOVWF  FA9
06878:  MOVFF  50D,FA8
0687C:  BCF    FA6.6
0687E:  BCF    FA6.7
06880:  BSF    FA6.2
06882:  MOVF   FF2,W
06884:  MOVWF  00
06886:  BCF    FF2.7
06888:  MOVLB  F
0688A:  MOVLW  55
0688C:  MOVWF  FA7
0688E:  MOVLW  AA
06890:  MOVWF  FA7
06892:  BSF    FA6.1
06894:  BTFSC  FA6.1
06896:  BRA    6894
06898:  BCF    FA6.2
0689A:  MOVF   00,W
0689C:  IORWF  FF2,F
....................       delay_ms(20); 
0689E:  MOVLW  14
068A0:  MOVLB  6
068A2:  MOVWF  x00
068A4:  MOVLB  0
068A6:  CALL   14DC
....................       write_eeprom(18,Ttrabajo[2]); 
068AA:  CLRF   FAA
068AC:  MOVLW  12
068AE:  MOVWF  FA9
068B0:  MOVFF  50E,FA8
068B4:  BCF    FA6.6
068B6:  BCF    FA6.7
068B8:  BSF    FA6.2
068BA:  MOVF   FF2,W
068BC:  MOVWF  00
068BE:  BCF    FF2.7
068C0:  MOVLB  F
068C2:  MOVLW  55
068C4:  MOVWF  FA7
068C6:  MOVLW  AA
068C8:  MOVWF  FA7
068CA:  BSF    FA6.1
068CC:  BTFSC  FA6.1
068CE:  BRA    68CC
068D0:  BCF    FA6.2
068D2:  MOVF   00,W
068D4:  IORWF  FF2,F
....................       delay_ms(20); 
068D6:  MOVLW  14
068D8:  MOVLB  6
068DA:  MOVWF  x00
068DC:  MOVLB  0
068DE:  CALL   14DC
....................       write_eeprom(19,Ttrabajo[3]); 
068E2:  CLRF   FAA
068E4:  MOVLW  13
068E6:  MOVWF  FA9
068E8:  MOVFF  50F,FA8
068EC:  BCF    FA6.6
068EE:  BCF    FA6.7
068F0:  BSF    FA6.2
068F2:  MOVF   FF2,W
068F4:  MOVWF  00
068F6:  BCF    FF2.7
068F8:  MOVLB  F
068FA:  MOVLW  55
068FC:  MOVWF  FA7
068FE:  MOVLW  AA
06900:  MOVWF  FA7
06902:  BSF    FA6.1
06904:  BTFSC  FA6.1
06906:  BRA    6904
06908:  BCF    FA6.2
0690A:  MOVF   00,W
0690C:  IORWF  FF2,F
....................       delay_ms(20); 
0690E:  MOVLW  14
06910:  MOVLB  6
06912:  MOVWF  x00
06914:  MOVLB  0
06916:  CALL   14DC
....................    }else if(minutos_trabajo==900 || minutos_trabajo==1800 || minutos_trabajo==2700 ){ 
0691A:  BRA    69BA
0691C:  MOVLB  4
0691E:  MOVF   xE6,W
06920:  SUBLW  84
06922:  BNZ   692A
06924:  MOVF   xE7,W
06926:  SUBLW  03
06928:  BZ    6942
0692A:  MOVF   xE6,W
0692C:  SUBLW  08
0692E:  BNZ   6936
06930:  MOVF   xE7,W
06932:  SUBLW  07
06934:  BZ    6942
06936:  MOVF   xE6,W
06938:  SUBLW  8C
0693A:  BNZ   69BC
0693C:  MOVF   xE7,W
0693E:  SUBLW  0A
06940:  BNZ   69BC
....................       write_eeprom(33,make8(minutos_trabajo,0)); 
06942:  MOVFF  4E6,5EC
06946:  CLRF   FAA
06948:  MOVLW  21
0694A:  MOVWF  FA9
0694C:  MOVFF  5EC,FA8
06950:  BCF    FA6.6
06952:  BCF    FA6.7
06954:  BSF    FA6.2
06956:  MOVF   FF2,W
06958:  MOVWF  00
0695A:  BCF    FF2.7
0695C:  MOVLB  F
0695E:  MOVLW  55
06960:  MOVWF  FA7
06962:  MOVLW  AA
06964:  MOVWF  FA7
06966:  BSF    FA6.1
06968:  BTFSC  FA6.1
0696A:  BRA    6968
0696C:  BCF    FA6.2
0696E:  MOVF   00,W
06970:  IORWF  FF2,F
....................       delay_ms(20); 
06972:  MOVLW  14
06974:  MOVLB  6
06976:  MOVWF  x00
06978:  MOVLB  0
0697A:  CALL   14DC
....................       write_eeprom(34,make8(minutos_trabajo,1)); 
0697E:  MOVFF  4E7,5EC
06982:  CLRF   FAA
06984:  MOVLW  22
06986:  MOVWF  FA9
06988:  MOVFF  5EC,FA8
0698C:  BCF    FA6.6
0698E:  BCF    FA6.7
06990:  BSF    FA6.2
06992:  MOVF   FF2,W
06994:  MOVWF  00
06996:  BCF    FF2.7
06998:  MOVLB  F
0699A:  MOVLW  55
0699C:  MOVWF  FA7
0699E:  MOVLW  AA
069A0:  MOVWF  FA7
069A2:  BSF    FA6.1
069A4:  BTFSC  FA6.1
069A6:  BRA    69A4
069A8:  BCF    FA6.2
069AA:  MOVF   00,W
069AC:  IORWF  FF2,F
....................       delay_ms(20); 
069AE:  MOVLW  14
069B0:  MOVLB  6
069B2:  MOVWF  x00
069B4:  MOVLB  0
069B6:  CALL   14DC
069BA:  MOVLB  4
....................    } 
.................... //----------------------------------------//       
....................  
.................... //**Contador de Tiempo de Trabajo de UV**// 
....................          if(segundos_uv>=60){ 
069BC:  MOVF   xE1,F
069BE:  BNZ   69C6
069C0:  MOVF   xE0,W
069C2:  SUBLW  3B
069C4:  BC    69D0
....................             segundos_uv=0; 
069C6:  CLRF   xE1
069C8:  CLRF   xE0
....................             minutos_uv++; 
069CA:  INCF   xE4,F
069CC:  BTFSC  FD8.2
069CE:  INCF   xE5,F
....................          } 
....................           
....................          if(minutos_uv>=60){ 
069D0:  MOVF   xE5,F
069D2:  BNZ   69DC
069D4:  MOVF   xE4,W
069D6:  SUBLW  3B
069D8:  BTFSC  FD8.0
069DA:  BRA    6B36
....................             minutos_uv=0; 
069DC:  CLRF   xE5
069DE:  CLRF   xE4
....................             Tuv[0]++; 
069E0:  MOVLB  5
069E2:  INCF   x00,F
....................             if(Tuv[0]>9){ 
069E4:  BTFSC  x00.7
069E6:  BRA    69F2
069E8:  MOVF   x00,W
069EA:  SUBLW  09
069EC:  BC    69F2
....................                Tuv[0]=0; 
069EE:  CLRF   x00
....................                Tuv[1]++; 
069F0:  INCF   x01,F
....................             } 
....................             if(Tuv[1]>9){ 
069F2:  BTFSC  x01.7
069F4:  BRA    6A00
069F6:  MOVF   x01,W
069F8:  SUBLW  09
069FA:  BC    6A00
....................                Tuv[1]=0; 
069FC:  CLRF   x01
....................                Tuv[2]++; 
069FE:  INCF   x02,F
....................             } 
....................             if(Tuv[2]>9){ 
06A00:  BTFSC  x02.7
06A02:  BRA    6A0E
06A04:  MOVF   x02,W
06A06:  SUBLW  09
06A08:  BC    6A0E
....................                Tuv[2]=0; 
06A0A:  CLRF   x02
....................                Tuv[3]++; 
06A0C:  INCF   x03,F
....................             } 
....................             if(Tuv[3]>9){ 
06A0E:  BTFSC  x03.7
06A10:  BRA    6A1A
06A12:  MOVF   x03,W
06A14:  SUBLW  09
06A16:  BC    6A1A
....................                Tuv[3]=0; 
06A18:  CLRF   x03
....................             } 
....................             write_eeprom(31,minutos_uv); 
06A1A:  CLRF   FAA
06A1C:  MOVLW  1F
06A1E:  MOVWF  FA9
06A20:  MOVFF  4E4,FA8
06A24:  BCF    FA6.6
06A26:  BCF    FA6.7
06A28:  BSF    FA6.2
06A2A:  MOVF   FF2,W
06A2C:  MOVWF  00
06A2E:  BCF    FF2.7
06A30:  MOVLB  F
06A32:  MOVLW  55
06A34:  MOVWF  FA7
06A36:  MOVLW  AA
06A38:  MOVWF  FA7
06A3A:  BSF    FA6.1
06A3C:  BTFSC  FA6.1
06A3E:  BRA    6A3C
06A40:  BCF    FA6.2
06A42:  MOVF   00,W
06A44:  IORWF  FF2,F
....................             delay_ms(20); 
06A46:  MOVLW  14
06A48:  MOVLB  6
06A4A:  MOVWF  x00
06A4C:  MOVLB  0
06A4E:  CALL   14DC
....................             write_eeprom(12,Tuv[0]); 
06A52:  CLRF   FAA
06A54:  MOVLW  0C
06A56:  MOVWF  FA9
06A58:  MOVFF  500,FA8
06A5C:  BCF    FA6.6
06A5E:  BCF    FA6.7
06A60:  BSF    FA6.2
06A62:  MOVF   FF2,W
06A64:  MOVWF  00
06A66:  BCF    FF2.7
06A68:  MOVLB  F
06A6A:  MOVLW  55
06A6C:  MOVWF  FA7
06A6E:  MOVLW  AA
06A70:  MOVWF  FA7
06A72:  BSF    FA6.1
06A74:  BTFSC  FA6.1
06A76:  BRA    6A74
06A78:  BCF    FA6.2
06A7A:  MOVF   00,W
06A7C:  IORWF  FF2,F
....................             delay_ms(20); 
06A7E:  MOVLW  14
06A80:  MOVLB  6
06A82:  MOVWF  x00
06A84:  MOVLB  0
06A86:  CALL   14DC
....................             write_eeprom(13,Tuv[1]); 
06A8A:  CLRF   FAA
06A8C:  MOVLW  0D
06A8E:  MOVWF  FA9
06A90:  MOVFF  501,FA8
06A94:  BCF    FA6.6
06A96:  BCF    FA6.7
06A98:  BSF    FA6.2
06A9A:  MOVF   FF2,W
06A9C:  MOVWF  00
06A9E:  BCF    FF2.7
06AA0:  MOVLB  F
06AA2:  MOVLW  55
06AA4:  MOVWF  FA7
06AA6:  MOVLW  AA
06AA8:  MOVWF  FA7
06AAA:  BSF    FA6.1
06AAC:  BTFSC  FA6.1
06AAE:  BRA    6AAC
06AB0:  BCF    FA6.2
06AB2:  MOVF   00,W
06AB4:  IORWF  FF2,F
....................             delay_ms(20); 
06AB6:  MOVLW  14
06AB8:  MOVLB  6
06ABA:  MOVWF  x00
06ABC:  MOVLB  0
06ABE:  CALL   14DC
....................             write_eeprom(14,Tuv[2]); 
06AC2:  CLRF   FAA
06AC4:  MOVLW  0E
06AC6:  MOVWF  FA9
06AC8:  MOVFF  502,FA8
06ACC:  BCF    FA6.6
06ACE:  BCF    FA6.7
06AD0:  BSF    FA6.2
06AD2:  MOVF   FF2,W
06AD4:  MOVWF  00
06AD6:  BCF    FF2.7
06AD8:  MOVLB  F
06ADA:  MOVLW  55
06ADC:  MOVWF  FA7
06ADE:  MOVLW  AA
06AE0:  MOVWF  FA7
06AE2:  BSF    FA6.1
06AE4:  BTFSC  FA6.1
06AE6:  BRA    6AE4
06AE8:  BCF    FA6.2
06AEA:  MOVF   00,W
06AEC:  IORWF  FF2,F
....................             delay_ms(20); 
06AEE:  MOVLW  14
06AF0:  MOVLB  6
06AF2:  MOVWF  x00
06AF4:  MOVLB  0
06AF6:  CALL   14DC
....................             write_eeprom(15,Tuv[3]); 
06AFA:  CLRF   FAA
06AFC:  MOVLW  0F
06AFE:  MOVWF  FA9
06B00:  MOVFF  503,FA8
06B04:  BCF    FA6.6
06B06:  BCF    FA6.7
06B08:  BSF    FA6.2
06B0A:  MOVF   FF2,W
06B0C:  MOVWF  00
06B0E:  BCF    FF2.7
06B10:  MOVLB  F
06B12:  MOVLW  55
06B14:  MOVWF  FA7
06B16:  MOVLW  AA
06B18:  MOVWF  FA7
06B1A:  BSF    FA6.1
06B1C:  BTFSC  FA6.1
06B1E:  BRA    6B1C
06B20:  BCF    FA6.2
06B22:  MOVF   00,W
06B24:  IORWF  FF2,F
....................             delay_ms(20); 
06B26:  MOVLW  14
06B28:  MOVLB  6
06B2A:  MOVWF  x00
06B2C:  MOVLB  0
06B2E:  CALL   14DC
....................          }else if(minutos_uv==15 || minutos_uv==30 || minutos_uv==45){ 
06B32:  BRA    6B8C
06B34:  MOVLB  4
06B36:  MOVF   xE4,W
06B38:  SUBLW  0F
06B3A:  BNZ   6B40
06B3C:  MOVF   xE5,F
06B3E:  BZ    6B54
06B40:  MOVF   xE4,W
06B42:  SUBLW  1E
06B44:  BNZ   6B4A
06B46:  MOVF   xE5,F
06B48:  BZ    6B54
06B4A:  MOVF   xE4,W
06B4C:  SUBLW  2D
06B4E:  BNZ   6B8E
06B50:  MOVF   xE5,F
06B52:  BNZ   6B8E
....................             write_eeprom(31,minutos_uv); 
06B54:  CLRF   FAA
06B56:  MOVLW  1F
06B58:  MOVWF  FA9
06B5A:  MOVFF  4E4,FA8
06B5E:  BCF    FA6.6
06B60:  BCF    FA6.7
06B62:  BSF    FA6.2
06B64:  MOVF   FF2,W
06B66:  MOVWF  00
06B68:  BCF    FF2.7
06B6A:  MOVLB  F
06B6C:  MOVLW  55
06B6E:  MOVWF  FA7
06B70:  MOVLW  AA
06B72:  MOVWF  FA7
06B74:  BSF    FA6.1
06B76:  BTFSC  FA6.1
06B78:  BRA    6B76
06B7A:  BCF    FA6.2
06B7C:  MOVF   00,W
06B7E:  IORWF  FF2,F
....................             delay_ms(20); 
06B80:  MOVLW  14
06B82:  MOVLB  6
06B84:  MOVWF  x00
06B86:  MOVLB  0
06B88:  CALL   14DC
06B8C:  MOVLB  4
....................          } 
.................... //----------------------------------------// 
....................  
....................    if(Menu!=2){// Si no esta en el menu de estados apaga la alarma 
06B8E:  MOVF   xCC,W
06B90:  SUBLW  02
06B92:  BZ    6B9C
....................       Alarma_off; 
06B94:  BCF    F8B.7
06B96:  BCF    F94.7
....................       Alarma=10; 
06B98:  MOVLW  0A
06B9A:  MOVWF  xD9
....................    } 
....................     
.................... //_-------------------------------------------------------------------------------------------------------------------------------------------------------- 
....................    if(Menu==0){ //Menu de Contrasea. 
06B9C:  MOVF   xCC,F
06B9E:  BNZ   6BD6
....................       while(PidePassword(0,0,1,Password[0],Password[1],Password[2],Password[3])==0){ 
06BA0:  MOVLB  5
06BA2:  CLRF   xED
06BA4:  CLRF   xEE
06BA6:  MOVLW  01
06BA8:  MOVWF  xEF
06BAA:  MOVFF  514,5F0
06BAE:  MOVFF  515,5F1
06BB2:  MOVFF  516,5F2
06BB6:  MOVFF  517,5F3
06BBA:  MOVLB  0
06BBC:  CALL   4F72
06BC0:  MOVF   01,F
06BC2:  BNZ   6BD8
....................          VelocidadMotor(0); 
06BC4:  MOVLB  5
06BC6:  CLRF   xEC
06BC8:  MOVLB  0
06BCA:  CALL   1502
....................          glcd_update(); 
06BCE:  CALL   1614
....................       }        
06BD2:  MOVLB  4
06BD4:  BRA    6BA0
06BD6:  MOVLB  0
....................    } 
.................... //_--------------------------------------------------------------------------------------------------------------------------------------------------------        
....................  
.................... //_-------------------------------------------------------------------------------------------------------------------------------------------------------- 
....................       if(Menu==1){//Menu de Purga. 
06BD8:  MOVLB  4
06BDA:  DECFSZ xCC,W
06BDC:  BRA    6E58
....................          glcd_text57(15, 1, Tiempo, 1, ON); 
06BDE:  MOVLW  0F
06BE0:  MOVLB  6
06BE2:  MOVWF  x05
06BE4:  MOVLW  01
06BE6:  MOVWF  x06
06BE8:  MOVLW  04
06BEA:  MOVWF  x08
06BEC:  MOVLW  59
06BEE:  MOVWF  x07
06BF0:  MOVLW  01
06BF2:  MOVWF  x09
06BF4:  MOVWF  x0A
06BF6:  MOVLB  0
06BF8:  CALL   1830
....................          LuzBlanca_off;//Alarma_off; 
06BFC:  BCF    F8B.0
06BFE:  BCF    F94.0
....................          glcd_rect(9, 54, 120, 64, YES, OFF);          
06C00:  MOVLW  09
06C02:  MOVLB  6
06C04:  MOVWF  x05
06C06:  MOVLW  36
06C08:  MOVWF  x06
06C0A:  MOVLW  78
06C0C:  MOVWF  x07
06C0E:  MOVLW  40
06C10:  MOVWF  x08
06C12:  MOVLW  01
06C14:  MOVWF  x09
06C16:  CLRF   x0A
06C18:  MOVLB  0
06C1A:  CALL   4CFE
....................          displayTiempo(Tpurga[3],20,20,0,2);displayTiempo(Tpurga[2],40,20,0,2);glcd_text57(60, 22, Dos_puntos, 2, ON); 
06C1E:  MOVFF  4F7,5EC
06C22:  MOVLW  14
06C24:  MOVLB  5
06C26:  MOVWF  xED
06C28:  MOVWF  xEE
06C2A:  CLRF   xEF
06C2C:  MOVLW  02
06C2E:  MOVWF  xF0
06C30:  MOVLB  0
06C32:  CALL   5658
06C36:  MOVFF  4F6,5EC
06C3A:  MOVLW  28
06C3C:  MOVLB  5
06C3E:  MOVWF  xED
06C40:  MOVLW  14
06C42:  MOVWF  xEE
06C44:  CLRF   xEF
06C46:  MOVLW  02
06C48:  MOVWF  xF0
06C4A:  MOVLB  0
06C4C:  CALL   5658
06C50:  MOVLW  3C
06C52:  MOVLB  6
06C54:  MOVWF  x05
06C56:  MOVLW  16
06C58:  MOVWF  x06
06C5A:  MOVLW  04
06C5C:  MOVWF  x08
06C5E:  MOVLW  50
06C60:  MOVWF  x07
06C62:  MOVLW  02
06C64:  MOVWF  x09
06C66:  MOVLW  01
06C68:  MOVWF  x0A
06C6A:  MOVLB  0
06C6C:  CALL   1830
....................          displayTiempo(Tpurga[1],70,20,0,2);displayTiempo(Tpurga[0],90,20,0,2);         
06C70:  MOVFF  4F5,5EC
06C74:  MOVLW  46
06C76:  MOVLB  5
06C78:  MOVWF  xED
06C7A:  MOVLW  14
06C7C:  MOVWF  xEE
06C7E:  CLRF   xEF
06C80:  MOVLW  02
06C82:  MOVWF  xF0
06C84:  MOVLB  0
06C86:  CALL   5658
06C8A:  MOVFF  4F4,5EC
06C8E:  MOVLW  5A
06C90:  MOVLB  5
06C92:  MOVWF  xED
06C94:  MOVLW  14
06C96:  MOVWF  xEE
06C98:  CLRF   xEF
06C9A:  MOVLW  02
06C9C:  MOVWF  xF0
06C9E:  MOVLB  0
06CA0:  CALL   5658
....................           
....................          if(VIDRIODN){ 
06CA4:  BSF    F92.3
06CA6:  BTFSC  F80.3
06CA8:  BRA    6D34
....................             strcpy(Menus.Letra,"  !Abra Proteccion"); 
06CAA:  MOVLW  04
06CAC:  MOVWF  FEA
06CAE:  MOVLW  16
06CB0:  MOVWF  FE9
06CB2:  MOVFF  FF2,5EC
06CB6:  BCF    FF2.7
06CB8:  MOVLW  00
06CBA:  CALL   0F58
06CBE:  TBLRD*-
06CC0:  TBLRD*+
06CC2:  MOVF   FF5,W
06CC4:  MOVWF  FEE
06CC6:  IORLW  00
06CC8:  BNZ   6CC0
06CCA:  MOVLB  5
06CCC:  BTFSC  xEC.7
06CCE:  BSF    FF2.7
....................             displayMenu(Menus.Letra,0,46,1,1); 
06CD0:  MOVLW  04
06CD2:  MOVWF  xF5
06CD4:  MOVLW  16
06CD6:  MOVWF  xF4
06CD8:  CLRF   xF6
06CDA:  MOVLW  2E
06CDC:  MOVWF  xF7
06CDE:  MOVLW  01
06CE0:  MOVWF  xF8
06CE2:  MOVWF  xF9
06CE4:  MOVLB  0
06CE6:  CALL   4E96
....................             strcpy(Menus.Letra,"      Frontal!    "); 
06CEA:  MOVLW  04
06CEC:  MOVWF  FEA
06CEE:  MOVLW  16
06CF0:  MOVWF  FE9
06CF2:  MOVFF  FF2,5EC
06CF6:  BCF    FF2.7
06CF8:  MOVLW  00
06CFA:  CALL   0F86
06CFE:  TBLRD*-
06D00:  TBLRD*+
06D02:  MOVF   FF5,W
06D04:  MOVWF  FEE
06D06:  IORLW  00
06D08:  BNZ   6D00
06D0A:  MOVLB  5
06D0C:  BTFSC  xEC.7
06D0E:  BSF    FF2.7
....................             displayMenu(Menus.Letra,0,55,1,1); 
06D10:  MOVLW  04
06D12:  MOVWF  xF5
06D14:  MOVLW  16
06D16:  MOVWF  xF4
06D18:  CLRF   xF6
06D1A:  MOVLW  37
06D1C:  MOVWF  xF7
06D1E:  MOVLW  01
06D20:  MOVWF  xF8
06D22:  MOVWF  xF9
06D24:  MOVLB  0
06D26:  CALL   4E96
....................             tiempo_purga=0; 
06D2A:  MOVLB  4
06D2C:  BCF    x2D.4
....................             Purga=OFF; 
06D2E:  BCF    x2E.7
....................          }else{ 
06D30:  BRA    6DBC
06D32:  MOVLB  0
....................             tiempo_purga=1; 
06D34:  MOVLB  4
06D36:  BSF    x2D.4
....................             Purga=ON; 
06D38:  BSF    x2E.7
....................             strcpy(Menus.Letra,"                  "); 
06D3A:  MOVLW  04
06D3C:  MOVWF  FEA
06D3E:  MOVLW  16
06D40:  MOVWF  FE9
06D42:  MOVFF  FF2,5EC
06D46:  BCF    FF2.7
06D48:  MOVLW  00
06D4A:  MOVLB  0
06D4C:  CALL   0FB4
06D50:  TBLRD*-
06D52:  TBLRD*+
06D54:  MOVF   FF5,W
06D56:  MOVWF  FEE
06D58:  IORLW  00
06D5A:  BNZ   6D52
06D5C:  MOVLB  5
06D5E:  BTFSC  xEC.7
06D60:  BSF    FF2.7
....................             displayMenu(Menus.Letra,0,46,0,1); 
06D62:  MOVLW  04
06D64:  MOVWF  xF5
06D66:  MOVLW  16
06D68:  MOVWF  xF4
06D6A:  CLRF   xF6
06D6C:  MOVLW  2E
06D6E:  MOVWF  xF7
06D70:  CLRF   xF8
06D72:  MOVLW  01
06D74:  MOVWF  xF9
06D76:  MOVLB  0
06D78:  CALL   4E96
....................             strcpy(Menus.Letra,"                  "); 
06D7C:  MOVLW  04
06D7E:  MOVWF  FEA
06D80:  MOVLW  16
06D82:  MOVWF  FE9
06D84:  MOVFF  FF2,5EC
06D88:  BCF    FF2.7
06D8A:  MOVLW  00
06D8C:  CALL   0FB4
06D90:  TBLRD*-
06D92:  TBLRD*+
06D94:  MOVF   FF5,W
06D96:  MOVWF  FEE
06D98:  IORLW  00
06D9A:  BNZ   6D92
06D9C:  MOVLB  5
06D9E:  BTFSC  xEC.7
06DA0:  BSF    FF2.7
....................             displayMenu(Menus.Letra,0,55,0,1); 
06DA2:  MOVLW  04
06DA4:  MOVWF  xF5
06DA6:  MOVLW  16
06DA8:  MOVWF  xF4
06DAA:  CLRF   xF6
06DAC:  MOVLW  37
06DAE:  MOVWF  xF7
06DB0:  CLRF   xF8
06DB2:  MOVLW  01
06DB4:  MOVWF  xF9
06DB6:  MOVLB  0
06DB8:  CALL   4E96
....................          } 
....................           
....................          VelocidadMotor(VelMotor); 
06DBC:  MOVFF  5E3,5EC
06DC0:  MOVLB  0
06DC2:  CALL   1502
....................           
....................          if(RIGHT){ 
06DC6:  BSF    F96.1
06DC8:  BTFSC  F84.1
06DCA:  BRA    6DFC
....................             delay_ms(500); 
06DCC:  MOVLW  02
06DCE:  MOVLB  5
06DD0:  MOVWF  xEC
06DD2:  MOVLW  FA
06DD4:  MOVLB  6
06DD6:  MOVWF  x00
06DD8:  MOVLB  0
06DDA:  CALL   14DC
06DDE:  MOVLB  5
06DE0:  DECFSZ xEC,F
06DE2:  BRA    6DD2
....................             if(RIGHT){ 
06DE4:  BSF    F96.1
06DE6:  BTFSC  F84.1
06DE8:  BRA    6DFE
....................                tiempo_purga=0;Menu=2;glcd_fillScreen(OFF); 
06DEA:  MOVLB  4
06DEC:  BCF    x2D.4
06DEE:  MOVLW  02
06DF0:  MOVWF  xCC
06DF2:  MOVLB  5
06DF4:  CLRF   xF4
06DF6:  MOVLB  0
06DF8:  CALL   15BA
06DFC:  MOVLB  5
....................             } 
....................          } 
....................         
....................          if((Tpurga[0]>=Tpurgap[0])&&(Tpurga[1]>=Tpurgap[1])&&(Tpurga[2]>=Tpurgap[2])&&(Tpurga[3]>=Tpurgap[3])){ 
06DFE:  MOVLB  4
06E00:  MOVF   xF8,W
06E02:  XORLW  80
06E04:  MOVWF  00
06E06:  MOVF   xF4,W
06E08:  XORLW  80
06E0A:  SUBWF  00,W
06E0C:  BZ    6E10
06E0E:  BC    6E58
06E10:  MOVF   xF9,W
06E12:  XORLW  80
06E14:  MOVWF  00
06E16:  MOVF   xF5,W
06E18:  XORLW  80
06E1A:  SUBWF  00,W
06E1C:  BZ    6E20
06E1E:  BC    6E58
06E20:  MOVF   xFA,W
06E22:  XORLW  80
06E24:  MOVWF  00
06E26:  MOVF   xF6,W
06E28:  XORLW  80
06E2A:  SUBWF  00,W
06E2C:  BZ    6E30
06E2E:  BC    6E58
06E30:  MOVF   xFB,W
06E32:  XORLW  80
06E34:  MOVWF  00
06E36:  MOVF   xF7,W
06E38:  XORLW  80
06E3A:  SUBWF  00,W
06E3C:  BZ    6E40
06E3E:  BC    6E58
....................             tiempo_purga=0;Menu=2;glcd_fillScreen(OFF);flag_luz=1;flag_blower=1;flag_toma=1; 
06E40:  BCF    x2D.4
06E42:  MOVLW  02
06E44:  MOVWF  xCC
06E46:  MOVLB  5
06E48:  CLRF   xF4
06E4A:  MOVLB  0
06E4C:  CALL   15BA
06E50:  MOVLB  4
06E52:  BSF    x2D.1
06E54:  BSF    x2C.7
06E56:  BSF    x2D.0
....................          }       
....................       } 
.................... //_--------------------------------------------------------------------------------------------------------------------------------------------------------        
....................  
.................... //_-------------------------------------------------------------------------------------------------------------------------------------------------------- 
....................       if(Menu==2){ //Menu General. 
06E58:  MOVF   xCC,W
06E5A:  SUBLW  02
06E5C:  BTFSS  FD8.2
06E5E:  GOTO   7DB8
....................          Purga=OFF; 
06E62:  BCF    x2E.7
....................          w=0; 
06E64:  BCF    x2D.3
....................          //glcd_imagen(4); 
....................           
....................          if(VelMotor==1){ 
06E66:  MOVLB  5
06E68:  DECFSZ xE3,W
06E6A:  BRA    6F22
....................             glcd_rect(0, 29, 13, 39, YES, ON); 
06E6C:  MOVLB  6
06E6E:  CLRF   x05
06E70:  MOVLW  1D
06E72:  MOVWF  x06
06E74:  MOVLW  0D
06E76:  MOVWF  x07
06E78:  MOVLW  27
06E7A:  MOVWF  x08
06E7C:  MOVLW  01
06E7E:  MOVWF  x09
06E80:  MOVWF  x0A
06E82:  MOVLB  0
06E84:  CALL   4CFE
....................             glcd_rect(15, 26, 28, 39, NO, ON); 
06E88:  MOVLW  0F
06E8A:  MOVLB  6
06E8C:  MOVWF  x05
06E8E:  MOVLW  1A
06E90:  MOVWF  x06
06E92:  MOVLW  1C
06E94:  MOVWF  x07
06E96:  MOVLW  27
06E98:  MOVWF  x08
06E9A:  CLRF   x09
06E9C:  MOVLW  01
06E9E:  MOVWF  x0A
06EA0:  MOVLB  0
06EA2:  CALL   4CFE
....................             glcd_rect(30, 23, 43, 39, NO, ON); 
06EA6:  MOVLW  1E
06EA8:  MOVLB  6
06EAA:  MOVWF  x05
06EAC:  MOVLW  17
06EAE:  MOVWF  x06
06EB0:  MOVLW  2B
06EB2:  MOVWF  x07
06EB4:  MOVLW  27
06EB6:  MOVWF  x08
06EB8:  CLRF   x09
06EBA:  MOVLW  01
06EBC:  MOVWF  x0A
06EBE:  MOVLB  0
06EC0:  CALL   4CFE
....................             glcd_rect(45, 20, 58, 39, NO, ON); 
06EC4:  MOVLW  2D
06EC6:  MOVLB  6
06EC8:  MOVWF  x05
06ECA:  MOVLW  14
06ECC:  MOVWF  x06
06ECE:  MOVLW  3A
06ED0:  MOVWF  x07
06ED2:  MOVLW  27
06ED4:  MOVWF  x08
06ED6:  CLRF   x09
06ED8:  MOVLW  01
06EDA:  MOVWF  x0A
06EDC:  MOVLB  0
06EDE:  CALL   4CFE
....................             glcd_rect(60, 17, 73, 39, NO, ON); 
06EE2:  MOVLW  3C
06EE4:  MOVLB  6
06EE6:  MOVWF  x05
06EE8:  MOVLW  11
06EEA:  MOVWF  x06
06EEC:  MOVLW  49
06EEE:  MOVWF  x07
06EF0:  MOVLW  27
06EF2:  MOVWF  x08
06EF4:  CLRF   x09
06EF6:  MOVLW  01
06EF8:  MOVWF  x0A
06EFA:  MOVLB  0
06EFC:  CALL   4CFE
....................             glcd_rect(75, 14, 88, 39, NO, ON); 
06F00:  MOVLW  4B
06F02:  MOVLB  6
06F04:  MOVWF  x05
06F06:  MOVLW  0E
06F08:  MOVWF  x06
06F0A:  MOVLW  58
06F0C:  MOVWF  x07
06F0E:  MOVLW  27
06F10:  MOVWF  x08
06F12:  CLRF   x09
06F14:  MOVLW  01
06F16:  MOVWF  x0A
06F18:  MOVLB  0
06F1A:  CALL   4CFE
....................          }else if(VelMotor==2){ 
06F1E:  BRA    72CA
06F20:  MOVLB  5
06F22:  MOVF   xE3,W
06F24:  SUBLW  02
06F26:  BNZ   6FDE
....................             glcd_rect(0, 29, 13, 39, YES, ON); 
06F28:  MOVLB  6
06F2A:  CLRF   x05
06F2C:  MOVLW  1D
06F2E:  MOVWF  x06
06F30:  MOVLW  0D
06F32:  MOVWF  x07
06F34:  MOVLW  27
06F36:  MOVWF  x08
06F38:  MOVLW  01
06F3A:  MOVWF  x09
06F3C:  MOVWF  x0A
06F3E:  MOVLB  0
06F40:  CALL   4CFE
....................             glcd_rect(15, 26, 28, 39, YES, ON); 
06F44:  MOVLW  0F
06F46:  MOVLB  6
06F48:  MOVWF  x05
06F4A:  MOVLW  1A
06F4C:  MOVWF  x06
06F4E:  MOVLW  1C
06F50:  MOVWF  x07
06F52:  MOVLW  27
06F54:  MOVWF  x08
06F56:  MOVLW  01
06F58:  MOVWF  x09
06F5A:  MOVWF  x0A
06F5C:  MOVLB  0
06F5E:  CALL   4CFE
....................             glcd_rect(30, 23, 43, 39, NO, ON); 
06F62:  MOVLW  1E
06F64:  MOVLB  6
06F66:  MOVWF  x05
06F68:  MOVLW  17
06F6A:  MOVWF  x06
06F6C:  MOVLW  2B
06F6E:  MOVWF  x07
06F70:  MOVLW  27
06F72:  MOVWF  x08
06F74:  CLRF   x09
06F76:  MOVLW  01
06F78:  MOVWF  x0A
06F7A:  MOVLB  0
06F7C:  CALL   4CFE
....................             glcd_rect(45, 20, 58, 39, NO, ON); 
06F80:  MOVLW  2D
06F82:  MOVLB  6
06F84:  MOVWF  x05
06F86:  MOVLW  14
06F88:  MOVWF  x06
06F8A:  MOVLW  3A
06F8C:  MOVWF  x07
06F8E:  MOVLW  27
06F90:  MOVWF  x08
06F92:  CLRF   x09
06F94:  MOVLW  01
06F96:  MOVWF  x0A
06F98:  MOVLB  0
06F9A:  CALL   4CFE
....................             glcd_rect(60, 17, 73, 39, NO, ON); 
06F9E:  MOVLW  3C
06FA0:  MOVLB  6
06FA2:  MOVWF  x05
06FA4:  MOVLW  11
06FA6:  MOVWF  x06
06FA8:  MOVLW  49
06FAA:  MOVWF  x07
06FAC:  MOVLW  27
06FAE:  MOVWF  x08
06FB0:  CLRF   x09
06FB2:  MOVLW  01
06FB4:  MOVWF  x0A
06FB6:  MOVLB  0
06FB8:  CALL   4CFE
....................             glcd_rect(75, 14, 88, 39, NO, ON); 
06FBC:  MOVLW  4B
06FBE:  MOVLB  6
06FC0:  MOVWF  x05
06FC2:  MOVLW  0E
06FC4:  MOVWF  x06
06FC6:  MOVLW  58
06FC8:  MOVWF  x07
06FCA:  MOVLW  27
06FCC:  MOVWF  x08
06FCE:  CLRF   x09
06FD0:  MOVLW  01
06FD2:  MOVWF  x0A
06FD4:  MOVLB  0
06FD6:  CALL   4CFE
....................          }else if(VelMotor==3){ 
06FDA:  BRA    72CA
06FDC:  MOVLB  5
06FDE:  MOVF   xE3,W
06FE0:  SUBLW  03
06FE2:  BNZ   709A
....................             glcd_rect(0, 29, 13, 39, YES, ON); 
06FE4:  MOVLB  6
06FE6:  CLRF   x05
06FE8:  MOVLW  1D
06FEA:  MOVWF  x06
06FEC:  MOVLW  0D
06FEE:  MOVWF  x07
06FF0:  MOVLW  27
06FF2:  MOVWF  x08
06FF4:  MOVLW  01
06FF6:  MOVWF  x09
06FF8:  MOVWF  x0A
06FFA:  MOVLB  0
06FFC:  CALL   4CFE
....................             glcd_rect(15, 26, 28, 39, YES, ON); 
07000:  MOVLW  0F
07002:  MOVLB  6
07004:  MOVWF  x05
07006:  MOVLW  1A
07008:  MOVWF  x06
0700A:  MOVLW  1C
0700C:  MOVWF  x07
0700E:  MOVLW  27
07010:  MOVWF  x08
07012:  MOVLW  01
07014:  MOVWF  x09
07016:  MOVWF  x0A
07018:  MOVLB  0
0701A:  CALL   4CFE
....................             glcd_rect(30, 23, 43, 39, YES, ON); 
0701E:  MOVLW  1E
07020:  MOVLB  6
07022:  MOVWF  x05
07024:  MOVLW  17
07026:  MOVWF  x06
07028:  MOVLW  2B
0702A:  MOVWF  x07
0702C:  MOVLW  27
0702E:  MOVWF  x08
07030:  MOVLW  01
07032:  MOVWF  x09
07034:  MOVWF  x0A
07036:  MOVLB  0
07038:  CALL   4CFE
....................             glcd_rect(45, 20, 58, 39, NO, ON); 
0703C:  MOVLW  2D
0703E:  MOVLB  6
07040:  MOVWF  x05
07042:  MOVLW  14
07044:  MOVWF  x06
07046:  MOVLW  3A
07048:  MOVWF  x07
0704A:  MOVLW  27
0704C:  MOVWF  x08
0704E:  CLRF   x09
07050:  MOVLW  01
07052:  MOVWF  x0A
07054:  MOVLB  0
07056:  CALL   4CFE
....................             glcd_rect(60, 17, 73, 39, NO, ON); 
0705A:  MOVLW  3C
0705C:  MOVLB  6
0705E:  MOVWF  x05
07060:  MOVLW  11
07062:  MOVWF  x06
07064:  MOVLW  49
07066:  MOVWF  x07
07068:  MOVLW  27
0706A:  MOVWF  x08
0706C:  CLRF   x09
0706E:  MOVLW  01
07070:  MOVWF  x0A
07072:  MOVLB  0
07074:  CALL   4CFE
....................             glcd_rect(75, 14, 88, 39, NO, ON); 
07078:  MOVLW  4B
0707A:  MOVLB  6
0707C:  MOVWF  x05
0707E:  MOVLW  0E
07080:  MOVWF  x06
07082:  MOVLW  58
07084:  MOVWF  x07
07086:  MOVLW  27
07088:  MOVWF  x08
0708A:  CLRF   x09
0708C:  MOVLW  01
0708E:  MOVWF  x0A
07090:  MOVLB  0
07092:  CALL   4CFE
....................          }else if(VelMotor==4){ 
07096:  BRA    72CA
07098:  MOVLB  5
0709A:  MOVF   xE3,W
0709C:  SUBLW  04
0709E:  BNZ   7156
....................             glcd_rect(0, 29, 13, 39, YES, ON); 
070A0:  MOVLB  6
070A2:  CLRF   x05
070A4:  MOVLW  1D
070A6:  MOVWF  x06
070A8:  MOVLW  0D
070AA:  MOVWF  x07
070AC:  MOVLW  27
070AE:  MOVWF  x08
070B0:  MOVLW  01
070B2:  MOVWF  x09
070B4:  MOVWF  x0A
070B6:  MOVLB  0
070B8:  CALL   4CFE
....................             glcd_rect(15, 26, 28, 39, YES, ON); 
070BC:  MOVLW  0F
070BE:  MOVLB  6
070C0:  MOVWF  x05
070C2:  MOVLW  1A
070C4:  MOVWF  x06
070C6:  MOVLW  1C
070C8:  MOVWF  x07
070CA:  MOVLW  27
070CC:  MOVWF  x08
070CE:  MOVLW  01
070D0:  MOVWF  x09
070D2:  MOVWF  x0A
070D4:  MOVLB  0
070D6:  CALL   4CFE
....................             glcd_rect(30, 23, 43, 39, YES, ON); 
070DA:  MOVLW  1E
070DC:  MOVLB  6
070DE:  MOVWF  x05
070E0:  MOVLW  17
070E2:  MOVWF  x06
070E4:  MOVLW  2B
070E6:  MOVWF  x07
070E8:  MOVLW  27
070EA:  MOVWF  x08
070EC:  MOVLW  01
070EE:  MOVWF  x09
070F0:  MOVWF  x0A
070F2:  MOVLB  0
070F4:  CALL   4CFE
....................             glcd_rect(45, 20, 58, 39, YES, ON); 
070F8:  MOVLW  2D
070FA:  MOVLB  6
070FC:  MOVWF  x05
070FE:  MOVLW  14
07100:  MOVWF  x06
07102:  MOVLW  3A
07104:  MOVWF  x07
07106:  MOVLW  27
07108:  MOVWF  x08
0710A:  MOVLW  01
0710C:  MOVWF  x09
0710E:  MOVWF  x0A
07110:  MOVLB  0
07112:  CALL   4CFE
....................             glcd_rect(60, 17, 73, 39, NO, ON); 
07116:  MOVLW  3C
07118:  MOVLB  6
0711A:  MOVWF  x05
0711C:  MOVLW  11
0711E:  MOVWF  x06
07120:  MOVLW  49
07122:  MOVWF  x07
07124:  MOVLW  27
07126:  MOVWF  x08
07128:  CLRF   x09
0712A:  MOVLW  01
0712C:  MOVWF  x0A
0712E:  MOVLB  0
07130:  CALL   4CFE
....................             glcd_rect(75, 14, 88, 39, NO, ON); 
07134:  MOVLW  4B
07136:  MOVLB  6
07138:  MOVWF  x05
0713A:  MOVLW  0E
0713C:  MOVWF  x06
0713E:  MOVLW  58
07140:  MOVWF  x07
07142:  MOVLW  27
07144:  MOVWF  x08
07146:  CLRF   x09
07148:  MOVLW  01
0714A:  MOVWF  x0A
0714C:  MOVLB  0
0714E:  CALL   4CFE
....................          }else if(VelMotor==5){ 
07152:  BRA    72CA
07154:  MOVLB  5
07156:  MOVF   xE3,W
07158:  SUBLW  05
0715A:  BNZ   7212
....................             glcd_rect(0, 29, 13, 39, YES, ON); 
0715C:  MOVLB  6
0715E:  CLRF   x05
07160:  MOVLW  1D
07162:  MOVWF  x06
07164:  MOVLW  0D
07166:  MOVWF  x07
07168:  MOVLW  27
0716A:  MOVWF  x08
0716C:  MOVLW  01
0716E:  MOVWF  x09
07170:  MOVWF  x0A
07172:  MOVLB  0
07174:  CALL   4CFE
....................             glcd_rect(15, 26, 28, 39, YES, ON); 
07178:  MOVLW  0F
0717A:  MOVLB  6
0717C:  MOVWF  x05
0717E:  MOVLW  1A
07180:  MOVWF  x06
07182:  MOVLW  1C
07184:  MOVWF  x07
07186:  MOVLW  27
07188:  MOVWF  x08
0718A:  MOVLW  01
0718C:  MOVWF  x09
0718E:  MOVWF  x0A
07190:  MOVLB  0
07192:  CALL   4CFE
....................             glcd_rect(30, 23, 43, 39, YES, ON); 
07196:  MOVLW  1E
07198:  MOVLB  6
0719A:  MOVWF  x05
0719C:  MOVLW  17
0719E:  MOVWF  x06
071A0:  MOVLW  2B
071A2:  MOVWF  x07
071A4:  MOVLW  27
071A6:  MOVWF  x08
071A8:  MOVLW  01
071AA:  MOVWF  x09
071AC:  MOVWF  x0A
071AE:  MOVLB  0
071B0:  CALL   4CFE
....................             glcd_rect(45, 20, 58, 39, YES, ON); 
071B4:  MOVLW  2D
071B6:  MOVLB  6
071B8:  MOVWF  x05
071BA:  MOVLW  14
071BC:  MOVWF  x06
071BE:  MOVLW  3A
071C0:  MOVWF  x07
071C2:  MOVLW  27
071C4:  MOVWF  x08
071C6:  MOVLW  01
071C8:  MOVWF  x09
071CA:  MOVWF  x0A
071CC:  MOVLB  0
071CE:  CALL   4CFE
....................             glcd_rect(60, 17, 73, 39, YES, ON); 
071D2:  MOVLW  3C
071D4:  MOVLB  6
071D6:  MOVWF  x05
071D8:  MOVLW  11
071DA:  MOVWF  x06
071DC:  MOVLW  49
071DE:  MOVWF  x07
071E0:  MOVLW  27
071E2:  MOVWF  x08
071E4:  MOVLW  01
071E6:  MOVWF  x09
071E8:  MOVWF  x0A
071EA:  MOVLB  0
071EC:  CALL   4CFE
....................             glcd_rect(75, 14, 88, 39, NO, ON); 
071F0:  MOVLW  4B
071F2:  MOVLB  6
071F4:  MOVWF  x05
071F6:  MOVLW  0E
071F8:  MOVWF  x06
071FA:  MOVLW  58
071FC:  MOVWF  x07
071FE:  MOVLW  27
07200:  MOVWF  x08
07202:  CLRF   x09
07204:  MOVLW  01
07206:  MOVWF  x0A
07208:  MOVLB  0
0720A:  CALL   4CFE
....................          }else if(VelMotor==6){ 
0720E:  BRA    72CA
07210:  MOVLB  5
07212:  MOVF   xE3,W
07214:  SUBLW  06
07216:  BNZ   72CA
....................             glcd_rect(0, 29, 13, 39, YES, ON); 
07218:  MOVLB  6
0721A:  CLRF   x05
0721C:  MOVLW  1D
0721E:  MOVWF  x06
07220:  MOVLW  0D
07222:  MOVWF  x07
07224:  MOVLW  27
07226:  MOVWF  x08
07228:  MOVLW  01
0722A:  MOVWF  x09
0722C:  MOVWF  x0A
0722E:  MOVLB  0
07230:  CALL   4CFE
....................             glcd_rect(15, 26, 28, 39, YES, ON); 
07234:  MOVLW  0F
07236:  MOVLB  6
07238:  MOVWF  x05
0723A:  MOVLW  1A
0723C:  MOVWF  x06
0723E:  MOVLW  1C
07240:  MOVWF  x07
07242:  MOVLW  27
07244:  MOVWF  x08
07246:  MOVLW  01
07248:  MOVWF  x09
0724A:  MOVWF  x0A
0724C:  MOVLB  0
0724E:  CALL   4CFE
....................             glcd_rect(30, 23, 43, 39, YES, ON); 
07252:  MOVLW  1E
07254:  MOVLB  6
07256:  MOVWF  x05
07258:  MOVLW  17
0725A:  MOVWF  x06
0725C:  MOVLW  2B
0725E:  MOVWF  x07
07260:  MOVLW  27
07262:  MOVWF  x08
07264:  MOVLW  01
07266:  MOVWF  x09
07268:  MOVWF  x0A
0726A:  MOVLB  0
0726C:  CALL   4CFE
....................             glcd_rect(45, 20, 58, 39, YES, ON); 
07270:  MOVLW  2D
07272:  MOVLB  6
07274:  MOVWF  x05
07276:  MOVLW  14
07278:  MOVWF  x06
0727A:  MOVLW  3A
0727C:  MOVWF  x07
0727E:  MOVLW  27
07280:  MOVWF  x08
07282:  MOVLW  01
07284:  MOVWF  x09
07286:  MOVWF  x0A
07288:  MOVLB  0
0728A:  CALL   4CFE
....................             glcd_rect(60, 17, 73, 39, YES, ON); 
0728E:  MOVLW  3C
07290:  MOVLB  6
07292:  MOVWF  x05
07294:  MOVLW  11
07296:  MOVWF  x06
07298:  MOVLW  49
0729A:  MOVWF  x07
0729C:  MOVLW  27
0729E:  MOVWF  x08
072A0:  MOVLW  01
072A2:  MOVWF  x09
072A4:  MOVWF  x0A
072A6:  MOVLB  0
072A8:  CALL   4CFE
....................             glcd_rect(75, 14, 88, 39, YES, ON); 
072AC:  MOVLW  4B
072AE:  MOVLB  6
072B0:  MOVWF  x05
072B2:  MOVLW  0E
072B4:  MOVWF  x06
072B6:  MOVLW  58
072B8:  MOVWF  x07
072BA:  MOVLW  27
072BC:  MOVWF  x08
072BE:  MOVLW  01
072C0:  MOVWF  x09
072C2:  MOVWF  x0A
072C4:  MOVLB  0
072C6:  CALL   4CFE
....................          } 
....................           
....................          if(imprimir==1){ 
072CA:  MOVLB  4
072CC:  BTFSS  x2C.6
072CE:  BRA    7512
....................             glcd_text57(2, 12, Inflowt, 1, ON); 
072D0:  MOVLW  02
072D2:  MOVLB  6
072D4:  MOVWF  x05
072D6:  MOVLW  0C
072D8:  MOVWF  x06
072DA:  MOVLW  04
072DC:  MOVWF  x08
072DE:  MOVLW  6C
072E0:  MOVWF  x07
072E2:  MOVLW  01
072E4:  MOVWF  x09
072E6:  MOVWF  x0A
072E8:  MOVLB  0
072EA:  CALL   1830
....................             displayTiempo(VelMotor,23,11,0,1);   
072EE:  MOVFF  5E3,5EC
072F2:  MOVLW  17
072F4:  MOVLB  5
072F6:  MOVWF  xED
072F8:  MOVLW  0B
072FA:  MOVWF  xEE
072FC:  CLRF   xEF
072FE:  MOVLW  01
07300:  MOVWF  xF0
07302:  MOVLB  0
07304:  CALL   5658
....................             glcd_rect(0, 10, 95, 63, NO, ON); 
07308:  MOVLB  6
0730A:  CLRF   x05
0730C:  MOVLW  0A
0730E:  MOVWF  x06
07310:  MOVLW  5F
07312:  MOVWF  x07
07314:  MOVLW  3F
07316:  MOVWF  x08
07318:  CLRF   x09
0731A:  MOVLW  01
0731C:  MOVWF  x0A
0731E:  MOVLB  0
07320:  CALL   4CFE
....................             glcd_rect(100, 10, 127, 63, NO, ON); 
07324:  MOVLW  64
07326:  MOVLB  6
07328:  MOVWF  x05
0732A:  MOVLW  0A
0732C:  MOVWF  x06
0732E:  MOVLW  7F
07330:  MOVWF  x07
07332:  MOVLW  3F
07334:  MOVWF  x08
07336:  CLRF   x09
07338:  MOVLW  01
0733A:  MOVWF  x0A
0733C:  MOVLB  0
0733E:  CALL   4CFE
....................             //glcd_text57(35, 12, Downflowt, 1, ON); 
....................             glcd_text57(2, 41, Vida_Filtro, 1, ON); 
07342:  MOVLW  02
07344:  MOVLB  6
07346:  MOVWF  x05
07348:  MOVLW  29
0734A:  MOVWF  x06
0734C:  MOVLW  04
0734E:  MOVWF  x08
07350:  MOVLW  92
07352:  MOVWF  x07
07354:  MOVLW  01
07356:  MOVWF  x09
07358:  MOVWF  x0A
0735A:  MOVLB  0
0735C:  CALL   1830
....................             //displayTiempo(Ttrabajo[3],60,41,0,1);displayTiempo(Ttrabajo[2],67,41,0,1);displayTiempo(Ttrabajo[1],74,41,0,1);displayTiempo(Ttrabajo[0],82,41,0,1); 
....................             if(Filtro_Downflow>=0.9){ 
07360:  MOVLW  66
07362:  MOVLB  6
07364:  MOVWF  x20
07366:  MOVWF  x1F
07368:  MOVWF  x1E
0736A:  MOVLW  7E
0736C:  MOVWF  x1D
0736E:  MOVFF  523,624
07372:  MOVFF  522,623
07376:  MOVFF  521,622
0737A:  MOVFF  520,621
0737E:  MOVLB  0
07380:  CALL   2584
07384:  BC    7388
07386:  BNZ   73E8
....................                strcpy(Menus.Letra,"Filtro Saturado"); 
07388:  MOVLW  04
0738A:  MOVWF  FEA
0738C:  MOVLW  16
0738E:  MOVWF  FE9
07390:  MOVFF  FF2,5EC
07394:  BCF    FF2.7
07396:  MOVLW  00
07398:  CALL   0FE2
0739C:  TBLRD*-
0739E:  TBLRD*+
073A0:  MOVF   FF5,W
073A2:  MOVWF  FEE
073A4:  IORLW  00
073A6:  BNZ   739E
073A8:  MOVLB  5
073AA:  BTFSC  xEC.7
073AC:  BSF    FF2.7
....................                displayMenu(Menus.Letra,0,0,1,1); 
073AE:  MOVLW  04
073B0:  MOVWF  xF5
073B2:  MOVLW  16
073B4:  MOVWF  xF4
073B6:  CLRF   xF6
073B8:  CLRF   xF7
073BA:  MOVLW  01
073BC:  MOVWF  xF8
073BE:  MOVWF  xF9
073C0:  MOVLB  0
073C2:  CALL   4E96
....................                Alarma_on; 
073C6:  BSF    F8B.7
073C8:  BCF    F94.7
....................                delay_ms(50); 
073CA:  MOVLW  32
073CC:  MOVLB  6
073CE:  MOVWF  x00
073D0:  MOVLB  0
073D2:  CALL   14DC
....................                Alarma_off; 
073D6:  BCF    F8B.7
073D8:  BCF    F94.7
....................                delay_ms(50); 
073DA:  MOVLW  32
073DC:  MOVLB  6
073DE:  MOVWF  x00
073E0:  MOVLB  0
073E2:  CALL   14DC
....................             }else{ 
073E6:  BRA    7428
....................                strcpy(Menus.Letra,"JPCV24-PCR-EC"); 
073E8:  MOVLW  04
073EA:  MOVWF  FEA
073EC:  MOVLW  16
073EE:  MOVWF  FE9
073F0:  MOVFF  FF2,5EC
073F4:  BCF    FF2.7
073F6:  MOVLW  00
073F8:  CALL   100C
073FC:  TBLRD*-
073FE:  TBLRD*+
07400:  MOVF   FF5,W
07402:  MOVWF  FEE
07404:  IORLW  00
07406:  BNZ   73FE
07408:  MOVLB  5
0740A:  BTFSC  xEC.7
0740C:  BSF    FF2.7
....................                displayMenu(Menus.Letra,2,0,1,1); 
0740E:  MOVLW  04
07410:  MOVWF  xF5
07412:  MOVLW  16
07414:  MOVWF  xF4
07416:  MOVLW  02
07418:  MOVWF  xF6
0741A:  CLRF   xF7
0741C:  MOVLW  01
0741E:  MOVWF  xF8
07420:  MOVWF  xF9
07422:  MOVLB  0
07424:  CALL   4E96
....................             } 
....................             displayfloat2(Temperatura,90,0,1,1); 
07428:  MOVLB  6
0742A:  CLRF   x22
0742C:  MOVFF  5DF,621
07430:  MOVLB  0
07432:  CALL   19E8
07436:  MOVFF  00,5EC
0743A:  MOVFF  01,5ED
0743E:  MOVFF  02,5EE
07442:  MOVFF  03,5EF
07446:  MOVFF  03,5F3
0744A:  MOVFF  02,5F2
0744E:  MOVFF  01,5F1
07452:  MOVFF  00,5F0
07456:  MOVLW  5A
07458:  MOVLB  5
0745A:  MOVWF  xF4
0745C:  CLRF   xF5
0745E:  MOVLW  01
07460:  MOVWF  xF6
07462:  MOVWF  xF7
07464:  MOVLB  0
07466:  GOTO   5C32
....................              
....................             glcd_text57(2, 52, Tempo, 1, ON); 
0746A:  MOVLW  02
0746C:  MOVLB  6
0746E:  MOVWF  x05
07470:  MOVLW  34
07472:  MOVWF  x06
07474:  MOVLW  04
07476:  MOVWF  x08
07478:  MOVLW  BA
0747A:  MOVWF  x07
0747C:  MOVLW  01
0747E:  MOVWF  x09
07480:  MOVWF  x0A
07482:  MOVLB  0
07484:  CALL   1830
....................             displayTiempo(Tempouv[3],59,51,0,1); 
07488:  MOVFF  50B,5EC
0748C:  MOVLW  3B
0748E:  MOVLB  5
07490:  MOVWF  xED
07492:  MOVLW  33
07494:  MOVWF  xEE
07496:  CLRF   xEF
07498:  MOVLW  01
0749A:  MOVWF  xF0
0749C:  MOVLB  0
0749E:  CALL   5658
....................             displayTiempo(Tempouv[2],67,51,0,1); 
074A2:  MOVFF  50A,5EC
074A6:  MOVLW  43
074A8:  MOVLB  5
074AA:  MOVWF  xED
074AC:  MOVLW  33
074AE:  MOVWF  xEE
074B0:  CLRF   xEF
074B2:  MOVLW  01
074B4:  MOVWF  xF0
074B6:  MOVLB  0
074B8:  CALL   5658
....................             glcd_text57(75, 52, Dos_puntos, 1, ON); 
074BC:  MOVLW  4B
074BE:  MOVLB  6
074C0:  MOVWF  x05
074C2:  MOVLW  34
074C4:  MOVWF  x06
074C6:  MOVLW  04
074C8:  MOVWF  x08
074CA:  MOVLW  50
074CC:  MOVWF  x07
074CE:  MOVLW  01
074D0:  MOVWF  x09
074D2:  MOVWF  x0A
074D4:  MOVLB  0
074D6:  CALL   1830
....................             displayTiempo(Tempouv[1],79,51,0,1); 
074DA:  MOVFF  509,5EC
074DE:  MOVLW  4F
074E0:  MOVLB  5
074E2:  MOVWF  xED
074E4:  MOVLW  33
074E6:  MOVWF  xEE
074E8:  CLRF   xEF
074EA:  MOVLW  01
074EC:  MOVWF  xF0
074EE:  MOVLB  0
074F0:  CALL   5658
....................             displayTiempo(Tempouv[0],87,51,0,1); 
074F4:  MOVFF  508,5EC
074F8:  MOVLW  57
074FA:  MOVLB  5
074FC:  MOVWF  xED
074FE:  MOVLW  33
07500:  MOVWF  xEE
07502:  CLRF   xEF
07504:  MOVLW  01
07506:  MOVWF  xF0
07508:  MOVLB  0
0750A:  CALL   5658
....................             imprimir=0; 
0750E:  MOVLB  4
07510:  BCF    x2C.6
....................          } 
....................           
....................          // Dibujo de barra de estado de filtro                   
....................          barra=100.0*(Filtro_Downflow/1); 
07512:  MOVFF  523,620
07516:  MOVFF  522,61F
0751A:  MOVFF  521,61E
0751E:  MOVFF  520,61D
07522:  MOVLB  6
07524:  CLRF   x24
07526:  CLRF   x23
07528:  CLRF   x22
0752A:  MOVLW  7F
0752C:  MOVWF  x21
0752E:  MOVLB  0
07530:  CALL   1A1E
07534:  MOVLB  6
07536:  CLRF   x20
07538:  CLRF   x1F
0753A:  MOVLW  48
0753C:  MOVWF  x1E
0753E:  MOVLW  85
07540:  MOVWF  x1D
07542:  MOVFF  03,624
07546:  MOVFF  02,623
0754A:  MOVFF  01,622
0754E:  MOVFF  00,621
07552:  MOVLB  0
07554:  CALL   302C
07558:  MOVFF  03,52B
0755C:  MOVFF  02,52A
07560:  MOVFF  01,529
07564:  MOVFF  00,528
....................          if(barra>100.0) 
07568:  MOVLB  6
0756A:  CLRF   x20
0756C:  CLRF   x1F
0756E:  MOVLW  48
07570:  MOVWF  x1E
07572:  MOVLW  85
07574:  MOVWF  x1D
07576:  MOVFF  52B,624
0757A:  MOVFF  52A,623
0757E:  MOVFF  529,622
07582:  MOVFF  528,621
07586:  MOVLB  0
07588:  CALL   2584
0758C:  BNC   759C
....................             barra=100.0; 
0758E:  MOVLB  5
07590:  CLRF   x2B
07592:  CLRF   x2A
07594:  MOVLW  48
07596:  MOVWF  x29
07598:  MOVLW  85
0759A:  MOVWF  x28
....................          barra=barra/2; 
0759C:  MOVFF  52B,620
075A0:  MOVFF  52A,61F
075A4:  MOVFF  529,61E
075A8:  MOVFF  528,61D
075AC:  MOVLB  6
075AE:  CLRF   x24
075B0:  CLRF   x23
075B2:  CLRF   x22
075B4:  MOVLW  80
075B6:  MOVWF  x21
075B8:  MOVLB  0
075BA:  CALL   1A1E
075BE:  MOVFF  03,52B
075C2:  MOVFF  02,52A
075C6:  MOVFF  01,529
075CA:  MOVFF  00,528
....................          glcd_rect(42, 41, (int8)(barra_old)+42, 48, YES, OFF);  // Clears the old bar 
075CE:  MOVFF  52F,620
075D2:  MOVFF  52E,61F
075D6:  MOVFF  52D,61E
075DA:  MOVFF  52C,61D
075DE:  CALL   2FF0
075E2:  MOVLW  2A
075E4:  ADDWF  01,W
075E6:  MOVLB  5
075E8:  MOVWF  xEC
075EA:  MOVLW  2A
075EC:  MOVLB  6
075EE:  MOVWF  x05
075F0:  MOVLW  29
075F2:  MOVWF  x06
075F4:  MOVFF  5EC,607
075F8:  MOVLW  30
075FA:  MOVWF  x08
075FC:  MOVLW  01
075FE:  MOVWF  x09
07600:  CLRF   x0A
07602:  MOVLB  0
07604:  CALL   4CFE
....................          glcd_rect(42, 41, (int8)(barra)+42, 48, YES, ON);             // Draws a new bar 
07608:  MOVFF  52B,620
0760C:  MOVFF  52A,61F
07610:  MOVFF  529,61E
07614:  MOVFF  528,61D
07618:  CALL   2FF0
0761C:  MOVLW  2A
0761E:  ADDWF  01,W
07620:  MOVLB  5
07622:  MOVWF  xEC
07624:  MOVLW  2A
07626:  MOVLB  6
07628:  MOVWF  x05
0762A:  MOVLW  29
0762C:  MOVWF  x06
0762E:  MOVFF  5EC,607
07632:  MOVLW  30
07634:  MOVWF  x08
07636:  MOVLW  01
07638:  MOVWF  x09
0763A:  MOVWF  x0A
0763C:  MOVLB  0
0763E:  CALL   4CFE
....................          glcd_rect(42, 41, 94, 48, NO, ON);             // Draws a new bar 
07642:  MOVLW  2A
07644:  MOVLB  6
07646:  MOVWF  x05
07648:  MOVLW  29
0764A:  MOVWF  x06
0764C:  MOVLW  5E
0764E:  MOVWF  x07
07650:  MOVLW  30
07652:  MOVWF  x08
07654:  CLRF   x09
07656:  MOVLW  01
07658:  MOVWF  x0A
0765A:  MOVLB  0
0765C:  CALL   4CFE
....................          barra_old=barra; 
07660:  MOVFF  52B,52F
07664:  MOVFF  52A,52E
07668:  MOVFF  529,52D
0766C:  MOVFF  528,52C
.................... // Fin de Dibujo de barra de estado de Filtro 
....................           
....................          if(tvidrio>=30){//Si se activa switch magnetico de vidrio 
07670:  MOVLB  4
07672:  MOVF   xF3,F
07674:  BNZ   767C
07676:  MOVF   xF2,W
07678:  SUBLW  1D
0767A:  BC    7682
....................            flag_blower=0; 
0767C:  BCF    x2C.7
....................            flag_luz=0; 
0767E:  BCF    x2D.1
....................          }else{ 
07680:  BRA    7684
....................            flag_uv=0;  
07682:  BCF    x2D.7
....................          } 
....................           
....................          if(flag_blower==1 && flag_uv==0){ 
07684:  BTFSS  x2C.7
07686:  BRA    7830
07688:  BTFSC  x2D.7
0768A:  BRA    7830
....................             glcd_imagen(5);tiempo_trabajo=1; 
0768C:  MOVLW  05
0768E:  MOVLB  5
07690:  MOVWF  xEC
07692:  MOVLB  0
07694:  CALL   5DB8
07698:  MOVLB  4
0769A:  BSF    x2D.5
....................             if(guardatrabajo==1){ 
0769C:  BTFSS  x2E.3
0769E:  BRA    7822
....................                VelocidadMotor(6); 
076A0:  MOVLW  06
076A2:  MOVLB  5
076A4:  MOVWF  xEC
076A6:  MOVLB  0
076A8:  CALL   1502
....................                guardatrabajo=0; 
076AC:  MOVLB  4
076AE:  BCF    x2E.3
....................                write_eeprom(33,make8(minutos_trabajo,0)); 
076B0:  MOVFF  4E6,5EC
076B4:  CLRF   FAA
076B6:  MOVLW  21
076B8:  MOVWF  FA9
076BA:  MOVFF  5EC,FA8
076BE:  BCF    FA6.6
076C0:  BCF    FA6.7
076C2:  BSF    FA6.2
076C4:  MOVF   FF2,W
076C6:  MOVWF  00
076C8:  BCF    FF2.7
076CA:  MOVLB  F
076CC:  MOVLW  55
076CE:  MOVWF  FA7
076D0:  MOVLW  AA
076D2:  MOVWF  FA7
076D4:  BSF    FA6.1
076D6:  BTFSC  FA6.1
076D8:  BRA    76D6
076DA:  BCF    FA6.2
076DC:  MOVF   00,W
076DE:  IORWF  FF2,F
....................                delay_ms(10); 
076E0:  MOVLW  0A
076E2:  MOVLB  6
076E4:  MOVWF  x00
076E6:  MOVLB  0
076E8:  CALL   14DC
....................                write_eeprom(34,make8(minutos_trabajo,1)); 
076EC:  MOVFF  4E7,5EC
076F0:  CLRF   FAA
076F2:  MOVLW  22
076F4:  MOVWF  FA9
076F6:  MOVFF  5EC,FA8
076FA:  BCF    FA6.6
076FC:  BCF    FA6.7
076FE:  BSF    FA6.2
07700:  MOVF   FF2,W
07702:  MOVWF  00
07704:  BCF    FF2.7
07706:  MOVLB  F
07708:  MOVLW  55
0770A:  MOVWF  FA7
0770C:  MOVLW  AA
0770E:  MOVWF  FA7
07710:  BSF    FA6.1
07712:  BTFSC  FA6.1
07714:  BRA    7712
07716:  BCF    FA6.2
07718:  MOVF   00,W
0771A:  IORWF  FF2,F
....................                delay_ms(10); 
0771C:  MOVLW  0A
0771E:  MOVLB  6
07720:  MOVWF  x00
07722:  MOVLB  0
07724:  CALL   14DC
....................                write_eeprom(16,Ttrabajo[0]); 
07728:  CLRF   FAA
0772A:  MOVLW  10
0772C:  MOVWF  FA9
0772E:  MOVFF  50C,FA8
07732:  BCF    FA6.6
07734:  BCF    FA6.7
07736:  BSF    FA6.2
07738:  MOVF   FF2,W
0773A:  MOVWF  00
0773C:  BCF    FF2.7
0773E:  MOVLB  F
07740:  MOVLW  55
07742:  MOVWF  FA7
07744:  MOVLW  AA
07746:  MOVWF  FA7
07748:  BSF    FA6.1
0774A:  BTFSC  FA6.1
0774C:  BRA    774A
0774E:  BCF    FA6.2
07750:  MOVF   00,W
07752:  IORWF  FF2,F
....................                delay_ms(10); 
07754:  MOVLW  0A
07756:  MOVLB  6
07758:  MOVWF  x00
0775A:  MOVLB  0
0775C:  CALL   14DC
....................                write_eeprom(17,Ttrabajo[1]); 
07760:  CLRF   FAA
07762:  MOVLW  11
07764:  MOVWF  FA9
07766:  MOVFF  50D,FA8
0776A:  BCF    FA6.6
0776C:  BCF    FA6.7
0776E:  BSF    FA6.2
07770:  MOVF   FF2,W
07772:  MOVWF  00
07774:  BCF    FF2.7
07776:  MOVLB  F
07778:  MOVLW  55
0777A:  MOVWF  FA7
0777C:  MOVLW  AA
0777E:  MOVWF  FA7
07780:  BSF    FA6.1
07782:  BTFSC  FA6.1
07784:  BRA    7782
07786:  BCF    FA6.2
07788:  MOVF   00,W
0778A:  IORWF  FF2,F
....................                delay_ms(10); 
0778C:  MOVLW  0A
0778E:  MOVLB  6
07790:  MOVWF  x00
07792:  MOVLB  0
07794:  CALL   14DC
....................                write_eeprom(18,Ttrabajo[2]); 
07798:  CLRF   FAA
0779A:  MOVLW  12
0779C:  MOVWF  FA9
0779E:  MOVFF  50E,FA8
077A2:  BCF    FA6.6
077A4:  BCF    FA6.7
077A6:  BSF    FA6.2
077A8:  MOVF   FF2,W
077AA:  MOVWF  00
077AC:  BCF    FF2.7
077AE:  MOVLB  F
077B0:  MOVLW  55
077B2:  MOVWF  FA7
077B4:  MOVLW  AA
077B6:  MOVWF  FA7
077B8:  BSF    FA6.1
077BA:  BTFSC  FA6.1
077BC:  BRA    77BA
077BE:  BCF    FA6.2
077C0:  MOVF   00,W
077C2:  IORWF  FF2,F
....................                delay_ms(10); 
077C4:  MOVLW  0A
077C6:  MOVLB  6
077C8:  MOVWF  x00
077CA:  MOVLB  0
077CC:  CALL   14DC
....................                write_eeprom(19,Ttrabajo[3]); 
077D0:  CLRF   FAA
077D2:  MOVLW  13
077D4:  MOVWF  FA9
077D6:  MOVFF  50F,FA8
077DA:  BCF    FA6.6
077DC:  BCF    FA6.7
077DE:  BSF    FA6.2
077E0:  MOVF   FF2,W
077E2:  MOVWF  00
077E4:  BCF    FF2.7
077E6:  MOVLB  F
077E8:  MOVLW  55
077EA:  MOVWF  FA7
077EC:  MOVLW  AA
077EE:  MOVWF  FA7
077F0:  BSF    FA6.1
077F2:  BTFSC  FA6.1
077F4:  BRA    77F2
077F6:  BCF    FA6.2
077F8:  MOVF   00,W
077FA:  IORWF  FF2,F
....................                delay_ms(10); 
077FC:  MOVLW  0A
077FE:  MOVLB  6
07800:  MOVWF  x00
07802:  MOVLB  0
07804:  CALL   14DC
....................                glcd_init(ON);             //Inicializa la glcd 
07808:  MOVLW  01
0780A:  MOVLB  5
0780C:  MOVWF  xEC
0780E:  MOVLB  0
07810:  CALL   16CC
....................                glcd_fillScreen(OFF);      //Limpia la pantalla 
07814:  MOVLB  5
07816:  CLRF   xF4
07818:  MOVLB  0
0781A:  CALL   15BA
....................                glcd_update();   
0781E:  CALL   1614
....................             } 
....................             VelocidadMotor(VelMotor); 
07822:  MOVFF  5E3,5EC
07826:  MOVLB  0
07828:  CALL   1502
....................          }else{ 
0782C:  BRA    79CA
0782E:  MOVLB  4
....................             Filtro_Downflow=0; 
07830:  MOVLB  5
07832:  CLRF   x23
07834:  CLRF   x22
07836:  CLRF   x21
07838:  CLRF   x20
....................             glcd_rect(102, 45, 126, 62, YES, OFF);tiempo_trabajo=0;VelocidadMotor(0); 
0783A:  MOVLW  66
0783C:  MOVLB  6
0783E:  MOVWF  x05
07840:  MOVLW  2D
07842:  MOVWF  x06
07844:  MOVLW  7E
07846:  MOVWF  x07
07848:  MOVLW  3E
0784A:  MOVWF  x08
0784C:  MOVLW  01
0784E:  MOVWF  x09
07850:  CLRF   x0A
07852:  MOVLB  0
07854:  CALL   4CFE
07858:  MOVLB  4
0785A:  BCF    x2D.5
0785C:  MOVLB  5
0785E:  CLRF   xEC
07860:  MOVLB  0
07862:  CALL   1502
....................             if(guardatrabajo==0){ 
07866:  MOVLB  4
07868:  BTFSC  x2E.3
0786A:  BRA    79CC
....................                guardatrabajo=1; 
0786C:  BSF    x2E.3
....................                write_eeprom(33,make8(minutos_trabajo,0)); 
0786E:  MOVFF  4E6,5EC
07872:  CLRF   FAA
07874:  MOVLW  21
07876:  MOVWF  FA9
07878:  MOVFF  5EC,FA8
0787C:  BCF    FA6.6
0787E:  BCF    FA6.7
07880:  BSF    FA6.2
07882:  MOVF   FF2,W
07884:  MOVWF  00
07886:  BCF    FF2.7
07888:  MOVLB  F
0788A:  MOVLW  55
0788C:  MOVWF  FA7
0788E:  MOVLW  AA
07890:  MOVWF  FA7
07892:  BSF    FA6.1
07894:  BTFSC  FA6.1
07896:  BRA    7894
07898:  BCF    FA6.2
0789A:  MOVF   00,W
0789C:  IORWF  FF2,F
....................                delay_ms(10); 
0789E:  MOVLW  0A
078A0:  MOVLB  6
078A2:  MOVWF  x00
078A4:  MOVLB  0
078A6:  CALL   14DC
....................                write_eeprom(34,make8(minutos_trabajo,1)); 
078AA:  MOVFF  4E7,5EC
078AE:  CLRF   FAA
078B0:  MOVLW  22
078B2:  MOVWF  FA9
078B4:  MOVFF  5EC,FA8
078B8:  BCF    FA6.6
078BA:  BCF    FA6.7
078BC:  BSF    FA6.2
078BE:  MOVF   FF2,W
078C0:  MOVWF  00
078C2:  BCF    FF2.7
078C4:  MOVLB  F
078C6:  MOVLW  55
078C8:  MOVWF  FA7
078CA:  MOVLW  AA
078CC:  MOVWF  FA7
078CE:  BSF    FA6.1
078D0:  BTFSC  FA6.1
078D2:  BRA    78D0
078D4:  BCF    FA6.2
078D6:  MOVF   00,W
078D8:  IORWF  FF2,F
....................                delay_ms(10); 
078DA:  MOVLW  0A
078DC:  MOVLB  6
078DE:  MOVWF  x00
078E0:  MOVLB  0
078E2:  CALL   14DC
....................                write_eeprom(16,Ttrabajo[0]); 
078E6:  CLRF   FAA
078E8:  MOVLW  10
078EA:  MOVWF  FA9
078EC:  MOVFF  50C,FA8
078F0:  BCF    FA6.6
078F2:  BCF    FA6.7
078F4:  BSF    FA6.2
078F6:  MOVF   FF2,W
078F8:  MOVWF  00
078FA:  BCF    FF2.7
078FC:  MOVLB  F
078FE:  MOVLW  55
07900:  MOVWF  FA7
07902:  MOVLW  AA
07904:  MOVWF  FA7
07906:  BSF    FA6.1
07908:  BTFSC  FA6.1
0790A:  BRA    7908
0790C:  BCF    FA6.2
0790E:  MOVF   00,W
07910:  IORWF  FF2,F
....................                delay_ms(10); 
07912:  MOVLW  0A
07914:  MOVLB  6
07916:  MOVWF  x00
07918:  MOVLB  0
0791A:  CALL   14DC
....................                write_eeprom(17,Ttrabajo[1]); 
0791E:  CLRF   FAA
07920:  MOVLW  11
07922:  MOVWF  FA9
07924:  MOVFF  50D,FA8
07928:  BCF    FA6.6
0792A:  BCF    FA6.7
0792C:  BSF    FA6.2
0792E:  MOVF   FF2,W
07930:  MOVWF  00
07932:  BCF    FF2.7
07934:  MOVLB  F
07936:  MOVLW  55
07938:  MOVWF  FA7
0793A:  MOVLW  AA
0793C:  MOVWF  FA7
0793E:  BSF    FA6.1
07940:  BTFSC  FA6.1
07942:  BRA    7940
07944:  BCF    FA6.2
07946:  MOVF   00,W
07948:  IORWF  FF2,F
....................                delay_ms(10); 
0794A:  MOVLW  0A
0794C:  MOVLB  6
0794E:  MOVWF  x00
07950:  MOVLB  0
07952:  CALL   14DC
....................                write_eeprom(18,Ttrabajo[2]); 
07956:  CLRF   FAA
07958:  MOVLW  12
0795A:  MOVWF  FA9
0795C:  MOVFF  50E,FA8
07960:  BCF    FA6.6
07962:  BCF    FA6.7
07964:  BSF    FA6.2
07966:  MOVF   FF2,W
07968:  MOVWF  00
0796A:  BCF    FF2.7
0796C:  MOVLB  F
0796E:  MOVLW  55
07970:  MOVWF  FA7
07972:  MOVLW  AA
07974:  MOVWF  FA7
07976:  BSF    FA6.1
07978:  BTFSC  FA6.1
0797A:  BRA    7978
0797C:  BCF    FA6.2
0797E:  MOVF   00,W
07980:  IORWF  FF2,F
....................                delay_ms(10); 
07982:  MOVLW  0A
07984:  MOVLB  6
07986:  MOVWF  x00
07988:  MOVLB  0
0798A:  CALL   14DC
....................                write_eeprom(19,Ttrabajo[3]); 
0798E:  CLRF   FAA
07990:  MOVLW  13
07992:  MOVWF  FA9
07994:  MOVFF  50F,FA8
07998:  BCF    FA6.6
0799A:  BCF    FA6.7
0799C:  BSF    FA6.2
0799E:  MOVF   FF2,W
079A0:  MOVWF  00
079A2:  BCF    FF2.7
079A4:  MOVLB  F
079A6:  MOVLW  55
079A8:  MOVWF  FA7
079AA:  MOVLW  AA
079AC:  MOVWF  FA7
079AE:  BSF    FA6.1
079B0:  BTFSC  FA6.1
079B2:  BRA    79B0
079B4:  BCF    FA6.2
079B6:  MOVF   00,W
079B8:  IORWF  FF2,F
....................                delay_ms(10); 
079BA:  MOVLW  0A
079BC:  MOVLB  6
079BE:  MOVWF  x00
079C0:  MOVLB  0
079C2:  CALL   14DC
....................                //glcd_init(ON);             //Inicializa la glcd 
....................                //glcd_fillScreen(OFF);      //Limpia la pantalla 
....................                glcd_update();   
079C6:  CALL   1614
079CA:  MOVLB  4
....................             } 
....................          } 
....................           
....................       if(flag_luz==1 && flag_uv==0){ 
079CC:  BTFSS  x2D.1
079CE:  BRA    79E8
079D0:  BTFSC  x2D.7
079D2:  BRA    79E8
....................          glcd_imagen(3);LuzBlanca_on; 
079D4:  MOVLW  03
079D6:  MOVLB  5
079D8:  MOVWF  xEC
079DA:  MOVLB  0
079DC:  CALL   5DB8
079E0:  BSF    F8B.0
079E2:  BCF    F94.0
....................       }else{ 
079E4:  BRA    7A0A
079E6:  MOVLB  4
....................          glcd_rect(102, 14, 126, 28, YES, OFF);LuzBlanca_off; 
079E8:  MOVLW  66
079EA:  MOVLB  6
079EC:  MOVWF  x05
079EE:  MOVLW  0E
079F0:  MOVWF  x06
079F2:  MOVLW  7E
079F4:  MOVWF  x07
079F6:  MOVLW  1C
079F8:  MOVWF  x08
079FA:  MOVLW  01
079FC:  MOVWF  x09
079FE:  CLRF   x0A
07A00:  MOVLB  0
07A02:  CALL   4CFE
07A06:  BCF    F8B.0
07A08:  BCF    F94.0
....................       } 
....................           
....................       if(flag_uv){ 
07A0A:  MOVLB  4
07A0C:  BTFSS  x2D.7
07A0E:  BRA    7B5E
....................          tiempo_uv=1; 
07A10:  BSF    x2E.0
....................          LuzUV_on;flag_luz=0;flag_blower=0; 
07A12:  BSF    F8B.1
07A14:  BCF    F94.1
07A16:  BCF    x2D.1
07A18:  BCF    x2C.7
....................          glcd_text57(105, 30, UV, 2, ON); 
07A1A:  MOVLW  69
07A1C:  MOVLB  6
07A1E:  MOVWF  x05
07A20:  MOVLW  1E
07A22:  MOVWF  x06
07A24:  MOVLW  04
07A26:  MOVWF  x08
07A28:  MOVLW  69
07A2A:  MOVWF  x07
07A2C:  MOVLW  02
07A2E:  MOVWF  x09
07A30:  MOVLW  01
07A32:  MOVWF  x0A
07A34:  MOVLB  0
07A36:  CALL   1830
....................          if(guardauv==1){ 
07A3A:  MOVLB  4
07A3C:  BTFSS  x2E.1
07A3E:  BRA    7B5C
....................             guardauv=0; 
07A40:  BCF    x2E.1
....................             write_eeprom(31,minutos_uv); 
07A42:  CLRF   FAA
07A44:  MOVLW  1F
07A46:  MOVWF  FA9
07A48:  MOVFF  4E4,FA8
07A4C:  BCF    FA6.6
07A4E:  BCF    FA6.7
07A50:  BSF    FA6.2
07A52:  MOVF   FF2,W
07A54:  MOVWF  00
07A56:  BCF    FF2.7
07A58:  MOVLB  F
07A5A:  MOVLW  55
07A5C:  MOVWF  FA7
07A5E:  MOVLW  AA
07A60:  MOVWF  FA7
07A62:  BSF    FA6.1
07A64:  BTFSC  FA6.1
07A66:  BRA    7A64
07A68:  BCF    FA6.2
07A6A:  MOVF   00,W
07A6C:  IORWF  FF2,F
....................             delay_ms(20); 
07A6E:  MOVLW  14
07A70:  MOVLB  6
07A72:  MOVWF  x00
07A74:  MOVLB  0
07A76:  CALL   14DC
....................             write_eeprom(12,Tuv[0]); 
07A7A:  CLRF   FAA
07A7C:  MOVLW  0C
07A7E:  MOVWF  FA9
07A80:  MOVFF  500,FA8
07A84:  BCF    FA6.6
07A86:  BCF    FA6.7
07A88:  BSF    FA6.2
07A8A:  MOVF   FF2,W
07A8C:  MOVWF  00
07A8E:  BCF    FF2.7
07A90:  MOVLB  F
07A92:  MOVLW  55
07A94:  MOVWF  FA7
07A96:  MOVLW  AA
07A98:  MOVWF  FA7
07A9A:  BSF    FA6.1
07A9C:  BTFSC  FA6.1
07A9E:  BRA    7A9C
07AA0:  BCF    FA6.2
07AA2:  MOVF   00,W
07AA4:  IORWF  FF2,F
....................             delay_ms(20); 
07AA6:  MOVLW  14
07AA8:  MOVLB  6
07AAA:  MOVWF  x00
07AAC:  MOVLB  0
07AAE:  CALL   14DC
....................             write_eeprom(13,Tuv[1]); 
07AB2:  CLRF   FAA
07AB4:  MOVLW  0D
07AB6:  MOVWF  FA9
07AB8:  MOVFF  501,FA8
07ABC:  BCF    FA6.6
07ABE:  BCF    FA6.7
07AC0:  BSF    FA6.2
07AC2:  MOVF   FF2,W
07AC4:  MOVWF  00
07AC6:  BCF    FF2.7
07AC8:  MOVLB  F
07ACA:  MOVLW  55
07ACC:  MOVWF  FA7
07ACE:  MOVLW  AA
07AD0:  MOVWF  FA7
07AD2:  BSF    FA6.1
07AD4:  BTFSC  FA6.1
07AD6:  BRA    7AD4
07AD8:  BCF    FA6.2
07ADA:  MOVF   00,W
07ADC:  IORWF  FF2,F
....................             delay_ms(20); 
07ADE:  MOVLW  14
07AE0:  MOVLB  6
07AE2:  MOVWF  x00
07AE4:  MOVLB  0
07AE6:  CALL   14DC
....................             write_eeprom(14,Tuv[2]); 
07AEA:  CLRF   FAA
07AEC:  MOVLW  0E
07AEE:  MOVWF  FA9
07AF0:  MOVFF  502,FA8
07AF4:  BCF    FA6.6
07AF6:  BCF    FA6.7
07AF8:  BSF    FA6.2
07AFA:  MOVF   FF2,W
07AFC:  MOVWF  00
07AFE:  BCF    FF2.7
07B00:  MOVLB  F
07B02:  MOVLW  55
07B04:  MOVWF  FA7
07B06:  MOVLW  AA
07B08:  MOVWF  FA7
07B0A:  BSF    FA6.1
07B0C:  BTFSC  FA6.1
07B0E:  BRA    7B0C
07B10:  BCF    FA6.2
07B12:  MOVF   00,W
07B14:  IORWF  FF2,F
....................             delay_ms(20); 
07B16:  MOVLW  14
07B18:  MOVLB  6
07B1A:  MOVWF  x00
07B1C:  MOVLB  0
07B1E:  CALL   14DC
....................             write_eeprom(15,Tuv[3]); 
07B22:  CLRF   FAA
07B24:  MOVLW  0F
07B26:  MOVWF  FA9
07B28:  MOVFF  503,FA8
07B2C:  BCF    FA6.6
07B2E:  BCF    FA6.7
07B30:  BSF    FA6.2
07B32:  MOVF   FF2,W
07B34:  MOVWF  00
07B36:  BCF    FF2.7
07B38:  MOVLB  F
07B3A:  MOVLW  55
07B3C:  MOVWF  FA7
07B3E:  MOVLW  AA
07B40:  MOVWF  FA7
07B42:  BSF    FA6.1
07B44:  BTFSC  FA6.1
07B46:  BRA    7B44
07B48:  BCF    FA6.2
07B4A:  MOVF   00,W
07B4C:  IORWF  FF2,F
....................             delay_ms(20); 
07B4E:  MOVLW  14
07B50:  MOVLB  6
07B52:  MOVWF  x00
07B54:  MOVLB  0
07B56:  CALL   14DC
07B5A:  MOVLB  4
....................          }                
....................       }else{ 
07B5C:  BRA    7CA4
....................          LuzUV_off;tiempo_uv=0; 
07B5E:  BCF    F8B.1
07B60:  BCF    F94.1
07B62:  BCF    x2E.0
....................          glcd_rect(102, 30, 126, 44, YES, OFF); 
07B64:  MOVLW  66
07B66:  MOVLB  6
07B68:  MOVWF  x05
07B6A:  MOVLW  1E
07B6C:  MOVWF  x06
07B6E:  MOVLW  7E
07B70:  MOVWF  x07
07B72:  MOVLW  2C
07B74:  MOVWF  x08
07B76:  MOVLW  01
07B78:  MOVWF  x09
07B7A:  CLRF   x0A
07B7C:  MOVLB  0
07B7E:  CALL   4CFE
....................          if(guardauv==0){ 
07B82:  MOVLB  4
07B84:  BTFSC  x2E.1
07B86:  BRA    7CA4
....................             guardauv=1; 
07B88:  BSF    x2E.1
....................             write_eeprom(31,minutos_uv); 
07B8A:  CLRF   FAA
07B8C:  MOVLW  1F
07B8E:  MOVWF  FA9
07B90:  MOVFF  4E4,FA8
07B94:  BCF    FA6.6
07B96:  BCF    FA6.7
07B98:  BSF    FA6.2
07B9A:  MOVF   FF2,W
07B9C:  MOVWF  00
07B9E:  BCF    FF2.7
07BA0:  MOVLB  F
07BA2:  MOVLW  55
07BA4:  MOVWF  FA7
07BA6:  MOVLW  AA
07BA8:  MOVWF  FA7
07BAA:  BSF    FA6.1
07BAC:  BTFSC  FA6.1
07BAE:  BRA    7BAC
07BB0:  BCF    FA6.2
07BB2:  MOVF   00,W
07BB4:  IORWF  FF2,F
....................             delay_ms(20); 
07BB6:  MOVLW  14
07BB8:  MOVLB  6
07BBA:  MOVWF  x00
07BBC:  MOVLB  0
07BBE:  CALL   14DC
....................             write_eeprom(12,Tuv[0]); 
07BC2:  CLRF   FAA
07BC4:  MOVLW  0C
07BC6:  MOVWF  FA9
07BC8:  MOVFF  500,FA8
07BCC:  BCF    FA6.6
07BCE:  BCF    FA6.7
07BD0:  BSF    FA6.2
07BD2:  MOVF   FF2,W
07BD4:  MOVWF  00
07BD6:  BCF    FF2.7
07BD8:  MOVLB  F
07BDA:  MOVLW  55
07BDC:  MOVWF  FA7
07BDE:  MOVLW  AA
07BE0:  MOVWF  FA7
07BE2:  BSF    FA6.1
07BE4:  BTFSC  FA6.1
07BE6:  BRA    7BE4
07BE8:  BCF    FA6.2
07BEA:  MOVF   00,W
07BEC:  IORWF  FF2,F
....................             delay_ms(20); 
07BEE:  MOVLW  14
07BF0:  MOVLB  6
07BF2:  MOVWF  x00
07BF4:  MOVLB  0
07BF6:  CALL   14DC
....................             write_eeprom(13,Tuv[1]); 
07BFA:  CLRF   FAA
07BFC:  MOVLW  0D
07BFE:  MOVWF  FA9
07C00:  MOVFF  501,FA8
07C04:  BCF    FA6.6
07C06:  BCF    FA6.7
07C08:  BSF    FA6.2
07C0A:  MOVF   FF2,W
07C0C:  MOVWF  00
07C0E:  BCF    FF2.7
07C10:  MOVLB  F
07C12:  MOVLW  55
07C14:  MOVWF  FA7
07C16:  MOVLW  AA
07C18:  MOVWF  FA7
07C1A:  BSF    FA6.1
07C1C:  BTFSC  FA6.1
07C1E:  BRA    7C1C
07C20:  BCF    FA6.2
07C22:  MOVF   00,W
07C24:  IORWF  FF2,F
....................             delay_ms(20); 
07C26:  MOVLW  14
07C28:  MOVLB  6
07C2A:  MOVWF  x00
07C2C:  MOVLB  0
07C2E:  CALL   14DC
....................             write_eeprom(14,Tuv[2]); 
07C32:  CLRF   FAA
07C34:  MOVLW  0E
07C36:  MOVWF  FA9
07C38:  MOVFF  502,FA8
07C3C:  BCF    FA6.6
07C3E:  BCF    FA6.7
07C40:  BSF    FA6.2
07C42:  MOVF   FF2,W
07C44:  MOVWF  00
07C46:  BCF    FF2.7
07C48:  MOVLB  F
07C4A:  MOVLW  55
07C4C:  MOVWF  FA7
07C4E:  MOVLW  AA
07C50:  MOVWF  FA7
07C52:  BSF    FA6.1
07C54:  BTFSC  FA6.1
07C56:  BRA    7C54
07C58:  BCF    FA6.2
07C5A:  MOVF   00,W
07C5C:  IORWF  FF2,F
....................             delay_ms(20); 
07C5E:  MOVLW  14
07C60:  MOVLB  6
07C62:  MOVWF  x00
07C64:  MOVLB  0
07C66:  CALL   14DC
....................             write_eeprom(15,Tuv[3]); 
07C6A:  CLRF   FAA
07C6C:  MOVLW  0F
07C6E:  MOVWF  FA9
07C70:  MOVFF  503,FA8
07C74:  BCF    FA6.6
07C76:  BCF    FA6.7
07C78:  BSF    FA6.2
07C7A:  MOVF   FF2,W
07C7C:  MOVWF  00
07C7E:  BCF    FF2.7
07C80:  MOVLB  F
07C82:  MOVLW  55
07C84:  MOVWF  FA7
07C86:  MOVLW  AA
07C88:  MOVWF  FA7
07C8A:  BSF    FA6.1
07C8C:  BTFSC  FA6.1
07C8E:  BRA    7C8C
07C90:  BCF    FA6.2
07C92:  MOVF   00,W
07C94:  IORWF  FF2,F
....................             delay_ms(20); 
07C96:  MOVLW  14
07C98:  MOVLB  6
07C9A:  MOVWF  x00
07C9C:  MOVLB  0
07C9E:  CALL   14DC
07CA2:  MOVLB  4
....................          } 
....................       } 
....................        
....................       if(tiempocumplido){ 
07CA4:  BTFSS  x2E.2
07CA6:  BRA    7D10
....................          tiempo_uv=0;flag_uv=0;glcd_rect(102, 30, 126, 44, YES, OFF); 
07CA8:  BCF    x2E.0
07CAA:  BCF    x2D.7
07CAC:  MOVLW  66
07CAE:  MOVLB  6
07CB0:  MOVWF  x05
07CB2:  MOVLW  1E
07CB4:  MOVWF  x06
07CB6:  MOVLW  7E
07CB8:  MOVWF  x07
07CBA:  MOVLW  2C
07CBC:  MOVWF  x08
07CBE:  MOVLW  01
07CC0:  MOVWF  x09
07CC2:  CLRF   x0A
07CC4:  MOVLB  0
07CC6:  CALL   4CFE
....................          Tempouv[0]=Tempouvp[0];Tempouv[1]=Tempouvp[1];Tempouv[2]=Tempouvp[2];Tempouv[3]=Tempouvp[3];tiempocumplido=0; 
07CCA:  MOVFF  504,508
07CCE:  MOVFF  505,509
07CD2:  MOVFF  506,50A
07CD6:  MOVFF  507,50B
07CDA:  MOVLB  4
07CDC:  BCF    x2E.2
....................          for(i=0;i<3;i++){ 
07CDE:  MOVLB  5
07CE0:  CLRF   xDC
07CE2:  MOVF   xDC,W
07CE4:  SUBLW  02
07CE6:  BNC   7D0E
....................             Alarma_on; 
07CE8:  BSF    F8B.7
07CEA:  BCF    F94.7
....................             delay_ms(100); 
07CEC:  MOVLW  64
07CEE:  MOVLB  6
07CF0:  MOVWF  x00
07CF2:  MOVLB  0
07CF4:  CALL   14DC
....................             Alarma_off; 
07CF8:  BCF    F8B.7
07CFA:  BCF    F94.7
....................             delay_ms(100); 
07CFC:  MOVLW  64
07CFE:  MOVLB  6
07D00:  MOVWF  x00
07D02:  MOVLB  0
07D04:  CALL   14DC
....................          } 
07D08:  MOVLB  5
07D0A:  INCF   xDC,F
07D0C:  BRA    7CE2
07D0E:  MOVLB  4
....................       } 
....................              
....................       if(tright>=30){//Si oprime boton de Blower. 
07D10:  MOVF   xEF,F
07D12:  BNZ   7D1A
07D14:  MOVF   xEE,W
07D16:  SUBLW  1D
07D18:  BC    7D32
....................          if(Flanco3 == 0){ 
07D1A:  BTFSC  x2C.3
07D1C:  BRA    7D30
....................             Flanco3 = 1;delay_ms(1);flag_blower=!flag_blower; 
07D1E:  BSF    x2C.3
07D20:  MOVLW  01
07D22:  MOVLB  6
07D24:  MOVWF  x00
07D26:  MOVLB  0
07D28:  CALL   14DC
07D2C:  MOVLB  4
07D2E:  BTG    x2C.7
....................          } 
....................       }else{ 
07D30:  BRA    7D34
....................          Flanco3 = 0; 
07D32:  BCF    x2C.3
....................       } 
....................        
....................       if(tleft>=30){//Si oprime boton de UV. 
07D34:  MOVF   xF1,F
07D36:  BNZ   7D3E
07D38:  MOVF   xF0,W
07D3A:  SUBLW  1D
07D3C:  BC    7D56
....................          if(Flanco4 == 0){ 
07D3E:  BTFSC  x2C.4
07D40:  BRA    7D54
....................             Flanco4 = 1;delay_ms(1);flag_uv=!flag_uv; 
07D42:  BSF    x2C.4
07D44:  MOVLW  01
07D46:  MOVLB  6
07D48:  MOVWF  x00
07D4A:  MOVLB  0
07D4C:  CALL   14DC
07D50:  MOVLB  4
07D52:  BTG    x2D.7
....................          } 
....................       }else{ 
07D54:  BRA    7D58
....................          Flanco4 = 0; 
07D56:  BCF    x2C.4
....................       } 
....................              
....................       if(tdown>=30){//Si oprime boton de Luz Blanca. 
07D58:  MOVF   xED,F
07D5A:  BNZ   7D62
07D5C:  MOVF   xEC,W
07D5E:  SUBLW  1D
07D60:  BC    7D7A
....................          if(Flanco5 == 0){ 
07D62:  BTFSC  x2C.5
07D64:  BRA    7D78
....................             Flanco5 = 1;delay_ms(1);flag_luz=!flag_luz; 
07D66:  BSF    x2C.5
07D68:  MOVLW  01
07D6A:  MOVLB  6
07D6C:  MOVWF  x00
07D6E:  MOVLB  0
07D70:  CALL   14DC
07D74:  MOVLB  4
07D76:  BTG    x2D.1
....................          } 
....................       }else{ 
07D78:  BRA    7D7C
....................          Flanco5 = 0; 
07D7A:  BCF    x2C.5
....................       } 
....................        
....................       if(tup>=30){//Si oprime boton de Toma.  
07D7C:  MOVF   xEB,F
07D7E:  BNZ   7D86
07D80:  MOVF   xEA,W
07D82:  SUBLW  1D
07D84:  BC    7DB8
....................          delay_ms(5);Menu=3;//glcd_fillScreen(OFF); 
07D86:  MOVLW  05
07D88:  MOVLB  6
07D8A:  MOVWF  x00
07D8C:  MOVLB  0
07D8E:  CALL   14DC
07D92:  MOVLW  03
07D94:  MOVLB  4
07D96:  MOVWF  xCC
....................          glcd_init(ON);             //Inicializa la glcd 
07D98:  MOVLW  01
07D9A:  MOVLB  5
07D9C:  MOVWF  xEC
07D9E:  MOVLB  0
07DA0:  CALL   16CC
....................          glcd_fillScreen(OFF);      //Limpia la pantalla 
07DA4:  MOVLB  5
07DA6:  CLRF   xF4
07DA8:  MOVLB  0
07DAA:  CALL   15BA
....................          glcd_update();   
07DAE:  CALL   1614
....................          LuzBlanca_off; 
07DB2:  BCF    F8B.0
07DB4:  BCF    F94.0
07DB6:  MOVLB  4
....................       } 
....................              
....................     } 
.................... //_--------------------------------------------------------------------------------------------------------------------------------------------------------        
....................  
.................... //_-------------------------------------------------------------------------------------------------------------------------------------------------------- 
....................       if(Menu==3){ //Menu Principal. 
07DB8:  MOVF   xCC,W
07DBA:  SUBLW  03
07DBC:  BTFSS  FD8.2
07DBE:  BRA    80A0
....................              
....................       strcpy(Menus.Letra,"Menu"); 
07DC0:  MOVLW  04
07DC2:  MOVWF  FEA
07DC4:  MOVLW  16
07DC6:  MOVWF  FE9
07DC8:  MOVFF  FF2,5EC
07DCC:  BCF    FF2.7
07DCE:  MOVLW  00
07DD0:  MOVLB  0
07DD2:  CALL   1034
07DD6:  TBLRD*-
07DD8:  TBLRD*+
07DDA:  MOVF   FF5,W
07DDC:  MOVWF  FEE
07DDE:  IORLW  00
07DE0:  BNZ   7DD8
07DE2:  MOVLB  5
07DE4:  BTFSC  xEC.7
07DE6:  BSF    FF2.7
....................       displayMenu(Menus.Letra,40,0,1,2); 
07DE8:  MOVLW  04
07DEA:  MOVWF  xF5
07DEC:  MOVLW  16
07DEE:  MOVWF  xF4
07DF0:  MOVLW  28
07DF2:  MOVWF  xF6
07DF4:  CLRF   xF7
07DF6:  MOVLW  01
07DF8:  MOVWF  xF8
07DFA:  MOVLW  02
07DFC:  MOVWF  xF9
07DFE:  MOVLB  0
07E00:  CALL   4E96
....................        
....................       if(Opcion==1){ 
07E04:  MOVLB  4
07E06:  DECFSZ xCE,W
07E08:  BRA    7E50
....................          strcpy(Menus.Letra,"Ajustes"); 
07E0A:  MOVLW  04
07E0C:  MOVWF  FEA
07E0E:  MOVLW  16
07E10:  MOVWF  FE9
07E12:  MOVFF  FF2,5EC
07E16:  BCF    FF2.7
07E18:  MOVLW  00
07E1A:  MOVLB  0
07E1C:  CALL   1054
07E20:  TBLRD*-
07E22:  TBLRD*+
07E24:  MOVF   FF5,W
07E26:  MOVWF  FEE
07E28:  IORLW  00
07E2A:  BNZ   7E22
07E2C:  MOVLB  5
07E2E:  BTFSC  xEC.7
07E30:  BSF    FF2.7
....................          displayMenu(Menus.Letra,0,19,1,1); 
07E32:  MOVLW  04
07E34:  MOVWF  xF5
07E36:  MOVLW  16
07E38:  MOVWF  xF4
07E3A:  CLRF   xF6
07E3C:  MOVLW  13
07E3E:  MOVWF  xF7
07E40:  MOVLW  01
07E42:  MOVWF  xF8
07E44:  MOVWF  xF9
07E46:  MOVLB  0
07E48:  CALL   4E96
....................       }else{ 
07E4C:  BRA    7E92
07E4E:  MOVLB  4
....................          strcpy(Menus.Letra,"Ajustes"); 
07E50:  MOVLW  04
07E52:  MOVWF  FEA
07E54:  MOVLW  16
07E56:  MOVWF  FE9
07E58:  MOVFF  FF2,5EC
07E5C:  BCF    FF2.7
07E5E:  MOVLW  00
07E60:  MOVLB  0
07E62:  CALL   1054
07E66:  TBLRD*-
07E68:  TBLRD*+
07E6A:  MOVF   FF5,W
07E6C:  MOVWF  FEE
07E6E:  IORLW  00
07E70:  BNZ   7E68
07E72:  MOVLB  5
07E74:  BTFSC  xEC.7
07E76:  BSF    FF2.7
....................          displayMenu(Menus.Letra,0,19,0,1); 
07E78:  MOVLW  04
07E7A:  MOVWF  xF5
07E7C:  MOVLW  16
07E7E:  MOVWF  xF4
07E80:  CLRF   xF6
07E82:  MOVLW  13
07E84:  MOVWF  xF7
07E86:  CLRF   xF8
07E88:  MOVLW  01
07E8A:  MOVWF  xF9
07E8C:  MOVLB  0
07E8E:  CALL   4E96
....................       } 
....................           
....................       if(Opcion==2){ 
07E92:  MOVLB  4
07E94:  MOVF   xCE,W
07E96:  SUBLW  02
07E98:  BNZ   7EE0
....................          strcpy(Menus.Letra,"Cambio de Clave"); 
07E9A:  MOVLW  04
07E9C:  MOVWF  FEA
07E9E:  MOVLW  16
07EA0:  MOVWF  FE9
07EA2:  MOVFF  FF2,5EC
07EA6:  BCF    FF2.7
07EA8:  MOVLW  00
07EAA:  MOVLB  0
07EAC:  CALL   1076
07EB0:  TBLRD*-
07EB2:  TBLRD*+
07EB4:  MOVF   FF5,W
07EB6:  MOVWF  FEE
07EB8:  IORLW  00
07EBA:  BNZ   7EB2
07EBC:  MOVLB  5
07EBE:  BTFSC  xEC.7
07EC0:  BSF    FF2.7
....................          displayMenu(Menus.Letra,0,35,1,1); 
07EC2:  MOVLW  04
07EC4:  MOVWF  xF5
07EC6:  MOVLW  16
07EC8:  MOVWF  xF4
07ECA:  CLRF   xF6
07ECC:  MOVLW  23
07ECE:  MOVWF  xF7
07ED0:  MOVLW  01
07ED2:  MOVWF  xF8
07ED4:  MOVWF  xF9
07ED6:  MOVLB  0
07ED8:  CALL   4E96
....................       }else{ 
07EDC:  BRA    7F22
07EDE:  MOVLB  4
....................          strcpy(Menus.Letra,"Cambio de Clave"); 
07EE0:  MOVLW  04
07EE2:  MOVWF  FEA
07EE4:  MOVLW  16
07EE6:  MOVWF  FE9
07EE8:  MOVFF  FF2,5EC
07EEC:  BCF    FF2.7
07EEE:  MOVLW  00
07EF0:  MOVLB  0
07EF2:  CALL   1076
07EF6:  TBLRD*-
07EF8:  TBLRD*+
07EFA:  MOVF   FF5,W
07EFC:  MOVWF  FEE
07EFE:  IORLW  00
07F00:  BNZ   7EF8
07F02:  MOVLB  5
07F04:  BTFSC  xEC.7
07F06:  BSF    FF2.7
....................          displayMenu(Menus.Letra,0,35,0,1); 
07F08:  MOVLW  04
07F0A:  MOVWF  xF5
07F0C:  MOVLW  16
07F0E:  MOVWF  xF4
07F10:  CLRF   xF6
07F12:  MOVLW  23
07F14:  MOVWF  xF7
07F16:  CLRF   xF8
07F18:  MOVLW  01
07F1A:  MOVWF  xF9
07F1C:  MOVLB  0
07F1E:  CALL   4E96
....................       } 
....................           
....................       if(Opcion==3){ 
07F22:  MOVLB  4
07F24:  MOVF   xCE,W
07F26:  SUBLW  03
07F28:  BNZ   7F70
....................          strcpy(Menus.Letra,"Modo"); 
07F2A:  MOVLW  04
07F2C:  MOVWF  FEA
07F2E:  MOVLW  16
07F30:  MOVWF  FE9
07F32:  MOVFF  FF2,5EC
07F36:  BCF    FF2.7
07F38:  MOVLW  00
07F3A:  MOVLB  0
07F3C:  CALL   10A0
07F40:  TBLRD*-
07F42:  TBLRD*+
07F44:  MOVF   FF5,W
07F46:  MOVWF  FEE
07F48:  IORLW  00
07F4A:  BNZ   7F42
07F4C:  MOVLB  5
07F4E:  BTFSC  xEC.7
07F50:  BSF    FF2.7
....................          displayMenu(Menus.Letra,0,51,1,1); 
07F52:  MOVLW  04
07F54:  MOVWF  xF5
07F56:  MOVLW  16
07F58:  MOVWF  xF4
07F5A:  CLRF   xF6
07F5C:  MOVLW  33
07F5E:  MOVWF  xF7
07F60:  MOVLW  01
07F62:  MOVWF  xF8
07F64:  MOVWF  xF9
07F66:  MOVLB  0
07F68:  CALL   4E96
....................       }else{ 
07F6C:  BRA    7FB2
07F6E:  MOVLB  4
....................          strcpy(Menus.Letra,"Modo"); 
07F70:  MOVLW  04
07F72:  MOVWF  FEA
07F74:  MOVLW  16
07F76:  MOVWF  FE9
07F78:  MOVFF  FF2,5EC
07F7C:  BCF    FF2.7
07F7E:  MOVLW  00
07F80:  MOVLB  0
07F82:  CALL   10A0
07F86:  TBLRD*-
07F88:  TBLRD*+
07F8A:  MOVF   FF5,W
07F8C:  MOVWF  FEE
07F8E:  IORLW  00
07F90:  BNZ   7F88
07F92:  MOVLB  5
07F94:  BTFSC  xEC.7
07F96:  BSF    FF2.7
....................          displayMenu(Menus.Letra,0,51,0,1); 
07F98:  MOVLW  04
07F9A:  MOVWF  xF5
07F9C:  MOVLW  16
07F9E:  MOVWF  xF4
07FA0:  CLRF   xF6
07FA2:  MOVLW  33
07FA4:  MOVWF  xF7
07FA6:  CLRF   xF8
07FA8:  MOVLW  01
07FAA:  MOVWF  xF9
07FAC:  MOVLB  0
07FAE:  CALL   4E96
....................       } 
....................       glcd_update();  
07FB2:  CALL   1614
....................        
....................       if(w==0){ 
07FB6:  MOVLB  4
07FB8:  BTFSC  x2D.3
07FBA:  BRA    7FD8
....................          delay_ms(500);w=1; 
07FBC:  MOVLW  02
07FBE:  MOVLB  5
07FC0:  MOVWF  xEC
07FC2:  MOVLW  FA
07FC4:  MOVLB  6
07FC6:  MOVWF  x00
07FC8:  MOVLB  0
07FCA:  CALL   14DC
07FCE:  MOVLB  5
07FD0:  DECFSZ xEC,F
07FD2:  BRA    7FC2
07FD4:  MOVLB  4
07FD6:  BSF    x2D.3
....................       } 
....................           
....................       if(UP){//Si oprime hacia arriba         
07FD8:  BSF    F92.5
07FDA:  BTFSC  F80.5
07FDC:  BRA    7FF6
....................          if(Flanco == 0){ 
07FDE:  BTFSC  x2C.0
07FE0:  BRA    7FF4
....................             Flanco = 1;delay_ms(30);Opcion--; 
07FE2:  BSF    x2C.0
07FE4:  MOVLW  1E
07FE6:  MOVLB  6
07FE8:  MOVWF  x00
07FEA:  MOVLB  0
07FEC:  CALL   14DC
07FF0:  MOVLB  4
07FF2:  DECF   xCE,F
....................          } 
....................       }else{ 
07FF4:  BRA    7FF8
....................          Flanco = 0; 
07FF6:  BCF    x2C.0
....................       } 
....................              
....................       if(DOWN){//Si oprime hacia abajo 
07FF8:  BSF    F96.0
07FFA:  BTFSC  F84.0
07FFC:  BRA    8016
....................          if(Flanco2 == 0){ 
07FFE:  BTFSC  x2C.2
08000:  BRA    8014
....................             Flanco2 = 1;delay_ms(30);Opcion++; 
08002:  BSF    x2C.2
08004:  MOVLW  1E
08006:  MOVLB  6
08008:  MOVWF  x00
0800A:  MOVLB  0
0800C:  CALL   14DC
08010:  MOVLB  4
08012:  INCF   xCE,F
....................          } 
....................       }else{ 
08014:  BRA    8018
....................          Flanco2 = 0; 
08016:  BCF    x2C.2
....................       } 
....................              
....................       if(RIGHT){//Si oprime SET 
08018:  BSF    F96.1
0801A:  BTFSC  F84.1
0801C:  BRA    805C
....................          if(Flanco1 == 0){ 
0801E:  BTFSC  x2C.1
08020:  BRA    805A
....................             Flanco1 = 1;delay_ms(50);Menu=Opcion+3;Opcion=1;glcd_fillscreen(OFF);unidad=1; 
08022:  BSF    x2C.1
08024:  MOVLW  32
08026:  MOVLB  6
08028:  MOVWF  x00
0802A:  MOVLB  0
0802C:  CALL   14DC
08030:  MOVLW  03
08032:  MOVLB  4
08034:  ADDWF  xCE,W
08036:  MOVWF  xCC
08038:  MOVLW  01
0803A:  MOVWF  xCE
0803C:  MOVLB  5
0803E:  CLRF   xF4
08040:  MOVLB  0
08042:  CALL   15BA
08046:  MOVLW  01
08048:  MOVLB  4
0804A:  MOVWF  xCD
....................             Contrasena[0]=0;Contrasena[1]=0;Contrasena[2]=0;Contrasena[3]=0;n=0; 
0804C:  MOVLB  5
0804E:  CLRF   x10
08050:  CLRF   x11
08052:  CLRF   x12
08054:  CLRF   x13
08056:  MOVLB  4
08058:  BCF    x2E.5
....................          } 
....................       }else{ 
0805A:  BRA    805E
....................          Flanco1 = 0; 
0805C:  BCF    x2C.1
....................       } 
....................              
....................       if(LEFT){//Si oprime boton de Toma. 
0805E:  BSF    F96.2
08060:  BTFSC  F84.2
08062:  BRA    808E
....................          delay_ms(700);Menu=2;glcd_fillscreen(OFF); 
08064:  MOVLW  04
08066:  MOVLB  5
08068:  MOVWF  xEC
0806A:  MOVLW  AF
0806C:  MOVLB  6
0806E:  MOVWF  x00
08070:  MOVLB  0
08072:  CALL   14DC
08076:  MOVLB  5
08078:  DECFSZ xEC,F
0807A:  BRA    806A
0807C:  MOVLW  02
0807E:  MOVLB  4
08080:  MOVWF  xCC
08082:  MOVLB  5
08084:  CLRF   xF4
08086:  MOVLB  0
08088:  CALL   15BA
0808C:  MOVLB  4
....................       } 
....................              
....................       if(Opcion>3) 
0808E:  MOVF   xCE,W
08090:  SUBLW  03
08092:  BC    8098
....................          Opcion=1; 
08094:  MOVLW  01
08096:  MOVWF  xCE
....................       if(Opcion<1) 
08098:  MOVF   xCE,F
0809A:  BNZ   80A0
....................          Opcion=3; 
0809C:  MOVLW  03
0809E:  MOVWF  xCE
....................     } 
.................... //_--------------------------------------------------------------------------------------------------------------------------------------------------------        
....................  
.................... //_-------------------------------------------------------------------------------------------------------------------------------------------------------- 
....................       if(Menu==4){ //Menu de Ajustes. 
080A0:  MOVF   xCC,W
080A2:  SUBLW  04
080A4:  BTFSS  FD8.2
080A6:  BRA    82BE
....................        
....................       strcpy(Menus.Letra,"Ajustes"); 
080A8:  MOVLW  04
080AA:  MOVWF  FEA
080AC:  MOVLW  16
080AE:  MOVWF  FE9
080B0:  MOVFF  FF2,5EC
080B4:  BCF    FF2.7
080B6:  MOVLW  00
080B8:  MOVLB  0
080BA:  CALL   1054
080BE:  TBLRD*-
080C0:  TBLRD*+
080C2:  MOVF   FF5,W
080C4:  MOVWF  FEE
080C6:  IORLW  00
080C8:  BNZ   80C0
080CA:  MOVLB  5
080CC:  BTFSC  xEC.7
080CE:  BSF    FF2.7
....................       displayMenu(Menus.Letra,0,0,1,2); 
080D0:  MOVLW  04
080D2:  MOVWF  xF5
080D4:  MOVLW  16
080D6:  MOVWF  xF4
080D8:  CLRF   xF6
080DA:  CLRF   xF7
080DC:  MOVLW  01
080DE:  MOVWF  xF8
080E0:  MOVLW  02
080E2:  MOVWF  xF9
080E4:  MOVLB  0
080E6:  CALL   4E96
....................        
....................       if(Opcion==1)    
080EA:  MOVLB  4
080EC:  DECFSZ xCE,W
080EE:  BRA    8136
....................          {strcpy(Menus.Letra,"Tiempo Purga"); 
080F0:  MOVLW  04
080F2:  MOVWF  FEA
080F4:  MOVLW  16
080F6:  MOVWF  FE9
080F8:  MOVFF  FF2,5EC
080FC:  BCF    FF2.7
080FE:  MOVLW  00
08100:  MOVLB  0
08102:  CALL   10C0
08106:  TBLRD*-
08108:  TBLRD*+
0810A:  MOVF   FF5,W
0810C:  MOVWF  FEE
0810E:  IORLW  00
08110:  BNZ   8108
08112:  MOVLB  5
08114:  BTFSC  xEC.7
08116:  BSF    FF2.7
....................          displayMenu(Menus.Letra,0,20,1,1);} 
08118:  MOVLW  04
0811A:  MOVWF  xF5
0811C:  MOVLW  16
0811E:  MOVWF  xF4
08120:  CLRF   xF6
08122:  MOVLW  14
08124:  MOVWF  xF7
08126:  MOVLW  01
08128:  MOVWF  xF8
0812A:  MOVWF  xF9
0812C:  MOVLB  0
0812E:  CALL   4E96
....................       else 
08132:  BRA    8178
08134:  MOVLB  4
....................          {strcpy(Menus.Letra,"Tiempo Purga"); 
08136:  MOVLW  04
08138:  MOVWF  FEA
0813A:  MOVLW  16
0813C:  MOVWF  FE9
0813E:  MOVFF  FF2,5EC
08142:  BCF    FF2.7
08144:  MOVLW  00
08146:  MOVLB  0
08148:  CALL   10C0
0814C:  TBLRD*-
0814E:  TBLRD*+
08150:  MOVF   FF5,W
08152:  MOVWF  FEE
08154:  IORLW  00
08156:  BNZ   814E
08158:  MOVLB  5
0815A:  BTFSC  xEC.7
0815C:  BSF    FF2.7
....................          displayMenu(Menus.Letra,0,20,0,1);}              
0815E:  MOVLW  04
08160:  MOVWF  xF5
08162:  MOVLW  16
08164:  MOVWF  xF4
08166:  CLRF   xF6
08168:  MOVLW  14
0816A:  MOVWF  xF7
0816C:  CLRF   xF8
0816E:  MOVLW  01
08170:  MOVWF  xF9
08172:  MOVLB  0
08174:  CALL   4E96
....................        
....................       if(Opcion==2)    
08178:  MOVLB  4
0817A:  MOVF   xCE,W
0817C:  SUBLW  02
0817E:  BNZ   81C6
....................          {strcpy(Menus.Letra,"Tempo UV"); 
08180:  MOVLW  04
08182:  MOVWF  FEA
08184:  MOVLW  16
08186:  MOVWF  FE9
08188:  MOVFF  FF2,5EC
0818C:  BCF    FF2.7
0818E:  MOVLW  00
08190:  MOVLB  0
08192:  CALL   10E8
08196:  TBLRD*-
08198:  TBLRD*+
0819A:  MOVF   FF5,W
0819C:  MOVWF  FEE
0819E:  IORLW  00
081A0:  BNZ   8198
081A2:  MOVLB  5
081A4:  BTFSC  xEC.7
081A6:  BSF    FF2.7
....................          displayMenu(Menus.Letra,0,35,1,1);} 
081A8:  MOVLW  04
081AA:  MOVWF  xF5
081AC:  MOVLW  16
081AE:  MOVWF  xF4
081B0:  CLRF   xF6
081B2:  MOVLW  23
081B4:  MOVWF  xF7
081B6:  MOVLW  01
081B8:  MOVWF  xF8
081BA:  MOVWF  xF9
081BC:  MOVLB  0
081BE:  CALL   4E96
....................       else 
081C2:  BRA    8208
081C4:  MOVLB  4
....................          {strcpy(Menus.Letra,"Tempo UV"); 
081C6:  MOVLW  04
081C8:  MOVWF  FEA
081CA:  MOVLW  16
081CC:  MOVWF  FE9
081CE:  MOVFF  FF2,5EC
081D2:  BCF    FF2.7
081D4:  MOVLW  00
081D6:  MOVLB  0
081D8:  CALL   10E8
081DC:  TBLRD*-
081DE:  TBLRD*+
081E0:  MOVF   FF5,W
081E2:  MOVWF  FEE
081E4:  IORLW  00
081E6:  BNZ   81DE
081E8:  MOVLB  5
081EA:  BTFSC  xEC.7
081EC:  BSF    FF2.7
....................          displayMenu(Menus.Letra,0,35,0,1);}  
081EE:  MOVLW  04
081F0:  MOVWF  xF5
081F2:  MOVLW  16
081F4:  MOVWF  xF4
081F6:  CLRF   xF6
081F8:  MOVLW  23
081FA:  MOVWF  xF7
081FC:  CLRF   xF8
081FE:  MOVLW  01
08200:  MOVWF  xF9
08202:  MOVLB  0
08204:  CALL   4E96
....................        
....................       if(UP)//Si oprime hacia arriba 
08208:  BSF    F92.5
0820A:  BTFSC  F80.5
0820C:  BRA    8228
....................       {  if(Flanco == 0)  
0820E:  MOVLB  4
08210:  BTFSC  x2C.0
08212:  BRA    8226
....................             {Flanco = 1;delay_ms(30);Opcion--; 
08214:  BSF    x2C.0
08216:  MOVLW  1E
08218:  MOVLB  6
0821A:  MOVWF  x00
0821C:  MOVLB  0
0821E:  CALL   14DC
08222:  MOVLB  4
08224:  DECF   xCE,F
....................             } 
....................       } 
....................          else 
08226:  BRA    822C
....................             {Flanco = 0;} 
08228:  MOVLB  4
0822A:  BCF    x2C.0
....................              
....................       if(DOWN)//Si oprime hacia abajo 
0822C:  BSF    F96.0
0822E:  BTFSC  F84.0
08230:  BRA    824A
....................       {  if(Flanco2 == 0)  
08232:  BTFSC  x2C.2
08234:  BRA    8248
....................             {Flanco2 = 1;delay_ms(30);Opcion++; 
08236:  BSF    x2C.2
08238:  MOVLW  1E
0823A:  MOVLB  6
0823C:  MOVWF  x00
0823E:  MOVLB  0
08240:  CALL   14DC
08244:  MOVLB  4
08246:  INCF   xCE,F
....................             }      
....................       } 
....................          else 
08248:  BRA    824C
....................             {Flanco2 = 0;}   
0824A:  BCF    x2C.2
....................              
....................       if(RIGHT)//Si oprime SET 
0824C:  BSF    F96.1
0824E:  BTFSC  F84.1
08250:  BRA    827A
....................       {  if(Flanco1 == 0)  
08252:  BTFSC  x2C.1
08254:  BRA    8278
....................             {Flanco1 = 1;delay_ms(50);Menu=Opcion+10;glcd_fillScreen(OFF); 
08256:  BSF    x2C.1
08258:  MOVLW  32
0825A:  MOVLB  6
0825C:  MOVWF  x00
0825E:  MOVLB  0
08260:  CALL   14DC
08264:  MOVLW  0A
08266:  MOVLB  4
08268:  ADDWF  xCE,W
0826A:  MOVWF  xCC
0826C:  MOVLB  5
0826E:  CLRF   xF4
08270:  MOVLB  0
08272:  CALL   15BA
08276:  MOVLB  4
....................             } 
....................       } 
....................          else 
08278:  BRA    827C
....................             {Flanco1 = 0;}   
0827A:  BCF    x2C.1
....................              
....................       if(LEFT)//Si oprime boton de Toma. 
0827C:  BSF    F96.2
0827E:  BTFSC  F84.2
08280:  BRA    82AC
....................         {delay_ms(700);Menu=3;glcd_fillscreen(OFF);} 
08282:  MOVLW  04
08284:  MOVLB  5
08286:  MOVWF  xEC
08288:  MOVLW  AF
0828A:  MOVLB  6
0828C:  MOVWF  x00
0828E:  MOVLB  0
08290:  CALL   14DC
08294:  MOVLB  5
08296:  DECFSZ xEC,F
08298:  BRA    8288
0829A:  MOVLW  03
0829C:  MOVLB  4
0829E:  MOVWF  xCC
082A0:  MOVLB  5
082A2:  CLRF   xF4
082A4:  MOVLB  0
082A6:  CALL   15BA
082AA:  MOVLB  4
....................        
....................       if(Opcion>2) 
082AC:  MOVF   xCE,W
082AE:  SUBLW  02
082B0:  BC    82B6
....................       {Opcion=1;} 
082B2:  MOVLW  01
082B4:  MOVWF  xCE
....................       if(Opcion<1) 
082B6:  MOVF   xCE,F
082B8:  BNZ   82BE
....................       {Opcion=2;} 
082BA:  MOVLW  02
082BC:  MOVWF  xCE
....................      
....................     } 
.................... //_--------------------------------------------------------------------------------------------------------------------------------------------------------        
....................  
.................... //_-------------------------------------------------------------------------------------------------------------------------------------------------------- 
....................       if(Menu==6){ //Menu de Modo. 
082BE:  MOVF   xCC,W
082C0:  SUBLW  06
082C2:  BTFSS  FD8.2
082C4:  BRA    84E4
....................        
....................       strcpy(Menus.Letra,"Modo"); 
082C6:  MOVLW  04
082C8:  MOVWF  FEA
082CA:  MOVLW  16
082CC:  MOVWF  FE9
082CE:  MOVFF  FF2,5EC
082D2:  BCF    FF2.7
082D4:  MOVLW  00
082D6:  MOVLB  0
082D8:  CALL   10A0
082DC:  TBLRD*-
082DE:  TBLRD*+
082E0:  MOVF   FF5,W
082E2:  MOVWF  FEE
082E4:  IORLW  00
082E6:  BNZ   82DE
082E8:  MOVLB  5
082EA:  BTFSC  xEC.7
082EC:  BSF    FF2.7
....................       displayMenu(Menus.Letra,40,0,1,2); 
082EE:  MOVLW  04
082F0:  MOVWF  xF5
082F2:  MOVLW  16
082F4:  MOVWF  xF4
082F6:  MOVLW  28
082F8:  MOVWF  xF6
082FA:  CLRF   xF7
082FC:  MOVLW  01
082FE:  MOVWF  xF8
08300:  MOVLW  02
08302:  MOVWF  xF9
08304:  MOVLB  0
08306:  CALL   4E96
....................           
....................       if(Opcion==1)    
0830A:  MOVLB  4
0830C:  DECFSZ xCE,W
0830E:  BRA    8356
....................          {strcpy(Menus.Letra,"Mantenimiento"); 
08310:  MOVLW  04
08312:  MOVWF  FEA
08314:  MOVLW  16
08316:  MOVWF  FE9
08318:  MOVFF  FF2,5EC
0831C:  BCF    FF2.7
0831E:  MOVLW  00
08320:  MOVLB  0
08322:  CALL   110C
08326:  TBLRD*-
08328:  TBLRD*+
0832A:  MOVF   FF5,W
0832C:  MOVWF  FEE
0832E:  IORLW  00
08330:  BNZ   8328
08332:  MOVLB  5
08334:  BTFSC  xEC.7
08336:  BSF    FF2.7
....................          displayMenu(Menus.Letra,0,19,1,1);} 
08338:  MOVLW  04
0833A:  MOVWF  xF5
0833C:  MOVLW  16
0833E:  MOVWF  xF4
08340:  CLRF   xF6
08342:  MOVLW  13
08344:  MOVWF  xF7
08346:  MOVLW  01
08348:  MOVWF  xF8
0834A:  MOVWF  xF9
0834C:  MOVLB  0
0834E:  CALL   4E96
....................       else 
08352:  BRA    8398
08354:  MOVLB  4
....................          {strcpy(Menus.Letra,"Mantenimiento"); 
08356:  MOVLW  04
08358:  MOVWF  FEA
0835A:  MOVLW  16
0835C:  MOVWF  FE9
0835E:  MOVFF  FF2,5EC
08362:  BCF    FF2.7
08364:  MOVLW  00
08366:  MOVLB  0
08368:  CALL   110C
0836C:  TBLRD*-
0836E:  TBLRD*+
08370:  MOVF   FF5,W
08372:  MOVWF  FEE
08374:  IORLW  00
08376:  BNZ   836E
08378:  MOVLB  5
0837A:  BTFSC  xEC.7
0837C:  BSF    FF2.7
....................          displayMenu(Menus.Letra,0,19,0,1);}    
0837E:  MOVLW  04
08380:  MOVWF  xF5
08382:  MOVLW  16
08384:  MOVWF  xF4
08386:  CLRF   xF6
08388:  MOVLW  13
0838A:  MOVWF  xF7
0838C:  CLRF   xF8
0838E:  MOVLW  01
08390:  MOVWF  xF9
08392:  MOVLB  0
08394:  CALL   4E96
....................           
....................       if(Opcion==2)    
08398:  MOVLB  4
0839A:  MOVF   xCE,W
0839C:  SUBLW  02
0839E:  BNZ   83E6
....................          {strcpy(Menus.Letra,"Servicio"); 
083A0:  MOVLW  04
083A2:  MOVWF  FEA
083A4:  MOVLW  16
083A6:  MOVWF  FE9
083A8:  MOVFF  FF2,5EC
083AC:  BCF    FF2.7
083AE:  MOVLW  00
083B0:  MOVLB  0
083B2:  CALL   1134
083B6:  TBLRD*-
083B8:  TBLRD*+
083BA:  MOVF   FF5,W
083BC:  MOVWF  FEE
083BE:  IORLW  00
083C0:  BNZ   83B8
083C2:  MOVLB  5
083C4:  BTFSC  xEC.7
083C6:  BSF    FF2.7
....................          displayMenu(Menus.Letra,0,35,1,1);} 
083C8:  MOVLW  04
083CA:  MOVWF  xF5
083CC:  MOVLW  16
083CE:  MOVWF  xF4
083D0:  CLRF   xF6
083D2:  MOVLW  23
083D4:  MOVWF  xF7
083D6:  MOVLW  01
083D8:  MOVWF  xF8
083DA:  MOVWF  xF9
083DC:  MOVLB  0
083DE:  CALL   4E96
....................       else 
083E2:  BRA    8428
083E4:  MOVLB  4
....................          {strcpy(Menus.Letra,"Servicio"); 
083E6:  MOVLW  04
083E8:  MOVWF  FEA
083EA:  MOVLW  16
083EC:  MOVWF  FE9
083EE:  MOVFF  FF2,5EC
083F2:  BCF    FF2.7
083F4:  MOVLW  00
083F6:  MOVLB  0
083F8:  CALL   1134
083FC:  TBLRD*-
083FE:  TBLRD*+
08400:  MOVF   FF5,W
08402:  MOVWF  FEE
08404:  IORLW  00
08406:  BNZ   83FE
08408:  MOVLB  5
0840A:  BTFSC  xEC.7
0840C:  BSF    FF2.7
....................          displayMenu(Menus.Letra,0,35,0,1);} 
0840E:  MOVLW  04
08410:  MOVWF  xF5
08412:  MOVLW  16
08414:  MOVWF  xF4
08416:  CLRF   xF6
08418:  MOVLW  23
0841A:  MOVWF  xF7
0841C:  CLRF   xF8
0841E:  MOVLW  01
08420:  MOVWF  xF9
08422:  MOVLB  0
08424:  CALL   4E96
....................           
....................       if(UP)//Si oprime hacia arriba 
08428:  BSF    F92.5
0842A:  BTFSC  F80.5
0842C:  BRA    8448
....................       {  if(Flanco == 0)  
0842E:  MOVLB  4
08430:  BTFSC  x2C.0
08432:  BRA    8446
....................             {Flanco = 1;delay_ms(30);Opcion--; 
08434:  BSF    x2C.0
08436:  MOVLW  1E
08438:  MOVLB  6
0843A:  MOVWF  x00
0843C:  MOVLB  0
0843E:  CALL   14DC
08442:  MOVLB  4
08444:  DECF   xCE,F
....................             } 
....................       } 
....................          else 
08446:  BRA    844C
....................             {Flanco = 0;} 
08448:  MOVLB  4
0844A:  BCF    x2C.0
....................              
....................       if(DOWN)//Si oprime hacia abajo 
0844C:  BSF    F96.0
0844E:  BTFSC  F84.0
08450:  BRA    846A
....................       {  if(Flanco2 == 0)  
08452:  BTFSC  x2C.2
08454:  BRA    8468
....................             {Flanco2 = 1;delay_ms(30);Opcion++; 
08456:  BSF    x2C.2
08458:  MOVLW  1E
0845A:  MOVLB  6
0845C:  MOVWF  x00
0845E:  MOVLB  0
08460:  CALL   14DC
08464:  MOVLB  4
08466:  INCF   xCE,F
....................             }      
....................       } 
....................          else 
08468:  BRA    846C
....................             {Flanco2 = 0;}   
0846A:  BCF    x2C.2
....................              
....................       if(RIGHT)//Si oprime SET 
0846C:  BSF    F96.1
0846E:  BTFSC  F84.1
08470:  BRA    84A0
....................       {  if(Flanco1 == 0)  
08472:  BTFSC  x2C.1
08474:  BRA    849E
....................             {Flanco1 = 1;delay_ms(50);Menu=Opcion+30;glcd_fillScreen(OFF);Opcion=1;unidad=1; 
08476:  BSF    x2C.1
08478:  MOVLW  32
0847A:  MOVLB  6
0847C:  MOVWF  x00
0847E:  MOVLB  0
08480:  CALL   14DC
08484:  MOVLW  1E
08486:  MOVLB  4
08488:  ADDWF  xCE,W
0848A:  MOVWF  xCC
0848C:  MOVLB  5
0848E:  CLRF   xF4
08490:  MOVLB  0
08492:  CALL   15BA
08496:  MOVLW  01
08498:  MOVLB  4
0849A:  MOVWF  xCE
0849C:  MOVWF  xCD
....................             } 
....................       } 
....................          else 
0849E:  BRA    84A2
....................             {Flanco1 = 0;}   
084A0:  BCF    x2C.1
....................              
....................       if(LEFT)//Si oprime boton de Toma. 
084A2:  BSF    F96.2
084A4:  BTFSC  F84.2
084A6:  BRA    84D2
....................         {delay_ms(700);Menu=3;glcd_fillscreen(OFF);} 
084A8:  MOVLW  04
084AA:  MOVLB  5
084AC:  MOVWF  xEC
084AE:  MOVLW  AF
084B0:  MOVLB  6
084B2:  MOVWF  x00
084B4:  MOVLB  0
084B6:  CALL   14DC
084BA:  MOVLB  5
084BC:  DECFSZ xEC,F
084BE:  BRA    84AE
084C0:  MOVLW  03
084C2:  MOVLB  4
084C4:  MOVWF  xCC
084C6:  MOVLB  5
084C8:  CLRF   xF4
084CA:  MOVLB  0
084CC:  CALL   15BA
084D0:  MOVLB  4
....................       if(Opcion>2) 
084D2:  MOVF   xCE,W
084D4:  SUBLW  02
084D6:  BC    84DC
....................       {Opcion=1;} 
084D8:  MOVLW  01
084DA:  MOVWF  xCE
....................       if(Opcion<1) 
084DC:  MOVF   xCE,F
084DE:  BNZ   84E4
....................       {Opcion=2;} 
084E0:  MOVLW  02
084E2:  MOVWF  xCE
....................      
....................     } 
.................... //_--------------------------------------------------------------------------------------------------------------------------------------------------------        
....................  
.................... //_-------------------------------------------------------------------------------------------------------------------------------------------------------- 
....................       if(Menu==11){ //Menu de Purga. 
084E4:  MOVF   xCC,W
084E6:  SUBLW  0B
084E8:  BTFSS  FD8.2
084EA:  BRA    88A4
....................        
....................       strcpy(Menus.Letra,"T. Purga"); 
084EC:  MOVLW  04
084EE:  MOVWF  FEA
084F0:  MOVLW  16
084F2:  MOVWF  FE9
084F4:  MOVFF  FF2,5EC
084F8:  BCF    FF2.7
084FA:  MOVLW  00
084FC:  MOVLB  0
084FE:  CALL   1158
08502:  TBLRD*-
08504:  TBLRD*+
08506:  MOVF   FF5,W
08508:  MOVWF  FEE
0850A:  IORLW  00
0850C:  BNZ   8504
0850E:  MOVLB  5
08510:  BTFSC  xEC.7
08512:  BSF    FF2.7
....................       displayMenu(Menus.Letra,10,0,1,2); 
08514:  MOVLW  04
08516:  MOVWF  xF5
08518:  MOVLW  16
0851A:  MOVWF  xF4
0851C:  MOVLW  0A
0851E:  MOVWF  xF6
08520:  CLRF   xF7
08522:  MOVLW  01
08524:  MOVWF  xF8
08526:  MOVLW  02
08528:  MOVWF  xF9
0852A:  MOVLB  0
0852C:  CALL   4E96
....................        
....................       if(unidad==4) 
08530:  MOVLB  4
08532:  MOVF   xCD,W
08534:  SUBLW  04
08536:  BNZ   8556
....................       {displayTiempo(Tpurgap[3],20,40,1,2);} 
08538:  MOVFF  4FB,5EC
0853C:  MOVLW  14
0853E:  MOVLB  5
08540:  MOVWF  xED
08542:  MOVLW  28
08544:  MOVWF  xEE
08546:  MOVLW  01
08548:  MOVWF  xEF
0854A:  MOVLW  02
0854C:  MOVWF  xF0
0854E:  MOVLB  0
08550:  CALL   5658
....................       else 
08554:  BRA    8570
....................       {displayTiempo(Tpurgap[3],20,40,0,2);} 
08556:  MOVFF  4FB,5EC
0855A:  MOVLW  14
0855C:  MOVLB  5
0855E:  MOVWF  xED
08560:  MOVLW  28
08562:  MOVWF  xEE
08564:  CLRF   xEF
08566:  MOVLW  02
08568:  MOVWF  xF0
0856A:  MOVLB  0
0856C:  CALL   5658
....................        
....................       if(unidad==3) 
08570:  MOVLB  4
08572:  MOVF   xCD,W
08574:  SUBLW  03
08576:  BNZ   8594
....................       {displayTiempo(Tpurgap[2],40,40,1,2);} 
08578:  MOVFF  4FA,5EC
0857C:  MOVLW  28
0857E:  MOVLB  5
08580:  MOVWF  xED
08582:  MOVWF  xEE
08584:  MOVLW  01
08586:  MOVWF  xEF
08588:  MOVLW  02
0858A:  MOVWF  xF0
0858C:  MOVLB  0
0858E:  CALL   5658
....................       else 
08592:  BRA    85AC
....................       {displayTiempo(Tpurgap[2],40,40,0,2);} 
08594:  MOVFF  4FA,5EC
08598:  MOVLW  28
0859A:  MOVLB  5
0859C:  MOVWF  xED
0859E:  MOVWF  xEE
085A0:  CLRF   xEF
085A2:  MOVLW  02
085A4:  MOVWF  xF0
085A6:  MOVLB  0
085A8:  CALL   5658
....................        
....................       if(unidad==2) 
085AC:  MOVLB  4
085AE:  MOVF   xCD,W
085B0:  SUBLW  02
085B2:  BNZ   85D2
....................       {displayTiempo(Tpurgap[1],70,40,1,2);} 
085B4:  MOVFF  4F9,5EC
085B8:  MOVLW  46
085BA:  MOVLB  5
085BC:  MOVWF  xED
085BE:  MOVLW  28
085C0:  MOVWF  xEE
085C2:  MOVLW  01
085C4:  MOVWF  xEF
085C6:  MOVLW  02
085C8:  MOVWF  xF0
085CA:  MOVLB  0
085CC:  CALL   5658
....................       else 
085D0:  BRA    85EC
....................       {displayTiempo(Tpurgap[1],70,40,0,2);} 
085D2:  MOVFF  4F9,5EC
085D6:  MOVLW  46
085D8:  MOVLB  5
085DA:  MOVWF  xED
085DC:  MOVLW  28
085DE:  MOVWF  xEE
085E0:  CLRF   xEF
085E2:  MOVLW  02
085E4:  MOVWF  xF0
085E6:  MOVLB  0
085E8:  CALL   5658
....................        
....................       if(unidad==1) 
085EC:  MOVLB  4
085EE:  DECFSZ xCD,W
085F0:  BRA    8610
....................       {displayTiempo(Tpurgap[0],90,40,1,2);} 
085F2:  MOVFF  4F8,5EC
085F6:  MOVLW  5A
085F8:  MOVLB  5
085FA:  MOVWF  xED
085FC:  MOVLW  28
085FE:  MOVWF  xEE
08600:  MOVLW  01
08602:  MOVWF  xEF
08604:  MOVLW  02
08606:  MOVWF  xF0
08608:  MOVLB  0
0860A:  CALL   5658
....................       else 
0860E:  BRA    862A
....................       {displayTiempo(Tpurgap[0],90,40,0,2);} 
08610:  MOVFF  4F8,5EC
08614:  MOVLW  5A
08616:  MOVLB  5
08618:  MOVWF  xED
0861A:  MOVLW  28
0861C:  MOVWF  xEE
0861E:  CLRF   xEF
08620:  MOVLW  02
08622:  MOVWF  xF0
08624:  MOVLB  0
08626:  CALL   5658
....................        
....................       glcd_text57(60, 42, Dos_puntos, 2, ON); 
0862A:  MOVLW  3C
0862C:  MOVLB  6
0862E:  MOVWF  x05
08630:  MOVLW  2A
08632:  MOVWF  x06
08634:  MOVLW  04
08636:  MOVWF  x08
08638:  MOVLW  50
0863A:  MOVWF  x07
0863C:  MOVLW  02
0863E:  MOVWF  x09
08640:  MOVLW  01
08642:  MOVWF  x0A
08644:  MOVLB  0
08646:  CALL   1830
....................           
....................          
....................       if(UP)//Si oprime hacia arriba 
0864A:  BSF    F92.5
0864C:  BTFSC  F80.5
0864E:  BRA    867A
....................       {  if(Flanco == 0)  
08650:  MOVLB  4
08652:  BTFSC  x2C.0
08654:  BRA    8678
....................             {Flanco = 1;delay_ms(30);Tpurgap[unidad-1]++; 
08656:  BSF    x2C.0
08658:  MOVLW  1E
0865A:  MOVLB  6
0865C:  MOVWF  x00
0865E:  MOVLB  0
08660:  CALL   14DC
08664:  MOVLW  01
08666:  MOVLB  4
08668:  SUBWF  xCD,W
0866A:  CLRF   03
0866C:  ADDLW  F8
0866E:  MOVWF  FE9
08670:  MOVLW  04
08672:  ADDWFC 03,W
08674:  MOVWF  FEA
08676:  INCF   FEF,F
....................             } 
....................       } 
....................          else 
08678:  BRA    867E
....................             {Flanco = 0;} 
0867A:  MOVLB  4
0867C:  BCF    x2C.0
....................              
....................       if(DOWN)//Si oprime hacia abajo 
0867E:  BSF    F96.0
08680:  BTFSC  F84.0
08682:  BRA    86AC
....................       {  if(Flanco2 == 0)  
08684:  BTFSC  x2C.2
08686:  BRA    86AA
....................             {Flanco2 = 1;delay_ms(30);Tpurgap[unidad-1]--; 
08688:  BSF    x2C.2
0868A:  MOVLW  1E
0868C:  MOVLB  6
0868E:  MOVWF  x00
08690:  MOVLB  0
08692:  CALL   14DC
08696:  MOVLW  01
08698:  MOVLB  4
0869A:  SUBWF  xCD,W
0869C:  CLRF   03
0869E:  ADDLW  F8
086A0:  MOVWF  FE9
086A2:  MOVLW  04
086A4:  ADDWFC 03,W
086A6:  MOVWF  FEA
086A8:  DECF   FEF,F
....................             }      
....................       } 
....................          else 
086AA:  BRA    86AE
....................             {Flanco2 = 0;}   
086AC:  BCF    x2C.2
....................              
....................       if(RIGHT)//Si oprime SET 
086AE:  BSF    F96.1
086B0:  BTFSC  F84.1
086B2:  BRA    86CC
....................       {  if(Flanco1 == 0)  
086B4:  BTFSC  x2C.1
086B6:  BRA    86CA
....................             {Flanco1 = 1;delay_ms(30);unidad--; 
086B8:  BSF    x2C.1
086BA:  MOVLW  1E
086BC:  MOVLB  6
086BE:  MOVWF  x00
086C0:  MOVLB  0
086C2:  CALL   14DC
086C6:  MOVLB  4
086C8:  DECF   xCD,F
....................             } 
....................       } 
....................          else 
086CA:  BRA    86CE
....................             {Flanco1 = 0;}   
086CC:  BCF    x2C.1
....................              
....................       if(LEFT)//Si oprime boton de Toma. 
086CE:  BSF    F96.2
086D0:  BTFSC  F84.2
086D2:  BRA    87D8
....................       { 
....................          delay_ms(70);Menu=4;glcd_fillscreen(OFF);Opcion=1;unidad=1; 
086D4:  MOVLW  46
086D6:  MOVLB  6
086D8:  MOVWF  x00
086DA:  MOVLB  0
086DC:  CALL   14DC
086E0:  MOVLW  04
086E2:  MOVLB  4
086E4:  MOVWF  xCC
086E6:  MOVLB  5
086E8:  CLRF   xF4
086EA:  MOVLB  0
086EC:  CALL   15BA
086F0:  MOVLW  01
086F2:  MOVLB  4
086F4:  MOVWF  xCE
086F6:  MOVWF  xCD
....................          write_eeprom(4,Tpurgap[0]); 
086F8:  CLRF   FAA
086FA:  MOVLW  04
086FC:  MOVWF  FA9
086FE:  MOVFF  4F8,FA8
08702:  BCF    FA6.6
08704:  BCF    FA6.7
08706:  BSF    FA6.2
08708:  MOVF   FF2,W
0870A:  MOVWF  00
0870C:  BCF    FF2.7
0870E:  MOVLB  F
08710:  MOVLW  55
08712:  MOVWF  FA7
08714:  MOVLW  AA
08716:  MOVWF  FA7
08718:  BSF    FA6.1
0871A:  BTFSC  FA6.1
0871C:  BRA    871A
0871E:  BCF    FA6.2
08720:  MOVF   00,W
08722:  IORWF  FF2,F
....................          delay_ms(20); 
08724:  MOVLW  14
08726:  MOVLB  6
08728:  MOVWF  x00
0872A:  MOVLB  0
0872C:  CALL   14DC
....................          write_eeprom(5,Tpurgap[1]); 
08730:  CLRF   FAA
08732:  MOVLW  05
08734:  MOVWF  FA9
08736:  MOVFF  4F9,FA8
0873A:  BCF    FA6.6
0873C:  BCF    FA6.7
0873E:  BSF    FA6.2
08740:  MOVF   FF2,W
08742:  MOVWF  00
08744:  BCF    FF2.7
08746:  MOVLB  F
08748:  MOVLW  55
0874A:  MOVWF  FA7
0874C:  MOVLW  AA
0874E:  MOVWF  FA7
08750:  BSF    FA6.1
08752:  BTFSC  FA6.1
08754:  BRA    8752
08756:  BCF    FA6.2
08758:  MOVF   00,W
0875A:  IORWF  FF2,F
....................          delay_ms(20); 
0875C:  MOVLW  14
0875E:  MOVLB  6
08760:  MOVWF  x00
08762:  MOVLB  0
08764:  CALL   14DC
....................          write_eeprom(6,Tpurgap[2]); 
08768:  CLRF   FAA
0876A:  MOVLW  06
0876C:  MOVWF  FA9
0876E:  MOVFF  4FA,FA8
08772:  BCF    FA6.6
08774:  BCF    FA6.7
08776:  BSF    FA6.2
08778:  MOVF   FF2,W
0877A:  MOVWF  00
0877C:  BCF    FF2.7
0877E:  MOVLB  F
08780:  MOVLW  55
08782:  MOVWF  FA7
08784:  MOVLW  AA
08786:  MOVWF  FA7
08788:  BSF    FA6.1
0878A:  BTFSC  FA6.1
0878C:  BRA    878A
0878E:  BCF    FA6.2
08790:  MOVF   00,W
08792:  IORWF  FF2,F
....................          delay_ms(20); 
08794:  MOVLW  14
08796:  MOVLB  6
08798:  MOVWF  x00
0879A:  MOVLB  0
0879C:  CALL   14DC
....................          write_eeprom(7,Tpurgap[3]); 
087A0:  CLRF   FAA
087A2:  MOVLW  07
087A4:  MOVWF  FA9
087A6:  MOVFF  4FB,FA8
087AA:  BCF    FA6.6
087AC:  BCF    FA6.7
087AE:  BSF    FA6.2
087B0:  MOVF   FF2,W
087B2:  MOVWF  00
087B4:  BCF    FF2.7
087B6:  MOVLB  F
087B8:  MOVLW  55
087BA:  MOVWF  FA7
087BC:  MOVLW  AA
087BE:  MOVWF  FA7
087C0:  BSF    FA6.1
087C2:  BTFSC  FA6.1
087C4:  BRA    87C2
087C6:  BCF    FA6.2
087C8:  MOVF   00,W
087CA:  IORWF  FF2,F
....................          delay_ms(20); 
087CC:  MOVLW  14
087CE:  MOVLB  6
087D0:  MOVWF  x00
087D2:  MOVLB  0
087D4:  CALL   14DC
....................       } 
....................        
....................       for(i=0;i<4;i++) 
087D8:  MOVLB  5
087DA:  CLRF   xDC
087DC:  MOVF   xDC,W
087DE:  SUBLW  03
087E0:  BNC   8834
....................       { 
....................          if(Tpurgap[i]>9) 
087E2:  CLRF   03
087E4:  MOVF   xDC,W
087E6:  ADDLW  F8
087E8:  MOVWF  FE9
087EA:  MOVLW  04
087EC:  ADDWFC 03,W
087EE:  MOVWF  FEA
087F0:  BTFSC  FEF.7
087F2:  BRA    880A
087F4:  MOVF   FEF,W
087F6:  SUBLW  09
087F8:  BC    880A
....................          {Tpurgap[i]=0;} 
087FA:  CLRF   03
087FC:  MOVF   xDC,W
087FE:  ADDLW  F8
08800:  MOVWF  FE9
08802:  MOVLW  04
08804:  ADDWFC 03,W
08806:  MOVWF  FEA
08808:  CLRF   FEF
....................           
....................          if(Tpurgap[i]<0) 
0880A:  CLRF   03
0880C:  MOVF   xDC,W
0880E:  ADDLW  F8
08810:  MOVWF  FE9
08812:  MOVLW  04
08814:  ADDWFC 03,W
08816:  MOVWF  FEA
08818:  BTFSC  FEF.7
0881A:  BRA    881E
0881C:  BRA    8830
....................          {Tpurgap[i]=9;} 
0881E:  CLRF   03
08820:  MOVF   xDC,W
08822:  ADDLW  F8
08824:  MOVWF  FE9
08826:  MOVLW  04
08828:  ADDWFC 03,W
0882A:  MOVWF  FEA
0882C:  MOVLW  09
0882E:  MOVWF  FEF
....................       }       
08830:  INCF   xDC,F
08832:  BRA    87DC
....................       for(i=1;i<4;i++) 
08834:  MOVLW  01
08836:  MOVWF  xDC
08838:  MOVF   xDC,W
0883A:  SUBLW  03
0883C:  BNC   8892
....................       { 
....................          if(Tpurgap[i]>5) 
0883E:  CLRF   03
08840:  MOVF   xDC,W
08842:  ADDLW  F8
08844:  MOVWF  FE9
08846:  MOVLW  04
08848:  ADDWFC 03,W
0884A:  MOVWF  FEA
0884C:  BTFSC  FEF.7
0884E:  BRA    8866
08850:  MOVF   FEF,W
08852:  SUBLW  05
08854:  BC    8866
....................          {Tpurgap[i]=0;} 
08856:  CLRF   03
08858:  MOVF   xDC,W
0885A:  ADDLW  F8
0885C:  MOVWF  FE9
0885E:  MOVLW  04
08860:  ADDWFC 03,W
08862:  MOVWF  FEA
08864:  CLRF   FEF
....................           
....................          if(Tpurgap[i]<0) 
08866:  CLRF   03
08868:  MOVF   xDC,W
0886A:  ADDLW  F8
0886C:  MOVWF  FE9
0886E:  MOVLW  04
08870:  ADDWFC 03,W
08872:  MOVWF  FEA
08874:  BTFSC  FEF.7
08876:  BRA    887A
08878:  BRA    888C
....................          {Tpurgap[i]=5;} 
0887A:  CLRF   03
0887C:  MOVF   xDC,W
0887E:  ADDLW  F8
08880:  MOVWF  FE9
08882:  MOVLW  04
08884:  ADDWFC 03,W
08886:  MOVWF  FEA
08888:  MOVLW  05
0888A:  MOVWF  FEF
....................         i++;  
0888C:  INCF   xDC,F
....................       } 
0888E:  INCF   xDC,F
08890:  BRA    8838
....................       if(unidad<1) 
08892:  MOVLB  4
08894:  MOVF   xCD,F
08896:  BNZ   889C
....................       {unidad=4;} 
08898:  MOVLW  04
0889A:  MOVWF  xCD
....................       if(Opcion<1) 
0889C:  MOVF   xCE,F
0889E:  BNZ   88A4
....................       {Opcion=4;} 
088A0:  MOVLW  04
088A2:  MOVWF  xCE
....................      
....................     } 
.................... //_--------------------------------------------------------------------------------------------------------------------------------------------------------        
....................  
.................... //_-------------------------------------------------------------------------------------------------------------------------------------------------------- 
....................       if(Menu==12){ //Menu de Tempo UV. 
088A4:  MOVF   xCC,W
088A6:  SUBLW  0C
088A8:  BTFSS  FD8.2
088AA:  BRA    8C74
....................        
....................       strcpy(Menus.Letra,"T. UV"); 
088AC:  MOVLW  04
088AE:  MOVWF  FEA
088B0:  MOVLW  16
088B2:  MOVWF  FE9
088B4:  MOVFF  FF2,5EC
088B8:  BCF    FF2.7
088BA:  MOVLW  00
088BC:  MOVLB  0
088BE:  CALL   117C
088C2:  TBLRD*-
088C4:  TBLRD*+
088C6:  MOVF   FF5,W
088C8:  MOVWF  FEE
088CA:  IORLW  00
088CC:  BNZ   88C4
088CE:  MOVLB  5
088D0:  BTFSC  xEC.7
088D2:  BSF    FF2.7
....................       displayMenu(Menus.Letra,30,0,1,2); 
088D4:  MOVLW  04
088D6:  MOVWF  xF5
088D8:  MOVLW  16
088DA:  MOVWF  xF4
088DC:  MOVLW  1E
088DE:  MOVWF  xF6
088E0:  CLRF   xF7
088E2:  MOVLW  01
088E4:  MOVWF  xF8
088E6:  MOVLW  02
088E8:  MOVWF  xF9
088EA:  MOVLB  0
088EC:  CALL   4E96
....................        
....................       if(unidad==4) 
088F0:  MOVLB  4
088F2:  MOVF   xCD,W
088F4:  SUBLW  04
088F6:  BNZ   8916
....................       {displayTiempo(Tempouvp[3],20,40,1,2);} 
088F8:  MOVFF  507,5EC
088FC:  MOVLW  14
088FE:  MOVLB  5
08900:  MOVWF  xED
08902:  MOVLW  28
08904:  MOVWF  xEE
08906:  MOVLW  01
08908:  MOVWF  xEF
0890A:  MOVLW  02
0890C:  MOVWF  xF0
0890E:  MOVLB  0
08910:  CALL   5658
....................       else 
08914:  BRA    8930
....................       {displayTiempo(Tempouvp[3],20,40,0,2);} 
08916:  MOVFF  507,5EC
0891A:  MOVLW  14
0891C:  MOVLB  5
0891E:  MOVWF  xED
08920:  MOVLW  28
08922:  MOVWF  xEE
08924:  CLRF   xEF
08926:  MOVLW  02
08928:  MOVWF  xF0
0892A:  MOVLB  0
0892C:  CALL   5658
....................        
....................       if(unidad==3) 
08930:  MOVLB  4
08932:  MOVF   xCD,W
08934:  SUBLW  03
08936:  BNZ   8954
....................       {displayTiempo(Tempouvp[2],40,40,1,2);} 
08938:  MOVFF  506,5EC
0893C:  MOVLW  28
0893E:  MOVLB  5
08940:  MOVWF  xED
08942:  MOVWF  xEE
08944:  MOVLW  01
08946:  MOVWF  xEF
08948:  MOVLW  02
0894A:  MOVWF  xF0
0894C:  MOVLB  0
0894E:  CALL   5658
....................       else 
08952:  BRA    896C
....................       {displayTiempo(Tempouvp[2],40,40,0,2);} 
08954:  MOVFF  506,5EC
08958:  MOVLW  28
0895A:  MOVLB  5
0895C:  MOVWF  xED
0895E:  MOVWF  xEE
08960:  CLRF   xEF
08962:  MOVLW  02
08964:  MOVWF  xF0
08966:  MOVLB  0
08968:  CALL   5658
....................        
....................       if(unidad==2) 
0896C:  MOVLB  4
0896E:  MOVF   xCD,W
08970:  SUBLW  02
08972:  BNZ   8992
....................       {displayTiempo(Tempouvp[1],70,40,1,2);} 
08974:  MOVFF  505,5EC
08978:  MOVLW  46
0897A:  MOVLB  5
0897C:  MOVWF  xED
0897E:  MOVLW  28
08980:  MOVWF  xEE
08982:  MOVLW  01
08984:  MOVWF  xEF
08986:  MOVLW  02
08988:  MOVWF  xF0
0898A:  MOVLB  0
0898C:  CALL   5658
....................       else 
08990:  BRA    89AC
....................       {displayTiempo(Tempouvp[1],70,40,0,2);} 
08992:  MOVFF  505,5EC
08996:  MOVLW  46
08998:  MOVLB  5
0899A:  MOVWF  xED
0899C:  MOVLW  28
0899E:  MOVWF  xEE
089A0:  CLRF   xEF
089A2:  MOVLW  02
089A4:  MOVWF  xF0
089A6:  MOVLB  0
089A8:  CALL   5658
....................        
....................       if(unidad==1) 
089AC:  MOVLB  4
089AE:  DECFSZ xCD,W
089B0:  BRA    89D0
....................       {displayTiempo(Tempouvp[0],90,40,1,2);} 
089B2:  MOVFF  504,5EC
089B6:  MOVLW  5A
089B8:  MOVLB  5
089BA:  MOVWF  xED
089BC:  MOVLW  28
089BE:  MOVWF  xEE
089C0:  MOVLW  01
089C2:  MOVWF  xEF
089C4:  MOVLW  02
089C6:  MOVWF  xF0
089C8:  MOVLB  0
089CA:  CALL   5658
....................       else 
089CE:  BRA    89EA
....................       {displayTiempo(Tempouvp[0],90,40,0,2);} 
089D0:  MOVFF  504,5EC
089D4:  MOVLW  5A
089D6:  MOVLB  5
089D8:  MOVWF  xED
089DA:  MOVLW  28
089DC:  MOVWF  xEE
089DE:  CLRF   xEF
089E0:  MOVLW  02
089E2:  MOVWF  xF0
089E4:  MOVLB  0
089E6:  CALL   5658
....................        
....................       glcd_text57(60, 42, Dos_puntos, 2, ON); 
089EA:  MOVLW  3C
089EC:  MOVLB  6
089EE:  MOVWF  x05
089F0:  MOVLW  2A
089F2:  MOVWF  x06
089F4:  MOVLW  04
089F6:  MOVWF  x08
089F8:  MOVLW  50
089FA:  MOVWF  x07
089FC:  MOVLW  02
089FE:  MOVWF  x09
08A00:  MOVLW  01
08A02:  MOVWF  x0A
08A04:  MOVLB  0
08A06:  CALL   1830
....................           
....................          
....................       if(UP)//Si oprime hacia arriba 
08A0A:  BSF    F92.5
08A0C:  BTFSC  F80.5
08A0E:  BRA    8A3A
....................       {  if(Flanco == 0)  
08A10:  MOVLB  4
08A12:  BTFSC  x2C.0
08A14:  BRA    8A38
....................             {Flanco = 1;delay_ms(30);Tempouvp[unidad-1]++; 
08A16:  BSF    x2C.0
08A18:  MOVLW  1E
08A1A:  MOVLB  6
08A1C:  MOVWF  x00
08A1E:  MOVLB  0
08A20:  CALL   14DC
08A24:  MOVLW  01
08A26:  MOVLB  4
08A28:  SUBWF  xCD,W
08A2A:  CLRF   03
08A2C:  ADDLW  04
08A2E:  MOVWF  FE9
08A30:  MOVLW  05
08A32:  ADDWFC 03,W
08A34:  MOVWF  FEA
08A36:  INCF   FEF,F
....................             } 
....................       } 
....................          else 
08A38:  BRA    8A3E
....................             {Flanco = 0;} 
08A3A:  MOVLB  4
08A3C:  BCF    x2C.0
....................              
....................       if(DOWN )//Si oprime hacia abajo 
08A3E:  BSF    F96.0
08A40:  BTFSC  F84.0
08A42:  BRA    8A6C
....................       {  if(Flanco2 == 0)  
08A44:  BTFSC  x2C.2
08A46:  BRA    8A6A
....................             {Flanco2 = 1;delay_ms(30);Tempouvp[unidad-1]--; 
08A48:  BSF    x2C.2
08A4A:  MOVLW  1E
08A4C:  MOVLB  6
08A4E:  MOVWF  x00
08A50:  MOVLB  0
08A52:  CALL   14DC
08A56:  MOVLW  01
08A58:  MOVLB  4
08A5A:  SUBWF  xCD,W
08A5C:  CLRF   03
08A5E:  ADDLW  04
08A60:  MOVWF  FE9
08A62:  MOVLW  05
08A64:  ADDWFC 03,W
08A66:  MOVWF  FEA
08A68:  DECF   FEF,F
....................             }      
....................       } 
....................          else 
08A6A:  BRA    8A6E
....................             {Flanco2 = 0;}   
08A6C:  BCF    x2C.2
....................              
....................       if(RIGHT)//Si oprime SET 
08A6E:  BSF    F96.1
08A70:  BTFSC  F84.1
08A72:  BRA    8A8C
....................       {  if(Flanco1 == 0)  
08A74:  BTFSC  x2C.1
08A76:  BRA    8A8A
....................             {Flanco1 = 1;delay_ms(30);unidad--; 
08A78:  BSF    x2C.1
08A7A:  MOVLW  1E
08A7C:  MOVLB  6
08A7E:  MOVWF  x00
08A80:  MOVLB  0
08A82:  CALL   14DC
08A86:  MOVLB  4
08A88:  DECF   xCD,F
....................             } 
....................       } 
....................          else 
08A8A:  BRA    8A8E
....................             {Flanco1 = 0;}   
08A8C:  BCF    x2C.1
....................              
....................       if(LEFT)//Si oprime boton de Toma. 
08A8E:  BSF    F96.2
08A90:  BTFSC  F84.2
08A92:  BRA    8BA6
....................       { 
....................          delay_ms(70);Menu=4;glcd_fillscreen(OFF);Opcion=1;unidad=1; 
08A94:  MOVLW  46
08A96:  MOVLB  6
08A98:  MOVWF  x00
08A9A:  MOVLB  0
08A9C:  CALL   14DC
08AA0:  MOVLW  04
08AA2:  MOVLB  4
08AA4:  MOVWF  xCC
08AA6:  MOVLB  5
08AA8:  CLRF   xF4
08AAA:  MOVLB  0
08AAC:  CALL   15BA
08AB0:  MOVLW  01
08AB2:  MOVLB  4
08AB4:  MOVWF  xCE
08AB6:  MOVWF  xCD
....................          write_eeprom(21,Tempouvp[0]); 
08AB8:  CLRF   FAA
08ABA:  MOVLW  15
08ABC:  MOVWF  FA9
08ABE:  MOVFF  504,FA8
08AC2:  BCF    FA6.6
08AC4:  BCF    FA6.7
08AC6:  BSF    FA6.2
08AC8:  MOVF   FF2,W
08ACA:  MOVWF  00
08ACC:  BCF    FF2.7
08ACE:  MOVLB  F
08AD0:  MOVLW  55
08AD2:  MOVWF  FA7
08AD4:  MOVLW  AA
08AD6:  MOVWF  FA7
08AD8:  BSF    FA6.1
08ADA:  BTFSC  FA6.1
08ADC:  BRA    8ADA
08ADE:  BCF    FA6.2
08AE0:  MOVF   00,W
08AE2:  IORWF  FF2,F
....................          delay_ms(20); 
08AE4:  MOVLW  14
08AE6:  MOVLB  6
08AE8:  MOVWF  x00
08AEA:  MOVLB  0
08AEC:  CALL   14DC
....................          write_eeprom(22,Tempouvp[1]); 
08AF0:  CLRF   FAA
08AF2:  MOVLW  16
08AF4:  MOVWF  FA9
08AF6:  MOVFF  505,FA8
08AFA:  BCF    FA6.6
08AFC:  BCF    FA6.7
08AFE:  BSF    FA6.2
08B00:  MOVF   FF2,W
08B02:  MOVWF  00
08B04:  BCF    FF2.7
08B06:  MOVLB  F
08B08:  MOVLW  55
08B0A:  MOVWF  FA7
08B0C:  MOVLW  AA
08B0E:  MOVWF  FA7
08B10:  BSF    FA6.1
08B12:  BTFSC  FA6.1
08B14:  BRA    8B12
08B16:  BCF    FA6.2
08B18:  MOVF   00,W
08B1A:  IORWF  FF2,F
....................          delay_ms(20); 
08B1C:  MOVLW  14
08B1E:  MOVLB  6
08B20:  MOVWF  x00
08B22:  MOVLB  0
08B24:  CALL   14DC
....................          write_eeprom(23,Tempouvp[2]); 
08B28:  CLRF   FAA
08B2A:  MOVLW  17
08B2C:  MOVWF  FA9
08B2E:  MOVFF  506,FA8
08B32:  BCF    FA6.6
08B34:  BCF    FA6.7
08B36:  BSF    FA6.2
08B38:  MOVF   FF2,W
08B3A:  MOVWF  00
08B3C:  BCF    FF2.7
08B3E:  MOVLB  F
08B40:  MOVLW  55
08B42:  MOVWF  FA7
08B44:  MOVLW  AA
08B46:  MOVWF  FA7
08B48:  BSF    FA6.1
08B4A:  BTFSC  FA6.1
08B4C:  BRA    8B4A
08B4E:  BCF    FA6.2
08B50:  MOVF   00,W
08B52:  IORWF  FF2,F
....................          delay_ms(20); 
08B54:  MOVLW  14
08B56:  MOVLB  6
08B58:  MOVWF  x00
08B5A:  MOVLB  0
08B5C:  CALL   14DC
....................          write_eeprom(24,Tempouvp[3]); 
08B60:  CLRF   FAA
08B62:  MOVLW  18
08B64:  MOVWF  FA9
08B66:  MOVFF  507,FA8
08B6A:  BCF    FA6.6
08B6C:  BCF    FA6.7
08B6E:  BSF    FA6.2
08B70:  MOVF   FF2,W
08B72:  MOVWF  00
08B74:  BCF    FF2.7
08B76:  MOVLB  F
08B78:  MOVLW  55
08B7A:  MOVWF  FA7
08B7C:  MOVLW  AA
08B7E:  MOVWF  FA7
08B80:  BSF    FA6.1
08B82:  BTFSC  FA6.1
08B84:  BRA    8B82
08B86:  BCF    FA6.2
08B88:  MOVF   00,W
08B8A:  IORWF  FF2,F
....................          delay_ms(20); 
08B8C:  MOVLW  14
08B8E:  MOVLB  6
08B90:  MOVWF  x00
08B92:  MOVLB  0
08B94:  CALL   14DC
....................          Tempouv[0]=0;Tempouv[1]=0;Tempouv[2]=0;Tempouv[3]=0; 
08B98:  MOVLB  5
08B9A:  CLRF   x08
08B9C:  CLRF   x09
08B9E:  CLRF   x0A
08BA0:  CLRF   x0B
....................          tiempocumplido=1; 
08BA2:  MOVLB  4
08BA4:  BSF    x2E.2
....................       } 
....................              
....................       for(i=0;i<3;i++) 
08BA6:  MOVLB  5
08BA8:  CLRF   xDC
08BAA:  MOVF   xDC,W
08BAC:  SUBLW  02
08BAE:  BNC   8C04
....................       { 
....................          if(Tempouvp[i]>9) 
08BB0:  CLRF   03
08BB2:  MOVF   xDC,W
08BB4:  ADDLW  04
08BB6:  MOVWF  FE9
08BB8:  MOVLW  05
08BBA:  ADDWFC 03,W
08BBC:  MOVWF  FEA
08BBE:  BTFSC  FEF.7
08BC0:  BRA    8BD8
08BC2:  MOVF   FEF,W
08BC4:  SUBLW  09
08BC6:  BC    8BD8
....................          {Tempouvp[i]=0;} 
08BC8:  CLRF   03
08BCA:  MOVF   xDC,W
08BCC:  ADDLW  04
08BCE:  MOVWF  FE9
08BD0:  MOVLW  05
08BD2:  ADDWFC 03,W
08BD4:  MOVWF  FEA
08BD6:  CLRF   FEF
....................           
....................          if(Tempouvp[i]<0) 
08BD8:  CLRF   03
08BDA:  MOVF   xDC,W
08BDC:  ADDLW  04
08BDE:  MOVWF  FE9
08BE0:  MOVLW  05
08BE2:  ADDWFC 03,W
08BE4:  MOVWF  FEA
08BE6:  BTFSC  FEF.7
08BE8:  BRA    8BEC
08BEA:  BRA    8BFE
....................          {Tempouvp[i]=9;} 
08BEC:  CLRF   03
08BEE:  MOVF   xDC,W
08BF0:  ADDLW  04
08BF2:  MOVWF  FE9
08BF4:  MOVLW  05
08BF6:  ADDWFC 03,W
08BF8:  MOVWF  FEA
08BFA:  MOVLW  09
08BFC:  MOVWF  FEF
....................          i++; 
08BFE:  INCF   xDC,F
....................       }       
08C00:  INCF   xDC,F
08C02:  BRA    8BAA
....................       for(i=1;i<4;i++) 
08C04:  MOVLW  01
08C06:  MOVWF  xDC
08C08:  MOVF   xDC,W
08C0A:  SUBLW  03
08C0C:  BNC   8C62
....................       { 
....................          if(Tempouvp[i]>5) 
08C0E:  CLRF   03
08C10:  MOVF   xDC,W
08C12:  ADDLW  04
08C14:  MOVWF  FE9
08C16:  MOVLW  05
08C18:  ADDWFC 03,W
08C1A:  MOVWF  FEA
08C1C:  BTFSC  FEF.7
08C1E:  BRA    8C36
08C20:  MOVF   FEF,W
08C22:  SUBLW  05
08C24:  BC    8C36
....................          {Tempouvp[i]=0;} 
08C26:  CLRF   03
08C28:  MOVF   xDC,W
08C2A:  ADDLW  04
08C2C:  MOVWF  FE9
08C2E:  MOVLW  05
08C30:  ADDWFC 03,W
08C32:  MOVWF  FEA
08C34:  CLRF   FEF
....................           
....................          if(Tempouvp[i]<0) 
08C36:  CLRF   03
08C38:  MOVF   xDC,W
08C3A:  ADDLW  04
08C3C:  MOVWF  FE9
08C3E:  MOVLW  05
08C40:  ADDWFC 03,W
08C42:  MOVWF  FEA
08C44:  BTFSC  FEF.7
08C46:  BRA    8C4A
08C48:  BRA    8C5C
....................          {Tempouvp[i]=5;} 
08C4A:  CLRF   03
08C4C:  MOVF   xDC,W
08C4E:  ADDLW  04
08C50:  MOVWF  FE9
08C52:  MOVLW  05
08C54:  ADDWFC 03,W
08C56:  MOVWF  FEA
08C58:  MOVLW  05
08C5A:  MOVWF  FEF
....................         i++;  
08C5C:  INCF   xDC,F
....................       }       
08C5E:  INCF   xDC,F
08C60:  BRA    8C08
....................       if(unidad<1) 
08C62:  MOVLB  4
08C64:  MOVF   xCD,F
08C66:  BNZ   8C6C
....................       {unidad=4;} 
08C68:  MOVLW  04
08C6A:  MOVWF  xCD
....................       if(Opcion<1) 
08C6C:  MOVF   xCE,F
08C6E:  BNZ   8C74
....................       {Opcion=4;} 
08C70:  MOVLW  04
08C72:  MOVWF  xCE
....................      
....................     } 
.................... //_--------------------------------------------------------------------------------------------------------------------------------------------------------        
....................  
.................... //_-------------------------------------------------------------------------------------------------------------------------------------------------------- 
....................       if(Menu==5){ //Menu de Clave. 
08C74:  MOVF   xCC,W
08C76:  SUBLW  05
08C78:  BNZ   8CD8
....................  
....................       PidePassword(3,5,211,Password[0],Password[1],Password[2],Password[3]); 
08C7A:  MOVLW  03
08C7C:  MOVLB  5
08C7E:  MOVWF  xED
08C80:  MOVLW  05
08C82:  MOVWF  xEE
08C84:  MOVLW  D3
08C86:  MOVWF  xEF
08C88:  MOVFF  514,5F0
08C8C:  MOVFF  515,5F1
08C90:  MOVFF  516,5F2
08C94:  MOVFF  517,5F3
08C98:  MOVLB  0
08C9A:  CALL   4F72
....................              
....................       if(LEFT)//Si oprime boton de Toma. 
08C9E:  BSF    F96.2
08CA0:  BTFSC  F84.2
08CA2:  BRA    8CDA
....................       { 
....................          delay_ms(200); 
08CA4:  MOVLW  C8
08CA6:  MOVLB  6
08CA8:  MOVWF  x00
08CAA:  MOVLB  0
08CAC:  CALL   14DC
....................          if(unidad==1){ 
08CB0:  MOVLB  4
08CB2:  DECFSZ xCD,W
08CB4:  BRA    8CD8
....................             Menu=3;glcd_fillscreen(OFF);Opcion=1;unidad=1;Contrasena[0]=0;Contrasena[1]=0;Contrasena[2]=0;Contrasena[3]=0; 
08CB6:  MOVLW  03
08CB8:  MOVWF  xCC
08CBA:  MOVLB  5
08CBC:  CLRF   xF4
08CBE:  MOVLB  0
08CC0:  CALL   15BA
08CC4:  MOVLW  01
08CC6:  MOVLB  4
08CC8:  MOVWF  xCE
08CCA:  MOVWF  xCD
08CCC:  MOVLB  5
08CCE:  CLRF   x10
08CD0:  CLRF   x11
08CD2:  CLRF   x12
08CD4:  CLRF   x13
08CD6:  MOVLB  4
08CD8:  MOVLB  0
....................          } 
....................       }  
....................     } 
.................... //_--------------------------------------------------------------------------------------------------------------------------------------------------------        
....................  
.................... //_-------------------------------------------------------------------------------------------------------------------------------------------------------- 
....................       if(Menu==211){ //Menu de Cambio Clave. 
08CDA:  MOVLB  4
08CDC:  MOVF   xCC,W
08CDE:  SUBLW  D3
08CE0:  BTFSS  FD8.2
08CE2:  BRA    9186
....................        
....................       if(n==0) 
08CE4:  BTFSC  x2E.5
08CE6:  BRA    8D46
....................       { 
....................          displayContrasena(Contrasena[0],20,30,1);displayContrasena(Contrasena[1],40,30,0); 
08CE8:  MOVFF  510,5F6
08CEC:  MOVLW  14
08CEE:  MOVLB  5
08CF0:  MOVWF  xF7
08CF2:  MOVLW  1E
08CF4:  MOVWF  xF8
08CF6:  MOVLW  01
08CF8:  MOVWF  xF9
08CFA:  MOVLB  0
08CFC:  CALL   4DC2
08D00:  MOVFF  511,5F6
08D04:  MOVLW  28
08D06:  MOVLB  5
08D08:  MOVWF  xF7
08D0A:  MOVLW  1E
08D0C:  MOVWF  xF8
08D0E:  CLRF   xF9
08D10:  MOVLB  0
08D12:  CALL   4DC2
....................          displayContrasena(Contrasena[2],60,30,0);displayContrasena(Contrasena[0],80,30,0); 
08D16:  MOVFF  512,5F6
08D1A:  MOVLW  3C
08D1C:  MOVLB  5
08D1E:  MOVWF  xF7
08D20:  MOVLW  1E
08D22:  MOVWF  xF8
08D24:  CLRF   xF9
08D26:  MOVLB  0
08D28:  CALL   4DC2
08D2C:  MOVFF  510,5F6
08D30:  MOVLW  50
08D32:  MOVLB  5
08D34:  MOVWF  xF7
08D36:  MOVLW  1E
08D38:  MOVWF  xF8
08D3A:  CLRF   xF9
08D3C:  MOVLB  0
08D3E:  CALL   4DC2
....................          n=1; 
08D42:  MOVLB  4
08D44:  BSF    x2E.5
....................       } 
....................       strcpy(Menus.Letra,"Clave Nueva"); 
08D46:  MOVLW  04
08D48:  MOVWF  FEA
08D4A:  MOVLW  16
08D4C:  MOVWF  FE9
08D4E:  MOVFF  FF2,5EC
08D52:  BCF    FF2.7
08D54:  MOVLW  00
08D56:  MOVLB  0
08D58:  CALL   119C
08D5C:  TBLRD*-
08D5E:  TBLRD*+
08D60:  MOVF   FF5,W
08D62:  MOVWF  FEE
08D64:  IORLW  00
08D66:  BNZ   8D5E
08D68:  MOVLB  5
08D6A:  BTFSC  xEC.7
08D6C:  BSF    FF2.7
....................       displayMenu(Menus.Letra,0,0,1,2); 
08D6E:  MOVLW  04
08D70:  MOVWF  xF5
08D72:  MOVLW  16
08D74:  MOVWF  xF4
08D76:  CLRF   xF6
08D78:  CLRF   xF7
08D7A:  MOVLW  01
08D7C:  MOVWF  xF8
08D7E:  MOVLW  02
08D80:  MOVWF  xF9
08D82:  MOVLB  0
08D84:  CALL   4E96
....................          
....................        
....................       if(UP)//Si oprime hacia arriba 
08D88:  BSF    F92.5
08D8A:  BTFSC  F80.5
08D8C:  BRA    8E66
....................       {  if(Flanco == 0)  
08D8E:  MOVLB  4
08D90:  BTFSC  x2C.0
08D92:  BRA    8E64
....................             {Flanco = 1;delay_ms(30); 
08D94:  BSF    x2C.0
08D96:  MOVLW  1E
08D98:  MOVLB  6
08D9A:  MOVWF  x00
08D9C:  MOVLB  0
08D9E:  CALL   14DC
....................             for(i=1;i<=4;i++) 
08DA2:  MOVLW  01
08DA4:  MOVLB  5
08DA6:  MOVWF  xDC
08DA8:  MOVF   xDC,W
08DAA:  SUBLW  04
08DAC:  BNC   8E62
....................                { 
....................                   if(unidad==i) 
08DAE:  MOVF   xDC,W
08DB0:  MOVLB  4
08DB2:  SUBWF  xCD,W
08DB4:  BNZ   8E2A
....................                   {Contrasena[i-1]++; 
08DB6:  MOVLW  01
08DB8:  MOVLB  5
08DBA:  SUBWF  xDC,W
08DBC:  CLRF   03
08DBE:  ADDLW  10
08DC0:  MOVWF  FE9
08DC2:  MOVLW  05
08DC4:  ADDWFC 03,W
08DC6:  MOVWF  FEA
08DC8:  INCF   FEF,F
....................                   if(Contrasena[i-1]>9) 
08DCA:  MOVLW  01
08DCC:  SUBWF  xDC,W
08DCE:  CLRF   03
08DD0:  ADDLW  10
08DD2:  MOVWF  FE9
08DD4:  MOVLW  05
08DD6:  ADDWFC 03,W
08DD8:  MOVWF  FEA
08DDA:  BTFSC  FEF.7
08DDC:  BRA    8DF6
08DDE:  MOVF   FEF,W
08DE0:  SUBLW  09
08DE2:  BC    8DF6
....................                         {Contrasena[i-1]=0;} 
08DE4:  MOVLW  01
08DE6:  SUBWF  xDC,W
08DE8:  CLRF   03
08DEA:  ADDLW  10
08DEC:  MOVWF  FE9
08DEE:  MOVLW  05
08DF0:  ADDWFC 03,W
08DF2:  MOVWF  FEA
08DF4:  CLRF   FEF
....................                   displayContrasena(Contrasena[i-1],i*20,30,1);} 
08DF6:  MOVLW  01
08DF8:  SUBWF  xDC,W
08DFA:  CLRF   03
08DFC:  ADDLW  10
08DFE:  MOVWF  FE9
08E00:  MOVLW  05
08E02:  ADDWFC 03,W
08E04:  MOVWF  FEA
08E06:  MOVFF  FEF,5EC
08E0A:  MOVF   xDC,W
08E0C:  MULLW  14
08E0E:  MOVFF  FF3,5ED
08E12:  MOVFF  5EC,5F6
08E16:  MOVFF  5ED,5F7
08E1A:  MOVLW  1E
08E1C:  MOVWF  xF8
08E1E:  MOVLW  01
08E20:  MOVWF  xF9
08E22:  MOVLB  0
08E24:  CALL   4DC2
....................                   else 
08E28:  BRA    8E5C
....................                   {displayContrasena(Contrasena[i-1],i*20,30,0);} 
08E2A:  MOVLW  01
08E2C:  MOVLB  5
08E2E:  SUBWF  xDC,W
08E30:  CLRF   03
08E32:  ADDLW  10
08E34:  MOVWF  FE9
08E36:  MOVLW  05
08E38:  ADDWFC 03,W
08E3A:  MOVWF  FEA
08E3C:  MOVFF  FEF,5EC
08E40:  MOVF   xDC,W
08E42:  MULLW  14
08E44:  MOVFF  FF3,5ED
08E48:  MOVFF  5EC,5F6
08E4C:  MOVFF  5ED,5F7
08E50:  MOVLW  1E
08E52:  MOVWF  xF8
08E54:  CLRF   xF9
08E56:  MOVLB  0
08E58:  CALL   4DC2
....................                } 
08E5C:  MOVLB  5
08E5E:  INCF   xDC,F
08E60:  BRA    8DA8
08E62:  MOVLB  4
....................             } 
....................       } 
....................          else 
08E64:  BRA    8E6A
....................             {Flanco = 0;} 
08E66:  MOVLB  4
08E68:  BCF    x2C.0
....................              
....................       if(DOWN )//Si oprime hacia abajo 
08E6A:  BSF    F96.0
08E6C:  BTFSC  F84.0
08E6E:  BRA    8F44
....................       {  if(Flanco2 == 0)  
08E70:  BTFSC  x2C.2
08E72:  BRA    8F42
....................             {Flanco2 = 1;delay_ms(30); 
08E74:  BSF    x2C.2
08E76:  MOVLW  1E
08E78:  MOVLB  6
08E7A:  MOVWF  x00
08E7C:  MOVLB  0
08E7E:  CALL   14DC
....................                for(i=1;i<=4;i++) 
08E82:  MOVLW  01
08E84:  MOVLB  5
08E86:  MOVWF  xDC
08E88:  MOVF   xDC,W
08E8A:  SUBLW  04
08E8C:  BNC   8F40
....................                { 
....................                   if(unidad==i) 
08E8E:  MOVF   xDC,W
08E90:  MOVLB  4
08E92:  SUBWF  xCD,W
08E94:  BNZ   8F08
....................                   {Contrasena[i-1]--;  
08E96:  MOVLW  01
08E98:  MOVLB  5
08E9A:  SUBWF  xDC,W
08E9C:  CLRF   03
08E9E:  ADDLW  10
08EA0:  MOVWF  FE9
08EA2:  MOVLW  05
08EA4:  ADDWFC 03,W
08EA6:  MOVWF  FEA
08EA8:  DECF   FEF,F
....................                      if(Contrasena[i-1]<0) 
08EAA:  MOVLW  01
08EAC:  SUBWF  xDC,W
08EAE:  CLRF   03
08EB0:  ADDLW  10
08EB2:  MOVWF  FE9
08EB4:  MOVLW  05
08EB6:  ADDWFC 03,W
08EB8:  MOVWF  FEA
08EBA:  BTFSC  FEF.7
08EBC:  BRA    8EC0
08EBE:  BRA    8ED4
....................                         {Contrasena[i-1]=9;} 
08EC0:  MOVLW  01
08EC2:  SUBWF  xDC,W
08EC4:  CLRF   03
08EC6:  ADDLW  10
08EC8:  MOVWF  FE9
08ECA:  MOVLW  05
08ECC:  ADDWFC 03,W
08ECE:  MOVWF  FEA
08ED0:  MOVLW  09
08ED2:  MOVWF  FEF
....................                    displayContrasena(Contrasena[i-1],i*20,30,1);} 
08ED4:  MOVLW  01
08ED6:  SUBWF  xDC,W
08ED8:  CLRF   03
08EDA:  ADDLW  10
08EDC:  MOVWF  FE9
08EDE:  MOVLW  05
08EE0:  ADDWFC 03,W
08EE2:  MOVWF  FEA
08EE4:  MOVFF  FEF,5EC
08EE8:  MOVF   xDC,W
08EEA:  MULLW  14
08EEC:  MOVFF  FF3,5ED
08EF0:  MOVFF  5EC,5F6
08EF4:  MOVFF  5ED,5F7
08EF8:  MOVLW  1E
08EFA:  MOVWF  xF8
08EFC:  MOVLW  01
08EFE:  MOVWF  xF9
08F00:  MOVLB  0
08F02:  CALL   4DC2
....................                   else 
08F06:  BRA    8F3A
....................                   {displayContrasena(Contrasena[i-1],i*20,30,0);} 
08F08:  MOVLW  01
08F0A:  MOVLB  5
08F0C:  SUBWF  xDC,W
08F0E:  CLRF   03
08F10:  ADDLW  10
08F12:  MOVWF  FE9
08F14:  MOVLW  05
08F16:  ADDWFC 03,W
08F18:  MOVWF  FEA
08F1A:  MOVFF  FEF,5EC
08F1E:  MOVF   xDC,W
08F20:  MULLW  14
08F22:  MOVFF  FF3,5ED
08F26:  MOVFF  5EC,5F6
08F2A:  MOVFF  5ED,5F7
08F2E:  MOVLW  1E
08F30:  MOVWF  xF8
08F32:  CLRF   xF9
08F34:  MOVLB  0
08F36:  CALL   4DC2
....................                }       
08F3A:  MOVLB  5
08F3C:  INCF   xDC,F
08F3E:  BRA    8E88
08F40:  MOVLB  4
....................             }      
....................       } 
....................          else 
08F42:  BRA    8F46
....................             {Flanco2 = 0;}   
08F44:  BCF    x2C.2
....................              
....................       if(RIGHT)//Si oprime SET 
08F46:  BSF    F96.1
08F48:  BTFSC  F84.1
08F4A:  BRA    8FE8
....................       {  if(Flanco1 == 0)  
08F4C:  BTFSC  x2C.1
08F4E:  BRA    8FE6
....................             {Flanco1 = 1;delay_ms(30);unidad++; 
08F50:  BSF    x2C.1
08F52:  MOVLW  1E
08F54:  MOVLB  6
08F56:  MOVWF  x00
08F58:  MOVLB  0
08F5A:  CALL   14DC
08F5E:  MOVLB  4
08F60:  INCF   xCD,F
....................                for(i=1;i<=4;i++) 
08F62:  MOVLW  01
08F64:  MOVLB  5
08F66:  MOVWF  xDC
08F68:  MOVF   xDC,W
08F6A:  SUBLW  04
08F6C:  BNC   8FE4
....................                { 
....................                   if(unidad==i) 
08F6E:  MOVF   xDC,W
08F70:  MOVLB  4
08F72:  SUBWF  xCD,W
08F74:  BNZ   8FAC
....................                   {displayContrasena(Contrasena[i-1],i*20,30,1);} 
08F76:  MOVLW  01
08F78:  MOVLB  5
08F7A:  SUBWF  xDC,W
08F7C:  CLRF   03
08F7E:  ADDLW  10
08F80:  MOVWF  FE9
08F82:  MOVLW  05
08F84:  ADDWFC 03,W
08F86:  MOVWF  FEA
08F88:  MOVFF  FEF,5EC
08F8C:  MOVF   xDC,W
08F8E:  MULLW  14
08F90:  MOVFF  FF3,5ED
08F94:  MOVFF  5EC,5F6
08F98:  MOVFF  5ED,5F7
08F9C:  MOVLW  1E
08F9E:  MOVWF  xF8
08FA0:  MOVLW  01
08FA2:  MOVWF  xF9
08FA4:  MOVLB  0
08FA6:  CALL   4DC2
....................                   else 
08FAA:  BRA    8FDE
....................                   {displayContrasena(Contrasena[i-1],i*20,30,0);} 
08FAC:  MOVLW  01
08FAE:  MOVLB  5
08FB0:  SUBWF  xDC,W
08FB2:  CLRF   03
08FB4:  ADDLW  10
08FB6:  MOVWF  FE9
08FB8:  MOVLW  05
08FBA:  ADDWFC 03,W
08FBC:  MOVWF  FEA
08FBE:  MOVFF  FEF,5EC
08FC2:  MOVF   xDC,W
08FC4:  MULLW  14
08FC6:  MOVFF  FF3,5ED
08FCA:  MOVFF  5EC,5F6
08FCE:  MOVFF  5ED,5F7
08FD2:  MOVLW  1E
08FD4:  MOVWF  xF8
08FD6:  CLRF   xF9
08FD8:  MOVLB  0
08FDA:  CALL   4DC2
....................                } 
08FDE:  MOVLB  5
08FE0:  INCF   xDC,F
08FE2:  BRA    8F68
08FE4:  MOVLB  4
....................             } 
....................       } 
....................          else 
08FE6:  BRA    8FEA
....................             {Flanco1 = 0;}   
08FE8:  BCF    x2C.1
....................              
....................       if(LEFT)//Si oprime boton de Toma. 
08FEA:  BSF    F96.2
08FEC:  BTFSC  F84.2
08FEE:  BRA    9030
....................       { 
....................          
....................          delay_ms(700); 
08FF0:  MOVLW  04
08FF2:  MOVLB  5
08FF4:  MOVWF  xEC
08FF6:  MOVLW  AF
08FF8:  MOVLB  6
08FFA:  MOVWF  x00
08FFC:  MOVLB  0
08FFE:  CALL   14DC
09002:  MOVLB  5
09004:  DECFSZ xEC,F
09006:  BRA    8FF6
....................          if(unidad==1){ 
09008:  MOVLB  4
0900A:  DECFSZ xCD,W
0900C:  BRA    9030
....................             Menu=3;glcd_fillscreen(OFF);Opcion=1;unidad=1;Contrasena[0]=0;Contrasena[1]=0;Contrasena[2]=0;Contrasena[3]=0; 
0900E:  MOVLW  03
09010:  MOVWF  xCC
09012:  MOVLB  5
09014:  CLRF   xF4
09016:  MOVLB  0
09018:  CALL   15BA
0901C:  MOVLW  01
0901E:  MOVLB  4
09020:  MOVWF  xCE
09022:  MOVWF  xCD
09024:  MOVLB  5
09026:  CLRF   x10
09028:  CLRF   x11
0902A:  CLRF   x12
0902C:  CLRF   x13
0902E:  MOVLB  4
....................          } 
....................       } 
....................        
....................       if(unidad>4) 
09030:  MOVF   xCD,W
09032:  SUBLW  04
09034:  BTFSC  FD8.0
09036:  BRA    9186
....................       { 
....................          Opcion=1;glcd_fillscreen(OFF);unidad=1;n=0; 
09038:  MOVLW  01
0903A:  MOVWF  xCE
0903C:  MOVLB  5
0903E:  CLRF   xF4
09040:  MOVLB  0
09042:  CALL   15BA
09046:  MOVLW  01
09048:  MOVLB  4
0904A:  MOVWF  xCD
0904C:  BCF    x2E.5
....................          Password[0]=Contrasena[0];Password[1]=Contrasena[1];Password[2]=Contrasena[2];Password[3]=Contrasena[3]; 
0904E:  MOVFF  510,514
09052:  MOVFF  511,515
09056:  MOVFF  512,516
0905A:  MOVFF  513,517
....................          write_eeprom(0,Password[0]); 
0905E:  CLRF   FAA
09060:  CLRF   FA9
09062:  MOVFF  514,FA8
09066:  BCF    FA6.6
09068:  BCF    FA6.7
0906A:  BSF    FA6.2
0906C:  MOVF   FF2,W
0906E:  MOVWF  00
09070:  BCF    FF2.7
09072:  MOVLB  F
09074:  MOVLW  55
09076:  MOVWF  FA7
09078:  MOVLW  AA
0907A:  MOVWF  FA7
0907C:  BSF    FA6.1
0907E:  BTFSC  FA6.1
09080:  BRA    907E
09082:  BCF    FA6.2
09084:  MOVF   00,W
09086:  IORWF  FF2,F
....................          delay_ms(20); 
09088:  MOVLW  14
0908A:  MOVLB  6
0908C:  MOVWF  x00
0908E:  MOVLB  0
09090:  CALL   14DC
....................          write_eeprom(1,Password[1]); 
09094:  CLRF   FAA
09096:  MOVLW  01
09098:  MOVWF  FA9
0909A:  MOVFF  515,FA8
0909E:  BCF    FA6.6
090A0:  BCF    FA6.7
090A2:  BSF    FA6.2
090A4:  MOVF   FF2,W
090A6:  MOVWF  00
090A8:  BCF    FF2.7
090AA:  MOVLB  F
090AC:  MOVLW  55
090AE:  MOVWF  FA7
090B0:  MOVLW  AA
090B2:  MOVWF  FA7
090B4:  BSF    FA6.1
090B6:  BTFSC  FA6.1
090B8:  BRA    90B6
090BA:  BCF    FA6.2
090BC:  MOVF   00,W
090BE:  IORWF  FF2,F
....................          delay_ms(20); 
090C0:  MOVLW  14
090C2:  MOVLB  6
090C4:  MOVWF  x00
090C6:  MOVLB  0
090C8:  CALL   14DC
....................          write_eeprom(2,Password[2]); 
090CC:  CLRF   FAA
090CE:  MOVLW  02
090D0:  MOVWF  FA9
090D2:  MOVFF  516,FA8
090D6:  BCF    FA6.6
090D8:  BCF    FA6.7
090DA:  BSF    FA6.2
090DC:  MOVF   FF2,W
090DE:  MOVWF  00
090E0:  BCF    FF2.7
090E2:  MOVLB  F
090E4:  MOVLW  55
090E6:  MOVWF  FA7
090E8:  MOVLW  AA
090EA:  MOVWF  FA7
090EC:  BSF    FA6.1
090EE:  BTFSC  FA6.1
090F0:  BRA    90EE
090F2:  BCF    FA6.2
090F4:  MOVF   00,W
090F6:  IORWF  FF2,F
....................          delay_ms(20); 
090F8:  MOVLW  14
090FA:  MOVLB  6
090FC:  MOVWF  x00
090FE:  MOVLB  0
09100:  CALL   14DC
....................          write_eeprom(3,Password[3]); 
09104:  CLRF   FAA
09106:  MOVLW  03
09108:  MOVWF  FA9
0910A:  MOVFF  517,FA8
0910E:  BCF    FA6.6
09110:  BCF    FA6.7
09112:  BSF    FA6.2
09114:  MOVF   FF2,W
09116:  MOVWF  00
09118:  BCF    FF2.7
0911A:  MOVLB  F
0911C:  MOVLW  55
0911E:  MOVWF  FA7
09120:  MOVLW  AA
09122:  MOVWF  FA7
09124:  BSF    FA6.1
09126:  BTFSC  FA6.1
09128:  BRA    9126
0912A:  BCF    FA6.2
0912C:  MOVF   00,W
0912E:  IORWF  FF2,F
....................          delay_ms(20); 
09130:  MOVLW  14
09132:  MOVLB  6
09134:  MOVWF  x00
09136:  MOVLB  0
09138:  CALL   14DC
....................          glcd_imagen(1);glcd_update();Menu=211;delay_ms(1000);glcd_fillScreen(OFF);Menu=3; 
0913C:  MOVLW  01
0913E:  MOVLB  5
09140:  MOVWF  xEC
09142:  MOVLB  0
09144:  CALL   5DB8
09148:  CALL   1614
0914C:  MOVLW  D3
0914E:  MOVLB  4
09150:  MOVWF  xCC
09152:  MOVLW  04
09154:  MOVLB  5
09156:  MOVWF  xEC
09158:  MOVLW  FA
0915A:  MOVLB  6
0915C:  MOVWF  x00
0915E:  MOVLB  0
09160:  CALL   14DC
09164:  MOVLB  5
09166:  DECFSZ xEC,F
09168:  BRA    9158
0916A:  CLRF   xF4
0916C:  MOVLB  0
0916E:  CALL   15BA
09172:  MOVLW  03
09174:  MOVLB  4
09176:  MOVWF  xCC
....................          n=0; 
09178:  BCF    x2E.5
....................          Contrasena[0]=0;Contrasena[1]=0;Contrasena[2]=0;Contrasena[3]=0; 
0917A:  MOVLB  5
0917C:  CLRF   x10
0917E:  CLRF   x11
09180:  CLRF   x12
09182:  CLRF   x13
09184:  MOVLB  4
....................       } 
....................      
....................     } 
.................... //_--------------------------------------------------------------------------------------------------------------------------------------------------------        
....................  
.................... //_-------------------------------------------------------------------------------------------------------------------------------------------------------- 
....................       if(Menu==31){ //Menu de Mantenimiento. 
09186:  MOVF   xCC,W
09188:  SUBLW  1F
0918A:  BTFSS  FD8.2
0918C:  BRA    95B4
....................        
....................          strcpy(Menus.Letra,"Manteniento"); 
0918E:  MOVLW  04
09190:  MOVWF  FEA
09192:  MOVLW  16
09194:  MOVWF  FE9
09196:  MOVFF  FF2,5EC
0919A:  BCF    FF2.7
0919C:  MOVLW  00
0919E:  MOVLB  0
091A0:  CALL   11C2
091A4:  TBLRD*-
091A6:  TBLRD*+
091A8:  MOVF   FF5,W
091AA:  MOVWF  FEE
091AC:  IORLW  00
091AE:  BNZ   91A6
091B0:  MOVLB  5
091B2:  BTFSC  xEC.7
091B4:  BSF    FF2.7
....................          displayMenu(Menus.Letra,0,0,1,2); 
091B6:  MOVLW  04
091B8:  MOVWF  xF5
091BA:  MOVLW  16
091BC:  MOVWF  xF4
091BE:  CLRF   xF6
091C0:  CLRF   xF7
091C2:  MOVLW  01
091C4:  MOVWF  xF8
091C6:  MOVLW  02
091C8:  MOVWF  xF9
091CA:  MOVLB  0
091CC:  CALL   4E96
....................           
....................          strcpy(Menus.Letra,"Trabajo Filtro(h):"); 
091D0:  MOVLW  04
091D2:  MOVWF  FEA
091D4:  MOVLW  16
091D6:  MOVWF  FE9
091D8:  MOVFF  FF2,5EC
091DC:  BCF    FF2.7
091DE:  MOVLW  00
091E0:  CALL   11E8
091E4:  TBLRD*-
091E6:  TBLRD*+
091E8:  MOVF   FF5,W
091EA:  MOVWF  FEE
091EC:  IORLW  00
091EE:  BNZ   91E6
091F0:  MOVLB  5
091F2:  BTFSC  xEC.7
091F4:  BSF    FF2.7
....................          displayMenu(Menus.Letra,10,20,1,1); 
091F6:  MOVLW  04
091F8:  MOVWF  xF5
091FA:  MOVLW  16
091FC:  MOVWF  xF4
091FE:  MOVLW  0A
09200:  MOVWF  xF6
09202:  MOVLW  14
09204:  MOVWF  xF7
09206:  MOVLW  01
09208:  MOVWF  xF8
0920A:  MOVWF  xF9
0920C:  MOVLB  0
0920E:  CALL   4E96
....................          glcd_text57(0, 31, Vida_Filtro, 1, ON); 
09212:  MOVLB  6
09214:  CLRF   x05
09216:  MOVLW  1F
09218:  MOVWF  x06
0921A:  MOVLW  04
0921C:  MOVWF  x08
0921E:  MOVLW  92
09220:  MOVWF  x07
09222:  MOVLW  01
09224:  MOVWF  x09
09226:  MOVWF  x0A
09228:  MOVLB  0
0922A:  CALL   1830
....................          displayTiempo(Ttrabajo[3],60,30,0,1);displayTiempo(Ttrabajo[2],67,30,0,1);displayTiempo(Ttrabajo[1],74,30,0,1);displayTiempo(Ttrabajo[0],82,30,0,1); 
0922E:  MOVFF  50F,5EC
09232:  MOVLW  3C
09234:  MOVLB  5
09236:  MOVWF  xED
09238:  MOVLW  1E
0923A:  MOVWF  xEE
0923C:  CLRF   xEF
0923E:  MOVLW  01
09240:  MOVWF  xF0
09242:  MOVLB  0
09244:  CALL   5658
09248:  MOVFF  50E,5EC
0924C:  MOVLW  43
0924E:  MOVLB  5
09250:  MOVWF  xED
09252:  MOVLW  1E
09254:  MOVWF  xEE
09256:  CLRF   xEF
09258:  MOVLW  01
0925A:  MOVWF  xF0
0925C:  MOVLB  0
0925E:  CALL   5658
09262:  MOVFF  50D,5EC
09266:  MOVLW  4A
09268:  MOVLB  5
0926A:  MOVWF  xED
0926C:  MOVLW  1E
0926E:  MOVWF  xEE
09270:  CLRF   xEF
09272:  MOVLW  01
09274:  MOVWF  xF0
09276:  MOVLB  0
09278:  CALL   5658
0927C:  MOVFF  50C,5EC
09280:  MOVLW  52
09282:  MOVLB  5
09284:  MOVWF  xED
09286:  MOVLW  1E
09288:  MOVWF  xEE
0928A:  CLRF   xEF
0928C:  MOVLW  01
0928E:  MOVWF  xF0
09290:  MOVLB  0
09292:  CALL   5658
....................           
....................          strcpy(Menus.Letra,"Trabajo Luz UV(h):"); 
09296:  MOVLW  04
09298:  MOVWF  FEA
0929A:  MOVLW  16
0929C:  MOVWF  FE9
0929E:  MOVFF  FF2,5EC
092A2:  BCF    FF2.7
092A4:  MOVLW  00
092A6:  CALL   1216
092AA:  TBLRD*-
092AC:  TBLRD*+
092AE:  MOVF   FF5,W
092B0:  MOVWF  FEE
092B2:  IORLW  00
092B4:  BNZ   92AC
092B6:  MOVLB  5
092B8:  BTFSC  xEC.7
092BA:  BSF    FF2.7
....................          displayMenu(Menus.Letra,0,40,1,1); 
092BC:  MOVLW  04
092BE:  MOVWF  xF5
092C0:  MOVLW  16
092C2:  MOVWF  xF4
092C4:  CLRF   xF6
092C6:  MOVLW  28
092C8:  MOVWF  xF7
092CA:  MOVLW  01
092CC:  MOVWF  xF8
092CE:  MOVWF  xF9
092D0:  MOVLB  0
092D2:  CALL   4E96
....................          glcd_text57(0, 53, Vida_UV, 1, ON); 
092D6:  MOVLB  6
092D8:  CLRF   x05
092DA:  MOVLW  35
092DC:  MOVWF  x06
092DE:  MOVLW  04
092E0:  MOVWF  x08
092E2:  MOVLW  C4
092E4:  MOVWF  x07
092E6:  MOVLW  01
092E8:  MOVWF  x09
092EA:  MOVWF  x0A
092EC:  MOVLB  0
092EE:  CALL   1830
....................          displayTiempo(Tuv[3],60,52,0,1);displayTiempo(Tuv[2],67,52,0,1);displayTiempo(Tuv[1],74,52,0,1);displayTiempo(Tuv[0],82,52,0,1);                  
092F2:  MOVFF  503,5EC
092F6:  MOVLW  3C
092F8:  MOVLB  5
092FA:  MOVWF  xED
092FC:  MOVLW  34
092FE:  MOVWF  xEE
09300:  CLRF   xEF
09302:  MOVLW  01
09304:  MOVWF  xF0
09306:  MOVLB  0
09308:  CALL   5658
0930C:  MOVFF  502,5EC
09310:  MOVLW  43
09312:  MOVLB  5
09314:  MOVWF  xED
09316:  MOVLW  34
09318:  MOVWF  xEE
0931A:  CLRF   xEF
0931C:  MOVLW  01
0931E:  MOVWF  xF0
09320:  MOVLB  0
09322:  CALL   5658
09326:  MOVFF  501,5EC
0932A:  MOVLW  4A
0932C:  MOVLB  5
0932E:  MOVWF  xED
09330:  MOVLW  34
09332:  MOVWF  xEE
09334:  CLRF   xEF
09336:  MOVLW  01
09338:  MOVWF  xF0
0933A:  MOVLB  0
0933C:  CALL   5658
09340:  MOVFF  500,5EC
09344:  MOVLW  52
09346:  MOVLB  5
09348:  MOVWF  xED
0934A:  MOVLW  34
0934C:  MOVWF  xEE
0934E:  CLRF   xEF
09350:  MOVLW  01
09352:  MOVWF  xF0
09354:  MOVLB  0
09356:  CALL   5658
....................           
....................          LuzBlanca_on; 
0935A:  BSF    F8B.0
0935C:  BCF    F94.0
....................           
....................             if(UP && RIGHT) // Reinicia Tiempo de Luz UV 
0935E:  BSF    F92.5
09360:  BTFSC  F80.5
09362:  BRA    9478
09364:  BSF    F96.1
09366:  BTFSC  F84.1
09368:  BRA    9478
....................             { 
....................                   delay_ms(2000); 
0936A:  MOVLW  08
0936C:  MOVLB  5
0936E:  MOVWF  xEC
09370:  MOVLW  FA
09372:  MOVLB  6
09374:  MOVWF  x00
09376:  MOVLB  0
09378:  CALL   14DC
0937C:  MOVLB  5
0937E:  DECFSZ xEC,F
09380:  BRA    9370
....................                   write_eeprom(12,0); 
09382:  CLRF   FAA
09384:  MOVLW  0C
09386:  MOVWF  FA9
09388:  CLRF   FA8
0938A:  BCF    FA6.6
0938C:  BCF    FA6.7
0938E:  BSF    FA6.2
09390:  MOVF   FF2,W
09392:  MOVWF  00
09394:  BCF    FF2.7
09396:  MOVLB  F
09398:  MOVLW  55
0939A:  MOVWF  FA7
0939C:  MOVLW  AA
0939E:  MOVWF  FA7
093A0:  BSF    FA6.1
093A2:  BTFSC  FA6.1
093A4:  BRA    93A2
093A6:  BCF    FA6.2
093A8:  MOVF   00,W
093AA:  IORWF  FF2,F
....................                   delay_ms(20); 
093AC:  MOVLW  14
093AE:  MOVLB  6
093B0:  MOVWF  x00
093B2:  MOVLB  0
093B4:  CALL   14DC
....................                   write_eeprom(13,0); 
093B8:  CLRF   FAA
093BA:  MOVLW  0D
093BC:  MOVWF  FA9
093BE:  CLRF   FA8
093C0:  BCF    FA6.6
093C2:  BCF    FA6.7
093C4:  BSF    FA6.2
093C6:  MOVF   FF2,W
093C8:  MOVWF  00
093CA:  BCF    FF2.7
093CC:  MOVLB  F
093CE:  MOVLW  55
093D0:  MOVWF  FA7
093D2:  MOVLW  AA
093D4:  MOVWF  FA7
093D6:  BSF    FA6.1
093D8:  BTFSC  FA6.1
093DA:  BRA    93D8
093DC:  BCF    FA6.2
093DE:  MOVF   00,W
093E0:  IORWF  FF2,F
....................                   delay_ms(20); 
093E2:  MOVLW  14
093E4:  MOVLB  6
093E6:  MOVWF  x00
093E8:  MOVLB  0
093EA:  CALL   14DC
....................                   write_eeprom(14,0); 
093EE:  CLRF   FAA
093F0:  MOVLW  0E
093F2:  MOVWF  FA9
093F4:  CLRF   FA8
093F6:  BCF    FA6.6
093F8:  BCF    FA6.7
093FA:  BSF    FA6.2
093FC:  MOVF   FF2,W
093FE:  MOVWF  00
09400:  BCF    FF2.7
09402:  MOVLB  F
09404:  MOVLW  55
09406:  MOVWF  FA7
09408:  MOVLW  AA
0940A:  MOVWF  FA7
0940C:  BSF    FA6.1
0940E:  BTFSC  FA6.1
09410:  BRA    940E
09412:  BCF    FA6.2
09414:  MOVF   00,W
09416:  IORWF  FF2,F
....................                   delay_ms(20); 
09418:  MOVLW  14
0941A:  MOVLB  6
0941C:  MOVWF  x00
0941E:  MOVLB  0
09420:  CALL   14DC
....................                   write_eeprom(15,0); 
09424:  CLRF   FAA
09426:  MOVLW  0F
09428:  MOVWF  FA9
0942A:  CLRF   FA8
0942C:  BCF    FA6.6
0942E:  BCF    FA6.7
09430:  BSF    FA6.2
09432:  MOVF   FF2,W
09434:  MOVWF  00
09436:  BCF    FF2.7
09438:  MOVLB  F
0943A:  MOVLW  55
0943C:  MOVWF  FA7
0943E:  MOVLW  AA
09440:  MOVWF  FA7
09442:  BSF    FA6.1
09444:  BTFSC  FA6.1
09446:  BRA    9444
09448:  BCF    FA6.2
0944A:  MOVF   00,W
0944C:  IORWF  FF2,F
....................                   delay_ms(20); 
0944E:  MOVLW  14
09450:  MOVLB  6
09452:  MOVWF  x00
09454:  MOVLB  0
09456:  CALL   14DC
....................                   Tuv[3]=0;Tuv[2]=0;Tuv[1]=0;Tuv[0]=0; 
0945A:  MOVLB  5
0945C:  CLRF   x03
0945E:  CLRF   x02
09460:  CLRF   x01
09462:  CLRF   x00
....................                   Menu=3;glcd_fillscreen(OFF);LuzBlanca_off; 
09464:  MOVLW  03
09466:  MOVLB  4
09468:  MOVWF  xCC
0946A:  MOVLB  5
0946C:  CLRF   xF4
0946E:  MOVLB  0
09470:  CALL   15BA
09474:  BCF    F8B.0
09476:  BCF    F94.0
....................                 
....................             } 
....................             if(DOWN && RIGHT) // Reinicia Tiempo de Trabajo 
09478:  BSF    F96.0
0947A:  BTFSC  F84.0
0947C:  BRA    9592
0947E:  BSF    F96.1
09480:  BTFSC  F84.1
09482:  BRA    9592
....................             { 
....................                   delay_ms(2000); 
09484:  MOVLW  08
09486:  MOVLB  5
09488:  MOVWF  xEC
0948A:  MOVLW  FA
0948C:  MOVLB  6
0948E:  MOVWF  x00
09490:  MOVLB  0
09492:  CALL   14DC
09496:  MOVLB  5
09498:  DECFSZ xEC,F
0949A:  BRA    948A
....................                   write_eeprom(16,0); 
0949C:  CLRF   FAA
0949E:  MOVLW  10
094A0:  MOVWF  FA9
094A2:  CLRF   FA8
094A4:  BCF    FA6.6
094A6:  BCF    FA6.7
094A8:  BSF    FA6.2
094AA:  MOVF   FF2,W
094AC:  MOVWF  00
094AE:  BCF    FF2.7
094B0:  MOVLB  F
094B2:  MOVLW  55
094B4:  MOVWF  FA7
094B6:  MOVLW  AA
094B8:  MOVWF  FA7
094BA:  BSF    FA6.1
094BC:  BTFSC  FA6.1
094BE:  BRA    94BC
094C0:  BCF    FA6.2
094C2:  MOVF   00,W
094C4:  IORWF  FF2,F
....................                   delay_ms(20); 
094C6:  MOVLW  14
094C8:  MOVLB  6
094CA:  MOVWF  x00
094CC:  MOVLB  0
094CE:  CALL   14DC
....................                   write_eeprom(17,0); 
094D2:  CLRF   FAA
094D4:  MOVLW  11
094D6:  MOVWF  FA9
094D8:  CLRF   FA8
094DA:  BCF    FA6.6
094DC:  BCF    FA6.7
094DE:  BSF    FA6.2
094E0:  MOVF   FF2,W
094E2:  MOVWF  00
094E4:  BCF    FF2.7
094E6:  MOVLB  F
094E8:  MOVLW  55
094EA:  MOVWF  FA7
094EC:  MOVLW  AA
094EE:  MOVWF  FA7
094F0:  BSF    FA6.1
094F2:  BTFSC  FA6.1
094F4:  BRA    94F2
094F6:  BCF    FA6.2
094F8:  MOVF   00,W
094FA:  IORWF  FF2,F
....................                   delay_ms(20); 
094FC:  MOVLW  14
094FE:  MOVLB  6
09500:  MOVWF  x00
09502:  MOVLB  0
09504:  CALL   14DC
....................                   write_eeprom(18,0); 
09508:  CLRF   FAA
0950A:  MOVLW  12
0950C:  MOVWF  FA9
0950E:  CLRF   FA8
09510:  BCF    FA6.6
09512:  BCF    FA6.7
09514:  BSF    FA6.2
09516:  MOVF   FF2,W
09518:  MOVWF  00
0951A:  BCF    FF2.7
0951C:  MOVLB  F
0951E:  MOVLW  55
09520:  MOVWF  FA7
09522:  MOVLW  AA
09524:  MOVWF  FA7
09526:  BSF    FA6.1
09528:  BTFSC  FA6.1
0952A:  BRA    9528
0952C:  BCF    FA6.2
0952E:  MOVF   00,W
09530:  IORWF  FF2,F
....................                   delay_ms(20); 
09532:  MOVLW  14
09534:  MOVLB  6
09536:  MOVWF  x00
09538:  MOVLB  0
0953A:  CALL   14DC
....................                   write_eeprom(19,0); 
0953E:  CLRF   FAA
09540:  MOVLW  13
09542:  MOVWF  FA9
09544:  CLRF   FA8
09546:  BCF    FA6.6
09548:  BCF    FA6.7
0954A:  BSF    FA6.2
0954C:  MOVF   FF2,W
0954E:  MOVWF  00
09550:  BCF    FF2.7
09552:  MOVLB  F
09554:  MOVLW  55
09556:  MOVWF  FA7
09558:  MOVLW  AA
0955A:  MOVWF  FA7
0955C:  BSF    FA6.1
0955E:  BTFSC  FA6.1
09560:  BRA    955E
09562:  BCF    FA6.2
09564:  MOVF   00,W
09566:  IORWF  FF2,F
....................                   delay_ms(20); 
09568:  MOVLW  14
0956A:  MOVLB  6
0956C:  MOVWF  x00
0956E:  MOVLB  0
09570:  CALL   14DC
....................                   Ttrabajo[3]=0;Ttrabajo[2]=0;Ttrabajo[1]=0;Ttrabajo[0]=0; 
09574:  MOVLB  5
09576:  CLRF   x0F
09578:  CLRF   x0E
0957A:  CLRF   x0D
0957C:  CLRF   x0C
....................                   Menu=3;glcd_fillscreen(OFF);LuzBlanca_off; 
0957E:  MOVLW  03
09580:  MOVLB  4
09582:  MOVWF  xCC
09584:  MOVLB  5
09586:  CLRF   xF4
09588:  MOVLB  0
0958A:  CALL   15BA
0958E:  BCF    F8B.0
09590:  BCF    F94.0
....................             } 
....................              
....................             if(LEFT) 
09592:  BSF    F96.2
09594:  BTFSC  F84.2
09596:  BRA    95B6
....................             { 
....................                Menu=6;glcd_fillscreen(OFF);LuzBlanca_off;Opcion=1;unidad=1; 
09598:  MOVLW  06
0959A:  MOVLB  4
0959C:  MOVWF  xCC
0959E:  MOVLB  5
095A0:  CLRF   xF4
095A2:  MOVLB  0
095A4:  CALL   15BA
095A8:  BCF    F8B.0
095AA:  BCF    F94.0
095AC:  MOVLW  01
095AE:  MOVLB  4
095B0:  MOVWF  xCE
095B2:  MOVWF  xCD
095B4:  MOVLB  0
....................             } 
....................     } 
.................... //_--------------------------------------------------------------------------------------------------------------------------------------------------------        
....................  
.................... //_-------------------------------------------------------------------------------------------------------------------------------------------------------- 
....................       if(Menu==32){ //Menu de Servicio 
095B6:  MOVLB  4
095B8:  MOVF   xCC,W
095BA:  SUBLW  20
095BC:  BTFSS  FD8.2
095BE:  BRA    98D8
....................        
....................       strcpy(Menus.Letra,"Servicio"); 
095C0:  MOVLW  04
095C2:  MOVWF  FEA
095C4:  MOVLW  16
095C6:  MOVWF  FE9
095C8:  MOVFF  FF2,5EC
095CC:  BCF    FF2.7
095CE:  MOVLW  00
095D0:  MOVLB  0
095D2:  CALL   1134
095D6:  TBLRD*-
095D8:  TBLRD*+
095DA:  MOVF   FF5,W
095DC:  MOVWF  FEE
095DE:  IORLW  00
095E0:  BNZ   95D8
095E2:  MOVLB  5
095E4:  BTFSC  xEC.7
095E6:  BSF    FF2.7
....................       displayMenu(Menus.Letra,10,0,1,2); 
095E8:  MOVLW  04
095EA:  MOVWF  xF5
095EC:  MOVLW  16
095EE:  MOVWF  xF4
095F0:  MOVLW  0A
095F2:  MOVWF  xF6
095F4:  CLRF   xF7
095F6:  MOVLW  01
095F8:  MOVWF  xF8
095FA:  MOVLW  02
095FC:  MOVWF  xF9
095FE:  MOVLB  0
09600:  CALL   4E96
....................        
....................       if(Opcion==1)    
09604:  MOVLB  4
09606:  DECFSZ xCE,W
09608:  BRA    9650
....................          {strcpy(Menus.Letra,"Sensor de Flujo"); 
0960A:  MOVLW  04
0960C:  MOVWF  FEA
0960E:  MOVLW  16
09610:  MOVWF  FE9
09612:  MOVFF  FF2,5EC
09616:  BCF    FF2.7
09618:  MOVLW  00
0961A:  MOVLB  0
0961C:  CALL   1244
09620:  TBLRD*-
09622:  TBLRD*+
09624:  MOVF   FF5,W
09626:  MOVWF  FEE
09628:  IORLW  00
0962A:  BNZ   9622
0962C:  MOVLB  5
0962E:  BTFSC  xEC.7
09630:  BSF    FF2.7
....................          displayMenu(Menus.Letra,0,18,1,1);} 
09632:  MOVLW  04
09634:  MOVWF  xF5
09636:  MOVLW  16
09638:  MOVWF  xF4
0963A:  CLRF   xF6
0963C:  MOVLW  12
0963E:  MOVWF  xF7
09640:  MOVLW  01
09642:  MOVWF  xF8
09644:  MOVWF  xF9
09646:  MOVLB  0
09648:  CALL   4E96
....................       else 
0964C:  BRA    9692
0964E:  MOVLB  4
....................          {strcpy(Menus.Letra,"Sensor de Flujo"); 
09650:  MOVLW  04
09652:  MOVWF  FEA
09654:  MOVLW  16
09656:  MOVWF  FE9
09658:  MOVFF  FF2,5EC
0965C:  BCF    FF2.7
0965E:  MOVLW  00
09660:  MOVLB  0
09662:  CALL   1244
09666:  TBLRD*-
09668:  TBLRD*+
0966A:  MOVF   FF5,W
0966C:  MOVWF  FEE
0966E:  IORLW  00
09670:  BNZ   9668
09672:  MOVLB  5
09674:  BTFSC  xEC.7
09676:  BSF    FF2.7
....................          displayMenu(Menus.Letra,0,18,0,1);}  
09678:  MOVLW  04
0967A:  MOVWF  xF5
0967C:  MOVLW  16
0967E:  MOVWF  xF4
09680:  CLRF   xF6
09682:  MOVLW  12
09684:  MOVWF  xF7
09686:  CLRF   xF8
09688:  MOVLW  01
0968A:  MOVWF  xF9
0968C:  MOVLB  0
0968E:  CALL   4E96
....................           
....................       if(Opcion==2)    
09692:  MOVLB  4
09694:  MOVF   xCE,W
09696:  SUBLW  02
09698:  BNZ   96E0
....................          {strcpy(Menus.Letra,"Sensor de Presion"); 
0969A:  MOVLW  04
0969C:  MOVWF  FEA
0969E:  MOVLW  16
096A0:  MOVWF  FE9
096A2:  MOVFF  FF2,5EC
096A6:  BCF    FF2.7
096A8:  MOVLW  00
096AA:  MOVLB  0
096AC:  CALL   126E
096B0:  TBLRD*-
096B2:  TBLRD*+
096B4:  MOVF   FF5,W
096B6:  MOVWF  FEE
096B8:  IORLW  00
096BA:  BNZ   96B2
096BC:  MOVLB  5
096BE:  BTFSC  xEC.7
096C0:  BSF    FF2.7
....................          displayMenu(Menus.Letra,0,29,1,1);} 
096C2:  MOVLW  04
096C4:  MOVWF  xF5
096C6:  MOVLW  16
096C8:  MOVWF  xF4
096CA:  CLRF   xF6
096CC:  MOVLW  1D
096CE:  MOVWF  xF7
096D0:  MOVLW  01
096D2:  MOVWF  xF8
096D4:  MOVWF  xF9
096D6:  MOVLB  0
096D8:  CALL   4E96
....................       else 
096DC:  BRA    9722
096DE:  MOVLB  4
....................          {strcpy(Menus.Letra,"Sensor de Presion"); 
096E0:  MOVLW  04
096E2:  MOVWF  FEA
096E4:  MOVLW  16
096E6:  MOVWF  FE9
096E8:  MOVFF  FF2,5EC
096EC:  BCF    FF2.7
096EE:  MOVLW  00
096F0:  MOVLB  0
096F2:  CALL   126E
096F6:  TBLRD*-
096F8:  TBLRD*+
096FA:  MOVF   FF5,W
096FC:  MOVWF  FEE
096FE:  IORLW  00
09700:  BNZ   96F8
09702:  MOVLB  5
09704:  BTFSC  xEC.7
09706:  BSF    FF2.7
....................          displayMenu(Menus.Letra,0,29,0,1);}   
09708:  MOVLW  04
0970A:  MOVWF  xF5
0970C:  MOVLW  16
0970E:  MOVWF  xF4
09710:  CLRF   xF6
09712:  MOVLW  1D
09714:  MOVWF  xF7
09716:  CLRF   xF8
09718:  MOVLW  01
0971A:  MOVWF  xF9
0971C:  MOVLB  0
0971E:  CALL   4E96
....................        
....................       if(Opcion==3)    
09722:  MOVLB  4
09724:  MOVF   xCE,W
09726:  SUBLW  03
09728:  BNZ   9770
....................          {strcpy(Menus.Letra,"Velocidad Ventilador"); 
0972A:  MOVLW  04
0972C:  MOVWF  FEA
0972E:  MOVLW  16
09730:  MOVWF  FE9
09732:  MOVFF  FF2,5EC
09736:  BCF    FF2.7
09738:  MOVLW  00
0973A:  MOVLB  0
0973C:  CALL   129A
09740:  TBLRD*-
09742:  TBLRD*+
09744:  MOVF   FF5,W
09746:  MOVWF  FEE
09748:  IORLW  00
0974A:  BNZ   9742
0974C:  MOVLB  5
0974E:  BTFSC  xEC.7
09750:  BSF    FF2.7
....................          displayMenu(Menus.Letra,0,40,1,1);} 
09752:  MOVLW  04
09754:  MOVWF  xF5
09756:  MOVLW  16
09758:  MOVWF  xF4
0975A:  CLRF   xF6
0975C:  MOVLW  28
0975E:  MOVWF  xF7
09760:  MOVLW  01
09762:  MOVWF  xF8
09764:  MOVWF  xF9
09766:  MOVLB  0
09768:  CALL   4E96
....................       else 
0976C:  BRA    97B2
0976E:  MOVLB  4
....................          {strcpy(Menus.Letra,"Velocidad Ventilador"); 
09770:  MOVLW  04
09772:  MOVWF  FEA
09774:  MOVLW  16
09776:  MOVWF  FE9
09778:  MOVFF  FF2,5EC
0977C:  BCF    FF2.7
0977E:  MOVLW  00
09780:  MOVLB  0
09782:  CALL   129A
09786:  TBLRD*-
09788:  TBLRD*+
0978A:  MOVF   FF5,W
0978C:  MOVWF  FEE
0978E:  IORLW  00
09790:  BNZ   9788
09792:  MOVLB  5
09794:  BTFSC  xEC.7
09796:  BSF    FF2.7
....................          displayMenu(Menus.Letra,0,40,0,1);}  
09798:  MOVLW  04
0979A:  MOVWF  xF5
0979C:  MOVLW  16
0979E:  MOVWF  xF4
097A0:  CLRF   xF6
097A2:  MOVLW  28
097A4:  MOVWF  xF7
097A6:  CLRF   xF8
097A8:  MOVLW  01
097AA:  MOVWF  xF9
097AC:  MOVLB  0
097AE:  CALL   4E96
....................        
....................          
....................       if(UP)//Si oprime hacia arriba 
097B2:  BSF    F92.5
097B4:  BTFSC  F80.5
097B6:  BRA    97D2
....................       {  if(Flanco == 0)  
097B8:  MOVLB  4
097BA:  BTFSC  x2C.0
097BC:  BRA    97D0
....................             {Flanco = 1;delay_ms(30);Opcion--; 
097BE:  BSF    x2C.0
097C0:  MOVLW  1E
097C2:  MOVLB  6
097C4:  MOVWF  x00
097C6:  MOVLB  0
097C8:  CALL   14DC
097CC:  MOVLB  4
097CE:  DECF   xCE,F
....................             } 
....................       } 
....................          else 
097D0:  BRA    97D6
....................             {Flanco = 0;} 
097D2:  MOVLB  4
097D4:  BCF    x2C.0
....................              
....................       if(DOWN)//Si oprime hacia abajo 
097D6:  BSF    F96.0
097D8:  BTFSC  F84.0
097DA:  BRA    97F4
....................       {  if(Flanco2 == 0)  
097DC:  BTFSC  x2C.2
097DE:  BRA    97F2
....................             {Flanco2 = 1;delay_ms(30);Opcion++; 
097E0:  BSF    x2C.2
097E2:  MOVLW  1E
097E4:  MOVLB  6
097E6:  MOVWF  x00
097E8:  MOVLB  0
097EA:  CALL   14DC
097EE:  MOVLB  4
097F0:  INCF   xCE,F
....................             }      
....................       } 
....................          else 
097F2:  BRA    97F6
....................             {Flanco2 = 0;}   
097F4:  BCF    x2C.2
....................              
....................       if(RIGHT)//Si oprime SET 
097F6:  BSF    F96.1
097F8:  BTFSC  F84.1
097FA:  BRA    988C
....................       {   
....................          delay_ms(20); 
097FC:  MOVLW  14
097FE:  MOVLB  6
09800:  MOVWF  x00
09802:  MOVLB  0
09804:  CALL   14DC
....................          if(RIGHT){ 
09808:  BSF    F96.1
0980A:  BTFSC  F84.1
0980C:  BRA    988E
....................             delay_ms(100); 
0980E:  MOVLW  64
09810:  MOVLB  6
09812:  MOVWF  x00
09814:  MOVLB  0
09816:  CALL   14DC
....................             glcd_fillScreen(OFF); 
0981A:  MOVLB  5
0981C:  CLRF   xF4
0981E:  MOVLB  0
09820:  CALL   15BA
....................             while(!PidePassword(6,32,Opcion+40,4,4,4,4)){ 
09824:  MOVLW  28
09826:  MOVLB  4
09828:  ADDWF  xCE,W
0982A:  MOVLB  5
0982C:  MOVWF  xEC
0982E:  MOVLW  06
09830:  MOVWF  xED
09832:  MOVLW  20
09834:  MOVWF  xEE
09836:  MOVFF  5EC,5EF
0983A:  MOVLW  04
0983C:  MOVWF  xF0
0983E:  MOVWF  xF1
09840:  MOVWF  xF2
09842:  MOVWF  xF3
09844:  MOVLB  0
09846:  CALL   4F72
0984A:  MOVF   01,F
0984C:  BNZ   987A
....................                PidePassword(6,32,Opcion+40,4,4,4,4);glcd_update(); 
0984E:  MOVLW  28
09850:  MOVLB  4
09852:  ADDWF  xCE,W
09854:  MOVLB  5
09856:  MOVWF  xEC
09858:  MOVLW  06
0985A:  MOVWF  xED
0985C:  MOVLW  20
0985E:  MOVWF  xEE
09860:  MOVFF  5EC,5EF
09864:  MOVLW  04
09866:  MOVWF  xF0
09868:  MOVWF  xF1
0986A:  MOVWF  xF2
0986C:  MOVWF  xF3
0986E:  MOVLB  0
09870:  CALL   4F72
09874:  CALL   1614
....................             }             
09878:  BRA    9824
....................             glcd_fillScreen(OFF);Opcion=1;unidad=1; 
0987A:  MOVLB  5
0987C:  CLRF   xF4
0987E:  MOVLB  0
09880:  CALL   15BA
09884:  MOVLW  01
09886:  MOVLB  4
09888:  MOVWF  xCE
0988A:  MOVWF  xCD
0988C:  MOVLB  0
....................          } 
....................       } 
....................              
....................       if(LEFT)//Si oprime boton de Toma. 
0988E:  BSF    F96.2
09890:  BTFSC  F84.2
09892:  BRA    98C4
....................         {delay_ms(700);Menu=6;glcd_fillscreen(OFF);Opcion=1;unidad=1;} 
09894:  MOVLW  04
09896:  MOVLB  5
09898:  MOVWF  xEC
0989A:  MOVLW  AF
0989C:  MOVLB  6
0989E:  MOVWF  x00
098A0:  MOVLB  0
098A2:  CALL   14DC
098A6:  MOVLB  5
098A8:  DECFSZ xEC,F
098AA:  BRA    989A
098AC:  MOVLW  06
098AE:  MOVLB  4
098B0:  MOVWF  xCC
098B2:  MOVLB  5
098B4:  CLRF   xF4
098B6:  MOVLB  0
098B8:  CALL   15BA
098BC:  MOVLW  01
098BE:  MOVLB  4
098C0:  MOVWF  xCE
098C2:  MOVWF  xCD
....................          
....................       if(Opcion>3) 
098C4:  MOVLB  4
098C6:  MOVF   xCE,W
098C8:  SUBLW  03
098CA:  BC    98D0
....................       {Opcion=1;} 
098CC:  MOVLW  01
098CE:  MOVWF  xCE
....................       if(Opcion<1) 
098D0:  MOVF   xCE,F
098D2:  BNZ   98D8
....................       {Opcion=3;} 
098D4:  MOVLW  03
098D6:  MOVWF  xCE
....................     } 
.................... //_--------------------------------------------------------------------------------------------------------------------------------------------------------        
....................  
.................... //_-------------------------------------------------------------------------------------------------------------------------------------------------------- 
....................       if(Menu==41){ //Menu de Sensor de Flujo. 
098D8:  MOVF   xCC,W
098DA:  SUBLW  29
098DC:  BTFSS  FD8.2
098DE:  BRA    9EA4
....................        
....................       if(Ajuste1>10.0) 
098E0:  MOVLB  6
098E2:  CLRF   x20
098E4:  CLRF   x1F
098E6:  MOVLW  20
098E8:  MOVWF  x1E
098EA:  MOVLW  82
098EC:  MOVWF  x1D
098EE:  MOVFF  543,624
098F2:  MOVFF  542,623
098F6:  MOVFF  541,622
098FA:  MOVFF  540,621
098FE:  MOVLB  0
09900:  CALL   2584
09904:  BNC   9912
....................          Ajuste1=0.0; 
09906:  MOVLB  5
09908:  CLRF   x43
0990A:  CLRF   x42
0990C:  CLRF   x41
0990E:  CLRF   x40
09910:  MOVLB  0
....................        
....................       strcpy(Menus.Letra,"Sensor de Flujo"); 
09912:  MOVLW  04
09914:  MOVWF  FEA
09916:  MOVLW  16
09918:  MOVWF  FE9
0991A:  MOVFF  FF2,5EC
0991E:  BCF    FF2.7
09920:  MOVLW  00
09922:  CALL   1244
09926:  TBLRD*-
09928:  TBLRD*+
0992A:  MOVF   FF5,W
0992C:  MOVWF  FEE
0992E:  IORLW  00
09930:  BNZ   9928
09932:  MOVLB  5
09934:  BTFSC  xEC.7
09936:  BSF    FF2.7
....................       displayMenu(Menus.Letra,10,0,1,1); 
09938:  MOVLW  04
0993A:  MOVWF  xF5
0993C:  MOVLW  16
0993E:  MOVWF  xF4
09940:  MOVLW  0A
09942:  MOVWF  xF6
09944:  CLRF   xF7
09946:  MOVLW  01
09948:  MOVWF  xF8
0994A:  MOVWF  xF9
0994C:  MOVLB  0
0994E:  CALL   4E96
....................        
....................       glcd_text57(0, 12, ZF, 1, ON); 
09952:  MOVLB  6
09954:  CLRF   x05
09956:  MOVLW  0C
09958:  MOVWF  x06
0995A:  MOVLW  04
0995C:  MOVWF  x08
0995E:  MOVLW  74
09960:  MOVWF  x07
09962:  MOVLW  01
09964:  MOVWF  x09
09966:  MOVWF  x0A
09968:  MOVLB  0
0996A:  CALL   1830
....................        
....................       glcd_text57(0, 20, ZA, 1, ON); 
0996E:  MOVLB  6
09970:  CLRF   x05
09972:  MOVLW  14
09974:  MOVWF  x06
09976:  MOVLW  04
09978:  MOVWF  x08
0997A:  MOVLW  82
0997C:  MOVWF  x07
0997E:  MOVLW  01
09980:  MOVWF  x09
09982:  MOVWF  x0A
09984:  MOVLB  0
09986:  CALL   1830
....................        
....................       glcd_text57(0, 30, AJ, 1, ON);            
0998A:  MOVLB  6
0998C:  CLRF   x05
0998E:  MOVLW  1E
09990:  MOVWF  x06
09992:  MOVLW  04
09994:  MOVWF  x08
09996:  MOVLW  8A
09998:  MOVWF  x07
0999A:  MOVLW  01
0999C:  MOVWF  x09
0999E:  MOVWF  x0A
099A0:  MOVLB  0
099A2:  CALL   1830
....................        
....................       displayfloat(zero_actual,44,20,0,1); 
099A6:  MOVFF  5CB,5F3
099AA:  MOVFF  5CA,5F2
099AE:  MOVFF  5C9,5F1
099B2:  MOVFF  5C8,5F0
099B6:  MOVLW  2C
099B8:  MOVLB  5
099BA:  MOVWF  xF4
099BC:  MOVLW  14
099BE:  MOVWF  xF5
099C0:  CLRF   xF6
099C2:  MOVLW  01
099C4:  MOVWF  xF7
099C6:  MOVLB  0
099C8:  CALL   5FC2
....................       displayfloat(Ajuste1,44,30,0,1); 
099CC:  MOVFF  543,5F3
099D0:  MOVFF  542,5F2
099D4:  MOVFF  541,5F1
099D8:  MOVFF  540,5F0
099DC:  MOVLW  2C
099DE:  MOVLB  5
099E0:  MOVWF  xF4
099E2:  MOVLW  1E
099E4:  MOVWF  xF5
099E6:  CLRF   xF6
099E8:  MOVLW  01
099EA:  MOVWF  xF7
099EC:  MOVLB  0
099EE:  CALL   5FC2
....................       displayfloat(Inflow_adc,0,40,0,1); 
099F2:  MOVFF  4DB,622
099F6:  MOVFF  4DA,621
099FA:  CALL   19E8
099FE:  MOVFF  00,5EC
09A02:  MOVFF  01,5ED
09A06:  MOVFF  02,5EE
09A0A:  MOVFF  03,5EF
09A0E:  MOVFF  03,5F3
09A12:  MOVFF  02,5F2
09A16:  MOVFF  01,5F1
09A1A:  MOVFF  00,5F0
09A1E:  MOVLB  5
09A20:  CLRF   xF4
09A22:  MOVLW  28
09A24:  MOVWF  xF5
09A26:  CLRF   xF6
09A28:  MOVLW  01
09A2A:  MOVWF  xF7
09A2C:  MOVLB  0
09A2E:  CALL   5FC2
.................... //      displayfloat(Diferencia,0,50,0,1); 
....................        
....................       if(UP)//Si oprime hacia arriba 
09A32:  BSF    F92.5
09A34:  BTFSC  F80.5
09A36:  BRA    9A7E
....................       {   
....................          delay_ms(30);Ajuste1+=0.01; 
09A38:  MOVLW  1E
09A3A:  MOVLB  6
09A3C:  MOVWF  x00
09A3E:  MOVLB  0
09A40:  CALL   14DC
09A44:  BCF    FD8.1
09A46:  MOVFF  543,624
09A4A:  MOVFF  542,623
09A4E:  MOVFF  541,622
09A52:  MOVFF  540,621
09A56:  MOVLW  0A
09A58:  MOVLB  6
09A5A:  MOVWF  x28
09A5C:  MOVLW  D7
09A5E:  MOVWF  x27
09A60:  MOVLW  23
09A62:  MOVWF  x26
09A64:  MOVLW  78
09A66:  MOVWF  x25
09A68:  MOVLB  0
09A6A:  CALL   1B7C
09A6E:  MOVFF  03,543
09A72:  MOVFF  02,542
09A76:  MOVFF  01,541
09A7A:  MOVFF  00,540
....................       } 
....................              
....................       if(DOWN)//Si oprime hacia abajo 
09A7E:  BSF    F96.0
09A80:  BTFSC  F84.0
09A82:  BRA    9ACA
....................       {    
....................          delay_ms(30);Ajuste1-=0.01; 
09A84:  MOVLW  1E
09A86:  MOVLB  6
09A88:  MOVWF  x00
09A8A:  MOVLB  0
09A8C:  CALL   14DC
09A90:  BSF    FD8.1
09A92:  MOVFF  543,624
09A96:  MOVFF  542,623
09A9A:  MOVFF  541,622
09A9E:  MOVFF  540,621
09AA2:  MOVLW  0A
09AA4:  MOVLB  6
09AA6:  MOVWF  x28
09AA8:  MOVLW  D7
09AAA:  MOVWF  x27
09AAC:  MOVLW  23
09AAE:  MOVWF  x26
09AB0:  MOVLW  78
09AB2:  MOVWF  x25
09AB4:  MOVLB  0
09AB6:  CALL   1B7C
09ABA:  MOVFF  03,543
09ABE:  MOVFF  02,542
09AC2:  MOVFF  01,541
09AC6:  MOVFF  00,540
....................       } 
....................              
....................       if(RIGHT)//Si oprime SET 
09ACA:  BSF    F96.1
09ACC:  BTFSC  F84.1
09ACE:  BRA    9D3C
....................       {   
....................          zero_actual=Inflow_adc; 
09AD0:  MOVFF  4DB,622
09AD4:  MOVFF  4DA,621
09AD8:  CALL   19E8
09ADC:  MOVFF  03,5CB
09AE0:  MOVFF  02,5CA
09AE4:  MOVFF  01,5C9
09AE8:  MOVFF  00,5C8
....................          Diferencia=zero_fabrica-Inflow_adc; 
09AEC:  MOVFF  4DB,622
09AF0:  MOVFF  4DA,621
09AF4:  CALL   19E8
09AF8:  BSF    FD8.1
09AFA:  MOVFF  5C7,624
09AFE:  MOVFF  5C6,623
09B02:  MOVFF  5C5,622
09B06:  MOVFF  5C4,621
09B0A:  MOVFF  03,628
09B0E:  MOVFF  02,627
09B12:  MOVFF  01,626
09B16:  MOVFF  00,625
09B1A:  CALL   1B7C
09B1E:  MOVFF  03,527
09B22:  MOVFF  02,526
09B26:  MOVFF  01,525
09B2A:  MOVFF  00,524
....................              
....................          if(Diferencia>=0) 
09B2E:  MOVLB  6
09B30:  CLRF   x20
09B32:  CLRF   x1F
09B34:  CLRF   x1E
09B36:  CLRF   x1D
09B38:  MOVFF  527,624
09B3C:  MOVFF  526,623
09B40:  MOVFF  525,622
09B44:  MOVFF  524,621
09B48:  MOVLB  0
09B4A:  CALL   2584
09B4E:  BC    9B52
09B50:  BNZ   9B90
....................          { 
....................             negativo=10;write_eeprom(50,negativo);delay_ms(20); 
09B52:  MOVLW  0A
09B54:  MOVLB  4
09B56:  MOVWF  xCF
09B58:  CLRF   FAA
09B5A:  MOVLW  32
09B5C:  MOVWF  FA9
09B5E:  MOVFF  4CF,FA8
09B62:  BCF    FA6.6
09B64:  BCF    FA6.7
09B66:  BSF    FA6.2
09B68:  MOVF   FF2,W
09B6A:  MOVWF  00
09B6C:  BCF    FF2.7
09B6E:  MOVLB  F
09B70:  MOVLW  55
09B72:  MOVWF  FA7
09B74:  MOVLW  AA
09B76:  MOVWF  FA7
09B78:  BSF    FA6.1
09B7A:  BTFSC  FA6.1
09B7C:  BRA    9B7A
09B7E:  BCF    FA6.2
09B80:  MOVF   00,W
09B82:  IORWF  FF2,F
09B84:  MOVLW  14
09B86:  MOVLB  6
09B88:  MOVWF  x00
09B8A:  MOVLB  0
09B8C:  CALL   14DC
....................          } 
....................          if(Diferencia<0) 
09B90:  MOVFF  527,620
09B94:  MOVFF  526,61F
09B98:  MOVFF  525,61E
09B9C:  MOVFF  524,61D
09BA0:  MOVLB  6
09BA2:  CLRF   x24
09BA4:  CLRF   x23
09BA6:  CLRF   x22
09BA8:  CLRF   x21
09BAA:  MOVLB  0
09BAC:  CALL   2584
09BB0:  BNC   9BF0
....................          { 
....................             negativo=20;write_eeprom(50,negativo);delay_ms(20); 
09BB2:  MOVLW  14
09BB4:  MOVLB  4
09BB6:  MOVWF  xCF
09BB8:  CLRF   FAA
09BBA:  MOVLW  32
09BBC:  MOVWF  FA9
09BBE:  MOVFF  4CF,FA8
09BC2:  BCF    FA6.6
09BC4:  BCF    FA6.7
09BC6:  BSF    FA6.2
09BC8:  MOVF   FF2,W
09BCA:  MOVWF  00
09BCC:  BCF    FF2.7
09BCE:  MOVLB  F
09BD0:  MOVLW  55
09BD2:  MOVWF  FA7
09BD4:  MOVLW  AA
09BD6:  MOVWF  FA7
09BD8:  BSF    FA6.1
09BDA:  BTFSC  FA6.1
09BDC:  BRA    9BDA
09BDE:  BCF    FA6.2
09BE0:  MOVF   00,W
09BE2:  IORWF  FF2,F
09BE4:  MOVLW  14
09BE6:  MOVLB  6
09BE8:  MOVWF  x00
09BEA:  MOVLB  0
09BEC:  CALL   14DC
....................          } 
....................          Diferencia=abs(Diferencia); 
09BF0:  MOVFF  524,00
09BF4:  MOVFF  525,01
09BF8:  MOVFF  526,02
09BFC:  MOVFF  527,03
09C00:  BCF    01.7
09C02:  MOVFF  527,527
09C06:  MOVFF  526,526
09C0A:  MOVFF  01,525
09C0E:  MOVFF  524,524
....................          Temporal1=(int16)Diferencia; 
09C12:  MOVFF  527,620
09C16:  MOVFF  526,61F
09C1A:  MOVFF  525,61E
09C1E:  MOVFF  524,61D
09C22:  CALL   2FF0
09C26:  MOVFF  02,4DF
09C2A:  MOVFF  01,4DE
....................          write_eeprom(60,make8(Temporal1,0)); 
09C2E:  MOVFF  4DE,5EC
09C32:  CLRF   FAA
09C34:  MOVLW  3C
09C36:  MOVWF  FA9
09C38:  MOVFF  5EC,FA8
09C3C:  BCF    FA6.6
09C3E:  BCF    FA6.7
09C40:  BSF    FA6.2
09C42:  MOVF   FF2,W
09C44:  MOVWF  00
09C46:  BCF    FF2.7
09C48:  MOVLB  F
09C4A:  MOVLW  55
09C4C:  MOVWF  FA7
09C4E:  MOVLW  AA
09C50:  MOVWF  FA7
09C52:  BSF    FA6.1
09C54:  BTFSC  FA6.1
09C56:  BRA    9C54
09C58:  BCF    FA6.2
09C5A:  MOVF   00,W
09C5C:  IORWF  FF2,F
....................          delay_ms(20); 
09C5E:  MOVLW  14
09C60:  MOVLB  6
09C62:  MOVWF  x00
09C64:  MOVLB  0
09C66:  CALL   14DC
....................          write_eeprom(61,make8(Temporal1,1));//Guardar valor de Setpoint en eeprom 
09C6A:  MOVFF  4DF,5EC
09C6E:  CLRF   FAA
09C70:  MOVLW  3D
09C72:  MOVWF  FA9
09C74:  MOVFF  5EC,FA8
09C78:  BCF    FA6.6
09C7A:  BCF    FA6.7
09C7C:  BSF    FA6.2
09C7E:  MOVF   FF2,W
09C80:  MOVWF  00
09C82:  BCF    FF2.7
09C84:  MOVLB  F
09C86:  MOVLW  55
09C88:  MOVWF  FA7
09C8A:  MOVLW  AA
09C8C:  MOVWF  FA7
09C8E:  BSF    FA6.1
09C90:  BTFSC  FA6.1
09C92:  BRA    9C90
09C94:  BCF    FA6.2
09C96:  MOVF   00,W
09C98:  IORWF  FF2,F
....................          delay_ms(20); 
09C9A:  MOVLW  14
09C9C:  MOVLB  6
09C9E:  MOVWF  x00
09CA0:  MOVLB  0
09CA2:  CALL   14DC
....................  
....................          Temporal1=(int16)zero_actual; 
09CA6:  MOVFF  5CB,620
09CAA:  MOVFF  5CA,61F
09CAE:  MOVFF  5C9,61E
09CB2:  MOVFF  5C8,61D
09CB6:  CALL   2FF0
09CBA:  MOVFF  02,4DF
09CBE:  MOVFF  01,4DE
....................          write_eeprom(29,make8(Temporal1,0)); 
09CC2:  MOVFF  4DE,5EC
09CC6:  CLRF   FAA
09CC8:  MOVLW  1D
09CCA:  MOVWF  FA9
09CCC:  MOVFF  5EC,FA8
09CD0:  BCF    FA6.6
09CD2:  BCF    FA6.7
09CD4:  BSF    FA6.2
09CD6:  MOVF   FF2,W
09CD8:  MOVWF  00
09CDA:  BCF    FF2.7
09CDC:  MOVLB  F
09CDE:  MOVLW  55
09CE0:  MOVWF  FA7
09CE2:  MOVLW  AA
09CE4:  MOVWF  FA7
09CE6:  BSF    FA6.1
09CE8:  BTFSC  FA6.1
09CEA:  BRA    9CE8
09CEC:  BCF    FA6.2
09CEE:  MOVF   00,W
09CF0:  IORWF  FF2,F
....................          delay_ms(20); 
09CF2:  MOVLW  14
09CF4:  MOVLB  6
09CF6:  MOVWF  x00
09CF8:  MOVLB  0
09CFA:  CALL   14DC
....................          write_eeprom(30,make8(Temporal1,1));//Guardar valor de Setpoint en eeprom 
09CFE:  MOVFF  4DF,5EC
09D02:  CLRF   FAA
09D04:  MOVLW  1E
09D06:  MOVWF  FA9
09D08:  MOVFF  5EC,FA8
09D0C:  BCF    FA6.6
09D0E:  BCF    FA6.7
09D10:  BSF    FA6.2
09D12:  MOVF   FF2,W
09D14:  MOVWF  00
09D16:  BCF    FF2.7
09D18:  MOVLB  F
09D1A:  MOVLW  55
09D1C:  MOVWF  FA7
09D1E:  MOVLW  AA
09D20:  MOVWF  FA7
09D22:  BSF    FA6.1
09D24:  BTFSC  FA6.1
09D26:  BRA    9D24
09D28:  BCF    FA6.2
09D2A:  MOVF   00,W
09D2C:  IORWF  FF2,F
....................          delay_ms(20); 
09D2E:  MOVLW  14
09D30:  MOVLB  6
09D32:  MOVWF  x00
09D34:  MOVLB  0
09D36:  CALL   14DC
....................       } 
....................          else 
09D3A:  BRA    9D42
....................             {Flanco1 = 0;}   
09D3C:  MOVLB  4
09D3E:  BCF    x2C.1
09D40:  MOVLB  0
....................              
....................       if(LEFT)//Si oprime boton de Toma. 
09D42:  BSF    F96.2
09D44:  BTFSC  F84.2
09D46:  BRA    9EA2
....................       { 
....................          delay_ms(700);Menu=32;glcd_fillscreen(OFF);Opcion=1;unidad=1; 
09D48:  MOVLW  04
09D4A:  MOVLB  5
09D4C:  MOVWF  xEC
09D4E:  MOVLW  AF
09D50:  MOVLB  6
09D52:  MOVWF  x00
09D54:  MOVLB  0
09D56:  CALL   14DC
09D5A:  MOVLB  5
09D5C:  DECFSZ xEC,F
09D5E:  BRA    9D4E
09D60:  MOVLW  20
09D62:  MOVLB  4
09D64:  MOVWF  xCC
09D66:  MOVLB  5
09D68:  CLRF   xF4
09D6A:  MOVLB  0
09D6C:  CALL   15BA
09D70:  MOVLW  01
09D72:  MOVLB  4
09D74:  MOVWF  xCE
09D76:  MOVWF  xCD
....................          Temporal=Ajuste1; 
09D78:  MOVFF  543,54B
09D7C:  MOVFF  542,54A
09D80:  MOVFF  541,549
09D84:  MOVFF  540,548
....................          Entero=(int)Ajuste1; 
09D88:  MOVFF  543,620
09D8C:  MOVFF  542,61F
09D90:  MOVFF  541,61E
09D94:  MOVFF  540,61D
09D98:  MOVLB  0
09D9A:  CALL   2FF0
09D9E:  MOVFF  01,4D7
....................          Temporal=Temporal-Entero; 
09DA2:  MOVLB  6
09DA4:  CLRF   x22
09DA6:  MOVFF  4D7,621
09DAA:  MOVLB  0
09DAC:  CALL   19E8
09DB0:  BSF    FD8.1
09DB2:  MOVFF  54B,624
09DB6:  MOVFF  54A,623
09DBA:  MOVFF  549,622
09DBE:  MOVFF  548,621
09DC2:  MOVFF  03,628
09DC6:  MOVFF  02,627
09DCA:  MOVFF  01,626
09DCE:  MOVFF  00,625
09DD2:  CALL   1B7C
09DD6:  MOVFF  03,54B
09DDA:  MOVFF  02,54A
09DDE:  MOVFF  01,549
09DE2:  MOVFF  00,548
....................          Temporal2=Temporal*10.0; 
09DE6:  MOVFF  54B,620
09DEA:  MOVFF  54A,61F
09DEE:  MOVFF  549,61E
09DF2:  MOVFF  548,61D
09DF6:  MOVLB  6
09DF8:  CLRF   x24
09DFA:  CLRF   x23
09DFC:  MOVLW  20
09DFE:  MOVWF  x22
09E00:  MOVLW  82
09E02:  MOVWF  x21
09E04:  MOVLB  0
09E06:  CALL   302C
09E0A:  MOVFF  03,54F
09E0E:  MOVFF  02,54E
09E12:  MOVFF  01,54D
09E16:  MOVFF  00,54C
....................          Decimal1=(int8)Temporal2; 
09E1A:  MOVFF  54F,620
09E1E:  MOVFF  54E,61F
09E22:  MOVFF  54D,61E
09E26:  MOVFF  54C,61D
09E2A:  CALL   2FF0
09E2E:  MOVFF  01,4D8
....................          write_eeprom(25,Entero); 
09E32:  CLRF   FAA
09E34:  MOVLW  19
09E36:  MOVWF  FA9
09E38:  MOVFF  4D7,FA8
09E3C:  BCF    FA6.6
09E3E:  BCF    FA6.7
09E40:  BSF    FA6.2
09E42:  MOVF   FF2,W
09E44:  MOVWF  00
09E46:  BCF    FF2.7
09E48:  MOVLB  F
09E4A:  MOVLW  55
09E4C:  MOVWF  FA7
09E4E:  MOVLW  AA
09E50:  MOVWF  FA7
09E52:  BSF    FA6.1
09E54:  BTFSC  FA6.1
09E56:  BRA    9E54
09E58:  BCF    FA6.2
09E5A:  MOVF   00,W
09E5C:  IORWF  FF2,F
....................          delay_ms(20); 
09E5E:  MOVLW  14
09E60:  MOVLB  6
09E62:  MOVWF  x00
09E64:  MOVLB  0
09E66:  CALL   14DC
....................          write_eeprom(26,Decimal1); 
09E6A:  CLRF   FAA
09E6C:  MOVLW  1A
09E6E:  MOVWF  FA9
09E70:  MOVFF  4D8,FA8
09E74:  BCF    FA6.6
09E76:  BCF    FA6.7
09E78:  BSF    FA6.2
09E7A:  MOVF   FF2,W
09E7C:  MOVWF  00
09E7E:  BCF    FF2.7
09E80:  MOVLB  F
09E82:  MOVLW  55
09E84:  MOVWF  FA7
09E86:  MOVLW  AA
09E88:  MOVWF  FA7
09E8A:  BSF    FA6.1
09E8C:  BTFSC  FA6.1
09E8E:  BRA    9E8C
09E90:  BCF    FA6.2
09E92:  MOVF   00,W
09E94:  IORWF  FF2,F
....................          delay_ms(20); 
09E96:  MOVLW  14
09E98:  MOVLB  6
09E9A:  MOVWF  x00
09E9C:  MOVLB  0
09E9E:  CALL   14DC
09EA2:  MOVLB  4
....................       } 
....................     } 
.................... //_--------------------------------------------------------------------------------------------------------------------------------------------------------        
....................  
.................... //_-------------------------------------------------------------------------------------------------------------------------------------------------------- 
....................       if(Menu==42){ //Menu de Sensor de Presin. 
09EA4:  MOVF   xCC,W
09EA6:  SUBLW  2A
09EA8:  BTFSS  FD8.2
09EAA:  BRA    A2DA
....................        
....................       if(Ajuste2>10.0) 
09EAC:  MOVLB  6
09EAE:  CLRF   x20
09EB0:  CLRF   x1F
09EB2:  MOVLW  20
09EB4:  MOVWF  x1E
09EB6:  MOVLW  82
09EB8:  MOVWF  x1D
09EBA:  MOVFF  547,624
09EBE:  MOVFF  546,623
09EC2:  MOVFF  545,622
09EC6:  MOVFF  544,621
09ECA:  MOVLB  0
09ECC:  CALL   2584
09ED0:  BNC   9EDE
....................          Ajuste2=0.0; 
09ED2:  MOVLB  5
09ED4:  CLRF   x47
09ED6:  CLRF   x46
09ED8:  CLRF   x45
09EDA:  CLRF   x44
09EDC:  MOVLB  0
....................        
....................       strcpy(Menus.Letra,"Sensor de Presion"); 
09EDE:  MOVLW  04
09EE0:  MOVWF  FEA
09EE2:  MOVLW  16
09EE4:  MOVWF  FE9
09EE6:  MOVFF  FF2,5EC
09EEA:  BCF    FF2.7
09EEC:  MOVLW  00
09EEE:  CALL   126E
09EF2:  TBLRD*-
09EF4:  TBLRD*+
09EF6:  MOVF   FF5,W
09EF8:  MOVWF  FEE
09EFA:  IORLW  00
09EFC:  BNZ   9EF4
09EFE:  MOVLB  5
09F00:  BTFSC  xEC.7
09F02:  BSF    FF2.7
....................       displayMenu(Menus.Letra,10,0,1,1); 
09F04:  MOVLW  04
09F06:  MOVWF  xF5
09F08:  MOVLW  16
09F0A:  MOVWF  xF4
09F0C:  MOVLW  0A
09F0E:  MOVWF  xF6
09F10:  CLRF   xF7
09F12:  MOVLW  01
09F14:  MOVWF  xF8
09F16:  MOVWF  xF9
09F18:  MOVLB  0
09F1A:  CALL   4E96
....................        
....................       glcd_text57(0, 12, ZFP, 1, ON); 
09F1E:  MOVLB  6
09F20:  CLRF   x05
09F22:  MOVLW  0C
09F24:  MOVWF  x06
09F26:  MOVLW  04
09F28:  MOVWF  x08
09F2A:  MOVLW  9A
09F2C:  MOVWF  x07
09F2E:  MOVLW  01
09F30:  MOVWF  x09
09F32:  MOVWF  x0A
09F34:  MOVLB  0
09F36:  CALL   1830
....................        
....................       glcd_text57(0, 20, ZA, 1, ON); 
09F3A:  MOVLB  6
09F3C:  CLRF   x05
09F3E:  MOVLW  14
09F40:  MOVWF  x06
09F42:  MOVLW  04
09F44:  MOVWF  x08
09F46:  MOVLW  82
09F48:  MOVWF  x07
09F4A:  MOVLW  01
09F4C:  MOVWF  x09
09F4E:  MOVWF  x0A
09F50:  MOVLB  0
09F52:  CALL   1830
....................        
....................       glcd_text57(0, 30, AJ, 1, ON);            
09F56:  MOVLB  6
09F58:  CLRF   x05
09F5A:  MOVLW  1E
09F5C:  MOVWF  x06
09F5E:  MOVLW  04
09F60:  MOVWF  x08
09F62:  MOVLW  8A
09F64:  MOVWF  x07
09F66:  MOVLW  01
09F68:  MOVWF  x09
09F6A:  MOVWF  x0A
09F6C:  MOVLB  0
09F6E:  CALL   1830
....................        
....................       displayfloat(G,44,20,0,1); 
09F72:  MOVFF  5D7,5F3
09F76:  MOVFF  5D6,5F2
09F7A:  MOVFF  5D5,5F1
09F7E:  MOVFF  5D4,5F0
09F82:  MOVLW  2C
09F84:  MOVLB  5
09F86:  MOVWF  xF4
09F88:  MOVLW  14
09F8A:  MOVWF  xF5
09F8C:  CLRF   xF6
09F8E:  MOVLW  01
09F90:  MOVWF  xF7
09F92:  MOVLB  0
09F94:  CALL   5FC2
....................       displayfloat(Ajuste2,44,30,0,1); 
09F98:  MOVFF  547,5F3
09F9C:  MOVFF  546,5F2
09FA0:  MOVFF  545,5F1
09FA4:  MOVFF  544,5F0
09FA8:  MOVLW  2C
09FAA:  MOVLB  5
09FAC:  MOVWF  xF4
09FAE:  MOVLW  1E
09FB0:  MOVWF  xF5
09FB2:  CLRF   xF6
09FB4:  MOVLW  01
09FB6:  MOVWF  xF7
09FB8:  MOVLB  0
09FBA:  CALL   5FC2
....................       displayfloat(Filtro_DownFlow_adc,0,40,0,1); 
09FBE:  MOVFF  4DD,622
09FC2:  MOVFF  4DC,621
09FC6:  CALL   19E8
09FCA:  MOVFF  00,5EC
09FCE:  MOVFF  01,5ED
09FD2:  MOVFF  02,5EE
09FD6:  MOVFF  03,5EF
09FDA:  MOVFF  03,5F3
09FDE:  MOVFF  02,5F2
09FE2:  MOVFF  01,5F1
09FE6:  MOVFF  00,5F0
09FEA:  MOVLB  5
09FEC:  CLRF   xF4
09FEE:  MOVLW  28
09FF0:  MOVWF  xF5
09FF2:  CLRF   xF6
09FF4:  MOVLW  01
09FF6:  MOVWF  xF7
09FF8:  MOVLB  0
09FFA:  CALL   5FC2
....................       displayfloat(Filtro_DownFlow,0,50,0,1); 
09FFE:  MOVFF  523,5F3
0A002:  MOVFF  522,5F2
0A006:  MOVFF  521,5F1
0A00A:  MOVFF  520,5F0
0A00E:  MOVLB  5
0A010:  CLRF   xF4
0A012:  MOVLW  32
0A014:  MOVWF  xF5
0A016:  CLRF   xF6
0A018:  MOVLW  01
0A01A:  MOVWF  xF7
0A01C:  MOVLB  0
0A01E:  CALL   5FC2
....................        
....................       if(UP)//Si oprime hacia arriba 
0A022:  BSF    F92.5
0A024:  BTFSC  F80.5
0A026:  BRA    A06E
....................       {   
....................          delay_ms(30);Ajuste2+=0.01; 
0A028:  MOVLW  1E
0A02A:  MOVLB  6
0A02C:  MOVWF  x00
0A02E:  MOVLB  0
0A030:  CALL   14DC
0A034:  BCF    FD8.1
0A036:  MOVFF  547,624
0A03A:  MOVFF  546,623
0A03E:  MOVFF  545,622
0A042:  MOVFF  544,621
0A046:  MOVLW  0A
0A048:  MOVLB  6
0A04A:  MOVWF  x28
0A04C:  MOVLW  D7
0A04E:  MOVWF  x27
0A050:  MOVLW  23
0A052:  MOVWF  x26
0A054:  MOVLW  78
0A056:  MOVWF  x25
0A058:  MOVLB  0
0A05A:  CALL   1B7C
0A05E:  MOVFF  03,547
0A062:  MOVFF  02,546
0A066:  MOVFF  01,545
0A06A:  MOVFF  00,544
....................       } 
....................              
....................       if(DOWN)//Si oprime hacia abajo 
0A06E:  BSF    F96.0
0A070:  BTFSC  F84.0
0A072:  BRA    A0BA
....................       {   
....................          delay_ms(30);Ajuste2-=0.01; 
0A074:  MOVLW  1E
0A076:  MOVLB  6
0A078:  MOVWF  x00
0A07A:  MOVLB  0
0A07C:  CALL   14DC
0A080:  BSF    FD8.1
0A082:  MOVFF  547,624
0A086:  MOVFF  546,623
0A08A:  MOVFF  545,622
0A08E:  MOVFF  544,621
0A092:  MOVLW  0A
0A094:  MOVLB  6
0A096:  MOVWF  x28
0A098:  MOVLW  D7
0A09A:  MOVWF  x27
0A09C:  MOVLW  23
0A09E:  MOVWF  x26
0A0A0:  MOVLW  78
0A0A2:  MOVWF  x25
0A0A4:  MOVLB  0
0A0A6:  CALL   1B7C
0A0AA:  MOVFF  03,547
0A0AE:  MOVFF  02,546
0A0B2:  MOVFF  01,545
0A0B6:  MOVFF  00,544
....................       } 
....................              
....................       if(RIGHT)//Si oprime SET 
0A0BA:  BSF    F96.1
0A0BC:  BTFSC  F84.1
0A0BE:  BRA    A172
....................       {            
....................          G=Filtro_Downflow_adc; 
0A0C0:  MOVFF  4DD,622
0A0C4:  MOVFF  4DC,621
0A0C8:  CALL   19E8
0A0CC:  MOVFF  03,5D7
0A0D0:  MOVFF  02,5D6
0A0D4:  MOVFF  01,5D5
0A0D8:  MOVFF  00,5D4
....................          G16=(int16)G; 
0A0DC:  MOVFF  5D7,620
0A0E0:  MOVFF  5D6,61F
0A0E4:  MOVFF  5D5,61E
0A0E8:  MOVFF  5D4,61D
0A0EC:  CALL   2FF0
0A0F0:  MOVFF  02,4E9
0A0F4:  MOVFF  01,4E8
....................          G_l=G16; G_h=(G16>>8); 
0A0F8:  MOVFF  4E8,4D0
0A0FC:  MOVFF  4E9,4D1
....................              
....................          write_eeprom(62,G_l); 
0A100:  CLRF   FAA
0A102:  MOVLW  3E
0A104:  MOVWF  FA9
0A106:  MOVFF  4D0,FA8
0A10A:  BCF    FA6.6
0A10C:  BCF    FA6.7
0A10E:  BSF    FA6.2
0A110:  MOVF   FF2,W
0A112:  MOVWF  00
0A114:  BCF    FF2.7
0A116:  MOVLB  F
0A118:  MOVLW  55
0A11A:  MOVWF  FA7
0A11C:  MOVLW  AA
0A11E:  MOVWF  FA7
0A120:  BSF    FA6.1
0A122:  BTFSC  FA6.1
0A124:  BRA    A122
0A126:  BCF    FA6.2
0A128:  MOVF   00,W
0A12A:  IORWF  FF2,F
....................          delay_ms(20); 
0A12C:  MOVLW  14
0A12E:  MOVLB  6
0A130:  MOVWF  x00
0A132:  MOVLB  0
0A134:  CALL   14DC
....................          write_eeprom(63,G_h);//Guardar valor de Setpoint en eeprom 
0A138:  CLRF   FAA
0A13A:  MOVLW  3F
0A13C:  MOVWF  FA9
0A13E:  MOVFF  4D1,FA8
0A142:  BCF    FA6.6
0A144:  BCF    FA6.7
0A146:  BSF    FA6.2
0A148:  MOVF   FF2,W
0A14A:  MOVWF  00
0A14C:  BCF    FF2.7
0A14E:  MOVLB  F
0A150:  MOVLW  55
0A152:  MOVWF  FA7
0A154:  MOVLW  AA
0A156:  MOVWF  FA7
0A158:  BSF    FA6.1
0A15A:  BTFSC  FA6.1
0A15C:  BRA    A15A
0A15E:  BCF    FA6.2
0A160:  MOVF   00,W
0A162:  IORWF  FF2,F
....................          delay_ms(20); 
0A164:  MOVLW  14
0A166:  MOVLB  6
0A168:  MOVWF  x00
0A16A:  MOVLB  0
0A16C:  CALL   14DC
....................       } 
....................          else 
0A170:  BRA    A178
....................             {Flanco1 = 0;}   
0A172:  MOVLB  4
0A174:  BCF    x2C.1
0A176:  MOVLB  0
....................              
....................       if(LEFT)//Si oprime boton de Toma. 
0A178:  BSF    F96.2
0A17A:  BTFSC  F84.2
0A17C:  BRA    A2D8
....................       {                   
....................          delay_ms(700);Menu=32;glcd_fillscreen(OFF);Opcion=1;unidad=1; 
0A17E:  MOVLW  04
0A180:  MOVLB  5
0A182:  MOVWF  xEC
0A184:  MOVLW  AF
0A186:  MOVLB  6
0A188:  MOVWF  x00
0A18A:  MOVLB  0
0A18C:  CALL   14DC
0A190:  MOVLB  5
0A192:  DECFSZ xEC,F
0A194:  BRA    A184
0A196:  MOVLW  20
0A198:  MOVLB  4
0A19A:  MOVWF  xCC
0A19C:  MOVLB  5
0A19E:  CLRF   xF4
0A1A0:  MOVLB  0
0A1A2:  CALL   15BA
0A1A6:  MOVLW  01
0A1A8:  MOVLB  4
0A1AA:  MOVWF  xCE
0A1AC:  MOVWF  xCD
....................          Temporal=Ajuste2; 
0A1AE:  MOVFF  547,54B
0A1B2:  MOVFF  546,54A
0A1B6:  MOVFF  545,549
0A1BA:  MOVFF  544,548
....................          Entero=(int)Ajuste2; 
0A1BE:  MOVFF  547,620
0A1C2:  MOVFF  546,61F
0A1C6:  MOVFF  545,61E
0A1CA:  MOVFF  544,61D
0A1CE:  MOVLB  0
0A1D0:  CALL   2FF0
0A1D4:  MOVFF  01,4D7
....................          Temporal=Temporal-Entero; 
0A1D8:  MOVLB  6
0A1DA:  CLRF   x22
0A1DC:  MOVFF  4D7,621
0A1E0:  MOVLB  0
0A1E2:  CALL   19E8
0A1E6:  BSF    FD8.1
0A1E8:  MOVFF  54B,624
0A1EC:  MOVFF  54A,623
0A1F0:  MOVFF  549,622
0A1F4:  MOVFF  548,621
0A1F8:  MOVFF  03,628
0A1FC:  MOVFF  02,627
0A200:  MOVFF  01,626
0A204:  MOVFF  00,625
0A208:  CALL   1B7C
0A20C:  MOVFF  03,54B
0A210:  MOVFF  02,54A
0A214:  MOVFF  01,549
0A218:  MOVFF  00,548
....................          Temporal2=Temporal*10.0; 
0A21C:  MOVFF  54B,620
0A220:  MOVFF  54A,61F
0A224:  MOVFF  549,61E
0A228:  MOVFF  548,61D
0A22C:  MOVLB  6
0A22E:  CLRF   x24
0A230:  CLRF   x23
0A232:  MOVLW  20
0A234:  MOVWF  x22
0A236:  MOVLW  82
0A238:  MOVWF  x21
0A23A:  MOVLB  0
0A23C:  CALL   302C
0A240:  MOVFF  03,54F
0A244:  MOVFF  02,54E
0A248:  MOVFF  01,54D
0A24C:  MOVFF  00,54C
....................          Decimal1=(int8)Temporal2; 
0A250:  MOVFF  54F,620
0A254:  MOVFF  54E,61F
0A258:  MOVFF  54D,61E
0A25C:  MOVFF  54C,61D
0A260:  CALL   2FF0
0A264:  MOVFF  01,4D8
....................          write_eeprom(27,Entero); 
0A268:  CLRF   FAA
0A26A:  MOVLW  1B
0A26C:  MOVWF  FA9
0A26E:  MOVFF  4D7,FA8
0A272:  BCF    FA6.6
0A274:  BCF    FA6.7
0A276:  BSF    FA6.2
0A278:  MOVF   FF2,W
0A27A:  MOVWF  00
0A27C:  BCF    FF2.7
0A27E:  MOVLB  F
0A280:  MOVLW  55
0A282:  MOVWF  FA7
0A284:  MOVLW  AA
0A286:  MOVWF  FA7
0A288:  BSF    FA6.1
0A28A:  BTFSC  FA6.1
0A28C:  BRA    A28A
0A28E:  BCF    FA6.2
0A290:  MOVF   00,W
0A292:  IORWF  FF2,F
....................          delay_ms(20); 
0A294:  MOVLW  14
0A296:  MOVLB  6
0A298:  MOVWF  x00
0A29A:  MOVLB  0
0A29C:  CALL   14DC
....................          write_eeprom(28,Decimal1); 
0A2A0:  CLRF   FAA
0A2A2:  MOVLW  1C
0A2A4:  MOVWF  FA9
0A2A6:  MOVFF  4D8,FA8
0A2AA:  BCF    FA6.6
0A2AC:  BCF    FA6.7
0A2AE:  BSF    FA6.2
0A2B0:  MOVF   FF2,W
0A2B2:  MOVWF  00
0A2B4:  BCF    FF2.7
0A2B6:  MOVLB  F
0A2B8:  MOVLW  55
0A2BA:  MOVWF  FA7
0A2BC:  MOVLW  AA
0A2BE:  MOVWF  FA7
0A2C0:  BSF    FA6.1
0A2C2:  BTFSC  FA6.1
0A2C4:  BRA    A2C2
0A2C6:  BCF    FA6.2
0A2C8:  MOVF   00,W
0A2CA:  IORWF  FF2,F
....................          delay_ms(20); 
0A2CC:  MOVLW  14
0A2CE:  MOVLB  6
0A2D0:  MOVWF  x00
0A2D2:  MOVLB  0
0A2D4:  CALL   14DC
0A2D8:  MOVLB  4
....................       } 
....................     } 
.................... //_--------------------------------------------------------------------------------------------------------------------------------------------------------        
....................  
.................... //_-------------------------------------------------------------------------------------------------------------------------------------------------------- 
....................       if(Menu==43){ //Menu de Velocidad de Motor 
0A2DA:  MOVF   xCC,W
0A2DC:  SUBLW  2B
0A2DE:  BTFSS  FD8.2
0A2E0:  BRA    A4B2
....................        
....................       if(VelMotor>6)VelMotor=6; 
0A2E2:  MOVLB  5
0A2E4:  MOVF   xE3,W
0A2E6:  SUBLW  06
0A2E8:  BC    A2EE
0A2EA:  MOVLW  06
0A2EC:  MOVWF  xE3
....................        
....................       strcpy(Menus.Letra,"Seleccion Vel"); 
0A2EE:  MOVLW  04
0A2F0:  MOVWF  FEA
0A2F2:  MOVLW  16
0A2F4:  MOVWF  FE9
0A2F6:  MOVFF  FF2,5EC
0A2FA:  BCF    FF2.7
0A2FC:  MOVLW  00
0A2FE:  MOVLB  0
0A300:  CALL   12CA
0A304:  TBLRD*-
0A306:  TBLRD*+
0A308:  MOVF   FF5,W
0A30A:  MOVWF  FEE
0A30C:  IORLW  00
0A30E:  BNZ   A306
0A310:  MOVLB  5
0A312:  BTFSC  xEC.7
0A314:  BSF    FF2.7
....................       displayMenu(Menus.Letra,10,0,1,1); 
0A316:  MOVLW  04
0A318:  MOVWF  xF5
0A31A:  MOVLW  16
0A31C:  MOVWF  xF4
0A31E:  MOVLW  0A
0A320:  MOVWF  xF6
0A322:  CLRF   xF7
0A324:  MOVLW  01
0A326:  MOVWF  xF8
0A328:  MOVWF  xF9
0A32A:  MOVLB  0
0A32C:  CALL   4E96
....................        
....................       displayTiempo(VelMotor,50,40,1,2); 
0A330:  MOVFF  5E3,5EC
0A334:  MOVLW  32
0A336:  MOVLB  5
0A338:  MOVWF  xED
0A33A:  MOVLW  28
0A33C:  MOVWF  xEE
0A33E:  MOVLW  01
0A340:  MOVWF  xEF
0A342:  MOVLW  02
0A344:  MOVWF  xF0
0A346:  MOVLB  0
0A348:  CALL   5658
....................        
....................       if(UP && VelMotor<6)//Si oprime hacia arriba 
0A34C:  BSF    F92.5
0A34E:  BTFSC  F80.5
0A350:  BRA    A372
0A352:  MOVLB  5
0A354:  MOVF   xE3,W
0A356:  SUBLW  05
0A358:  BTFSC  FD8.0
0A35A:  BRA    A360
0A35C:  MOVLB  0
0A35E:  BRA    A372
....................       {   
....................          delay_ms(200);VelMotor++; 
0A360:  MOVLW  C8
0A362:  MOVLB  6
0A364:  MOVWF  x00
0A366:  MOVLB  0
0A368:  CALL   14DC
0A36C:  MOVLB  5
0A36E:  INCF   xE3,F
0A370:  MOVLB  0
....................       } 
....................              
....................       if(DOWN && VelMotor>0)//Si oprime hacia abajo 
0A372:  BSF    F96.0
0A374:  BTFSC  F84.0
0A376:  BRA    A396
0A378:  MOVLB  5
0A37A:  MOVF   xE3,F
0A37C:  BTFSS  FD8.2
0A37E:  BRA    A384
0A380:  MOVLB  0
0A382:  BRA    A396
....................       {   
....................          delay_ms(200);VelMotor--; 
0A384:  MOVLW  C8
0A386:  MOVLB  6
0A388:  MOVWF  x00
0A38A:  MOVLB  0
0A38C:  CALL   14DC
0A390:  MOVLB  5
0A392:  DECF   xE3,F
0A394:  MOVLB  0
....................       } 
....................              
....................       if(RIGHT)//Si oprime SET 
0A396:  BSF    F96.1
0A398:  BTFSC  F84.1
0A39A:  BRA    A3A4
....................       {            
....................          VelocidadMotor(VelMotor); 
0A39C:  MOVFF  5E3,5EC
0A3A0:  CALL   1502
....................       }  
....................              
....................       if(LEFT)//Si oprime boton de Toma. 
0A3A4:  BSF    F96.2
0A3A6:  BTFSC  F84.2
0A3A8:  BRA    A4B4
....................       {                   
....................          delay_ms(100);glcd_fillscreen(OFF);Opcion=1;unidad=1; 
0A3AA:  MOVLW  64
0A3AC:  MOVLB  6
0A3AE:  MOVWF  x00
0A3B0:  MOVLB  0
0A3B2:  CALL   14DC
0A3B6:  MOVLB  5
0A3B8:  CLRF   xF4
0A3BA:  MOVLB  0
0A3BC:  CALL   15BA
0A3C0:  MOVLW  01
0A3C2:  MOVLB  4
0A3C4:  MOVWF  xCE
0A3C6:  MOVWF  xCD
....................          write_eeprom(32,VelMotor);//Guardar valor de Setpoint en eeprom 
0A3C8:  CLRF   FAA
0A3CA:  MOVLW  20
0A3CC:  MOVWF  FA9
0A3CE:  MOVFF  5E3,FA8
0A3D2:  BCF    FA6.6
0A3D4:  BCF    FA6.7
0A3D6:  BSF    FA6.2
0A3D8:  MOVF   FF2,W
0A3DA:  MOVWF  00
0A3DC:  BCF    FF2.7
0A3DE:  MOVLB  F
0A3E0:  MOVLW  55
0A3E2:  MOVWF  FA7
0A3E4:  MOVLW  AA
0A3E6:  MOVWF  FA7
0A3E8:  BSF    FA6.1
0A3EA:  BTFSC  FA6.1
0A3EC:  BRA    A3EA
0A3EE:  BCF    FA6.2
0A3F0:  MOVF   00,W
0A3F2:  IORWF  FF2,F
....................          delay_ms(20); 
0A3F4:  MOVLW  14
0A3F6:  MOVLB  6
0A3F8:  MOVWF  x00
0A3FA:  MOVLB  0
0A3FC:  CALL   14DC
....................          glcd_fillScreen(OFF); 
0A400:  MOVLB  5
0A402:  CLRF   xF4
0A404:  MOVLB  0
0A406:  CALL   15BA
....................          strcpy(Menus.Letra,"Velocidad"); 
0A40A:  MOVLW  04
0A40C:  MOVWF  FEA
0A40E:  MOVLW  16
0A410:  MOVWF  FE9
0A412:  MOVFF  FF2,5EC
0A416:  BCF    FF2.7
0A418:  MOVLW  00
0A41A:  CALL   12F2
0A41E:  TBLRD*-
0A420:  TBLRD*+
0A422:  MOVF   FF5,W
0A424:  MOVWF  FEE
0A426:  IORLW  00
0A428:  BNZ   A420
0A42A:  MOVLB  5
0A42C:  BTFSC  xEC.7
0A42E:  BSF    FF2.7
....................          displayMenu(Menus.Letra,0,0,0,2); 
0A430:  MOVLW  04
0A432:  MOVWF  xF5
0A434:  MOVLW  16
0A436:  MOVWF  xF4
0A438:  CLRF   xF6
0A43A:  CLRF   xF7
0A43C:  CLRF   xF8
0A43E:  MOVLW  02
0A440:  MOVWF  xF9
0A442:  MOVLB  0
0A444:  CALL   4E96
....................          strcpy(Menus.Letra,"Guardada"); 
0A448:  MOVLW  04
0A44A:  MOVWF  FEA
0A44C:  MOVLW  16
0A44E:  MOVWF  FE9
0A450:  MOVFF  FF2,5EC
0A454:  BCF    FF2.7
0A456:  MOVLW  00
0A458:  CALL   1316
0A45C:  TBLRD*-
0A45E:  TBLRD*+
0A460:  MOVF   FF5,W
0A462:  MOVWF  FEE
0A464:  IORLW  00
0A466:  BNZ   A45E
0A468:  MOVLB  5
0A46A:  BTFSC  xEC.7
0A46C:  BSF    FF2.7
....................          displayMenu(Menus.Letra,0,30,0,2); 
0A46E:  MOVLW  04
0A470:  MOVWF  xF5
0A472:  MOVLW  16
0A474:  MOVWF  xF4
0A476:  CLRF   xF6
0A478:  MOVLW  1E
0A47A:  MOVWF  xF7
0A47C:  CLRF   xF8
0A47E:  MOVLW  02
0A480:  MOVWF  xF9
0A482:  MOVLB  0
0A484:  CALL   4E96
....................          glcd_update(); 
0A488:  CALL   1614
....................          delay_ms(1000); 
0A48C:  MOVLW  04
0A48E:  MOVLB  5
0A490:  MOVWF  xEC
0A492:  MOVLW  FA
0A494:  MOVLB  6
0A496:  MOVWF  x00
0A498:  MOVLB  0
0A49A:  CALL   14DC
0A49E:  MOVLB  5
0A4A0:  DECFSZ xEC,F
0A4A2:  BRA    A492
....................          glcd_fillScreen(OFF); 
0A4A4:  CLRF   xF4
0A4A6:  MOVLB  0
0A4A8:  CALL   15BA
....................          Menu=32; 
0A4AC:  MOVLW  20
0A4AE:  MOVLB  4
0A4B0:  MOVWF  xCC
0A4B2:  MOVLB  0
....................       } 
....................     } 
.................... //_--------------------------------------------------------------------------------------------------------------------------------------------------------        
....................  
....................    if(tiemporeset>=60) 
0A4B4:  MOVLB  4
0A4B6:  MOVF   xD2,W
0A4B8:  SUBLW  3B
0A4BA:  BC    A4D2
....................    { 
....................       if(Menu!=200){ 
0A4BC:  MOVF   xCC,W
0A4BE:  SUBLW  C8
0A4C0:  BZ    A4D2
....................          glcd_init(ON); 
0A4C2:  MOVLW  01
0A4C4:  MOVLB  5
0A4C6:  MOVWF  xEC
0A4C8:  MOVLB  0
0A4CA:  CALL   16CC
....................          tiemporeset=0; 
0A4CE:  MOVLB  4
0A4D0:  CLRF   xD2
....................       } 
....................    }  
.................... } 
0A4D2:  MOVLB  0
0A4D4:  GOTO   6706
....................  
.................... } 
....................  
0A4D8:  SLEEP 

Configuration Fuses:
   Word  1: 0200   HS NOIESO NOFCMEN
   Word  2: 1E1F   BROWNOUT NOWDT BORV21 NOPUT WDT32768
   Word  3: 0100   CCP2C1 NOPBADEN NOLPT1OSC NOMCLR
   Word  4: 0080   NOSTVREN NODEBUG NOLVP NOXINST
   Word  5: C00F   NOPROTECT NOCPD NOCPB
   Word  6: E00F   NOWRT NOWRTD NOWRTC NOWRTB
   Word  7: 400F   NOEBTR NOEBTRB
