CCS PCH C Compiler, Version 4.104, 5967               19-oct.-20 11:29

               Filename: D:\Laboratorio\Cabina de PCR\2020\CPCR180 GLCD Diagnostic Medical Lab  #0045883XX OP2020308\Firmware - 18F4685 -MPXV5004DP\Maestro_v2.lst

               ROM used: 42194 bytes (43%)
                         Largest free fragment is 32768
               RAM used: 1519 (46%) at main() level
                         1586 (48%) worst case
               Stack:    8 worst case (6 in main + 2 for interrupts)

*
00000:  GOTO   60BE
*
00008:  MOVWF  04
0000A:  MOVFF  FD8,05
0000E:  MOVFF  FE0,06
00012:  MOVLB  0
00014:  MOVFF  FE9,0C
00018:  MOVFF  FEA,07
0001C:  MOVFF  FE1,08
00020:  MOVFF  FE2,09
00024:  MOVFF  FD9,0A
00028:  MOVFF  FDA,0B
0002C:  MOVFF  FF3,12
00030:  MOVFF  FF4,13
00034:  MOVFF  FFA,14
00038:  MOVFF  FFB,15
0003C:  MOVFF  00,0E
00040:  MOVFF  01,0F
00044:  MOVFF  02,10
00048:  MOVFF  03,11
0004C:  BTFSS  FF2.4
0004E:  GOTO   0058
00052:  BTFSC  FF2.1
00054:  GOTO   13E6
00058:  MOVFF  0E,00
0005C:  MOVFF  0F,01
00060:  MOVFF  10,02
00064:  MOVFF  11,03
00068:  MOVFF  0C,FE9
0006C:  MOVFF  07,FEA
00070:  BSF    07.7
00072:  MOVFF  08,FE1
00076:  MOVFF  09,FE2
0007A:  MOVFF  0A,FD9
0007E:  MOVFF  0B,FDA
00082:  MOVFF  12,FF3
00086:  MOVFF  13,FF4
0008A:  MOVFF  14,FFA
0008E:  MOVFF  15,FFB
00092:  MOVF   04,W
00094:  MOVFF  06,FE0
00098:  MOVFF  05,FD8
0009C:  RETFIE 0
.................... //Programa para Cabina de Bioseguridad 
....................  
.................... #include <18F4685.h> 
.................... //////// Standard Header file for the PIC18F4685 device //////////////// 
.................... #device PIC18F4685 
.................... #list 
....................  
.................... #device adc=10 
.................... #fuses HS,NOWDT,NOPROTECT,NOLVP,NODEBUG,NOSTVREN,NOPUT,NOCPD,NOWRT,NOIESO,NOFCMEN,NOPBADEN,NOWRTC,NOWRTB,NOEBTR,NOEBTRB,NOCPB,NOXINST,NOLPT1OSC,NOMCLR 
.................... #use delay(clock=20000000) 
*
013C6:  MOVLW  03
013C8:  MOVLB  6
013CA:  SUBWF  x31,F
013CC:  BNC   13E2
013CE:  MOVLW  06
013D0:  MOVWF  FEA
013D2:  MOVLW  31
013D4:  MOVWF  FE9
013D6:  MOVF   FEF,W
013D8:  BZ    13E2
013DA:  BRA    13DE
013DC:  BRA    13DE
013DE:  DECFSZ FEF,F
013E0:  BRA    13DC
013E2:  MOVLB  0
013E4:  RETLW  00
*
0154C:  MOVLW  05
0154E:  MOVWF  FEA
01550:  MOVLW  FF
01552:  MOVWF  FE9
01554:  MOVF   FEF,W
01556:  BZ    1572
01558:  MOVLW  06
0155A:  MOVWF  01
0155C:  CLRF   00
0155E:  DECFSZ 00,F
01560:  BRA    155E
01562:  DECFSZ 01,F
01564:  BRA    155C
01566:  MOVLW  7B
01568:  MOVWF  00
0156A:  DECFSZ 00,F
0156C:  BRA    156A
0156E:  DECFSZ FEF,F
01570:  BRA    1558
01572:  RETLW  00
.................... #include <MATH.h> 
.................... //////////////////////////////////////////////////////////////////////////// 
.................... ////        (C) Copyright 1996,2008 Custom Computer Services            //// 
.................... //// This source code may only be used by licensed users of the CCS C   //// 
.................... //// compiler.  This source code may only be distributed to other       //// 
.................... //// licensed users of the CCS C compiler.  No other use, reproduction  //// 
.................... //// or distribution is permitted without written permission.           //// 
.................... //// Derivative programs created using this software in object code     //// 
.................... //// form are not restricted in any way.                                //// 
.................... //////////////////////////////////////////////////////////////////////////// 
.................... ////                                                                    //// 
.................... //// History:                                                           //// 
.................... ////  * 9/20/2001 :  Improvments are made to sin/cos code.              //// 
.................... ////                 The code now is small, much faster,                //// 
.................... ////                 and more accurate.                                 //// 
.................... ////  * 2/21/2007 :  Compiler handles & operator differently and does 
.................... ////                 not return generic (int8 *) so type cast is done   //// 
.................... ////                                                                    //// 
.................... //////////////////////////////////////////////////////////////////////////// 
....................  
.................... #ifndef MATH_H 
.................... #define MATH_H 
....................  
.................... #ifdef PI 
.................... #undef  PI 
.................... #endif 
.................... #define PI     3.1415926535897932 
....................  
....................  
.................... #define SQRT2  1.4142135623730950 
....................  
.................... //float const ps[4] = {5.9304945, 21.125224, 8.9403076, 0.29730279}; 
.................... //float const qs[4] = {1.0000000, 15.035723, 17.764134, 2.4934718}; 
....................  
.................... ///////////////////////////// Round Functions ////////////////////////////// 
....................  
.................... float32 CEIL_FLOOR(float32 x, unsigned int8 n) 
.................... { 
....................    float32 y, res; 
....................    unsigned int16 l; 
....................    int1 s; 
....................  
....................    s = 0; 
*
03172:  MOVLB  6
03174:  BCF    x1B.0
....................    y = x; 
03176:  MOVFF  60F,614
0317A:  MOVFF  60E,613
0317E:  MOVFF  60D,612
03182:  MOVFF  60C,611
....................  
....................    if (x < 0) 
03186:  MOVFF  60F,61F
0318A:  MOVFF  60E,61E
0318E:  MOVFF  60D,61D
03192:  MOVFF  60C,61C
03196:  CLRF   x23
03198:  CLRF   x22
0319A:  CLRF   x21
0319C:  CLRF   x20
0319E:  MOVLB  0
031A0:  CALL   25D6
031A4:  BNC   31B0
....................    { 
....................       s = 1; 
031A6:  MOVLB  6
031A8:  BSF    x1B.0
....................       y = -y; 
031AA:  MOVF   x12,W
031AC:  XORLW  80
031AE:  MOVWF  x12
....................    } 
....................  
....................    if (y <= 32768.0) 
031B0:  MOVFF  614,61F
031B4:  MOVFF  613,61E
031B8:  MOVFF  612,61D
031BC:  MOVFF  611,61C
031C0:  MOVLB  6
031C2:  CLRF   x23
031C4:  CLRF   x22
031C6:  CLRF   x21
031C8:  MOVLW  8E
031CA:  MOVWF  x20
031CC:  MOVLB  0
031CE:  CALL   25D6
031D2:  BC    31D6
031D4:  BNZ   3206
....................   res = (float32)(unsigned int16)y; 
031D6:  MOVFF  614,61F
031DA:  MOVFF  613,61E
031DE:  MOVFF  612,61D
031E2:  MOVFF  611,61C
031E6:  RCALL  3040
031E8:  MOVFF  02,621
031EC:  MOVFF  01,620
031F0:  CALL   1A5A
031F4:  MOVFF  03,618
031F8:  MOVFF  02,617
031FC:  MOVFF  01,616
03200:  MOVFF  00,615
....................  
....................  else if (y < 10000000.0) 
03204:  BRA    33A4
03206:  MOVFF  614,61F
0320A:  MOVFF  613,61E
0320E:  MOVFF  612,61D
03212:  MOVFF  611,61C
03216:  MOVLW  80
03218:  MOVLB  6
0321A:  MOVWF  x23
0321C:  MOVLW  96
0321E:  MOVWF  x22
03220:  MOVLW  18
03222:  MOVWF  x21
03224:  MOVLW  96
03226:  MOVWF  x20
03228:  MOVLB  0
0322A:  CALL   25D6
0322E:  BTFSS  FD8.0
03230:  BRA    3394
....................    { 
....................   l = (unsigned int16)(y/32768.0); 
03232:  MOVFF  614,61F
03236:  MOVFF  613,61E
0323A:  MOVFF  612,61D
0323E:  MOVFF  611,61C
03242:  MOVLB  6
03244:  CLRF   x23
03246:  CLRF   x22
03248:  CLRF   x21
0324A:  MOVLW  8E
0324C:  MOVWF  x20
0324E:  MOVLB  0
03250:  CALL   1A90
03254:  MOVFF  03,61F
03258:  MOVFF  02,61E
0325C:  MOVFF  01,61D
03260:  MOVFF  00,61C
03264:  RCALL  3040
03266:  MOVFF  02,61A
0326A:  MOVFF  01,619
....................       y = 32768.0*(y/32768.0 - (float32)l); 
0326E:  MOVFF  614,61F
03272:  MOVFF  613,61E
03276:  MOVFF  612,61D
0327A:  MOVFF  611,61C
0327E:  MOVLB  6
03280:  CLRF   x23
03282:  CLRF   x22
03284:  CLRF   x21
03286:  MOVLW  8E
03288:  MOVWF  x20
0328A:  MOVLB  0
0328C:  CALL   1A90
03290:  MOVFF  00,61C
03294:  MOVFF  01,61D
03298:  MOVFF  02,61E
0329C:  MOVFF  03,61F
032A0:  MOVFF  61A,621
032A4:  MOVFF  619,620
032A8:  CALL   1A5A
032AC:  BSF    FD8.1
032AE:  MOVFF  61F,623
032B2:  MOVFF  61E,622
032B6:  MOVFF  61D,621
032BA:  MOVFF  61C,620
032BE:  MOVFF  03,627
032C2:  MOVFF  02,626
032C6:  MOVFF  01,625
032CA:  MOVFF  00,624
032CE:  CALL   1BEE
032D2:  MOVLB  6
032D4:  CLRF   x1F
032D6:  CLRF   x1E
032D8:  CLRF   x1D
032DA:  MOVLW  8E
032DC:  MOVWF  x1C
032DE:  MOVFF  03,623
032E2:  MOVFF  02,622
032E6:  MOVFF  01,621
032EA:  MOVFF  00,620
032EE:  MOVLB  0
032F0:  RCALL  307C
032F2:  MOVFF  03,614
032F6:  MOVFF  02,613
032FA:  MOVFF  01,612
032FE:  MOVFF  00,611
....................   res = 32768.0*(float32)l; 
03302:  MOVFF  61A,621
03306:  MOVFF  619,620
0330A:  CALL   1A5A
0330E:  MOVLB  6
03310:  CLRF   x1F
03312:  CLRF   x1E
03314:  CLRF   x1D
03316:  MOVLW  8E
03318:  MOVWF  x1C
0331A:  MOVFF  03,623
0331E:  MOVFF  02,622
03322:  MOVFF  01,621
03326:  MOVFF  00,620
0332A:  MOVLB  0
0332C:  RCALL  307C
0332E:  MOVFF  03,618
03332:  MOVFF  02,617
03336:  MOVFF  01,616
0333A:  MOVFF  00,615
....................   res += (float32)(unsigned int16)y; 
0333E:  MOVFF  614,61F
03342:  MOVFF  613,61E
03346:  MOVFF  612,61D
0334A:  MOVFF  611,61C
0334E:  RCALL  3040
03350:  MOVFF  02,621
03354:  MOVFF  01,620
03358:  CALL   1A5A
0335C:  BCF    FD8.1
0335E:  MOVFF  618,623
03362:  MOVFF  617,622
03366:  MOVFF  616,621
0336A:  MOVFF  615,620
0336E:  MOVFF  03,627
03372:  MOVFF  02,626
03376:  MOVFF  01,625
0337A:  MOVFF  00,624
0337E:  CALL   1BEE
03382:  MOVFF  03,618
03386:  MOVFF  02,617
0338A:  MOVFF  01,616
0338E:  MOVFF  00,615
....................  } 
....................  
....................  else 
03392:  BRA    33A4
....................   res = y; 
03394:  MOVFF  614,618
03398:  MOVFF  613,617
0339C:  MOVFF  612,616
033A0:  MOVFF  611,615
....................  
....................  y = y - (float32)(unsigned int16)y; 
033A4:  MOVFF  614,61F
033A8:  MOVFF  613,61E
033AC:  MOVFF  612,61D
033B0:  MOVFF  611,61C
033B4:  RCALL  3040
033B6:  MOVFF  02,621
033BA:  MOVFF  01,620
033BE:  CALL   1A5A
033C2:  BSF    FD8.1
033C4:  MOVFF  614,623
033C8:  MOVFF  613,622
033CC:  MOVFF  612,621
033D0:  MOVFF  611,620
033D4:  MOVFF  03,627
033D8:  MOVFF  02,626
033DC:  MOVFF  01,625
033E0:  MOVFF  00,624
033E4:  CALL   1BEE
033E8:  MOVFF  03,614
033EC:  MOVFF  02,613
033F0:  MOVFF  01,612
033F4:  MOVFF  00,611
....................  
....................  if (s) 
033F8:  MOVLB  6
033FA:  BTFSS  x1B.0
033FC:  BRA    3404
....................   res = -res; 
033FE:  MOVF   x16,W
03400:  XORLW  80
03402:  MOVWF  x16
....................  
....................  if (y != 0) 
03404:  MOVFF  614,61F
03408:  MOVFF  613,61E
0340C:  MOVFF  612,61D
03410:  MOVFF  611,61C
03414:  CLRF   x23
03416:  CLRF   x22
03418:  CLRF   x21
0341A:  CLRF   x20
0341C:  MOVLB  0
0341E:  CALL   25D6
03422:  BZ    349C
....................  { 
....................   if (s == 1 && n == 0) 
03424:  MOVLB  6
03426:  BTFSS  x1B.0
03428:  BRA    3462
0342A:  MOVF   x10,F
0342C:  BNZ   3462
....................    res -= 1.0; 
0342E:  BSF    FD8.1
03430:  MOVFF  618,623
03434:  MOVFF  617,622
03438:  MOVFF  616,621
0343C:  MOVFF  615,620
03440:  CLRF   x27
03442:  CLRF   x26
03444:  CLRF   x25
03446:  MOVLW  7F
03448:  MOVWF  x24
0344A:  MOVLB  0
0344C:  CALL   1BEE
03450:  MOVFF  03,618
03454:  MOVFF  02,617
03458:  MOVFF  01,616
0345C:  MOVFF  00,615
03460:  MOVLB  6
....................  
....................   if (s == 0 && n == 1) 
03462:  BTFSC  x1B.0
03464:  BRA    349E
03466:  DECFSZ x10,W
03468:  BRA    349E
....................    res += 1.0; 
0346A:  BCF    FD8.1
0346C:  MOVFF  618,623
03470:  MOVFF  617,622
03474:  MOVFF  616,621
03478:  MOVFF  615,620
0347C:  CLRF   x27
0347E:  CLRF   x26
03480:  CLRF   x25
03482:  MOVLW  7F
03484:  MOVWF  x24
03486:  MOVLB  0
03488:  CALL   1BEE
0348C:  MOVFF  03,618
03490:  MOVFF  02,617
03494:  MOVFF  01,616
03498:  MOVFF  00,615
0349C:  MOVLB  6
....................  } 
....................  if (x == 0) 
0349E:  MOVFF  60F,61F
034A2:  MOVFF  60E,61E
034A6:  MOVFF  60D,61D
034AA:  MOVFF  60C,61C
034AE:  CLRF   x23
034B0:  CLRF   x22
034B2:  CLRF   x21
034B4:  CLRF   x20
034B6:  MOVLB  0
034B8:  CALL   25D6
034BC:  BNZ   34CA
....................     res = 0; 
034BE:  MOVLB  6
034C0:  CLRF   x18
034C2:  CLRF   x17
034C4:  CLRF   x16
034C6:  CLRF   x15
034C8:  MOVLB  0
....................  
....................  return (res); 
034CA:  MOVFF  615,00
034CE:  MOVFF  616,01
034D2:  MOVFF  617,02
034D6:  MOVFF  618,03
.................... } 
034DA:  RETLW  00
....................  
.................... // Overloaded Functions to take care for new Data types in PCD 
.................... // Overloaded function CEIL_FLOOR() for data type - Float48 
.................... #if defined(__PCD__) 
.................... float48 CEIL_FLOOR(float48 x, unsigned int8 n) 
.................... { 
....................    float48 y, res; 
....................    unsigned int16 l; 
....................    int1 s; 
....................  
....................    s = 0; 
....................    y = x; 
....................  
....................    if (x < 0) 
....................    { 
....................       s = 1; 
....................       y = -y; 
....................    } 
....................  
....................    if (y <= 32768.0) 
....................   res = (float48)(unsigned int16)y; 
....................  
....................  else if (y < 10000000.0) 
....................    { 
....................   l = (unsigned int16)(y/32768.0); 
....................       y = 32768.0*(y/32768.0 - (float48)l); 
....................   res = 32768.0*(float32)l; 
....................   res += (float48)(unsigned int16)y; 
....................  } 
....................  
....................  else 
....................   res = y; 
....................  
....................  y = y - (float48)(unsigned int16)y; 
....................  
....................  if (s) 
....................   res = -res; 
....................  
....................  if (y != 0) 
....................  { 
....................   if (s == 1 && n == 0) 
....................    res -= 1.0; 
....................  
....................   if (s == 0 && n == 1) 
....................    res += 1.0; 
....................  } 
....................  if (x == 0) 
....................     res = 0; 
....................  
....................  return (res); 
.................... } 
....................  
....................  
.................... // Overloaded function CEIL_FLOOR() for data type - Float64 
.................... float64 CEIL_FLOOR(float64 x, unsigned int8 n) 
.................... { 
....................    float64 y, res; 
....................    unsigned int16 l; 
....................    int1 s; 
....................  
....................    s = 0; 
....................    y = x; 
....................  
....................    if (x < 0) 
....................    { 
....................       s = 1; 
....................       y = -y; 
....................    } 
....................  
....................    if (y <= 32768.0) 
....................   res = (float64)(unsigned int16)y; 
....................  
....................  else if (y < 10000000.0) 
....................    { 
....................   l = (unsigned int16)(y/32768.0); 
....................       y = 32768.0*(y/32768.0 - (float64)l); 
....................   res = 32768.0*(float64)l; 
....................   res += (float64)(unsigned int16)y; 
....................  } 
....................  
....................  else 
....................   res = y; 
....................  
....................  y = y - (float64)(unsigned int16)y; 
....................  
....................  if (s) 
....................   res = -res; 
....................  
....................  if (y != 0) 
....................  { 
....................   if (s == 1 && n == 0) 
....................    res -= 1.0; 
....................  
....................   if (s == 0 && n == 1) 
....................    res += 1.0; 
....................  } 
....................  if (x == 0) 
....................     res = 0; 
....................  
....................  return (res); 
.................... } 
.................... #endif 
....................  
.................... //////////////////////////////////////////////////////////////////////////// 
.................... //   float floor(float x) 
.................... //////////////////////////////////////////////////////////////////////////// 
.................... // Description : rounds down the number x. 
.................... // Date : N/A 
.................... // 
.................... float32 floor(float32 x) 
.................... { 
....................    return CEIL_FLOOR(x, 0); 
*
034FA:  MOVFF  60B,60F
034FE:  MOVFF  60A,60E
03502:  MOVFF  609,60D
03506:  MOVFF  608,60C
0350A:  MOVLB  6
0350C:  CLRF   x10
0350E:  MOVLB  0
03510:  RCALL  3172
.................... } 
03512:  GOTO   361E (RETURN)
.................... // Following 2 functions are overloaded functions of floor() for PCD 
.................... // Overloaded function floor() for data type - Float48 
.................... #if defined(__PCD__) 
.................... float48 floor(float48 x) 
.................... { 
....................    return CEIL_FLOOR(x, 0); 
.................... } 
....................  
.................... // Overloaded function floor() for data type - Float64 
.................... float64 floor(float64 x) 
.................... { 
....................    return CEIL_FLOOR(x, 0); 
.................... } 
.................... #endif 
....................  
....................  
.................... //////////////////////////////////////////////////////////////////////////// 
.................... //   float ceil(float x) 
.................... //////////////////////////////////////////////////////////////////////////// 
.................... // Description : rounds up the number x. 
.................... // Date : N/A 
.................... // 
.................... float32 ceil(float32 x) 
.................... { 
....................    return CEIL_FLOOR(x, 1); 
*
034DC:  MOVFF  60B,60F
034E0:  MOVFF  60A,60E
034E4:  MOVFF  609,60D
034E8:  MOVFF  608,60C
034EC:  MOVLW  01
034EE:  MOVLB  6
034F0:  MOVWF  x10
034F2:  MOVLB  0
034F4:  RCALL  3172
.................... } 
034F6:  GOTO   35D6 (RETURN)
.................... // Following 2 functions are overloaded functions of ceil() for PCD 
.................... // Overloaded function ceil() for data type - Float48 
.................... #if defined(__PCD__) 
.................... float48 ceil(float48 x) 
.................... { 
....................    return CEIL_FLOOR(x, 1); 
.................... } 
....................  
.................... // Overloaded function ceil() for data type - Float64 
.................... float64 ceil(float64 x) 
.................... { 
....................    return CEIL_FLOOR(x, 1); 
.................... } 
.................... #endif 
....................  
....................  //////////////////////////////////////////////////////////////////////////// 
.................... //   float fabs(float x) 
.................... //////////////////////////////////////////////////////////////////////////// 
.................... // Description : Computes the absolute value of floating point number x 
.................... // Returns : returns the absolute value of x 
.................... // Date : N/A 
.................... // 
.................... #define fabs abs 
....................  
.................... //////////////////////////////////////////////////////////////////////////// 
.................... //   float fmod(float x) 
.................... //////////////////////////////////////////////////////////////////////////// 
.................... // Description : Computes the floating point remainder of x/y 
.................... // Returns : returns the value of x= i*y, for some integer i such that, if y 
.................... // is non zero, the result has the same isgn of x na dmagnitude less than the 
.................... // magnitude of y. If y is zero then a domain error occurs. 
.................... // Date : N/A 
.................... // 
....................  
.................... float fmod(float32 x,float32 y) 
.................... { 
....................    float32 i; 
....................    if (y!=0.0) 
*
03516:  MOVFF  5FF,61F
0351A:  MOVFF  5FE,61E
0351E:  MOVFF  5FD,61D
03522:  MOVFF  5FC,61C
03526:  MOVLB  6
03528:  CLRF   x23
0352A:  CLRF   x22
0352C:  CLRF   x21
0352E:  CLRF   x20
03530:  MOVLB  0
03532:  CALL   25D6
03536:  BTFSC  FD8.2
03538:  BRA    367A
....................    { 
....................       i=(x/y < 0.0)? ceil(x/y): floor(x/y); 
0353A:  MOVFF  5FB,61F
0353E:  MOVFF  5FA,61E
03542:  MOVFF  5F9,61D
03546:  MOVFF  5F8,61C
0354A:  MOVFF  5FF,623
0354E:  MOVFF  5FE,622
03552:  MOVFF  5FD,621
03556:  MOVFF  5FC,620
0355A:  CALL   1A90
0355E:  MOVFF  00,604
03562:  MOVFF  01,605
03566:  MOVFF  02,606
0356A:  MOVFF  03,607
0356E:  MOVFF  03,61F
03572:  MOVFF  02,61E
03576:  MOVFF  01,61D
0357A:  MOVFF  00,61C
0357E:  MOVLB  6
03580:  CLRF   x23
03582:  CLRF   x22
03584:  CLRF   x21
03586:  CLRF   x20
03588:  MOVLB  0
0358A:  CALL   25D6
0358E:  BNC   35D8
03590:  MOVFF  5FB,61F
03594:  MOVFF  5FA,61E
03598:  MOVFF  5F9,61D
0359C:  MOVFF  5F8,61C
035A0:  MOVFF  5FF,623
035A4:  MOVFF  5FE,622
035A8:  MOVFF  5FD,621
035AC:  MOVFF  5FC,620
035B0:  CALL   1A90
035B4:  MOVFF  00,604
035B8:  MOVFF  01,605
035BC:  MOVFF  02,606
035C0:  MOVFF  03,607
035C4:  MOVFF  03,60B
035C8:  MOVFF  02,60A
035CC:  MOVFF  01,609
035D0:  MOVFF  00,608
035D4:  BRA    34DC
035D6:  BRA    361E
035D8:  MOVFF  5FB,61F
035DC:  MOVFF  5FA,61E
035E0:  MOVFF  5F9,61D
035E4:  MOVFF  5F8,61C
035E8:  MOVFF  5FF,623
035EC:  MOVFF  5FE,622
035F0:  MOVFF  5FD,621
035F4:  MOVFF  5FC,620
035F8:  CALL   1A90
035FC:  MOVFF  00,604
03600:  MOVFF  01,605
03604:  MOVFF  02,606
03608:  MOVFF  03,607
0360C:  MOVFF  03,60B
03610:  MOVFF  02,60A
03614:  MOVFF  01,609
03618:  MOVFF  00,608
0361C:  BRA    34FA
0361E:  MOVFF  03,603
03622:  MOVFF  02,602
03626:  MOVFF  01,601
0362A:  MOVFF  00,600
....................       return(x-(i*y)); 
0362E:  MOVFF  603,61F
03632:  MOVFF  602,61E
03636:  MOVFF  601,61D
0363A:  MOVFF  600,61C
0363E:  MOVFF  5FF,623
03642:  MOVFF  5FE,622
03646:  MOVFF  5FD,621
0364A:  MOVFF  5FC,620
0364E:  RCALL  307C
03650:  BSF    FD8.1
03652:  MOVFF  5FB,623
03656:  MOVFF  5FA,622
0365A:  MOVFF  5F9,621
0365E:  MOVFF  5F8,620
03662:  MOVFF  03,627
03666:  MOVFF  02,626
0366A:  MOVFF  01,625
0366E:  MOVFF  00,624
03672:  CALL   1BEE
03676:  BRA    367A
....................    } 
....................    else 
03678:  BRA    367A
....................    { 
....................    #ifdef _ERRNO 
....................    { 
....................       errno=EDOM; 
....................    } 
....................    #endif 
....................    } 
.................... } 
0367A:  RETLW  00
.................... //Overloaded function for fmod() for PCD 
.................... // Overloaded function fmod() for data type - Float48 
.................... #if defined(__PCD__) 
.................... float48 fmod(float48 x,float48 y) 
.................... { 
....................    float48 i; 
....................    if (y!=0.0) 
....................    { 
....................       i=(x/y < 0.0)? ceil(x/y): floor(x/y); 
....................       return(x-(i*y)); 
....................    } 
....................    else 
....................    { 
....................    #ifdef _ERRNO 
....................    { 
....................       errno=EDOM; 
....................    } 
....................    #endif 
....................    } 
.................... } 
.................... // Overloaded function fmod() for data type - Float64 
.................... float64 fmod(float64 x,float64 y) 
.................... { 
....................    float64 i; 
....................    if (y!=0.0) 
....................    { 
....................       i=(x/y < 0.0)? ceil(x/y): floor(x/y); 
....................       return(x-(i*y)); 
....................    } 
....................    else 
....................    { 
....................    #ifdef _ERRNO 
....................    { 
....................       errno=EDOM; 
....................    } 
....................    #endif 
....................    } 
.................... } 
.................... #endif 
.................... //////////////////// Exponential and logarithmic functions //////////////////// 
.................... //////////////////////////////////////////////////////////////////////////// 
.................... //   float exp(float x) 
.................... //////////////////////////////////////////////////////////////////////////// 
.................... // Description : returns the value (e^x) 
.................... // Date : N/A 
.................... // 
.................... #define LN2 0.6931471805599453 
....................  
.................... float const pe[6] = {0.000207455774, 0.00127100575, 0.00965065093, 
....................                      0.0554965651,  0.240227138,  0.693147172}; 
....................  
....................  
.................... float32 exp(float32 x) 
.................... { 
....................    float32 y, res, r; 
....................    #if defined(__PCD__) 
....................    int8 data1; 
....................    #endif 
....................    signed int8 n; 
....................    int1 s; 
....................    #ifdef _ERRNO 
....................    if(x > 88.722838) 
....................    { 
....................       errno=ERANGE; 
....................       return(0); 
....................    } 
....................    #endif 
....................    n = (signed int16)(x/LN2); 
*
03BA4:  MOVFF  5FF,61F
03BA8:  MOVFF  5FE,61E
03BAC:  MOVFF  5FD,61D
03BB0:  MOVFF  5FC,61C
03BB4:  MOVLW  18
03BB6:  MOVLB  6
03BB8:  MOVWF  x23
03BBA:  MOVLW  72
03BBC:  MOVWF  x22
03BBE:  MOVLW  31
03BC0:  MOVWF  x21
03BC2:  MOVLW  7E
03BC4:  MOVWF  x20
03BC6:  MOVLB  0
03BC8:  CALL   1A90
03BCC:  MOVFF  03,61F
03BD0:  MOVFF  02,61E
03BD4:  MOVFF  01,61D
03BD8:  MOVFF  00,61C
03BDC:  CALL   3040
03BE0:  MOVFF  01,60C
....................    s = 0; 
03BE4:  MOVLB  6
03BE6:  BCF    x0D.0
....................    y = x; 
03BE8:  MOVFF  5FF,603
03BEC:  MOVFF  5FE,602
03BF0:  MOVFF  5FD,601
03BF4:  MOVFF  5FC,600
....................  
....................    if (x < 0) 
03BF8:  MOVFF  5FF,61F
03BFC:  MOVFF  5FE,61E
03C00:  MOVFF  5FD,61D
03C04:  MOVFF  5FC,61C
03C08:  CLRF   x23
03C0A:  CLRF   x22
03C0C:  CLRF   x21
03C0E:  CLRF   x20
03C10:  MOVLB  0
03C12:  CALL   25D6
03C16:  BNC   3C24
....................    { 
....................       s = 1; 
03C18:  MOVLB  6
03C1A:  BSF    x0D.0
....................       n = -n; 
03C1C:  NEGF   x0C
....................       y = -y; 
03C1E:  MOVF   x01,W
03C20:  XORLW  80
03C22:  MOVWF  x01
....................    } 
....................  
....................    res = 0.0; 
03C24:  MOVLB  6
03C26:  CLRF   x07
03C28:  CLRF   x06
03C2A:  CLRF   x05
03C2C:  CLRF   x04
.................... #if !defined(__PCD__) 
....................    *((unsigned int8 *)(&res)) = n + 0x7F; 
03C2E:  MOVLW  06
03C30:  MOVWF  x0F
03C32:  MOVLW  04
03C34:  MOVWF  FE9
03C36:  MOVFF  60F,FEA
03C3A:  MOVLW  7F
03C3C:  ADDWF  x0C,W
03C3E:  MOVWF  FEF
.................... #endif 
....................  
.................... #if defined(__PCD__)  // Takes care of IEEE format for PCD 
....................    data1 = n+0x7F; 
....................    if(bit_test(data1,0)) 
....................    bit_set(*(((unsigned int8 *)(&res)+2)),7); 
....................    rotate_right(&data1,1); 
....................    bit_clear(data1,7); 
....................    *(((unsigned int8 *)(&res)+3)) = data1; 
.................... #endif 
....................  
....................    y = y/LN2 - (float32)n; 
03C40:  MOVFF  603,61F
03C44:  MOVFF  602,61E
03C48:  MOVFF  601,61D
03C4C:  MOVFF  600,61C
03C50:  MOVLW  18
03C52:  MOVWF  x23
03C54:  MOVLW  72
03C56:  MOVWF  x22
03C58:  MOVLW  31
03C5A:  MOVWF  x21
03C5C:  MOVLW  7E
03C5E:  MOVWF  x20
03C60:  MOVLB  0
03C62:  CALL   1A90
03C66:  MOVFF  00,60E
03C6A:  MOVFF  01,60F
03C6E:  MOVFF  02,610
03C72:  MOVFF  03,611
03C76:  MOVLB  6
03C78:  CLRF   x13
03C7A:  MOVFF  60C,612
03C7E:  BTFSC  x12.7
03C80:  DECF   x13,F
03C82:  MOVLB  0
03C84:  RCALL  367C
03C86:  BSF    FD8.1
03C88:  MOVFF  611,623
03C8C:  MOVFF  610,622
03C90:  MOVFF  60F,621
03C94:  MOVFF  60E,620
03C98:  MOVFF  03,627
03C9C:  MOVFF  02,626
03CA0:  MOVFF  01,625
03CA4:  MOVFF  00,624
03CA8:  CALL   1BEE
03CAC:  MOVFF  03,603
03CB0:  MOVFF  02,602
03CB4:  MOVFF  01,601
03CB8:  MOVFF  00,600
....................  
....................    r = pe[0]*y + pe[1]; 
03CBC:  MOVLW  7C
03CBE:  MOVLB  6
03CC0:  MOVWF  x1F
03CC2:  MOVLW  88
03CC4:  MOVWF  x1E
03CC6:  MOVLW  59
03CC8:  MOVWF  x1D
03CCA:  MOVLW  72
03CCC:  MOVWF  x1C
03CCE:  MOVFF  603,623
03CD2:  MOVFF  602,622
03CD6:  MOVFF  601,621
03CDA:  MOVFF  600,620
03CDE:  MOVLB  0
03CE0:  CALL   307C
03CE4:  MOVFF  00,60E
03CE8:  MOVFF  01,60F
03CEC:  MOVFF  02,610
03CF0:  MOVFF  03,611
03CF4:  BCF    FD8.1
03CF6:  MOVFF  03,623
03CFA:  MOVFF  02,622
03CFE:  MOVFF  01,621
03D02:  MOVFF  00,620
03D06:  MOVLW  E0
03D08:  MOVLB  6
03D0A:  MOVWF  x27
03D0C:  MOVLW  97
03D0E:  MOVWF  x26
03D10:  MOVLW  26
03D12:  MOVWF  x25
03D14:  MOVLW  75
03D16:  MOVWF  x24
03D18:  MOVLB  0
03D1A:  CALL   1BEE
03D1E:  MOVFF  03,60B
03D22:  MOVFF  02,60A
03D26:  MOVFF  01,609
03D2A:  MOVFF  00,608
....................    r = r*y + pe[2]; 
03D2E:  MOVFF  60B,61F
03D32:  MOVFF  60A,61E
03D36:  MOVFF  609,61D
03D3A:  MOVFF  608,61C
03D3E:  MOVFF  603,623
03D42:  MOVFF  602,622
03D46:  MOVFF  601,621
03D4A:  MOVFF  600,620
03D4E:  CALL   307C
03D52:  MOVFF  00,60E
03D56:  MOVFF  01,60F
03D5A:  MOVFF  02,610
03D5E:  MOVFF  03,611
03D62:  BCF    FD8.1
03D64:  MOVFF  03,623
03D68:  MOVFF  02,622
03D6C:  MOVFF  01,621
03D70:  MOVFF  00,620
03D74:  MOVLW  C4
03D76:  MOVLB  6
03D78:  MOVWF  x27
03D7A:  MOVLW  1D
03D7C:  MOVWF  x26
03D7E:  MOVLW  1E
03D80:  MOVWF  x25
03D82:  MOVLW  78
03D84:  MOVWF  x24
03D86:  MOVLB  0
03D88:  CALL   1BEE
03D8C:  MOVFF  03,60B
03D90:  MOVFF  02,60A
03D94:  MOVFF  01,609
03D98:  MOVFF  00,608
....................    r = r*y + pe[3]; 
03D9C:  MOVFF  60B,61F
03DA0:  MOVFF  60A,61E
03DA4:  MOVFF  609,61D
03DA8:  MOVFF  608,61C
03DAC:  MOVFF  603,623
03DB0:  MOVFF  602,622
03DB4:  MOVFF  601,621
03DB8:  MOVFF  600,620
03DBC:  CALL   307C
03DC0:  MOVFF  00,60E
03DC4:  MOVFF  01,60F
03DC8:  MOVFF  02,610
03DCC:  MOVFF  03,611
03DD0:  BCF    FD8.1
03DD2:  MOVFF  03,623
03DD6:  MOVFF  02,622
03DDA:  MOVFF  01,621
03DDE:  MOVFF  00,620
03DE2:  MOVLW  5E
03DE4:  MOVLB  6
03DE6:  MOVWF  x27
03DE8:  MOVLW  50
03DEA:  MOVWF  x26
03DEC:  MOVLW  63
03DEE:  MOVWF  x25
03DF0:  MOVLW  7A
03DF2:  MOVWF  x24
03DF4:  MOVLB  0
03DF6:  CALL   1BEE
03DFA:  MOVFF  03,60B
03DFE:  MOVFF  02,60A
03E02:  MOVFF  01,609
03E06:  MOVFF  00,608
....................    r = r*y + pe[4]; 
03E0A:  MOVFF  60B,61F
03E0E:  MOVFF  60A,61E
03E12:  MOVFF  609,61D
03E16:  MOVFF  608,61C
03E1A:  MOVFF  603,623
03E1E:  MOVFF  602,622
03E22:  MOVFF  601,621
03E26:  MOVFF  600,620
03E2A:  CALL   307C
03E2E:  MOVFF  00,60E
03E32:  MOVFF  01,60F
03E36:  MOVFF  02,610
03E3A:  MOVFF  03,611
03E3E:  BCF    FD8.1
03E40:  MOVFF  03,623
03E44:  MOVFF  02,622
03E48:  MOVFF  01,621
03E4C:  MOVFF  00,620
03E50:  MOVLW  1A
03E52:  MOVLB  6
03E54:  MOVWF  x27
03E56:  MOVLW  FE
03E58:  MOVWF  x26
03E5A:  MOVLW  75
03E5C:  MOVWF  x25
03E5E:  MOVLW  7C
03E60:  MOVWF  x24
03E62:  MOVLB  0
03E64:  CALL   1BEE
03E68:  MOVFF  03,60B
03E6C:  MOVFF  02,60A
03E70:  MOVFF  01,609
03E74:  MOVFF  00,608
....................    r = r*y + pe[5]; 
03E78:  MOVFF  60B,61F
03E7C:  MOVFF  60A,61E
03E80:  MOVFF  609,61D
03E84:  MOVFF  608,61C
03E88:  MOVFF  603,623
03E8C:  MOVFF  602,622
03E90:  MOVFF  601,621
03E94:  MOVFF  600,620
03E98:  CALL   307C
03E9C:  MOVFF  00,60E
03EA0:  MOVFF  01,60F
03EA4:  MOVFF  02,610
03EA8:  MOVFF  03,611
03EAC:  BCF    FD8.1
03EAE:  MOVFF  03,623
03EB2:  MOVFF  02,622
03EB6:  MOVFF  01,621
03EBA:  MOVFF  00,620
03EBE:  MOVLW  18
03EC0:  MOVLB  6
03EC2:  MOVWF  x27
03EC4:  MOVLW  72
03EC6:  MOVWF  x26
03EC8:  MOVLW  31
03ECA:  MOVWF  x25
03ECC:  MOVLW  7E
03ECE:  MOVWF  x24
03ED0:  MOVLB  0
03ED2:  CALL   1BEE
03ED6:  MOVFF  03,60B
03EDA:  MOVFF  02,60A
03EDE:  MOVFF  01,609
03EE2:  MOVFF  00,608
....................  
....................    res = res*(1.0 + y*r); 
03EE6:  MOVFF  603,61F
03EEA:  MOVFF  602,61E
03EEE:  MOVFF  601,61D
03EF2:  MOVFF  600,61C
03EF6:  MOVFF  60B,623
03EFA:  MOVFF  60A,622
03EFE:  MOVFF  609,621
03F02:  MOVFF  608,620
03F06:  CALL   307C
03F0A:  BCF    FD8.1
03F0C:  MOVLB  6
03F0E:  CLRF   x23
03F10:  CLRF   x22
03F12:  CLRF   x21
03F14:  MOVLW  7F
03F16:  MOVWF  x20
03F18:  MOVFF  03,627
03F1C:  MOVFF  02,626
03F20:  MOVFF  01,625
03F24:  MOVFF  00,624
03F28:  MOVLB  0
03F2A:  CALL   1BEE
03F2E:  MOVFF  607,61F
03F32:  MOVFF  606,61E
03F36:  MOVFF  605,61D
03F3A:  MOVFF  604,61C
03F3E:  MOVFF  03,623
03F42:  MOVFF  02,622
03F46:  MOVFF  01,621
03F4A:  MOVFF  00,620
03F4E:  CALL   307C
03F52:  MOVFF  03,607
03F56:  MOVFF  02,606
03F5A:  MOVFF  01,605
03F5E:  MOVFF  00,604
....................  
....................    if (s) 
03F62:  MOVLB  6
03F64:  BTFSS  x0D.0
03F66:  BRA    3F9A
....................       res = 1.0/res; 
03F68:  CLRF   x1F
03F6A:  CLRF   x1E
03F6C:  CLRF   x1D
03F6E:  MOVLW  7F
03F70:  MOVWF  x1C
03F72:  MOVFF  607,623
03F76:  MOVFF  606,622
03F7A:  MOVFF  605,621
03F7E:  MOVFF  604,620
03F82:  MOVLB  0
03F84:  CALL   1A90
03F88:  MOVFF  03,607
03F8C:  MOVFF  02,606
03F90:  MOVFF  01,605
03F94:  MOVFF  00,604
03F98:  MOVLB  6
....................    return(res); 
03F9A:  MOVFF  604,00
03F9E:  MOVFF  605,01
03FA2:  MOVFF  606,02
03FA6:  MOVFF  607,03
.................... } 
03FAA:  MOVLB  0
03FAC:  RETLW  00
....................  
....................  
.................... //Overloaded function for exp() for PCD 
.................... // Overloaded function exp() for data type - Float48 
.................... #if defined(__PCD__) 
.................... float48 exp(float48 x) 
.................... { 
....................    float48 y, res, r; 
....................    int8 data1; 
....................    signed int8 n; 
....................    int1 s; 
....................    #ifdef _ERRNO 
....................    if(x > 88.722838) 
....................    { 
....................       errno=ERANGE; 
....................       return(0); 
....................    } 
....................    #endif 
....................    n = (signed int16)(x/LN2); 
....................    s = 0; 
....................    y = x; 
....................  
....................    if (x < 0) 
....................    { 
....................       s = 1; 
....................       n = -n; 
....................       y = -y; 
....................    } 
....................  
....................    res = 0.0; 
....................  
....................    data1 = n+0x7F; 
....................    if(bit_test(data1,0)) 
....................    bit_set(*(((unsigned int8 *)(&res)+4)),7); 
....................    rotate_right(&data1,1); 
....................    bit_clear(data1,7); 
....................    *(((unsigned int8 *)(&res)+5)) = data1; 
....................  
....................    y = y/LN2 - (float48)n; 
....................  
....................    r = pe[0]*y + pe[1]; 
....................    r = r*y + pe[2]; 
....................    r = r*y + pe[3]; 
....................    r = r*y + pe[4]; 
....................    r = r*y + pe[5]; 
....................  
....................    res = res*(1.0 + y*r); 
....................  
....................    if (s) 
....................       res = 1.0/res; 
....................    return(res); 
.................... } 
....................  
.................... // Overloaded function exp() for data type - Float64 
.................... float64 exp(float64 x) 
.................... { 
....................    float64 y, res, r; 
....................    unsigned int16 data1, data2; 
....................    unsigned int16 *p; 
....................    signed int16 n; 
....................    int1 s; 
....................    #ifdef _ERRNO 
....................    if(x > 709.7827128) 
....................    { 
....................       errno=ERANGE; 
....................       return(0); 
....................    } 
....................    #endif 
....................    n = (signed int16)(x/LN2); 
....................    s = 0; 
....................    y = x; 
....................  
....................    if (x < 0) 
....................    { 
....................       s = 1; 
....................       n = -n; 
....................       y = -y; 
....................    } 
....................  
....................    res = 0.0; 
....................  
.................... #if !defined(__PCD__) 
....................    *((unsigned int16 *)(&res)) = n + 0x7F; 
.................... #endif 
....................    p= (((unsigned int16 *)(&res))+3); 
....................    data1 = *p; 
....................    data2 = *p;    
....................    data1 = n + 0x3FF; 
....................    data1 = data1 <<4; 
....................    if(bit_test(data2,15)) 
....................    bit_set(data1,15); 
....................    data2 = data2 & 0x000F; 
....................    data1 ^= data2; 
....................  
....................    *(((unsigned int16 *)(&res)+3)) = data1; 
....................  
....................  
....................    y = y/LN2 - (float64)n; 
....................  
....................    r = pe[0]*y + pe[1]; 
....................    r = r*y + pe[2]; 
....................    r = r*y + pe[3]; 
....................    r = r*y + pe[4]; 
....................    r = r*y + pe[5]; 
....................  
....................    res = res*(1.0 + y*r); 
....................  
....................    if (s) 
....................       res = 1.0/res; 
....................    return(res); 
.................... } 
....................  
.................... #ENDIF 
....................  
....................  
.................... /************************************************************/ 
....................  
.................... float32 const pl[4] = {0.45145214, -9.0558803, 26.940971, -19.860189}; 
.................... float32 const ql[4] = {1.0000000,  -8.1354259, 16.780517, -9.9300943}; 
....................  
.................... //////////////////////////////////////////////////////////////////////////// 
.................... //   float log(float x) 
.................... //////////////////////////////////////////////////////////////////////////// 
.................... // Description : returns the the natural log of x 
.................... // Date : N/A 
.................... // 
.................... float32 log(float32 x) 
.................... { 
....................    float32 y, res, r, y2; 
....................    #if defined(__PCD__) 
....................    unsigned int8  data1,data2; 
....................    #endif 
....................    signed int8 n; 
....................    #ifdef _ERRNO 
....................    if(x <0) 
....................    { 
....................       errno=EDOM; 
....................    } 
....................    if(x ==0) 
....................    { 
....................       errno=ERANGE; 
....................       return(0); 
....................    } 
....................    #endif 
....................    y = x; 
*
036CC:  MOVFF  5FF,603
036D0:  MOVFF  5FE,602
036D4:  MOVFF  5FD,601
036D8:  MOVFF  5FC,600
....................  
....................    if (y != 1.0) 
036DC:  MOVFF  603,61F
036E0:  MOVFF  602,61E
036E4:  MOVFF  601,61D
036E8:  MOVFF  600,61C
036EC:  MOVLB  6
036EE:  CLRF   x23
036F0:  CLRF   x22
036F2:  CLRF   x21
036F4:  MOVLW  7F
036F6:  MOVWF  x20
036F8:  MOVLB  0
036FA:  CALL   25D6
036FE:  BTFSC  FD8.2
03700:  BRA    3B86
....................    { 
.................... #if !defined(__PCD__) 
....................     *((unsigned int8 *)(&y)) = 0x7E;  
03702:  MOVLW  06
03704:  MOVLB  6
03706:  CLRF   x11
03708:  MOVFF  611,FE9
0370C:  MOVWF  FEA
0370E:  MOVLW  7E
03710:  MOVWF  FEF
.................... #endif 
....................  
.................... #if defined(__PCD__) // Takes care of IEEE format 
....................    data2 = *(((unsigned int8 *)(&y))+3); 
....................    *(((unsigned int8 *)(&y))+3) = 0x3F; 
....................    data1 = *(((unsigned int8 *)(&y))+2); 
....................    bit_clear(data1,7); 
....................    *(((unsigned int8 *)(&y))+2) = data1; 
....................    if(bit_test(data2,7)) 
....................    bit_set(*(((unsigned int8 *)(&y))+3),7); 
.................... #endif 
....................  
....................       y = (y - 1.0)/(y + 1.0); 
03712:  BSF    FD8.1
03714:  MOVFF  603,623
03718:  MOVFF  602,622
0371C:  MOVFF  601,621
03720:  MOVFF  600,620
03724:  CLRF   x27
03726:  CLRF   x26
03728:  CLRF   x25
0372A:  MOVLW  7F
0372C:  MOVWF  x24
0372E:  MOVLB  0
03730:  CALL   1BEE
03734:  MOVFF  00,611
03738:  MOVFF  01,612
0373C:  MOVFF  02,613
03740:  MOVFF  03,614
03744:  BCF    FD8.1
03746:  MOVFF  603,623
0374A:  MOVFF  602,622
0374E:  MOVFF  601,621
03752:  MOVFF  600,620
03756:  MOVLB  6
03758:  CLRF   x27
0375A:  CLRF   x26
0375C:  CLRF   x25
0375E:  MOVLW  7F
03760:  MOVWF  x24
03762:  MOVLB  0
03764:  CALL   1BEE
03768:  MOVFF  614,61F
0376C:  MOVFF  613,61E
03770:  MOVFF  612,61D
03774:  MOVFF  611,61C
03778:  MOVFF  03,623
0377C:  MOVFF  02,622
03780:  MOVFF  01,621
03784:  MOVFF  00,620
03788:  CALL   1A90
0378C:  MOVFF  03,603
03790:  MOVFF  02,602
03794:  MOVFF  01,601
03798:  MOVFF  00,600
....................  
....................       y2=y*y; 
0379C:  MOVFF  603,61F
037A0:  MOVFF  602,61E
037A4:  MOVFF  601,61D
037A8:  MOVFF  600,61C
037AC:  MOVFF  603,623
037B0:  MOVFF  602,622
037B4:  MOVFF  601,621
037B8:  MOVFF  600,620
037BC:  RCALL  307C
037BE:  MOVFF  03,60F
037C2:  MOVFF  02,60E
037C6:  MOVFF  01,60D
037CA:  MOVFF  00,60C
....................  
....................       res = pl[0]*y2 + pl[1]; 
037CE:  MOVLW  BC
037D0:  MOVLB  6
037D2:  MOVWF  x1F
037D4:  MOVLW  24
037D6:  MOVWF  x1E
037D8:  MOVLW  67
037DA:  MOVWF  x1D
037DC:  MOVLW  7D
037DE:  MOVWF  x1C
037E0:  MOVFF  60F,623
037E4:  MOVFF  60E,622
037E8:  MOVFF  60D,621
037EC:  MOVFF  60C,620
037F0:  MOVLB  0
037F2:  RCALL  307C
037F4:  MOVFF  00,611
037F8:  MOVFF  01,612
037FC:  MOVFF  02,613
03800:  MOVFF  03,614
03804:  BCF    FD8.1
03806:  MOVFF  03,623
0380A:  MOVFF  02,622
0380E:  MOVFF  01,621
03812:  MOVFF  00,620
03816:  MOVLW  E3
03818:  MOVLB  6
0381A:  MOVWF  x27
0381C:  MOVLW  E4
0381E:  MOVWF  x26
03820:  MOVLW  90
03822:  MOVWF  x25
03824:  MOVLW  82
03826:  MOVWF  x24
03828:  MOVLB  0
0382A:  CALL   1BEE
0382E:  MOVFF  03,607
03832:  MOVFF  02,606
03836:  MOVFF  01,605
0383A:  MOVFF  00,604
....................       res = res*y2 + pl[2]; 
0383E:  MOVFF  607,61F
03842:  MOVFF  606,61E
03846:  MOVFF  605,61D
0384A:  MOVFF  604,61C
0384E:  MOVFF  60F,623
03852:  MOVFF  60E,622
03856:  MOVFF  60D,621
0385A:  MOVFF  60C,620
0385E:  RCALL  307C
03860:  MOVFF  00,611
03864:  MOVFF  01,612
03868:  MOVFF  02,613
0386C:  MOVFF  03,614
03870:  BCF    FD8.1
03872:  MOVFF  03,623
03876:  MOVFF  02,622
0387A:  MOVFF  01,621
0387E:  MOVFF  00,620
03882:  MOVLW  1C
03884:  MOVLB  6
03886:  MOVWF  x27
03888:  MOVLW  87
0388A:  MOVWF  x26
0388C:  MOVLW  57
0388E:  MOVWF  x25
03890:  MOVLW  83
03892:  MOVWF  x24
03894:  MOVLB  0
03896:  CALL   1BEE
0389A:  MOVFF  03,607
0389E:  MOVFF  02,606
038A2:  MOVFF  01,605
038A6:  MOVFF  00,604
....................       res = res*y2 + pl[3]; 
038AA:  MOVFF  607,61F
038AE:  MOVFF  606,61E
038B2:  MOVFF  605,61D
038B6:  MOVFF  604,61C
038BA:  MOVFF  60F,623
038BE:  MOVFF  60E,622
038C2:  MOVFF  60D,621
038C6:  MOVFF  60C,620
038CA:  CALL   307C
038CE:  MOVFF  00,611
038D2:  MOVFF  01,612
038D6:  MOVFF  02,613
038DA:  MOVFF  03,614
038DE:  BCF    FD8.1
038E0:  MOVFF  03,623
038E4:  MOVFF  02,622
038E8:  MOVFF  01,621
038EC:  MOVFF  00,620
038F0:  MOVLW  AB
038F2:  MOVLB  6
038F4:  MOVWF  x27
038F6:  MOVLW  E1
038F8:  MOVWF  x26
038FA:  MOVLW  9E
038FC:  MOVWF  x25
038FE:  MOVLW  83
03900:  MOVWF  x24
03902:  MOVLB  0
03904:  CALL   1BEE
03908:  MOVFF  03,607
0390C:  MOVFF  02,606
03910:  MOVFF  01,605
03914:  MOVFF  00,604
....................  
....................       r = ql[0]*y2 + ql[1]; 
03918:  MOVLB  6
0391A:  CLRF   x1F
0391C:  CLRF   x1E
0391E:  CLRF   x1D
03920:  MOVLW  7F
03922:  MOVWF  x1C
03924:  MOVFF  60F,623
03928:  MOVFF  60E,622
0392C:  MOVFF  60D,621
03930:  MOVFF  60C,620
03934:  MOVLB  0
03936:  CALL   307C
0393A:  MOVFF  00,611
0393E:  MOVFF  01,612
03942:  MOVFF  02,613
03946:  MOVFF  03,614
0394A:  BCF    FD8.1
0394C:  MOVFF  03,623
03950:  MOVFF  02,622
03954:  MOVFF  01,621
03958:  MOVFF  00,620
0395C:  MOVLW  B4
0395E:  MOVLB  6
03960:  MOVWF  x27
03962:  MOVLW  2A
03964:  MOVWF  x26
03966:  MOVLW  82
03968:  MOVWF  x25
0396A:  MOVWF  x24
0396C:  MOVLB  0
0396E:  CALL   1BEE
03972:  MOVFF  03,60B
03976:  MOVFF  02,60A
0397A:  MOVFF  01,609
0397E:  MOVFF  00,608
....................       r = r*y2 + ql[2]; 
03982:  MOVFF  60B,61F
03986:  MOVFF  60A,61E
0398A:  MOVFF  609,61D
0398E:  MOVFF  608,61C
03992:  MOVFF  60F,623
03996:  MOVFF  60E,622
0399A:  MOVFF  60D,621
0399E:  MOVFF  60C,620
039A2:  CALL   307C
039A6:  MOVFF  00,611
039AA:  MOVFF  01,612
039AE:  MOVFF  02,613
039B2:  MOVFF  03,614
039B6:  BCF    FD8.1
039B8:  MOVFF  03,623
039BC:  MOVFF  02,622
039C0:  MOVFF  01,621
039C4:  MOVFF  00,620
039C8:  MOVLW  80
039CA:  MOVLB  6
039CC:  MOVWF  x27
039CE:  MOVLW  3E
039D0:  MOVWF  x26
039D2:  MOVLW  06
039D4:  MOVWF  x25
039D6:  MOVLW  83
039D8:  MOVWF  x24
039DA:  MOVLB  0
039DC:  CALL   1BEE
039E0:  MOVFF  03,60B
039E4:  MOVFF  02,60A
039E8:  MOVFF  01,609
039EC:  MOVFF  00,608
....................       r = r*y2 + ql[3]; 
039F0:  MOVFF  60B,61F
039F4:  MOVFF  60A,61E
039F8:  MOVFF  609,61D
039FC:  MOVFF  608,61C
03A00:  MOVFF  60F,623
03A04:  MOVFF  60E,622
03A08:  MOVFF  60D,621
03A0C:  MOVFF  60C,620
03A10:  CALL   307C
03A14:  MOVFF  00,611
03A18:  MOVFF  01,612
03A1C:  MOVFF  02,613
03A20:  MOVFF  03,614
03A24:  BCF    FD8.1
03A26:  MOVFF  03,623
03A2A:  MOVFF  02,622
03A2E:  MOVFF  01,621
03A32:  MOVFF  00,620
03A36:  MOVLW  AB
03A38:  MOVLB  6
03A3A:  MOVWF  x27
03A3C:  MOVLW  E1
03A3E:  MOVWF  x26
03A40:  MOVLW  9E
03A42:  MOVWF  x25
03A44:  MOVLW  82
03A46:  MOVWF  x24
03A48:  MOVLB  0
03A4A:  CALL   1BEE
03A4E:  MOVFF  03,60B
03A52:  MOVFF  02,60A
03A56:  MOVFF  01,609
03A5A:  MOVFF  00,608
....................  
....................       res = y*res/r; 
03A5E:  MOVFF  603,61F
03A62:  MOVFF  602,61E
03A66:  MOVFF  601,61D
03A6A:  MOVFF  600,61C
03A6E:  MOVFF  607,623
03A72:  MOVFF  606,622
03A76:  MOVFF  605,621
03A7A:  MOVFF  604,620
03A7E:  CALL   307C
03A82:  MOVFF  00,611
03A86:  MOVFF  01,612
03A8A:  MOVFF  02,613
03A8E:  MOVFF  03,614
03A92:  MOVFF  03,61F
03A96:  MOVFF  02,61E
03A9A:  MOVFF  01,61D
03A9E:  MOVFF  00,61C
03AA2:  MOVFF  60B,623
03AA6:  MOVFF  60A,622
03AAA:  MOVFF  609,621
03AAE:  MOVFF  608,620
03AB2:  CALL   1A90
03AB6:  MOVFF  03,607
03ABA:  MOVFF  02,606
03ABE:  MOVFF  01,605
03AC2:  MOVFF  00,604
.................... #if !defined(__PCD__) 
....................       n = *((unsigned int8 *)(&x)) - 0x7E; 
03AC6:  MOVLW  05
03AC8:  MOVLB  6
03ACA:  MOVWF  x12
03ACC:  MOVLW  FC
03ACE:  MOVWF  FE9
03AD0:  MOVFF  612,FEA
03AD4:  MOVLW  7E
03AD6:  SUBWF  FEF,W
03AD8:  MOVWF  x10
.................... #endif 
.................... #if defined(__PCD__)  
....................     data1 = *(((unsigned int8 *)(&x)+3)); 
....................     rotate_left(&data1,1); 
....................     data2 = *(((unsigned int8 *)(&x)+2)); 
....................     if(bit_test (data2,7)) 
....................       bit_set(data1,0); 
....................     n = data1 - 0x7E; 
.................... #endif 
....................  
....................       if (n<0)  
03ADA:  BTFSC  x10.7
03ADC:  BRA    3AE0
03ADE:  BRA    3B08
....................          r = -(float32)-n; 
03AE0:  MOVLW  00
03AE2:  BSF    FD8.0
03AE4:  SUBFWB x10,W
03AE6:  CLRF   x13
03AE8:  MOVWF  x12
03AEA:  BTFSC  x12.7
03AEC:  DECF   x13,F
03AEE:  MOVLB  0
03AF0:  RCALL  367C
03AF2:  MOVFF  00,608
03AF6:  MOVF   01,W
03AF8:  XORLW  80
03AFA:  MOVLB  6
03AFC:  MOVWF  x09
03AFE:  MOVFF  02,60A
03B02:  MOVFF  03,60B
....................       else 
03B06:  BRA    3B28
....................          r = (float32)n; 
03B08:  CLRF   x13
03B0A:  MOVFF  610,612
03B0E:  BTFSC  x12.7
03B10:  DECF   x13,F
03B12:  MOVLB  0
03B14:  RCALL  367C
03B16:  MOVFF  03,60B
03B1A:  MOVFF  02,60A
03B1E:  MOVFF  01,609
03B22:  MOVFF  00,608
03B26:  MOVLB  6
....................  
....................       res += r*LN2; 
03B28:  MOVFF  60B,61F
03B2C:  MOVFF  60A,61E
03B30:  MOVFF  609,61D
03B34:  MOVFF  608,61C
03B38:  MOVLW  18
03B3A:  MOVWF  x23
03B3C:  MOVLW  72
03B3E:  MOVWF  x22
03B40:  MOVLW  31
03B42:  MOVWF  x21
03B44:  MOVLW  7E
03B46:  MOVWF  x20
03B48:  MOVLB  0
03B4A:  CALL   307C
03B4E:  BCF    FD8.1
03B50:  MOVFF  607,623
03B54:  MOVFF  606,622
03B58:  MOVFF  605,621
03B5C:  MOVFF  604,620
03B60:  MOVFF  03,627
03B64:  MOVFF  02,626
03B68:  MOVFF  01,625
03B6C:  MOVFF  00,624
03B70:  CALL   1BEE
03B74:  MOVFF  03,607
03B78:  MOVFF  02,606
03B7C:  MOVFF  01,605
03B80:  MOVFF  00,604
....................    } 
....................  
....................    else 
03B84:  BRA    3B92
....................       res = 0.0; 
03B86:  MOVLB  6
03B88:  CLRF   x07
03B8A:  CLRF   x06
03B8C:  CLRF   x05
03B8E:  CLRF   x04
03B90:  MOVLB  0
....................  
....................    return(res); 
03B92:  MOVFF  604,00
03B96:  MOVFF  605,01
03B9A:  MOVFF  606,02
03B9E:  MOVFF  607,03
.................... } 
03BA2:  RETLW  00
....................  
.................... //Overloaded function for log() for PCD 
.................... // Overloaded function log() for data type - Float48 
.................... #if defined(__PCD__) 
.................... float48 log(float48 x) 
.................... { 
....................    float48 y, res, r, y2; 
....................    unsigned int8  data1,data2; 
....................    signed int8 n; 
....................    #ifdef _ERRNO 
....................    if(x <0) 
....................    { 
....................       errno=EDOM; 
....................    } 
....................    if(x ==0) 
....................    { 
....................       errno=ERANGE; 
....................       return(0); 
....................    } 
....................    #endif 
....................    y = x; 
....................  
....................    if (y != 1.0) 
....................    { 
....................     
....................    #if !defined(__PCD__) 
....................        *((unsigned int8 *)(&y)) = 0x7E;  
....................    #endif 
....................       data2 = *(((unsigned int8 *)(&y))+5); 
....................       *(((unsigned int8 *)(&y))+5) = 0x3F; 
....................       data1 = *(((unsigned int8 *)(&y))+4); 
....................       bit_clear(data1,7); 
....................       *(((unsigned int8 *)(&y))+4) = data1; 
....................    
....................       if(bit_test(data2,7)) 
....................          bit_set(*(((unsigned int8 *)(&y))+4),7); 
....................       y = (y - 1.0)/(y + 1.0); 
....................  
....................       y2=y*y; 
....................  
....................       res = pl[0]*y2 + pl[1]; 
....................       res = res*y2 + pl[2]; 
....................       res = res*y2 + pl[3]; 
....................  
....................       r = ql[0]*y2 + ql[1]; 
....................       r = r*y2 + ql[2]; 
....................       r = r*y2 + ql[3]; 
....................  
....................       res = y*res/r; 
....................  
....................     data1 = *(((unsigned int8 *)(&x)+5)); 
....................     rotate_left(&data1,1); 
....................     data2 = *(((unsigned int8 *)(&x)+4)); 
....................     if(bit_test (data2,7)) 
....................        bit_set(data1,0); 
....................       
....................     n = data1 - 0x7E; 
....................  
....................       if (n<0) 
....................          r = -(float48)-n; 
....................       else 
....................          r = (float48)n; 
....................  
....................       res += r*LN2; 
....................    } 
....................  
....................    else 
....................       res = 0.0; 
....................  
....................    return(res); 
.................... } 
....................  
.................... // Overloaded function log() for data type - Float48 
.................... #if defined(__PCD__) 
.................... float32 const pl_64[4] = {0.45145214, -9.0558803, 26.940971, -19.860189}; 
.................... float32 const ql_64[4] = {1.0000000,  -8.1354259, 16.780517, -9.9300943}; 
.................... #endif 
.................... float64 log(float64 x) 
.................... { 
....................    float64 y, res, r, y2; 
....................    unsigned int16  data1,data2; 
....................    unsigned int16 *p; 
....................    signed int16 n; 
....................    #ifdef _ERRNO 
....................    if(x <0) 
....................    { 
....................       errno=EDOM; 
....................    } 
....................    if(x ==0) 
....................    { 
....................       errno=ERANGE; 
....................       return(0); 
....................    } 
....................    #endif 
....................    y = x; 
....................  
....................    if (y != 1.0) 
....................    { 
....................    #if !defined(__PCD__) 
....................        *((unsigned int8 *)(&y)) = 0x7E;  
....................    #endif 
....................       p= (((unsigned int16 *)(&y))+3); 
....................       data1 = *p; 
....................       data2 = *p; 
....................       data1 = 0x3FE; 
....................       data1 = data1 <<4; 
....................       if(bit_test (data2,15)) 
....................       bit_set(data1,15); 
....................       data2 = data2 & 0x000F; 
....................       data1 ^=data2; 
....................  
....................       *p = data1; 
....................  
....................       y = (y - 1.0)/(y + 1.0); 
....................  
....................       y2=y*y; 
....................  
....................       res = pl_64[0]*y2 + pl_64[1]; 
....................       res = res*y2 + pl_64[2]; 
....................       res = res*y2 + pl_64[3]; 
....................  
....................       r = ql_64[0]*y2 + ql_64[1]; 
....................       r = r*y2 + ql_64[2]; 
....................       r = r*y2 + ql_64[3]; 
....................  
....................       res = y*res/r; 
....................   
....................       p= (((unsigned int16 *)(&x))+3); 
....................       data1 = *p; 
....................       bit_clear(data1,15); 
....................       data1 = data1 >>4;     
....................       n = data1 - 0x3FE; 
....................  
....................  
....................       if (n<0) 
....................          r = -(float64)-n; 
....................       else 
....................          r = (float64)n; 
....................  
....................       res += r*LN2; 
....................    } 
....................  
....................    else 
....................       res = 0.0; 
....................  
....................    return(res); 
.................... } 
.................... #endif 
....................  
....................  
.................... #define LN10 2.3025850929940456 
....................  
.................... //////////////////////////////////////////////////////////////////////////// 
.................... //   float log10(float x) 
.................... //////////////////////////////////////////////////////////////////////////// 
.................... // Description : returns the the log base 10 of x 
.................... // Date : N/A 
.................... // 
.................... float32 log10(float32 x) 
.................... { 
....................    float32 r; 
....................  
....................    r = log(x); 
....................    r = r/LN10; 
....................    return(r); 
.................... } 
....................  
.................... //Overloaded functions for log10() for PCD 
.................... // Overloaded function log10() for data type - Float48 
.................... #if defined(__PCD__) 
.................... float48 log10(float48 x) 
.................... { 
....................    float48 r; 
....................  
....................    r = log(x); 
....................    r = r/LN10; 
....................    return(r); 
.................... } 
....................  
.................... // Overloaded function log10() for data type - Float64 
.................... float64 log10(float64 x) 
.................... { 
....................    float64 r; 
....................  
....................    r = log(x); 
....................    r = r/LN10; 
....................    return(r); 
.................... } 
.................... #endif 
.................... //////////////////////////////////////////////////////////////////////////// 
.................... //   float modf(float x) 
.................... //////////////////////////////////////////////////////////////////////////// 
.................... // Description :breaks the argument value int integral and fractional parts, 
.................... // ach of which have the same sign as the argument.  It stores the integral part 
.................... // as a float in the object pointed to by the iptr 
.................... // Returns : returns the signed fractional part of value. 
.................... // Date : N/A 
.................... // 
....................  
.................... float32 modf(float32 value,float32 *iptr) 
.................... { 
....................    *iptr=(value < 0.0)? ceil(value): floor(value); 
....................    return(value - *iptr); 
.................... } 
.................... //Overloaded functions for modf() for PCD 
.................... // Overloaded function modf() for data type - Float48 
.................... #if defined(__PCD__) 
.................... float48 modf(float48 value,float48 *iptr) 
.................... { 
....................    *iptr=(value < 0.0)? ceil(value): floor(value); 
....................    return(value - *iptr); 
.................... } 
.................... // Overloaded function modf() for data type - Float64 
.................... float64 modf(float64 value,float64 *iptr) 
.................... { 
....................    *iptr=(value < 0.0)? ceil(value): floor(value); 
....................    return(value - *iptr); 
.................... } 
.................... #endif 
....................  
.................... //////////////////////////////////////////////////////////////////////////// 
.................... //   float pwr(float x,float y) 
.................... //////////////////////////////////////////////////////////////////////////// 
.................... // Description : returns the value (x^y) 
.................... // Date : N/A 
.................... // Note : 0 is returned when the function will generate an imaginary number 
.................... // 
.................... float32 pwr(float32 x,float32 y) 
.................... { 
....................    if(0 > x && fmod(y, 1) == 0) { 
....................       if(fmod(y, 2) == 0) { 
....................          return (exp(log(-x) * y)); 
....................       } else { 
....................          return (-exp(log(-x) * y)); 
....................       } 
....................    } else if(0 > x && fmod(y, 1) != 0) { 
....................       return 0; 
....................    } else { 
....................       if(x != 0 || 0 >= y) { 
....................          return (exp(log(x) * y)); 
....................       } 
....................    } 
.................... } 
.................... //Overloaded functions for pwr() for PCD 
.................... // Overloaded function pwr() for data type - Float48 
.................... #if defined(__PCD__) 
.................... float48 pwr(float48 x,float48 y) 
.................... { 
....................    if(0 > x && fmod(y, 1) == 0) { 
....................       if(fmod(y, 2) == 0) { 
....................          return (exp(log(-x) * y)); 
....................       } else { 
....................          return (-exp(log(-x) * y)); 
....................       } 
....................    } else if(0 > x && fmod(y, 1) != 0) { 
....................       return 0; 
....................    } else { 
....................       if(x != 0 || 0 >= y) { 
....................          return (exp(log(x) * y)); 
....................       } 
....................    } 
.................... } 
.................... // Overloaded function pwr() for data type - Float64 
.................... float64 pwr(float64 x,float64 y) 
.................... { 
....................    if(0 > x && fmod(y, 1) == 0) { 
....................       if(fmod(y, 2) == 0) { 
....................          return (exp(log(-x) * y)); 
....................       } else { 
....................          return (-exp(log(-x) * y)); 
....................       } 
....................    } else if(0 > x && fmod(y, 1) != 0) { 
....................       return 0; 
....................    } else { 
....................       if(x != 0 || 0 >= y) { 
....................          return (exp(log(x) * y)); 
....................       } 
....................    } 
.................... } 
.................... #endif 
....................  
.................... //////////////////// Power functions //////////////////// 
....................  
.................... //////////////////////////////////////////////////////////////////////////// 
.................... //   float pow(float x,float y) 
.................... //////////////////////////////////////////////////////////////////////////// 
.................... // Description : returns the value (x^y) 
.................... // Date : N/A 
.................... // Note : 0 is returned when the function will generate an imaginary number 
.................... // 
.................... float32 pow(float32 x,float32 y) 
.................... { 
....................    if(0 > x && fmod(y, 1) == 0) { 
*
03FAE:  MOVFF  5F3,61F
03FB2:  MOVFF  5F2,61E
03FB6:  MOVFF  5F1,61D
03FBA:  MOVFF  5F0,61C
03FBE:  MOVLB  6
03FC0:  CLRF   x23
03FC2:  CLRF   x22
03FC4:  CLRF   x21
03FC6:  CLRF   x20
03FC8:  MOVLB  0
03FCA:  CALL   25D6
03FCE:  BTFSS  FD8.0
03FD0:  BRA    4184
03FD2:  MOVFF  5F7,5FB
03FD6:  MOVFF  5F6,5FA
03FDA:  MOVFF  5F5,5F9
03FDE:  MOVFF  5F4,5F8
03FE2:  MOVLB  5
03FE4:  CLRF   xFF
03FE6:  CLRF   xFE
03FE8:  CLRF   xFD
03FEA:  MOVLW  7F
03FEC:  MOVWF  xFC
03FEE:  MOVLB  0
03FF0:  CALL   3516
03FF4:  MOVFF  00,5F8
03FF8:  MOVFF  01,5F9
03FFC:  MOVFF  02,5FA
04000:  MOVFF  03,5FB
04004:  MOVFF  03,61F
04008:  MOVFF  02,61E
0400C:  MOVFF  01,61D
04010:  MOVFF  00,61C
04014:  MOVLB  6
04016:  CLRF   x23
04018:  CLRF   x22
0401A:  CLRF   x21
0401C:  CLRF   x20
0401E:  MOVLB  0
04020:  CALL   25D6
04024:  BTFSS  FD8.2
04026:  BRA    4184
....................       if(fmod(y, 2) == 0) { 
04028:  MOVFF  5F7,5FB
0402C:  MOVFF  5F6,5FA
04030:  MOVFF  5F5,5F9
04034:  MOVFF  5F4,5F8
04038:  MOVLB  5
0403A:  CLRF   xFF
0403C:  CLRF   xFE
0403E:  CLRF   xFD
04040:  MOVLW  80
04042:  MOVWF  xFC
04044:  MOVLB  0
04046:  CALL   3516
0404A:  MOVFF  00,5F8
0404E:  MOVFF  01,5F9
04052:  MOVFF  02,5FA
04056:  MOVFF  03,5FB
0405A:  MOVFF  03,61F
0405E:  MOVFF  02,61E
04062:  MOVFF  01,61D
04066:  MOVFF  00,61C
0406A:  MOVLB  6
0406C:  CLRF   x23
0406E:  CLRF   x22
04070:  CLRF   x21
04072:  CLRF   x20
04074:  MOVLB  0
04076:  CALL   25D6
0407A:  BNZ   40FE
....................          return (exp(log(-x) * y)); 
0407C:  MOVFF  5F0,5F8
04080:  MOVLB  5
04082:  MOVF   xF1,W
04084:  XORLW  80
04086:  MOVWF  xF9
04088:  MOVFF  5F2,5FA
0408C:  MOVFF  5F3,5FB
04090:  MOVFF  5F3,5FF
04094:  MOVFF  5F2,5FE
04098:  MOVWF  xFD
0409A:  MOVFF  5F0,5FC
0409E:  MOVLB  0
040A0:  CALL   36CC
040A4:  MOVFF  00,5F8
040A8:  MOVFF  01,5F9
040AC:  MOVFF  02,5FA
040B0:  MOVFF  03,5FB
040B4:  MOVFF  03,61F
040B8:  MOVFF  02,61E
040BC:  MOVFF  01,61D
040C0:  MOVFF  00,61C
040C4:  MOVFF  5F7,623
040C8:  MOVFF  5F6,622
040CC:  MOVFF  5F5,621
040D0:  MOVFF  5F4,620
040D4:  CALL   307C
040D8:  MOVFF  00,5F8
040DC:  MOVFF  01,5F9
040E0:  MOVFF  02,5FA
040E4:  MOVFF  03,5FB
040E8:  MOVFF  03,5FF
040EC:  MOVFF  02,5FE
040F0:  MOVFF  01,5FD
040F4:  MOVFF  00,5FC
040F8:  RCALL  3BA4
040FA:  BRA    42B8
....................       } else { 
040FC:  BRA    4182
....................          return (-exp(log(-x) * y)); 
040FE:  MOVFF  5F0,5F8
04102:  MOVLB  5
04104:  MOVF   xF1,W
04106:  XORLW  80
04108:  MOVWF  xF9
0410A:  MOVFF  5F2,5FA
0410E:  MOVFF  5F3,5FB
04112:  MOVFF  5F3,5FF
04116:  MOVFF  5F2,5FE
0411A:  MOVWF  xFD
0411C:  MOVFF  5F0,5FC
04120:  MOVLB  0
04122:  CALL   36CC
04126:  MOVFF  00,5F8
0412A:  MOVFF  01,5F9
0412E:  MOVFF  02,5FA
04132:  MOVFF  03,5FB
04136:  MOVFF  03,61F
0413A:  MOVFF  02,61E
0413E:  MOVFF  01,61D
04142:  MOVFF  00,61C
04146:  MOVFF  5F7,623
0414A:  MOVFF  5F6,622
0414E:  MOVFF  5F5,621
04152:  MOVFF  5F4,620
04156:  CALL   307C
0415A:  MOVFF  00,5F8
0415E:  MOVFF  01,5F9
04162:  MOVFF  02,5FA
04166:  MOVFF  03,5FB
0416A:  MOVFF  03,5FF
0416E:  MOVFF  02,5FE
04172:  MOVFF  01,5FD
04176:  MOVFF  00,5FC
0417A:  RCALL  3BA4
0417C:  MOVLW  80
0417E:  XORWF  01,F
04180:  BRA    42B8
....................       } 
....................    } else if(0 > x && fmod(y, 1) != 0) { 
04182:  BRA    42B8
04184:  MOVFF  5F3,61F
04188:  MOVFF  5F2,61E
0418C:  MOVFF  5F1,61D
04190:  MOVFF  5F0,61C
04194:  MOVLB  6
04196:  CLRF   x23
04198:  CLRF   x22
0419A:  CLRF   x21
0419C:  CLRF   x20
0419E:  MOVLB  0
041A0:  CALL   25D6
041A4:  BNC   4206
041A6:  MOVFF  5F7,5FB
041AA:  MOVFF  5F6,5FA
041AE:  MOVFF  5F5,5F9
041B2:  MOVFF  5F4,5F8
041B6:  MOVLB  5
041B8:  CLRF   xFF
041BA:  CLRF   xFE
041BC:  CLRF   xFD
041BE:  MOVLW  7F
041C0:  MOVWF  xFC
041C2:  MOVLB  0
041C4:  CALL   3516
041C8:  MOVFF  00,5F8
041CC:  MOVFF  01,5F9
041D0:  MOVFF  02,5FA
041D4:  MOVFF  03,5FB
041D8:  MOVFF  03,61F
041DC:  MOVFF  02,61E
041E0:  MOVFF  01,61D
041E4:  MOVFF  00,61C
041E8:  MOVLB  6
041EA:  CLRF   x23
041EC:  CLRF   x22
041EE:  CLRF   x21
041F0:  CLRF   x20
041F2:  MOVLB  0
041F4:  CALL   25D6
041F8:  BZ    4206
....................       return 0; 
041FA:  CLRF   00
041FC:  CLRF   01
041FE:  CLRF   02
04200:  CLRF   03
04202:  BRA    42B8
....................    } else { 
04204:  BRA    42B8
....................       if(x != 0 || 0 >= y) { 
04206:  MOVFF  5F3,61F
0420A:  MOVFF  5F2,61E
0420E:  MOVFF  5F1,61D
04212:  MOVFF  5F0,61C
04216:  MOVLB  6
04218:  CLRF   x23
0421A:  CLRF   x22
0421C:  CLRF   x21
0421E:  CLRF   x20
04220:  MOVLB  0
04222:  CALL   25D6
04226:  BNZ   424C
04228:  MOVFF  5F7,61F
0422C:  MOVFF  5F6,61E
04230:  MOVFF  5F5,61D
04234:  MOVFF  5F4,61C
04238:  MOVLB  6
0423A:  CLRF   x23
0423C:  CLRF   x22
0423E:  CLRF   x21
04240:  CLRF   x20
04242:  MOVLB  0
04244:  CALL   25D6
04248:  BC    424C
0424A:  BNZ   42B8
....................          return (exp(log(x) * y)); 
0424C:  MOVFF  5F3,5FF
04250:  MOVFF  5F2,5FE
04254:  MOVFF  5F1,5FD
04258:  MOVFF  5F0,5FC
0425C:  CALL   36CC
04260:  MOVFF  00,5F8
04264:  MOVFF  01,5F9
04268:  MOVFF  02,5FA
0426C:  MOVFF  03,5FB
04270:  MOVFF  03,61F
04274:  MOVFF  02,61E
04278:  MOVFF  01,61D
0427C:  MOVFF  00,61C
04280:  MOVFF  5F7,623
04284:  MOVFF  5F6,622
04288:  MOVFF  5F5,621
0428C:  MOVFF  5F4,620
04290:  CALL   307C
04294:  MOVFF  00,5F8
04298:  MOVFF  01,5F9
0429C:  MOVFF  02,5FA
042A0:  MOVFF  03,5FB
042A4:  MOVFF  03,5FF
042A8:  MOVFF  02,5FE
042AC:  MOVFF  01,5FD
042B0:  MOVFF  00,5FC
042B4:  RCALL  3BA4
042B6:  BRA    42B8
....................       } 
....................    } 
.................... } 
042B8:  RETLW  00
.................... //Overloaded functions for pow() for PCD 
.................... // Overloaded function for pow() data type - Float48 
.................... #if defined(__PCD__) 
.................... float48 pow(float48 x,float48 y) 
.................... { 
....................    if(0 > x && fmod(y, 1) == 0) { 
....................       if(fmod(y, 2) == 0) { 
....................          return (exp(log(-x) * y)); 
....................       } else { 
....................          return (-exp(log(-x) * y)); 
....................       } 
....................    } else if(0 > x && fmod(y, 1) != 0) { 
....................       return 0; 
....................    } else { 
....................       if(x != 0 || 0 >= y) { 
....................          return (exp(log(x) * y)); 
....................       } 
....................    } 
.................... } 
....................  
.................... // Overloaded function pow() for data type - Float64 
.................... float64 pow(float64 x,float64 y) 
.................... { 
....................    if(0 > x && fmod(y, 1) == 0) { 
....................       if(fmod(y, 2) == 0) { 
....................          return (exp(log(-x) * y)); 
....................       } else { 
....................          return (-exp(log(-x) * y)); 
....................       } 
....................    } else if(0 > x && fmod(y, 1) != 0) { 
....................       return 0; 
....................    } else { 
....................       if(x != 0 || 0 >= y) { 
....................          return (exp(log(x) * y)); 
....................       } 
....................    } 
.................... } 
.................... #endif 
....................  
.................... //////////////////////////////////////////////////////////////////////////// 
.................... //   float sqrt(float x) 
.................... //////////////////////////////////////////////////////////////////////////// 
.................... // Description : returns the square root of x 
.................... // Date : N/A 
.................... // 
.................... float32 sqrt(float32 x) 
.................... { 
....................    float32 y, res; 
....................    #if defined(__PCD__) 
....................    unsigned int16 data1,data2; 
....................    #endif 
....................    BYTE *p; 
....................  
....................    #ifdef _ERRNO 
....................    if(x < 0) 
....................    { 
....................       errno=EDOM; 
....................    } 
....................    #endif 
....................  
....................    if( x<=0.0) 
....................       return(0.0); 
....................  
....................    y=x; 
....................     
....................    #if !defined(__PCD__) 
....................     p=&y; 
....................    (*p)=(BYTE)((((unsigned int16)(*p)) + 127) >> 1); 
....................    #endif 
....................     
....................    #if defined(__PCD__) 
....................     p = (((unsigned int8 *)(&y))+3); 
....................     data1 = *(((unsigned int8 *)(&y))+3); 
....................     data2 = *(((unsigned int8 *)(&y))+2); 
....................     rotate_left(&data1,1);     
....................     if(bit_test(data2,7))     
....................     bit_set(data1,0);     
....................     data1 = ((data1+127) >>1); 
....................     bit_clear(data2,7); 
....................     if(bit_test(data1,0)) 
....................     bit_set(data2,7); 
....................     data1 = data1 >>1; 
....................     *(((unsigned int8 *)(&y))+3) = data1; 
....................     *(((unsigned int8 *)(&y))+2) = data2; 
....................      
....................   #endif 
....................  
....................    do { 
....................       res=y; 
....................       y+=(x/y); 
....................  
....................       #if !defined(__PCD__) 
....................      (*p)--; 
....................    #endif 
....................     
....................    #if defined(__PCD__) 
....................     data1 = *(((unsigned int8 *)(&y))+3); 
....................     data2 = *(((unsigned int8 *)(&y))+2); 
....................     rotate_left(&data1,1); 
....................     if(bit_test(data2,7)) 
....................     bit_set(data1,0);     
....................     data1--; 
....................     bit_clear(data2,7); 
....................     if(bit_test(data1,0)) 
....................     bit_set(data2,7); 
....................     data1 = data1 >>1; 
....................     *(((unsigned int8 *)(&y))+3) = data1; 
....................     *(((unsigned int8 *)(&y))+2) = data2; 
....................      
....................   #endif 
....................    } while(res != y); 
....................  
....................    return(res); 
.................... } 
.................... //Overloaded functions for sqrt() for PCD 
.................... // Overloaded function sqrt() for data type - Float48 
.................... #if defined(__PCD__) 
.................... float48 sqrt(float48 x) 
.................... { 
....................    float48 y, res; 
....................    unsigned int16 data1,data2; 
....................    BYTE *p; 
....................  
....................    #ifdef _ERRNO 
....................    if(x < 0) 
....................    { 
....................       errno=EDOM; 
....................    } 
....................    #endif 
....................  
....................    if( x<=0.0) 
....................       return(0.0); 
....................  
....................    y=x; 
....................     
....................    #if !defined(__PCD__) 
....................     p=&y; 
....................    (*p)=(BYTE)((((unsigned int16)(*p)) + 127) >> 1); 
....................    #endif 
....................     
....................    #if defined(__PCD__) 
....................     p = (((unsigned int8 *)(&y))+5); 
....................     data1 = *(((unsigned int8 *)(&y))+5); 
....................     data2 = *(((unsigned int8 *)(&y))+4); 
....................     rotate_left(&data1,1); 
....................     if(bit_test(data2,7)) 
....................     bit_set(data1,0);     
....................     data1 = ((data1+127) >>1); 
....................     bit_clear(data2,7); 
....................     if(bit_test(data1,0)) 
....................     bit_set(data2,7); 
....................     data1 = data1 >>1; 
....................     *(((unsigned int8 *)(&y))+5) = data1; 
....................     *(((unsigned int8 *)(&y))+4) = data2; 
....................      
....................   #endif 
....................  
....................    do { 
....................       res=y; 
....................       y+=(x/y); 
....................  
....................       #if !defined(__PCD__) 
....................      (*p)--; 
....................    #endif 
....................     
....................     data1 = *(((unsigned int8 *)(&y))+5); 
....................     data2 = *(((unsigned int8 *)(&y))+4); 
....................     rotate_left(&data1,1); 
....................     if(bit_test(data2,7)) 
....................     bit_set(data1,0);     
....................     data1--; 
....................     bit_clear(data2,7); 
....................     if(bit_test(data1,0)) 
....................     bit_set(data2,7); 
....................     data1 = data1 >>1; 
....................     *(((unsigned int8 *)(&y))+5) = data1; 
....................     *(((unsigned int8 *)(&y))+4) = data2; 
....................      
....................    } while(res != y); 
....................  
....................    return(res); 
.................... } 
....................  
.................... // Overloaded function sqrt() for data type - Float64 
.................... float64 sqrt(float64 x) 
.................... { 
....................    float64 y, res; 
....................    unsigned int16 *p; 
....................    unsigned int16 temp1,temp2; 
....................  
....................    #ifdef _ERRNO 
....................    if(x < 0) 
....................    { 
....................       errno=EDOM; 
....................    } 
....................    #endif 
....................  
....................    if( x<=0.0) 
....................       return(0.0); 
....................  
....................    y=x; 
....................    p= (((unsigned int16 *)(&y))+3); 
....................    temp1 = *p; 
....................    temp2 = *p; 
....................    bit_clear(temp1,15); 
....................    temp1 = (temp1>>4)+1023; 
....................    temp1 = temp1 >> 1; 
....................    temp1 = (temp1<<4) & 0xFFF0; 
....................    if(bit_test(temp2,15)) 
....................    bit_set(temp1,15); 
....................    temp2 = temp2 & 0x000F; 
....................    temp1 ^= temp2; 
....................     
....................    (*p) = temp1; 
....................     
....................    do { 
....................       res=y; 
....................       y+=(x/y); 
....................      temp1 = *p; 
....................      temp2 = *p; 
....................      bit_clear(temp1,15); 
....................      temp1 = (temp1>>4); 
....................      temp1--; 
....................      temp1 = (temp1<<4) & 0xFFF0; 
....................      if(bit_test(temp2,15)) 
....................      bit_set(temp1,15); 
....................      temp2 = temp2 & 0x000F; 
....................      temp1 ^= temp2; 
....................      (*p) = temp1; 
....................  
....................    } while(res != y); 
....................  
....................    return(res); 
.................... } 
.................... #endif 
....................  
.................... ////////////////////////////// Trig Functions ////////////////////////////// 
.................... #ifdef PI_DIV_BY_TWO 
.................... #undef PI_DIV_BY_TWO 
.................... #endif 
.................... #define PI_DIV_BY_TWO   1.5707963267948966 
.................... #ifdef TWOBYPI 
.................... #undef TWOBYPI 
.................... #define TWOBYPI          0.6366197723675813 
.................... #endif 
.................... //////////////////////////////////////////////////////////////////////////// 
.................... //   float cos(float x) 
.................... //////////////////////////////////////////////////////////////////////////// 
.................... // Description : returns the cosine value of the angle x, which is in radian 
.................... // Date : 9/20/2001 
.................... // 
.................... float32 cos(float32 x) 
.................... { 
....................    float32 y, t, t2 = 1.0; 
....................    unsigned int8 quad, i; 
....................    float32 frac; 
....................    float32 p[6] = {                    //by the series definition for cosine 
....................       -0.5,                            // sum ( ( (-1)^n * x^2n )/(2n)! ) 
....................        0.04166666666667, 
....................       -0.00138888888889, 
....................        0.00002480158730, 
....................       -0.00000027557319, 
....................        0.00000000208767, 
....................       //-0.00000000001147, 
....................       // 0.00000000000005 
....................    }; 
....................  
....................    if (x < 0) x = -x;                  // absolute value of input 
....................  
....................    quad = (unsigned int8)(x / PI_DIV_BY_TWO);    // quadrant 
....................    frac = (x / PI_DIV_BY_TWO) - quad;  // fractional part of input 
....................    quad = quad % 4;                    // quadrant (0 to 3) 
....................  
....................    if (quad == 0 || quad == 2) 
....................       t = frac * PI_DIV_BY_TWO; 
....................    else if (quad == 1) 
....................       t = (1-frac) * PI_DIV_BY_TWO; 
....................    else // should be 3 
....................       t = (frac-1) * PI_DIV_BY_TWO; 
....................  
....................    y = 1.0; 
....................    t = t * t; 
....................    for (i = 0; i <= 5; i++) 
....................    { 
....................       t2 = t2 * t; 
....................       y = y + p[i] * t2; 
....................    } 
....................  
....................    if (quad == 2 || quad == 1) 
....................       y = -y;  // correct sign 
....................  
....................    return (y); 
.................... } 
....................  
....................  
.................... //Overloaded functions for cos() for PCD 
.................... // Overloaded function cos() for data type - Float48 
.................... #if defined(__PCD__) 
.................... float48 cos(float48 x) 
.................... { 
....................    float48 y, t, t2 = 1.0; 
....................    unsigned int8 quad, i; 
....................    float48 frac; 
....................    float48 p[6] = {                    //by the series definition for cosine 
....................       -0.5,                            // sum ( ( (-1)^n * x^2n )/(2n)! ) 
....................        0.04166666666667, 
....................       -0.00138888888889, 
....................        0.00002480158730, 
....................       -0.00000027557319, 
....................        0.00000000208767, 
....................       //-0.00000000001147, 
....................       // 0.00000000000005 
....................    }; 
....................  
....................    if (x < 0) x = -x;                  // absolute value of input 
....................  
....................    quad = (unsigned int8)(x / PI_DIV_BY_TWO);    // quadrant 
....................    frac = (x / PI_DIV_BY_TWO) - quad;  // fractional part of input 
....................    quad = quad % 4;                    // quadrant (0 to 3) 
....................  
....................    if (quad == 0 || quad == 2) 
....................       t = frac * PI_DIV_BY_TWO; 
....................    else if (quad == 1) 
....................       t = (1-frac) * PI_DIV_BY_TWO; 
....................    else // should be 3 
....................       t = (frac-1) * PI_DIV_BY_TWO; 
....................  
....................    y = 0.999999999781; 
....................    t = t * t; 
....................    for (i = 0; i <= 5; i++) 
....................    { 
....................       t2 = t2 * t; 
....................       y = y + p[i] * t2; 
....................    } 
....................  
....................    if (quad == 2 || quad == 1) 
....................       y = -y;  // correct sign 
....................  
....................    return (y); 
.................... } 
....................  
.................... // Overloaded function cos() for data type - Float48 
.................... float64 cos(float64 x) 
.................... { 
....................    float64 y, t, t2 = 1.0; 
....................    unsigned int8 quad, i; 
....................    float64 frac; 
....................    float64 p[6] = {                    //by the series definition for cosine 
....................       -0.5,                            // sum ( ( (-1)^n * x^2n )/(2n)! ) 
....................        0.04166666666667, 
....................       -0.00138888888889, 
....................        0.00002480158730, 
....................       -0.00000027557319, 
....................        0.00000000208767, 
....................       //-0.00000000001147, 
....................       // 0.00000000000005 
....................    }; 
....................  
....................    if (x < 0) x = -x;                  // absolute value of input 
....................  
....................    quad = (unsigned int8)(x / PI_DIV_BY_TWO);    // quadrant 
....................    frac = (x / PI_DIV_BY_TWO) - quad;  // fractional part of input 
....................    quad = quad % 4;                    // quadrant (0 to 3) 
....................  
....................    if (quad == 0 || quad == 2) 
....................       t = frac * PI_DIV_BY_TWO; 
....................    else if (quad == 1) 
....................       t = (1-frac) * PI_DIV_BY_TWO; 
....................    else // should be 3 
....................       t = (frac-1) * PI_DIV_BY_TWO; 
....................  
....................    y = 0.999999999781; 
....................    t = t * t; 
....................    for (i = 0; i <= 5; i++) 
....................    { 
....................       t2 = t2 * t; 
....................       y = y + p[i] * t2; 
....................    } 
....................  
....................    if (quad == 2 || quad == 1) 
....................       y = -y;  // correct sign 
....................  
....................    return (y); 
.................... } 
....................  
.................... #endif 
....................  
.................... //////////////////////////////////////////////////////////////////////////// 
.................... //   float sin(float x) 
.................... //////////////////////////////////////////////////////////////////////////// 
.................... // Description : returns the sine value of the angle x, which is in radian 
.................... // Date : 9/20/2001 
.................... // 
.................... float32 sin(float32 x) 
.................... { 
....................    return cos(x - PI_DIV_BY_TWO); 
.................... } 
....................  
.................... //Overloaded functions for sin() for PCD 
.................... // Overloaded function sin() for data type - Float48 
.................... #if defined(__PCD__) 
.................... float48 sin(float48 x) 
.................... { 
....................    return cos(x - PI_DIV_BY_TWO); 
.................... } 
....................  
.................... // Overloaded function sin() for data type - Float48 
.................... float64 sin(float64 x) 
.................... { 
....................    return cos(x - PI_DIV_BY_TWO); 
.................... } 
.................... #endif 
....................  
.................... //////////////////////////////////////////////////////////////////////////// 
.................... //   float tan(float x) 
.................... //////////////////////////////////////////////////////////////////////////// 
.................... // Description : returns the tangent value of the angle x, which is in radian 
.................... // Date : 9/20/2001 
.................... // 
.................... float32 tan(float32 x) 
.................... { 
....................    float32 c, s; 
....................  
....................    c = cos(x); 
....................    if (c == 0.0) 
....................       return (1.0e+36); 
....................  
....................    s = sin(x); 
....................    return(s/c); 
.................... } 
.................... //Overloaded functions for tan() for PCD 
.................... // Overloaded function tan() for data type - Float48 
.................... #if defined(__PCD__) 
.................... float48 tan(float48 x) 
.................... { 
....................    float48 c, s; 
....................  
....................    c = cos(x); 
....................    if (c == 0.0) 
....................       return (1.0e+36); 
....................  
....................    s = sin(x); 
....................    return(s/c); 
.................... } 
....................  
.................... // Overloaded function tan() for data type - Float48 
.................... float64 tan(float64 x) 
.................... { 
....................    float64 c, s; 
....................  
....................    c = cos(x); 
....................    if (c == 0.0) 
....................       return (1.0e+36); 
....................  
....................    s = sin(x); 
....................    return(s/c); 
.................... } 
.................... #endif 
....................  
.................... float32 const pas[3] = {0.49559947, -4.6145309, 5.6036290}; 
.................... float32 const qas[3] = {1.0000000,  -5.5484666, 5.6036290}; 
....................  
.................... float32 ASIN_COS(float32 x, unsigned int8 n) 
.................... { 
....................    float32 y, res, r, y2; 
....................    int1 s; 
....................    #ifdef _ERRNO 
....................    if(x <-1 || x > 1) 
....................    { 
....................       errno=EDOM; 
....................    } 
....................    #endif 
....................    s = 0; 
....................    y = x; 
....................  
....................    if (x < 0) 
....................    { 
....................       s = 1; 
....................       y = -y; 
....................    } 
....................  
....................    if (y > 0.5) 
....................    { 
....................       y = sqrt((1.0 - y)/2.0); 
....................       n += 2; 
....................    } 
....................  
....................    y2=y*y; 
....................  
....................    res = pas[0]*y2 + pas[1]; 
....................    res = res*y2 + pas[2]; 
....................  
....................    r = qas[0]*y2 + qas[1]; 
....................    r = r*y2 + qas[2]; 
....................  
....................    res = y*res/r; 
....................  
....................    if (n & 2)     // |x| > 0.5 
....................       res = PI_DIV_BY_TWO - 2.0*res; 
....................    if (s) 
....................       res = -res; 
....................    if (n & 1)           // take arccos 
....................       res = PI_DIV_BY_TWO - res; 
....................  
....................    return(res); 
.................... } 
....................  
.................... //Overloaded functions for ASIN_COS() for PCD 
.................... // Overloaded function ASIN_COS() for data type - Float48 
.................... #if defined(__PCD__) 
.................... float48 ASIN_COS(float48 x, unsigned int8 n) 
.................... { 
....................    float48 y, res, r, y2; 
....................    int1 s; 
....................    #ifdef _ERRNO 
....................    if(x <-1 || x > 1) 
....................    { 
....................       errno=EDOM; 
....................    } 
....................    #endif 
....................    s = 0; 
....................    y = x; 
....................  
....................    if (x < 0) 
....................    { 
....................       s = 1; 
....................       y = -y; 
....................    } 
....................  
....................    if (y > 0.5) 
....................    { 
....................       y = sqrt((1.0 - y)/2.0); 
....................       n += 2; 
....................    } 
....................  
....................    y2=y*y; 
....................  
....................    res = pas[0]*y2 + pas[1]; 
....................    res = res*y2 + pas[2]; 
....................  
....................    r = qas[0]*y2 + qas[1]; 
....................    r = r*y2 + qas[2]; 
....................  
....................    res = y*res/r; 
....................  
....................    if (n & 2)     // |x| > 0.5 
....................       res = PI_DIV_BY_TWO - 2.0*res; 
....................    if (s) 
....................       res = -res; 
....................    if (n & 1)           // take arccos 
....................       res = PI_DIV_BY_TWO - res; 
....................  
....................    return(res); 
.................... } 
....................  
.................... // Overloaded function ASIN_COS() for data type - Float64 
.................... float64 ASIN_COS(float64 x, unsigned int8 n) 
.................... { 
....................    float64 y, res, r, y2; 
....................    int1 s; 
....................    #ifdef _ERRNO 
....................    if(x <-1 || x > 1) 
....................    { 
....................       errno=EDOM; 
....................    } 
....................    #endif 
....................    s = 0; 
....................    y = x; 
....................  
....................    if (x < 0) 
....................    { 
....................       s = 1; 
....................       y = -y; 
....................    } 
....................  
....................    if (y > 0.5) 
....................    { 
....................       y = sqrt((1.0 - y)/2.0); 
....................       n += 2; 
....................    } 
....................  
....................    y2=y*y; 
....................  
....................    res = pas[0]*y2 + pas[1]; 
....................    res = res*y2 + pas[2]; 
....................  
....................    r = qas[0]*y2 + qas[1]; 
....................    r = r*y2 + qas[2]; 
....................  
....................    res = y*res/r; 
....................  
....................    if (n & 2)     // |x| > 0.5 
....................       res = PI_DIV_BY_TWO - 2.0*res; 
....................    if (s) 
....................       res = -res; 
....................    if (n & 1)           // take arccos 
....................       res = PI_DIV_BY_TWO - res; 
....................  
....................    return(res); 
.................... } 
.................... #endif 
....................  
.................... //////////////////////////////////////////////////////////////////////////// 
.................... //   float asin(float x) 
.................... //////////////////////////////////////////////////////////////////////////// 
.................... // Description : returns the arcsine value of the value x. 
.................... // Date : N/A 
.................... // 
.................... float32 asin(float32 x) 
.................... { 
....................    float32 r; 
....................  
....................    r = ASIN_COS(x, 0); 
....................    return(r); 
.................... } 
.................... //Overloaded functions for asin() for PCD 
.................... // Overloaded function asin() for data type - Float48 
.................... #if defined(__PCD__) 
.................... float48 asin(float48 x) 
.................... { 
....................    float48 r; 
....................  
....................    r = ASIN_COS(x, 0); 
....................    return(r); 
.................... } 
....................  
.................... // Overloaded function asin() for data type - Float64 
.................... float64 asin(float64 x) 
.................... { 
....................    float64 r; 
....................  
....................    r = ASIN_COS(x, 0); 
....................    return(r); 
.................... } 
.................... #endif 
....................  
.................... //////////////////////////////////////////////////////////////////////////// 
.................... //   float acos(float x) 
.................... //////////////////////////////////////////////////////////////////////////// 
.................... // Description : returns the arccosine value of the value x. 
.................... // Date : N/A 
.................... // 
.................... float32 acos(float32 x) 
.................... { 
....................    float32 r; 
....................  
....................    r = ASIN_COS(x, 1); 
....................    return(r); 
.................... } 
.................... //Overloaded functions for acos() for PCD 
.................... // Overloaded function acos() for data type - Float48 
.................... #if defined(__PCD__) 
.................... float48 acos(float48 x) 
.................... { 
....................    float48 r; 
....................  
....................    r = ASIN_COS(x, 1); 
....................    return(r); 
.................... } 
....................  
.................... // Overloaded function acos() for data type - Float64 
.................... float64 acos(float64 x) 
.................... { 
....................    float64 r; 
....................  
....................    r = ASIN_COS(x, 1); 
....................    return(r); 
.................... } 
.................... #endif 
....................  
.................... float32 const pat[4] = {0.17630401, 5.6710795, 22.376096, 19.818457}; 
.................... float32 const qat[4] = {1.0000000,  11.368190, 28.982246, 19.818457}; 
....................  
.................... //////////////////////////////////////////////////////////////////////////// 
.................... //   float atan(float x) 
.................... //////////////////////////////////////////////////////////////////////////// 
.................... // Description : returns the arctangent value of the value x. 
.................... // Date : N/A 
.................... // 
.................... float32 atan(float32 x) 
.................... { 
....................    float32 y, res, r; 
....................    int1 s, flag; 
....................  
....................    s = 0; 
....................    flag = 0; 
....................    y = x; 
....................  
....................    if (x < 0) 
....................    { 
....................       s = 1; 
....................       y = -y; 
....................    } 
....................  
....................    if (y > 1.0) 
....................    { 
....................       y = 1.0/y; 
....................       flag = 1; 
....................    } 
....................  
....................    res = pat[0]*y*y + pat[1]; 
....................    res = res*y*y + pat[2]; 
....................    res = res*y*y + pat[3]; 
....................  
....................    r = qat[0]*y*y + qat[1]; 
....................    r = r*y*y + qat[2]; 
....................    r = r*y*y + qat[3]; 
....................  
....................    res = y*res/r; 
....................  
....................  
....................    if (flag)                              // for |x| > 1 
....................       res = PI_DIV_BY_TWO - res; 
....................    if (s) 
....................       res = -res; 
....................  
....................    return(res); 
.................... } 
.................... //Overloaded functions for atan() for PCD 
.................... // Overloaded function atan() for data type - Float48 
.................... #if defined(__PCD__) 
.................... float48 atan(float48 x) 
.................... { 
....................    float48 y, res, r; 
....................    int1 s, flag; 
....................  
....................    s = 0; 
....................    flag = 0; 
....................    y = x; 
....................  
....................    if (x < 0) 
....................    { 
....................       s = 1; 
....................       y = -y; 
....................    } 
....................  
....................    if (y > 1.0) 
....................    { 
....................       y = 1.0/y; 
....................       flag = 1; 
....................    } 
....................  
....................    res = pat[0]*y*y + pat[1]; 
....................    res = res*y*y + pat[2]; 
....................    res = res*y*y + pat[3]; 
....................  
....................    r = qat[0]*y*y + qat[1]; 
....................    r = r*y*y + qat[2]; 
....................    r = r*y*y + qat[3]; 
....................  
....................    res = y*res/r; 
....................  
....................  
....................    if (flag)                              // for |x| > 1 
....................       res = PI_DIV_BY_TWO - res; 
....................    if (s) 
....................       res = -res; 
....................  
....................    return(res); 
.................... } 
....................  
.................... // Overloaded function atan() for data type - Float64 
.................... float64 atan(float64 x) 
.................... { 
....................    float64 y, res, r; 
....................    int1 s, flag; 
....................  
....................    s = 0; 
....................    flag = 0; 
....................    y = x; 
....................  
....................    if (x < 0) 
....................    { 
....................       s = 1; 
....................       y = -y; 
....................    } 
....................  
....................    if (y > 1.0) 
....................    { 
....................       y = 1.0/y; 
....................       flag = 1; 
....................    } 
....................  
....................    res = pat[0]*y*y + pat[1]; 
....................    res = res*y*y + pat[2]; 
....................    res = res*y*y + pat[3]; 
....................  
....................    r = qat[0]*y*y + qat[1]; 
....................    r = r*y*y + qat[2]; 
....................    r = r*y*y + qat[3]; 
....................  
....................    res = y*res/r; 
....................  
....................  
....................    if (flag)                              // for |x| > 1 
....................       res = PI_DIV_BY_TWO - res; 
....................    if (s) 
....................       res = -res; 
....................  
....................    return(res); 
.................... } 
.................... #endif 
....................  
.................... ///////////////////////////////////////////////////////////////////////////// 
.................... //   float atan2(float y, float x) 
.................... ///////////////////////////////////////////////////////////////////////////// 
.................... // Description :computes the principal value of arc tangent of y/x, using the 
.................... // signs of both the arguments to determine the quadrant of the return value 
.................... // Returns : returns the arc tangent of y/x. 
.................... // Date : N/A 
.................... // 
....................  
.................... float32 atan2(float32 y,float32 x) 
.................... { 
....................    float32 z; 
....................    int1 sign; 
....................    unsigned int8 quad; 
....................    sign=0; 
....................    quad=0; //quadrant 
....................    quad=((y<=0.0)?((x<=0.0)?3:4):((x<0.0)?2:1)); 
....................    if(y<0.0) 
....................    { 
....................       sign=1; 
....................       y=-y; 
....................    } 
....................    if(x<0.0) 
....................    { 
....................       x=-x; 
....................    } 
....................    if (x==0.0) 
....................    { 
....................       if(y==0.0) 
....................       { 
....................       #ifdef _ERRNO 
....................       { 
....................          errno=EDOM; 
....................       } 
....................       #endif 
....................       } 
....................       else 
....................       { 
....................          if(sign) 
....................          { 
....................          return (-(PI_DIV_BY_TWO)); 
....................          } 
....................          else 
....................          { 
....................          return (PI_DIV_BY_TWO); 
....................          } 
....................       } 
....................    } 
....................    else 
....................    { 
....................       z=y/x; 
....................       switch(quad) 
....................       { 
....................          case 1: 
....................          { 
....................             return atan(z); 
....................             break; 
....................          } 
....................          case 2: 
....................          { 
.................... //            return (atan(z)+PI_DIV_BY_TWO);  //2L3122 
....................             return (PI-atan(z)); 
....................             break; 
....................          } 
....................          case 3: 
....................          { 
....................             return (atan(z)-PI); 
....................             break; 
....................          } 
....................          case 4: 
....................          { 
....................             return (-atan(z)); 
....................             break; 
....................          } 
....................       } 
....................    } 
.................... } 
....................  
.................... //Overloaded functions for atan2() for PCD 
.................... // Overloaded function atan2() for data type - Float48 
.................... #if defined(__PCD__) 
.................... float48 atan2(float48 y,float48 x) 
.................... { 
....................    float48 z; 
....................    int1 sign; 
....................    unsigned int8 quad; 
....................    sign=0; 
....................    quad=0; //quadrant 
....................    quad=((y<=0.0)?((x<=0.0)?3:4):((x<0.0)?2:1)); 
....................    if(y<0.0) 
....................    { 
....................       sign=1; 
....................       y=-y; 
....................    } 
....................    if(x<0.0) 
....................    { 
....................       x=-x; 
....................    } 
....................    if (x==0.0) 
....................    { 
....................       if(y==0.0) 
....................       { 
....................       #ifdef _ERRNO 
....................       { 
....................          errno=EDOM; 
....................       } 
....................       #endif 
....................       } 
....................       else 
....................       { 
....................          if(sign) 
....................          { 
....................          return (-(PI_DIV_BY_TWO)); 
....................          } 
....................          else 
....................          { 
....................          return (PI_DIV_BY_TWO); 
....................          } 
....................       } 
....................    } 
....................    else 
....................    { 
....................       z=y/x; 
....................       switch(quad) 
....................       { 
....................          case 1: 
....................          { 
....................             return atan(z); 
....................             break; 
....................          } 
....................          case 2: 
....................          { 
.................... //            return (atan(z)+PI_DIV_BY_TWO);  //2L3122 
....................             return (PI-atan(z)); 
....................             break; 
....................          } 
....................          case 3: 
....................          { 
....................             return (atan(z)-PI); 
....................             break; 
....................          } 
....................          case 4: 
....................          { 
....................             return (-atan(z)); 
....................             break; 
....................          } 
....................       } 
....................    } 
.................... } 
....................  
.................... // Overloaded function atan2() for data type - Float64 
.................... float64 atan2(float64 y,float64 x) 
.................... { 
....................    float64 z; 
....................    int1 sign; 
....................    unsigned int8 quad; 
....................    sign=0; 
....................    quad=0; //quadrant 
....................    quad=((y<=0.0)?((x<=0.0)?3:4):((x<0.0)?2:1)); 
....................    if(y<0.0) 
....................    { 
....................       sign=1; 
....................       y=-y; 
....................    } 
....................    if(x<0.0) 
....................    { 
....................       x=-x; 
....................    } 
....................    if (x==0.0) 
....................    { 
....................       if(y==0.0) 
....................       { 
....................       #ifdef _ERRNO 
....................       { 
....................          errno=EDOM; 
....................       } 
....................       #endif 
....................       } 
....................       else 
....................       { 
....................          if(sign) 
....................          { 
....................          return (-(PI_DIV_BY_TWO)); 
....................          } 
....................          else 
....................          { 
....................          return (PI_DIV_BY_TWO); 
....................          } 
....................       } 
....................    } 
....................    else 
....................    { 
....................       z=y/x; 
....................       switch(quad) 
....................       { 
....................          case 1: 
....................          { 
....................             return atan(z); 
....................             break; 
....................          } 
....................          case 2: 
....................          { 
.................... //            return (atan(z)+PI_DIV_BY_TWO);  //2L3122 
....................             return (PI-atan(z)); 
....................             break; 
....................          } 
....................          case 3: 
....................          { 
....................             return (atan(z)-PI); 
....................             break; 
....................          } 
....................          case 4: 
....................          { 
....................             return (-atan(z)); 
....................             break; 
....................          } 
....................       } 
....................    } 
.................... } 
.................... #endif 
....................  
.................... //////////////////// Hyperbolic functions //////////////////// 
....................  
.................... //////////////////////////////////////////////////////////////////////////// 
.................... //   float cosh(float x) 
.................... //////////////////////////////////////////////////////////////////////////// 
.................... // Description : Computes the hyperbolic cosine value of x 
.................... // Returns : returns the hyperbolic cosine value of x 
.................... // Date : N/A 
.................... // 
....................  
.................... float32 cosh(float32 x) 
.................... { 
....................    return ((exp(x)+exp(-x))/2); 
.................... } 
.................... //Overloaded functions for cosh() for PCD 
.................... // Overloaded function cosh() for data type - Float48 
.................... #if defined(__PCD__) 
.................... float48 cosh(float48 x) 
.................... { 
....................    return ((exp(x)+exp(-x))/2); 
.................... } 
....................  
.................... // Overloaded function cosh() for data type - Float64 
.................... float64 cosh(float64 x) 
.................... { 
....................    return ((exp(x)+exp(-x))/2); 
.................... } 
.................... #endif 
....................  
.................... //////////////////////////////////////////////////////////////////////////// 
.................... //   float sinh(float x) 
.................... //////////////////////////////////////////////////////////////////////////// 
.................... // Description : Computes the hyperbolic sine value of x 
.................... // Returns : returns the hyperbolic sine value of x 
.................... // Date : N/A 
.................... // 
....................  
.................... float32 sinh(float32 x) 
.................... { 
....................  
....................    return ((exp(x) - exp(-x))/2); 
.................... } 
.................... //Overloaded functions for sinh() for PCD 
.................... // Overloaded function sinh() for data type - Float48 
.................... #if defined(__PCD__) 
.................... float48 sinh(float48 x) 
.................... { 
....................  
....................    return ((exp(x) - exp(-x))/2); 
.................... } 
....................  
.................... // Overloaded function sinh() for data type - Float48 
.................... float64 sinh(float64 x) 
.................... { 
....................  
....................    return ((exp(x) - exp(-x))/2); 
.................... } 
.................... #endif 
....................  
.................... //////////////////////////////////////////////////////////////////////////// 
.................... //   float tanh(float x) 
.................... //////////////////////////////////////////////////////////////////////////// 
.................... // Description : Computes the hyperbolic tangent value of x 
.................... // Returns : returns the hyperbolic tangent value of x 
.................... // Date : N/A 
.................... // 
....................  
.................... float32 tanh(float32 x) 
.................... { 
....................    return(sinh(x)/cosh(x)); 
.................... } 
.................... //Overloaded functions for tanh() for PCD 
.................... // Overloaded function tanh() for data type - Float48 
.................... #if defined(__PCD__) 
.................... float48 tanh(float48 x) 
.................... { 
....................    return(sinh(x)/cosh(x)); 
.................... } 
....................  
.................... // Overloaded function tanh() for data type - Float64 
.................... float64 tanh(float64 x) 
.................... { 
....................    return(sinh(x)/cosh(x)); 
.................... } 
.................... #endif 
....................  
.................... //////////////////////////////////////////////////////////////////////////// 
.................... //   float frexp(float x, signed int *exp) 
.................... //////////////////////////////////////////////////////////////////////////// 
.................... // Description : breaks a floating point number into a normalized fraction and an integral 
.................... // power of 2. It stores the integer in the signed int object pointed to by exp. 
.................... // Returns : returns the value x, such that x is a double with magnitude in the interval 
.................... // [1/2,1) or zero, and value equals x times 2 raised to the power *exp.If value is zero, 
.................... // both parts of the result are zero. 
.................... // Date : N/A 
.................... // 
....................  
.................... #define LOG2 .30102999566398119521 
.................... float32 frexp(float32 x, signed int8 *exp) 
.................... { 
....................    float32 res; 
....................    int1 sign = 0; 
....................    if(x == 0.0) 
....................    { 
....................       *exp=0; 
....................       return (0.0); 
....................    } 
....................    if(x < 0.0) 
....................    { 
....................      x=-x; 
....................      sign=1; 
....................    } 
....................    if (x > 1.0) 
....................    { 
....................       *exp=(ceil(log10(x)/LOG2)); 
....................       res=x/(pow(2, *exp)); 
....................       if (res == 1) 
....................       { 
....................          *exp=*exp+1; 
....................           res=.5; 
....................       } 
....................    } 
....................    else 
....................    { 
....................       if(x < 0.5) 
....................       { 
....................          *exp=-1; 
....................          res=x*2; 
....................       } 
....................       else 
....................       { 
....................          *exp=0; 
....................           res=x; 
....................       } 
....................    } 
....................    if(sign) 
....................    { 
....................       res=-res; 
....................    } 
....................    return res; 
.................... } 
....................  
.................... //Overloaded functions for frexp() for PCD 
.................... // Overloaded function frexp() for data type - Float48 
.................... #if defined(__PCD__) 
.................... float48 frexp(float48 x, signed int8 *exp) 
.................... { 
....................    float48 res; 
....................    int1 sign = 0; 
....................    if(x == 0.0) 
....................    { 
....................       *exp=0; 
....................       return (0.0); 
....................    } 
....................    if(x < 0.0) 
....................    { 
....................      x=-x; 
....................      sign=1; 
....................    } 
....................    if (x > 1.0) 
....................    { 
....................       *exp=(ceil(log10(x)/LOG2)); 
....................       res=x/(pow(2, *exp)); 
....................       if (res == 1) 
....................       { 
....................          *exp=*exp+1; 
....................           res=.5; 
....................       } 
....................    } 
....................    else 
....................    { 
....................       if(x < 0.5) 
....................       { 
....................          *exp=-1; 
....................          res=x*2; 
....................       } 
....................       else 
....................       { 
....................          *exp=0; 
....................           res=x; 
....................       } 
....................    } 
....................    if(sign) 
....................    { 
....................       res=-res; 
....................    } 
....................    return res; 
.................... } 
....................  
.................... // Overloaded function frexp() for data type - Float64 
.................... float64 frexp(float64 x, signed int8 *exp) 
.................... { 
....................    float64 res; 
....................    int1 sign = 0; 
....................    if(x == 0.0) 
....................    { 
....................       *exp=0; 
....................       return (0.0); 
....................    } 
....................    if(x < 0.0) 
....................    { 
....................      x=-x; 
....................      sign=1; 
....................    } 
....................    if (x > 1.0) 
....................    { 
....................       *exp=(ceil(log10(x)/LOG2)); 
....................       res=x/(pow(2, *exp)); 
....................       if (res == 1) 
....................       { 
....................          *exp=*exp+1; 
....................           res=.5; 
....................       } 
....................    } 
....................    else 
....................    { 
....................       if(x < 0.5) 
....................       { 
....................          *exp=-1; 
....................          res=x*2; 
....................       } 
....................       else 
....................       { 
....................          *exp=0; 
....................           res=x; 
....................       } 
....................    } 
....................    if(sign) 
....................    { 
....................       res=-res; 
....................    } 
....................    return res; 
.................... } 
.................... #endif 
....................  
.................... ////////////////////////////////////////////////////////////////////////////// 
.................... //   float ldexp(float x, signed int *exp) 
.................... ////////////////////////////////////////////////////////////////////////////// 
.................... // Description : multiplies a floating point number by an integral power of 2. 
.................... // Returns : returns the value of x times 2 raised to the power exp. 
.................... // Date : N/A 
.................... // 
....................  
.................... float32 ldexp(float32 value, signed int8 exp) 
.................... { 
....................    return (value * pow(2,exp)); 
.................... } 
.................... //Overloaded functions for ldexp() for PCD 
.................... // Overloaded function ldexp() for data type - Float48 
....................  
.................... #if defined(__PCD__) 
.................... float48 ldexp(float48 value, signed int8 exp) 
.................... { 
....................    return (value * pow(2,exp)); 
.................... } 
.................... // Overloaded function ldexp() for data type - Float64 
.................... float64 ldexp(float64 value, signed int8 exp) 
.................... { 
....................    return (value * pow(2,exp)); 
.................... } 
.................... #endif 
....................  
.................... #endif 
....................  
.................... #include "HDM64GS12.c" 
.................... ///////////////////////////////////////////////////////////////////////// 
.................... ////                           HDM64GS12.c                           //// 
.................... ////                                                                 //// 
.................... //// This file contains drivers for using a Hantronix HDM64GS12 with //// 
.................... //// a KS0108 display controller. The HDM64GS12 is 128 by 64 pixels. //// 
.................... //// The driver treats the upper left pixel as (0,0).                //// 
.................... ////                                                                 //// 
.................... //// Use #define FAST_GLCD if the target chip has at least 1k of RAM //// 
.................... //// to decrease the time it takes to update the display.            //// 
.................... //// glcd_update() must then be called to update the display after   //// 
.................... //// changing the pixel information.                                 //// 
.................... //// See ex_glcd.c for suggested usage.                              //// 
.................... //// See KS0108.c for controlling a single 64 by 64 display          //// 
.................... ///////////////////////////////////////////////////////////////////////// 
.................... ////                                                                 //// 
.................... //// LCD Pin connections:                                            //// 
.................... //// (These can be changed as needed in the following defines).      //// 
.................... ////  * 1: VSS is connected to GND                                   //// 
.................... ////  * 2: VDD is connected to +5V                                   //// 
.................... ////  * 3: V0  - LCD operating voltage (Constrast adjustment)        //// 
.................... ////  * 4: D/I - Data or Instruction is connected to B2              //// 
.................... ////  * 5: R/W - Read or Write is connected to B4                    //// 
.................... ////  * 6: Enable is connected to B5                                 //// 
.................... ////  *7-14: Data Bus 0 to 7 is connected to port d                  //// 
.................... ////  *15: Chip Select 1 is connected to B0                          //// 
.................... ////  *16: Chip Select 2 is connected to B1                          //// 
.................... ////  *17: Reset is connected to C0                                  //// 
.................... ////  *18: Negative voltage is also connected to the 20k Ohm POT     //// 
.................... ////  *19: Positive voltage for LED backlight is connected to +5V    //// 
.................... ////  *20: Negavtive voltage for LED backlight is connected to GND   //// 
.................... ////                                                                 //// 
.................... ///////////////////////////////////////////////////////////////////////// 
.................... ////                                                                 //// 
.................... ////  glcd_init(mode)                                                //// 
.................... ////     * Must be called before any other function.                 //// 
.................... ////       - mode can be ON or OFF to turn the LCD on or off         //// 
.................... ////                                                                 //// 
.................... ////  glcd_pixel(x,y,color)                                          //// 
.................... ////     * Sets the pixel to the given color.                        //// 
.................... ////       - color can be ON or OFF                                  //// 
.................... ////                                                                 //// 
.................... ////  glcd_fillScreen(color)                                         //// 
.................... ////     * Fills the entire LCD with the given color.                //// 
.................... ////       - color can be ON or OFF                                  //// 
.................... ////                                                                 //// 
.................... ////  glcd_update()                                                  //// 
.................... ////     * Write the display data stored in RAM to the LCD           //// 
.................... ////     * Only available if FAST_GLCD is defined                    //// 
.................... ////                                                                 //// 
.................... ///////////////////////////////////////////////////////////////////////// 
.................... ////        (C) Copyright 1996, 2004 Custom Computer Services        //// 
.................... //// This source code may only be used by licensed users of the CCS  //// 
.................... //// C compiler.  This source code may only be distributed to other  //// 
.................... //// licensed users of the CCS C compiler.  No other use,            //// 
.................... //// reproduction or distribution is permitted without written       //// 
.................... //// permission.  Derivative programs created using this software    //// 
.................... //// in object code form are not restricted in any way.              //// 
.................... ///////////////////////////////////////////////////////////////////////// 
....................  
....................  
....................  
.................... #ifndef HDM64GS12 
.................... #define HDM64GS12 
....................  
.................... #ifndef FAST_GLCD 
.................... #define FAST_GLCD 
....................  
.................... #ifndef GLCD_WIDTH 
.................... #define GLCD_WIDTH   128 
.................... #endif 
....................  
.................... #ifndef GLCD_CS1 
.................... #define GLCD_CS1     PIN_B2   // Chip Selection 1 
.................... #endif 
....................  
.................... #ifndef GLCD_CS2 
.................... #define GLCD_CS2     PIN_B3   // Chip Selection 2 
.................... #endif 
....................  
.................... #ifndef GLCD_DI 
.................... #define GLCD_DI      PIN_B5   // Data or Instruction input 
.................... #endif 
....................  
.................... #ifndef GLCD_RW 
.................... #define GLCD_RW      PIN_B6   // Read/Write 
.................... #endif 
....................  
.................... #ifndef GLCD_E 
.................... #define GLCD_E       PIN_B7   // Enable 
.................... #endif 
....................  
.................... #ifndef GLCD_RST 
.................... #define GLCD_RST     PIN_B4   // Reset 
.................... #endif 
....................  
.................... #define GLCD_LEFT    0 
.................... #define GLCD_RIGHT   1 
....................  
.................... #ifndef ON 
.................... #define ON           1 
.................... #endif 
....................  
.................... #ifndef OFF 
.................... #define OFF          0 
.................... #endif 
....................  
.................... ///////////////////////////////////////////////////////////////////////// 
.................... // Function Prototypes 
.................... ///////////////////////////////////////////////////////////////////////// 
.................... void glcd_init(int1 mode); 
.................... void glcd_pixel(int8 x, int8 y, int1 color); 
.................... void glcd_fillScreen(int1 color); 
.................... void glcd_writeByte(int1 side, BYTE data); 
.................... BYTE glcd_readByte(int1 side); 
.................... void glcd_update(); 
.................... ///////////////////////////////////////////////////////////////////////// 
....................  
.................... #ifdef FAST_GLCD 
.................... struct 
.................... { 
....................    int8 left[512]; 
....................    int8 right[512]; 
.................... } displayData; 
.................... #endif 
....................  
....................  
.................... // Purpose:       Initialize the LCD. 
.................... //                Call before using any other LCD function. 
.................... // Inputs:        OFF - Turns the LCD off 
.................... //                ON  - Turns the LCD on 
.................... void glcd_init(int1 mode) 
.................... { 
....................    // Initialze some pins 
....................    output_high(GLCD_RST); 
*
0173E:  BCF    F93.4
01740:  BSF    F8A.4
....................    output_low(GLCD_E); 
01742:  BCF    F93.7
01744:  BCF    F8A.7
....................    output_low(GLCD_CS1); 
01746:  BCF    F93.2
01748:  BCF    F8A.2
....................    output_low(GLCD_CS2); 
0174A:  BCF    F93.3
0174C:  BCF    F8A.3
....................  
....................    output_low(GLCD_DI);                 // Set for instruction 
0174E:  BCF    F93.5
01750:  BCF    F8A.5
....................    glcd_writeByte(GLCD_LEFT,  0xC0);    // Specify first RAM line at the top 
01752:  MOVLB  5
01754:  CLRF   xFA
01756:  MOVLW  C0
01758:  MOVWF  xFB
0175A:  MOVLB  0
0175C:  RCALL  15F6
....................    glcd_writeByte(GLCD_RIGHT, 0xC0);    //   of the screen 
0175E:  MOVLW  01
01760:  MOVLB  5
01762:  MOVWF  xFA
01764:  MOVLW  C0
01766:  MOVWF  xFB
01768:  MOVLB  0
0176A:  RCALL  15F6
....................    glcd_writeByte(GLCD_LEFT,  0x40);    // Set the column address to 0 
0176C:  MOVLB  5
0176E:  CLRF   xFA
01770:  MOVLW  40
01772:  MOVWF  xFB
01774:  MOVLB  0
01776:  RCALL  15F6
....................    glcd_writeByte(GLCD_RIGHT, 0x40); 
01778:  MOVLW  01
0177A:  MOVLB  5
0177C:  MOVWF  xFA
0177E:  MOVLW  40
01780:  MOVWF  xFB
01782:  MOVLB  0
01784:  RCALL  15F6
....................    glcd_writeByte(GLCD_LEFT,  0xB8);    // Set the page address to 0 
01786:  MOVLB  5
01788:  CLRF   xFA
0178A:  MOVLW  B8
0178C:  MOVWF  xFB
0178E:  MOVLB  0
01790:  RCALL  15F6
....................    glcd_writeByte(GLCD_RIGHT, 0xB8); 
01792:  MOVLW  01
01794:  MOVLB  5
01796:  MOVWF  xFA
01798:  MOVLW  B8
0179A:  MOVWF  xFB
0179C:  MOVLB  0
0179E:  RCALL  15F6
....................  
....................    if(mode == ON) 
017A0:  MOVLB  5
017A2:  DECFSZ xEB,W
017A4:  BRA    17C2
....................    { 
....................       glcd_writeByte(GLCD_LEFT,  0x3F); // Turn the display on 
017A6:  CLRF   xFA
017A8:  MOVLW  3F
017AA:  MOVWF  xFB
017AC:  MOVLB  0
017AE:  RCALL  15F6
....................       glcd_writeByte(GLCD_RIGHT, 0x3F); 
017B0:  MOVLW  01
017B2:  MOVLB  5
017B4:  MOVWF  xFA
017B6:  MOVLW  3F
017B8:  MOVWF  xFB
017BA:  MOVLB  0
017BC:  RCALL  15F6
....................    } 
....................    else 
017BE:  BRA    17DA
017C0:  MOVLB  5
....................    { 
....................       glcd_writeByte(GLCD_LEFT,  0x3E); // Turn the display off 
017C2:  CLRF   xFA
017C4:  MOVLW  3E
017C6:  MOVWF  xFB
017C8:  MOVLB  0
017CA:  RCALL  15F6
....................       glcd_writeByte(GLCD_RIGHT, 0x3E); 
017CC:  MOVLW  01
017CE:  MOVLB  5
017D0:  MOVWF  xFA
017D2:  MOVLW  3E
017D4:  MOVWF  xFB
017D6:  MOVLB  0
017D8:  RCALL  15F6
....................    } 
....................  
....................    glcd_fillScreen(OFF);                // Clear the display 
017DA:  MOVLB  5
017DC:  CLRF   xF3
017DE:  MOVLB  0
017E0:  RCALL  162C
....................  
....................    #ifdef FAST_GLCD 
....................    glcd_update(); 
017E2:  RCALL  1686
....................    #endif 
.................... } 
017E4:  RETLW  00
....................  
....................  
.................... // Purpose:    Update the LCD with data from the display arrays 
.................... #ifdef FAST_GLCD 
.................... void glcd_update() 
.................... { 
....................    int8 i, j; 
....................    int8 *p1, *p2; 
....................  
....................    p1 = displayData.left; 
*
01686:  MOVLB  5
01688:  CLRF   xF6
0168A:  MOVLW  17
0168C:  MOVWF  xF5
....................    p2 = displayData.right; 
0168E:  MOVLW  02
01690:  MOVWF  xF8
01692:  MOVLW  17
01694:  MOVWF  xF7
....................  
....................    // Loop through the vertical pages 
....................    for(i = 0; i < 8; ++i) 
01696:  CLRF   xF3
01698:  MOVF   xF3,W
0169A:  SUBLW  07
0169C:  BNC   173A
....................    { 
....................       output_low(GLCD_DI);                      // Set for instruction 
0169E:  BCF    F93.5
016A0:  BCF    F8A.5
....................       glcd_writeByte(GLCD_LEFT, 0x40);          // Set horizontal address to 0 
016A2:  CLRF   xFA
016A4:  MOVLW  40
016A6:  MOVWF  xFB
016A8:  MOVLB  0
016AA:  RCALL  15F6
....................       glcd_writeByte(GLCD_RIGHT, 0x40); 
016AC:  MOVLW  01
016AE:  MOVLB  5
016B0:  MOVWF  xFA
016B2:  MOVLW  40
016B4:  MOVWF  xFB
016B6:  MOVLB  0
016B8:  RCALL  15F6
....................       glcd_writeByte(GLCD_LEFT, i | 0xB8);      // Set page address 
016BA:  MOVLB  5
016BC:  MOVF   xF3,W
016BE:  IORLW  B8
016C0:  MOVWF  xF9
016C2:  CLRF   xFA
016C4:  MOVWF  xFB
016C6:  MOVLB  0
016C8:  RCALL  15F6
....................       glcd_writeByte(GLCD_RIGHT, i | 0xB8); 
016CA:  MOVLB  5
016CC:  MOVF   xF3,W
016CE:  IORLW  B8
016D0:  MOVWF  xF9
016D2:  MOVLW  01
016D4:  MOVWF  xFA
016D6:  MOVFF  5F9,5FB
016DA:  MOVLB  0
016DC:  RCALL  15F6
....................       output_high(GLCD_DI);                     // Set for data 
016DE:  BCF    F93.5
016E0:  BSF    F8A.5
....................  
....................       // Loop through the horizontal sections 
....................       for(j = 0; j < 64; ++j) 
016E2:  MOVLB  5
016E4:  CLRF   xF4
016E6:  MOVF   xF4,W
016E8:  SUBLW  3F
016EA:  BNC   1736
....................       { 
....................          glcd_writeByte(GLCD_LEFT, *p1++);      // Turn pixels on or off 
016EC:  MOVFF  5F6,03
016F0:  MOVF   xF5,W
016F2:  INCF   xF5,F
016F4:  BTFSC  FD8.2
016F6:  INCF   xF6,F
016F8:  MOVWF  FE9
016FA:  MOVFF  03,FEA
016FE:  MOVFF  FEF,5F9
01702:  CLRF   xFA
01704:  MOVFF  5F9,5FB
01708:  MOVLB  0
0170A:  RCALL  15F6
....................          glcd_writeByte(GLCD_RIGHT, *p2++);     // Turn pixels on or off 
0170C:  MOVLB  5
0170E:  MOVFF  5F8,03
01712:  MOVF   xF7,W
01714:  INCF   xF7,F
01716:  BTFSC  FD8.2
01718:  INCF   xF8,F
0171A:  MOVWF  FE9
0171C:  MOVFF  03,FEA
01720:  MOVFF  FEF,5F9
01724:  MOVLW  01
01726:  MOVWF  xFA
01728:  MOVFF  5F9,5FB
0172C:  MOVLB  0
0172E:  RCALL  15F6
....................       } 
01730:  MOVLB  5
01732:  INCF   xF4,F
01734:  BRA    16E6
....................    } 
01736:  INCF   xF3,F
01738:  BRA    1698
.................... } 
0173A:  MOVLB  0
0173C:  RETLW  00
.................... #endif 
....................  
....................  
.................... // Purpose:    Turn a pixel on a graphic LCD on or off 
.................... // Inputs:     1) x - the x coordinate of the pixel 
.................... //             2) y - the y coordinate of the pixel 
.................... //             3) color - ON or OFF 
.................... void glcd_pixel(int8 x, int8 y, int1 color) 
.................... #ifdef FAST_GLCD 
.................... { 
....................    int8* p; 
....................    int16 temp; 
....................    temp =  y/8; 
*
017E6:  MOVLB  6
017E8:  CLRF   x25
017EA:  RRCF   x20,W
017EC:  MOVWF  x24
017EE:  RRCF   x24,F
017F0:  RRCF   x24,F
017F2:  MOVLW  1F
017F4:  ANDWF  x24,F
....................    temp *= 64; 
017F6:  RLCF   x24,F
017F8:  RLCF   x25,F
017FA:  RLCF   x24,F
017FC:  RLCF   x25,F
017FE:  RLCF   x24,F
01800:  RLCF   x25,F
01802:  RLCF   x24,F
01804:  RLCF   x25,F
01806:  RLCF   x24,F
01808:  RLCF   x25,F
0180A:  RLCF   x24,F
0180C:  RLCF   x25,F
0180E:  MOVLW  C0
01810:  ANDWF  x24,F
....................    temp += x; 
01812:  MOVF   x1F,W
01814:  ADDWF  x24,F
01816:  MOVLW  00
01818:  ADDWFC x25,F
....................  
....................    if(x > 63) 
0181A:  MOVF   x1F,W
0181C:  SUBLW  3F
0181E:  BC    183A
....................    { 
....................       p = displayData.right + temp - 64; 
01820:  MOVLW  17
01822:  ADDWF  x24,W
01824:  MOVWF  x26
01826:  MOVLW  02
01828:  ADDWFC x25,W
0182A:  MOVWF  x27
0182C:  MOVLW  40
0182E:  SUBWF  x26,W
01830:  MOVWF  x22
01832:  MOVLW  00
01834:  SUBWFB x27,W
01836:  MOVWF  x23
....................    } 
....................    else 
01838:  BRA    1846
....................    { 
....................       p = displayData.left + temp; 
0183A:  MOVLW  17
0183C:  ADDWF  x24,W
0183E:  MOVWF  x22
01840:  MOVLW  00
01842:  ADDWFC x25,W
01844:  MOVWF  x23
....................    } 
....................  
....................    if(color) 
01846:  MOVF   x21,F
01848:  BZ    1874
....................    { 
....................       bit_set(*p, y%8); 
0184A:  MOVFF  623,03
0184E:  MOVFF  622,FE9
01852:  MOVFF  623,FEA
01856:  MOVF   x20,W
01858:  ANDLW  07
0185A:  MOVWF  x26
0185C:  MOVLW  01
0185E:  MOVWF  00
01860:  MOVF   x26,W
01862:  MOVWF  01
01864:  BZ    186E
01866:  BCF    FD8.0
01868:  RLCF   00,F
0186A:  DECFSZ 01,F
0186C:  BRA    1866
0186E:  MOVF   00,W
01870:  IORWF  FEF,F
....................    } 
....................    else 
01872:  BRA    189E
....................    { 
....................       bit_clear(*p, y%8); 
01874:  MOVFF  623,03
01878:  MOVFF  622,FE9
0187C:  MOVFF  623,FEA
01880:  MOVF   x20,W
01882:  ANDLW  07
01884:  MOVWF  x26
01886:  MOVLW  01
01888:  MOVWF  00
0188A:  MOVF   x26,W
0188C:  MOVWF  01
0188E:  BZ    1898
01890:  BCF    FD8.0
01892:  RLCF   00,F
01894:  DECFSZ 01,F
01896:  BRA    1890
01898:  MOVF   00,W
0189A:  XORLW  FF
0189C:  ANDWF  FEF,F
....................    } 
.................... } 
0189E:  MOVLB  0
018A0:  RETLW  00
.................... #else 
.................... { 
....................    BYTE data; 
....................    int1 side = GLCD_LEFT;  // Stores which chip to use on the LCD 
....................  
....................    if(x > 63)              // Check for first or second display area 
....................    { 
....................       x -= 64; 
....................       side = GLCD_RIGHT; 
....................    } 
....................  
....................    output_low(GLCD_DI);                         // Set for instruction 
....................    bit_clear(x,7);                              // Clear the MSB. Part of an instruction code 
....................    bit_set(x,6);                                // Set bit 6. Also part of an instruction code 
....................    glcd_writeByte(side, x);                     // Set the horizontal address 
....................    glcd_writeByte(side, (y/8 & 0xBF) | 0xB8);   // Set the vertical page address 
....................    output_high(GLCD_DI);                        // Set for data 
....................    glcd_readByte(side);                         // Need two reads to get data 
....................    data = glcd_readByte(side);                  //  at new address 
....................  
....................    if(color == ON) 
....................       bit_set(data, y%8);        // Turn the pixel on 
....................    else                          // or 
....................       bit_clear(data, y%8);      // turn the pixel off 
....................  
....................    output_low(GLCD_DI);          // Set for instruction 
....................    glcd_writeByte(side, x);      // Set the horizontal address 
....................    output_high(GLCD_DI);         // Set for data 
....................    glcd_writeByte(side, data);   // Write the pixel data 
.................... } 
.................... #endif 
....................  
....................  
.................... // Purpose:    Fill the LCD screen with the passed in color 
.................... // Inputs:     ON  - turn all the pixels on 
.................... //             OFF - turn all the pixels off 
.................... void glcd_fillScreen(int1 color) 
.................... #ifdef FAST_GLCD 
.................... { 
....................    int8  data; 
....................    int8  *p1, *p2; 
....................    int16 i; 
....................  
....................    p1 = displayData.left; 
*
0162C:  MOVLB  5
0162E:  CLRF   xF6
01630:  MOVLW  17
01632:  MOVWF  xF5
....................    p2 = displayData.right; 
01634:  MOVLW  02
01636:  MOVWF  xF8
01638:  MOVLW  17
0163A:  MOVWF  xF7
....................    data = 0xFF * color; 
0163C:  MOVF   xF3,W
0163E:  MULLW  FF
01640:  MOVFF  FF3,5F4
....................  
....................    for(i=0; i<512; ++i) 
01644:  CLRF   xFA
01646:  CLRF   xF9
01648:  MOVF   xFA,W
0164A:  SUBLW  01
0164C:  BNC   1682
....................    { 
....................       *p1++ = data; 
0164E:  MOVFF  5F6,03
01652:  MOVF   xF5,W
01654:  INCF   xF5,F
01656:  BTFSC  FD8.2
01658:  INCF   xF6,F
0165A:  MOVWF  FE9
0165C:  MOVFF  03,FEA
01660:  MOVFF  5F4,FEF
....................       *p2++ = data; 
01664:  MOVFF  5F8,03
01668:  MOVF   xF7,W
0166A:  INCF   xF7,F
0166C:  BTFSC  FD8.2
0166E:  INCF   xF8,F
01670:  MOVWF  FE9
01672:  MOVFF  03,FEA
01676:  MOVFF  5F4,FEF
....................    } 
0167A:  INCF   xF9,F
0167C:  BTFSC  FD8.2
0167E:  INCF   xFA,F
01680:  BRA    1648
.................... } 
01682:  MOVLB  0
01684:  RETLW  00
.................... #else 
.................... { 
....................    int8 i, j; 
....................  
....................    // Loop through the vertical pages 
....................    for(i = 0; i < 8; ++i) 
....................    { 
....................       output_low(GLCD_DI);                      // Set for instruction 
....................       glcd_writeByte(GLCD_LEFT, 0b01000000);    // Set horizontal address to 0 
....................       glcd_writeByte(GLCD_RIGHT, 0b01000000); 
....................       glcd_writeByte(GLCD_LEFT, i | 0b10111000);// Set page address 
....................       glcd_writeByte(GLCD_RIGHT, i | 0b10111000); 
....................       output_high(GLCD_DI);                     // Set for data 
....................  
....................       // Loop through the horizontal sections 
....................       for(j = 0; j < 64; ++j) 
....................       { 
....................          glcd_writeByte(GLCD_LEFT, 0xFF*color);  // Turn pixels on or off 
....................          glcd_writeByte(GLCD_RIGHT, 0xFF*color); // Turn pixels on or off 
....................       } 
....................    } 
.................... } 
.................... #endif 
....................  
....................  
.................... // Purpose:    Write a byte of data to the specified chip 
.................... // Inputs:     1) chipSelect - which chip to write the data to 
.................... //             2) data - the byte of data to write 
.................... void glcd_writeByte(int1 side, BYTE data) 
.................... { 
....................    if(side)                   // Choose which side to write to 
*
015F6:  MOVLB  5
015F8:  MOVF   xFA,F
015FA:  BZ    1602
....................       output_high(GLCD_CS2); 
015FC:  BCF    F93.3
015FE:  BSF    F8A.3
....................    else 
01600:  BRA    1606
....................       output_high(GLCD_CS1); 
01602:  BCF    F93.2
01604:  BSF    F8A.2
....................  
....................    output_low(GLCD_RW);       // Set for writing 
01606:  BCF    F93.6
01608:  BCF    F8A.6
....................    output_d(data);            // Put the data on the port 
0160A:  CLRF   F95
0160C:  MOVFF  5FB,F8C
....................    delay_cycles(1); 
01610:  NOP   
....................    output_high(GLCD_E);       // Pulse the enable pin 
01612:  BCF    F93.7
01614:  BSF    F8A.7
....................    delay_cycles(5); 
01616:  BRA    1618
01618:  BRA    161A
0161A:  NOP   
....................    output_low(GLCD_E); 
0161C:  BCF    F93.7
0161E:  BCF    F8A.7
....................  
....................    output_low(GLCD_CS1);      // Reset the chip select lines 
01620:  BCF    F93.2
01622:  BCF    F8A.2
....................    output_low(GLCD_CS2); 
01624:  BCF    F93.3
01626:  BCF    F8A.3
.................... } 
01628:  MOVLB  0
0162A:  RETLW  00
....................  
....................  
.................... // Purpose:    Reads a byte of data from the specified chip 
.................... // Ouputs:     A byte of data read from the chip 
.................... BYTE glcd_readByte(int1 side) 
.................... { 
....................    BYTE data;                 // Stores the data read from the LCD 
....................  
....................    set_tris_d(0xFF);          // Set port d to input 
....................    output_high(GLCD_RW);      // Set for reading 
....................  
....................    if(side)                   // Choose which side to write to 
....................       output_high(GLCD_CS2); 
....................    else 
....................       output_high(GLCD_CS1); 
....................  
....................    delay_cycles(1); 
....................    output_high(GLCD_E);       // Pulse the enable pin 
....................    delay_cycles(4); 
....................    data = input_d();          // Get the data from the display's output register 
....................    output_low(GLCD_E); 
....................  
....................    output_low(GLCD_CS1);      // Reset the chip select lines 
....................    output_low(GLCD_CS2); 
....................    return data;               // Return the read data 
.................... } 
....................  
.................... #endif 
....................  
.................... #include "GRAPHICS.c" 
.................... ///////////////////////////////////////////////////////////////////////// 
.................... ////                          graphics.c                             //// 
.................... ////                                                                 //// 
.................... ////   This file contains functions to draw lines, rectangles, bars, //// 
.................... ////   circles and text to a display. A function which draws a       //// 
.................... ////   single pixel must be defined before calling the functions in  //// 
.................... ////   this file. Call it glcd_pixel(x, y, color) where x is the     //// 
.................... ////   horizontal coordinate, y is the vertical coordinate, and      //// 
.................... ////   color is 1 bit to turn the pixel on or off.                   //// 
.................... ////                                                                 //// 
.................... ////   * Note: (0, 0) is treated as the upper left corner            //// 
.................... ////                                                                 //// 
.................... ///////////////////////////////////////////////////////////////////////// 
.................... ////                                                                 //// 
.................... ////  glcd_line(x1, y1, x2, y2, color)                               //// 
.................... ////     * Draws a line from the first point to the second point     //// 
.................... ////       with the given color                                      //// 
.................... ////       - color can be ON or OFF                                  //// 
.................... ////                                                                 //// 
.................... ////  glcd_rect(x1, y1, x2, y2, fill, color)                         //// 
.................... ////     * Draws a rectangle with one corner at point (x1,y1) and    //// 
.................... ////       the other corner at point (x2,y2)                         //// 
.................... ////       - fill can be YES or NO                                   //// 
.................... ////       - color can be ON or OFF                                  //// 
.................... ////                                                                 //// 
.................... ////  glcd_bar(x1, y1, x2, y2, width, color)                         //// 
.................... ////     * Draws a bar (wide line) from the first point to the       //// 
.................... ////       second point                                              //// 
.................... ////       - width is the number of pixels wide                      //// 
.................... ////       - color is ON or OFF                                      //// 
.................... ////                                                                 //// 
.................... ////  glcd_circle(x, y, radius, fill, color)                         //// 
.................... ////     * Draws a circle with center at (x,y)                       //// 
.................... ////       - fill can be YES or NO                                   //// 
.................... ////       - color can be ON or OFF                                  //// 
.................... ////                                                                 //// 
.................... ////  glcd_text57(x, y, textptr, size, color)                        //// 
.................... ////     * Write the null terminated text pointed to by textptr with //// 
.................... ////       the upper left coordinate of the first character at (x,y) //// 
.................... ////       Characters are 5 pixels wide and 7 pixels tall            //// 
.................... ////       - size is an integer that scales the size of the text     //// 
.................... ////       - color is ON or OFF                                      //// 
.................... ////     * Note - This function wraps characters to the next line    //// 
.................... ////              use #define GLCD_WIDTH to specify a display width  //// 
.................... ////                                                                 //// 
.................... ///////////////////////////////////////////////////////////////////////// 
.................... ////        (C) Copyright 1996, 2004 Custom Computer Services        //// 
.................... //// This source code may only be used by licensed users of the CCS  //// 
.................... //// C compiler.  This source code may only be distributed to other  //// 
.................... //// licensed users of the CCS C compiler.  No other use,            //// 
.................... //// reproduction or distribution is permitted without written       //// 
.................... //// permission.  Derivative programs created using this software    //// 
.................... //// in object code form are not restricted in any way.              //// 
.................... ///////////////////////////////////////////////////////////////////////// 
....................  
....................  
.................... ///////////////////////////////////////////////////////////////////////// 
.................... #ifndef GRAPHICS_DRAWING_FUNCTIONS 
.................... #define GRAPHICS_DRAWING_FUNCTIONS 
.................... ///////////////////////////////////////////////////////////////////////// 
....................  
....................  
.................... ///////////////////////////////////////////////////////////////////////// 
.................... #ifndef ON 
.................... #define ON  1 
.................... #endif 
....................  
.................... #ifndef OFF 
.................... #define OFF 0 
.................... #endif 
....................  
.................... #ifndef YES 
.................... #define YES 1 
.................... #endif 
....................  
.................... #ifndef NO 
.................... #define NO  0 
.................... #endif 
.................... ///////////////////////////////////////////////////////////////////////// 
....................  
....................  
.................... ///////////////////////////////////////////////////////////////////////// 
.................... //// Defines a 5x7 font 
.................... ///////////////////////////////////////////////////////////////////////// 
.................... const int8 FONT[51][5] ={0x00, 0x00, 0x00, 0x00, 0x00, // SPACE 
....................                          0x00, 0x00, 0x5F, 0x00, 0x00, // ! 
....................                          0x00, 0x03, 0x00, 0x03, 0x00, // " 
....................                          0x14, 0x3E, 0x14, 0x3E, 0x14, // # 
....................                          0x24, 0x2A, 0x7F, 0x2A, 0x12, // $ 
....................                          0x43, 0x33, 0x08, 0x66, 0x61, // % 
....................                          0x36, 0x49, 0x55, 0x22, 0x50, // & 
....................                          0x00, 0x05, 0x03, 0x00, 0x00, // ' 
....................                          0x00, 0x1C, 0x22, 0x41, 0x00, // ( 
....................                          0x00, 0x41, 0x22, 0x1C, 0x00, // ) 
....................                          0x14, 0x08, 0x3E, 0x08, 0x14, // * 
....................                          0x08, 0x08, 0x3E, 0x08, 0x08, // + 
....................                          0x00, 0x50, 0x30, 0x00, 0x00, // , 
....................                          0x08, 0x08, 0x08, 0x08, 0x08, // - 
....................                          0x00, 0x60, 0x60, 0x00, 0x00, // . 
....................                          0x20, 0x10, 0x08, 0x04, 0x02, // / 
....................                          0x3E, 0x51, 0x49, 0x45, 0x3E, // 0 
....................                          0x00, 0x04, 0x02, 0x7F, 0x00, // 1 
....................                          0x42, 0x61, 0x51, 0x49, 0x46, // 2 
....................                          0x22, 0x41, 0x49, 0x49, 0x36, // 3 
....................                          0x18, 0x14, 0x12, 0x7F, 0x10, // 4 
....................                          0x27, 0x45, 0x45, 0x45, 0x39, // 5 
....................                          0x3E, 0x49, 0x49, 0x49, 0x32, // 6 
....................                          0x01, 0x01, 0x71, 0x09, 0x07, // 7 
....................                          0x36, 0x49, 0x49, 0x49, 0x36, // 8 
....................                          0x26, 0x49, 0x49, 0x49, 0x3E, // 9 
....................                          0x00, 0x36, 0x36, 0x00, 0x00, // : 
....................                          0x00, 0x56, 0x36, 0x00, 0x00, // ; 
....................                          0x08, 0x14, 0x22, 0x41, 0x00, // < 
....................                          0x14, 0x14, 0x14, 0x14, 0x14, // = 
....................                          0x00, 0x41, 0x22, 0x14, 0x08, // > 
....................                          0x02, 0x01, 0x51, 0x09, 0x06, // ? 
....................                          0x3E, 0x41, 0x59, 0x55, 0x5E, // @ 
....................                          0x7E, 0x09, 0x09, 0x09, 0x7E, // A 
....................                          0x7F, 0x49, 0x49, 0x49, 0x36, // B 
....................                          0x3E, 0x41, 0x41, 0x41, 0x22, // C 
....................                          0x7F, 0x41, 0x41, 0x41, 0x3E, // D 
....................                          0x7F, 0x49, 0x49, 0x49, 0x41, // E 
....................                          0x7F, 0x09, 0x09, 0x09, 0x01, // F 
....................                          0x3E, 0x41, 0x41, 0x49, 0x3A, // G 
....................                          0x7F, 0x08, 0x08, 0x08, 0x7F, // H 
....................                          0x00, 0x41, 0x7F, 0x41, 0x00, // I 
....................                          0x30, 0x40, 0x40, 0x40, 0x3F, // J 
....................                          0x7F, 0x08, 0x14, 0x22, 0x41, // K 
....................                          0x7F, 0x40, 0x40, 0x40, 0x40, // L 
....................                          0x7F, 0x02, 0x0C, 0x02, 0x7F, // M 
....................                          0x7F, 0x02, 0x04, 0x08, 0x7F, // N 
....................                          0x3E, 0x41, 0x41, 0x41, 0x3E, // O 
....................                          0x7F, 0x09, 0x09, 0x09, 0x06, // P 
....................                          0x1E, 0x21, 0x21, 0x21, 0x5E, // Q 
....................                          0x7F, 0x09, 0x09, 0x09, 0x76};// R 
....................  
.................... const int8 FONT2[44][5]={0x26, 0x49, 0x49, 0x49, 0x32, // S 
....................                          0x01, 0x01, 0x7F, 0x01, 0x01, // T 
....................                          0x3F, 0x40, 0x40, 0x40, 0x3F, // U 
....................                          0x1F, 0x20, 0x40, 0x20, 0x1F, // V 
....................                          0x7F, 0x20, 0x10, 0x20, 0x7F, // W 
....................                          0x41, 0x22, 0x1C, 0x22, 0x41, // X 
....................                          0x07, 0x08, 0x70, 0x08, 0x07, // Y 
....................                          0x61, 0x51, 0x49, 0x45, 0x43, // Z 
....................                          0x00, 0x7F, 0x41, 0x00, 0x00, // [ 
....................                          0x02, 0x04, 0x08, 0x10, 0x20, // \ 
....................                          0x00, 0x00, 0x41, 0x7F, 0x00, // ] 
....................                          0x04, 0x02, 0x01, 0x02, 0x04, // ^ 
....................                          0x40, 0x40, 0x40, 0x40, 0x40, // _ 
....................                          0x00, 0x01, 0x02, 0x04, 0x00, // ` 
....................                          0x20, 0x54, 0x54, 0x54, 0x78, // a 
....................                          0x7F, 0x44, 0x44, 0x44, 0x38, // b 
....................                          0x38, 0x44, 0x44, 0x44, 0x44, // c 
....................                          0x38, 0x44, 0x44, 0x44, 0x7F, // d 
....................                          0x38, 0x54, 0x54, 0x54, 0x18, // e 
....................                          0x04, 0x04, 0x7E, 0x05, 0x05, // f 
....................                          0x08, 0x54, 0x54, 0x54, 0x3C, // g 
....................                          0x7F, 0x08, 0x04, 0x04, 0x78, // h 
....................                          0x00, 0x44, 0x7D, 0x40, 0x00, // i 
....................                          0x20, 0x40, 0x44, 0x3D, 0x00, // j 
....................                          0x7F, 0x10, 0x28, 0x44, 0x00, // k 
....................                          0x00, 0x41, 0x7F, 0x40, 0x00, // l 
....................                          0x7C, 0x04, 0x78, 0x04, 0x78, // m 
....................                          0x7C, 0x08, 0x04, 0x04, 0x78, // n 
....................                          0x38, 0x44, 0x44, 0x44, 0x38, // o 
....................                          0x7C, 0x14, 0x14, 0x14, 0x08, // p 
....................                          0x08, 0x14, 0x14, 0x14, 0x7C, // q 
....................                          0x00, 0x7C, 0x08, 0x04, 0x04, // r 
....................                          0x48, 0x54, 0x54, 0x54, 0x20, // s 
....................                          0x04, 0x04, 0x3F, 0x44, 0x44, // t 
....................                          0x3C, 0x40, 0x40, 0x20, 0x7C, // u 
....................                          0x1C, 0x20, 0x40, 0x20, 0x1C, // v 
....................                          0x3C, 0x40, 0x30, 0x40, 0x3C, // w 
....................                          0x44, 0x28, 0x10, 0x28, 0x44, // x 
....................                          0x0C, 0x50, 0x50, 0x50, 0x3C, // y 
....................                          0x44, 0x64, 0x54, 0x4C, 0x44, // z 
....................                          0x00, 0x08, 0x36, 0x41, 0x41, // { 
....................                          0x00, 0x00, 0x7F, 0x00, 0x00, // | 
....................                          0x41, 0x41, 0x36, 0x08, 0x00, // } 
....................                          0x02, 0x01, 0x02, 0x04, 0x02};// ~ 
.................... ///////////////////////////////////////////////////////////////////////// 
....................  
....................  
.................... ///////////////////////////////////////////////////////////////////////// 
.................... // Purpose:       Draw a line on a graphic LCD using Bresenham's 
.................... //                line drawing algorithm 
.................... // Inputs:        (x1, y1) - the start coordinate 
.................... //                (x2, y2) - the end coordinate 
.................... //                color - ON or OFF 
.................... // Dependencies:  glcd_pixel() 
.................... ///////////////////////////////////////////////////////////////////////// 
.................... #ifdef LARGE_LCD 
.................... void glcd_line(int16 x1, int16 y1, int16 x2, int16 y2, int1 color) 
.................... #else 
.................... void glcd_line(int8 x1, int8 y1, int8 x2, int8 y2, int1 color) 
.................... #endif 
.................... { 
*
04BAE:  MOVLW  01
04BB0:  MOVLB  6
04BB2:  MOVWF  x18
04BB4:  MOVWF  x19
04BB6:  CLRF   x1E
....................    int16        dy, dx; 
....................    signed int8  addx=1, addy=1; 
....................    signed int16 P, diff; 
....................  
....................    #ifdef LARGE_LCD 
....................    int16 i=0; 
....................    dx = abs((signed int16)(x2 - x1)); 
....................    dy = abs((signed int16)(y2 - y1)); 
....................    #else 
....................    int8 i=0; 
....................    dx = abs((signed int8)(x2 - x1)); 
04BB8:  MOVF   x0F,W
04BBA:  SUBWF  x11,W
04BBC:  MOVWF  x1F
04BBE:  MOVF   x1F,W
04BC0:  BTFSS  x1F.7
04BC2:  BRA    4BCA
04BC4:  MOVLW  00
04BC6:  BSF    FD8.0
04BC8:  SUBFWB x1F,W
04BCA:  CLRF   03
04BCC:  MOVWF  x16
04BCE:  MOVFF  03,617
....................    dy = abs((signed int8)(y2 - y1)); 
04BD2:  MOVF   x10,W
04BD4:  SUBWF  x12,W
04BD6:  MOVWF  x1F
04BD8:  MOVF   x1F,W
04BDA:  BTFSS  x1F.7
04BDC:  BRA    4BE4
04BDE:  MOVLW  00
04BE0:  BSF    FD8.0
04BE2:  SUBFWB x1F,W
04BE4:  CLRF   03
04BE6:  MOVWF  x14
04BE8:  MOVFF  03,615
....................    #endif 
....................  
....................    if(x1 > x2) 
04BEC:  MOVF   x0F,W
04BEE:  SUBWF  x11,W
04BF0:  BC    4BF6
....................       addx = -1; 
04BF2:  MOVLW  FF
04BF4:  MOVWF  x18
....................    if(y1 > y2) 
04BF6:  MOVF   x10,W
04BF8:  SUBWF  x12,W
04BFA:  BC    4C00
....................       addy = -1; 
04BFC:  MOVLW  FF
04BFE:  MOVWF  x19
....................  
....................    if(dx >= dy) 
04C00:  MOVF   x15,W
04C02:  SUBWF  x17,W
04C04:  BNC   4C7E
04C06:  BNZ   4C0E
04C08:  MOVF   x14,W
04C0A:  SUBWF  x16,W
04C0C:  BNC   4C7E
....................    { 
....................       dy *= 2; 
04C0E:  BCF    FD8.0
04C10:  RLCF   x14,F
04C12:  RLCF   x15,F
....................       P = dy - dx; 
04C14:  MOVF   x16,W
04C16:  SUBWF  x14,W
04C18:  MOVWF  00
04C1A:  MOVF   x17,W
04C1C:  SUBWFB x15,W
04C1E:  MOVFF  00,61A
04C22:  MOVWF  x1B
....................       diff = P - dx; 
04C24:  MOVF   x16,W
04C26:  SUBWF  x1A,W
04C28:  MOVWF  x1C
04C2A:  MOVF   x17,W
04C2C:  SUBWFB x1B,W
04C2E:  MOVWF  x1D
....................  
....................       for(; i<=dx; ++i) 
04C30:  MOVF   x17,F
04C32:  BNZ   4C3A
04C34:  MOVF   x1E,W
04C36:  SUBWF  x16,W
04C38:  BNC   4C7C
....................       { 
....................          glcd_pixel(x1, y1, color); 
04C3A:  MOVFF  60F,61F
04C3E:  MOVFF  610,620
04C42:  MOVFF  613,621
04C46:  MOVLB  0
04C48:  CALL   17E6
....................  
....................          if(P < 0) 
04C4C:  MOVLB  6
04C4E:  BTFSC  x1B.7
04C50:  BRA    4C54
04C52:  BRA    4C64
....................          { 
....................             P  += dy; 
04C54:  MOVF   x14,W
04C56:  ADDWF  x1A,F
04C58:  MOVF   x15,W
04C5A:  ADDWFC x1B,F
....................             x1 += addx; 
04C5C:  MOVF   x18,W
04C5E:  ADDWF  x0F,W
04C60:  MOVWF  x0F
....................          } 
....................          else 
04C62:  BRA    4C78
....................          { 
....................             P  += diff; 
04C64:  MOVF   x1C,W
04C66:  ADDWF  x1A,F
04C68:  MOVF   x1D,W
04C6A:  ADDWFC x1B,F
....................             x1 += addx; 
04C6C:  MOVF   x18,W
04C6E:  ADDWF  x0F,W
04C70:  MOVWF  x0F
....................             y1 += addy; 
04C72:  MOVF   x19,W
04C74:  ADDWF  x10,W
04C76:  MOVWF  x10
....................          } 
....................       } 
04C78:  INCF   x1E,F
04C7A:  BRA    4C30
....................    } 
....................    else 
04C7C:  BRA    4CEC
....................    { 
....................       dx *= 2; 
04C7E:  BCF    FD8.0
04C80:  RLCF   x16,F
04C82:  RLCF   x17,F
....................       P = dx - dy; 
04C84:  MOVF   x14,W
04C86:  SUBWF  x16,W
04C88:  MOVWF  00
04C8A:  MOVF   x15,W
04C8C:  SUBWFB x17,W
04C8E:  MOVFF  00,61A
04C92:  MOVWF  x1B
....................       diff = P - dy; 
04C94:  MOVF   x14,W
04C96:  SUBWF  x1A,W
04C98:  MOVWF  x1C
04C9A:  MOVF   x15,W
04C9C:  SUBWFB x1B,W
04C9E:  MOVWF  x1D
....................  
....................       for(; i<=dy; ++i) 
04CA0:  MOVF   x15,F
04CA2:  BNZ   4CAA
04CA4:  MOVF   x1E,W
04CA6:  SUBWF  x14,W
04CA8:  BNC   4CEC
....................       { 
....................          glcd_pixel(x1, y1, color); 
04CAA:  MOVFF  60F,61F
04CAE:  MOVFF  610,620
04CB2:  MOVFF  613,621
04CB6:  MOVLB  0
04CB8:  CALL   17E6
....................  
....................          if(P < 0) 
04CBC:  MOVLB  6
04CBE:  BTFSC  x1B.7
04CC0:  BRA    4CC4
04CC2:  BRA    4CD4
....................          { 
....................             P  += dx; 
04CC4:  MOVF   x16,W
04CC6:  ADDWF  x1A,F
04CC8:  MOVF   x17,W
04CCA:  ADDWFC x1B,F
....................             y1 += addy; 
04CCC:  MOVF   x19,W
04CCE:  ADDWF  x10,W
04CD0:  MOVWF  x10
....................          } 
....................          else 
04CD2:  BRA    4CE8
....................          { 
....................             P  += diff; 
04CD4:  MOVF   x1C,W
04CD6:  ADDWF  x1A,F
04CD8:  MOVF   x1D,W
04CDA:  ADDWFC x1B,F
....................             x1 += addx; 
04CDC:  MOVF   x18,W
04CDE:  ADDWF  x0F,W
04CE0:  MOVWF  x0F
....................             y1 += addy; 
04CE2:  MOVF   x19,W
04CE4:  ADDWF  x10,W
04CE6:  MOVWF  x10
....................          } 
....................       } 
04CE8:  INCF   x1E,F
04CEA:  BRA    4CA0
....................    } 
.................... } 
04CEC:  MOVLB  0
04CEE:  RETLW  00
....................  
....................  
.................... ///////////////////////////////////////////////////////////////////////// 
.................... // Purpose:       Draw a rectangle on a graphic LCD 
.................... // Inputs:        (x1, y1) - the start coordinate 
.................... //                (x2, y2) - the end coordinate 
.................... //                fill  - YES or NO 
.................... //                color - ON or OFF 
.................... // Dependencies:  glcd_pixel(), glcd_line() 
.................... ///////////////////////////////////////////////////////////////////////// 
.................... #ifdef LARGE_LCD 
.................... void glcd_rect(int16 x1, int16 y1, int16 x2, int16 y2, int1 fill, int1 color) 
.................... #else 
.................... void glcd_rect(int8 x1, int8 y1, int8 x2, int8 y2, int1 fill, int1 color) 
.................... #endif 
.................... { 
....................    if(fill) 
04CF0:  MOVLB  6
04CF2:  MOVF   x08,F
04CF4:  BZ    4D54
....................    { 
....................       #ifdef LARGE_LCD 
....................       int16 i, xmin, xmax, ymin, ymax; 
....................       #else 
....................       int8  i, xmin, xmax, ymin, ymax; 
....................       #endif 
....................  
....................       if(x1 < x2)                            //  Find x min and max 
04CF6:  MOVF   x06,W
04CF8:  SUBWF  x04,W
04CFA:  BC    4D06
....................       { 
....................          xmin = x1; 
04CFC:  MOVFF  604,60B
....................          xmax = x2; 
04D00:  MOVFF  606,60C
....................       } 
....................       else 
04D04:  BRA    4D0E
....................       { 
....................          xmin = x2; 
04D06:  MOVFF  606,60B
....................          xmax = x1; 
04D0A:  MOVFF  604,60C
....................       } 
....................  
....................       if(y1 < y2)                            // Find the y min and max 
04D0E:  MOVF   x07,W
04D10:  SUBWF  x05,W
04D12:  BC    4D1E
....................       { 
....................          ymin = y1; 
04D14:  MOVFF  605,60D
....................          ymax = y2; 
04D18:  MOVFF  607,60E
....................       } 
....................       else 
04D1C:  BRA    4D26
....................       { 
....................          ymin = y2; 
04D1E:  MOVFF  607,60D
....................          ymax = y1; 
04D22:  MOVFF  605,60E
....................       } 
....................  
....................       for(; xmin <= xmax; ++xmin) 
04D26:  MOVF   x0B,W
04D28:  SUBWF  x0C,W
04D2A:  BNC   4D52
....................       { 
....................          for(i=ymin; i<=ymax; ++i) 
04D2C:  MOVFF  60D,60A
04D30:  MOVF   x0A,W
04D32:  SUBWF  x0E,W
04D34:  BNC   4D4E
....................          { 
....................             glcd_pixel(xmin, i, color); 
04D36:  MOVFF  60B,61F
04D3A:  MOVFF  60A,620
04D3E:  MOVFF  609,621
04D42:  MOVLB  0
04D44:  CALL   17E6
....................          } 
04D48:  MOVLB  6
04D4A:  INCF   x0A,F
04D4C:  BRA    4D30
....................       } 
04D4E:  INCF   x0B,F
04D50:  BRA    4D26
....................    } 
....................    else 
04D52:  BRA    4DB0
....................    { 
....................       glcd_line(x1, y1, x2, y1, color);      // Draw the 4 sides 
04D54:  MOVFF  604,60F
04D58:  MOVFF  605,610
04D5C:  MOVFF  606,611
04D60:  MOVFF  605,612
04D64:  MOVFF  609,613
04D68:  MOVLB  0
04D6A:  RCALL  4BAE
....................       glcd_line(x1, y2, x2, y2, color); 
04D6C:  MOVFF  604,60F
04D70:  MOVFF  607,610
04D74:  MOVFF  606,611
04D78:  MOVFF  607,612
04D7C:  MOVFF  609,613
04D80:  RCALL  4BAE
....................       glcd_line(x1, y1, x1, y2, color); 
04D82:  MOVFF  604,60F
04D86:  MOVFF  605,610
04D8A:  MOVFF  604,611
04D8E:  MOVFF  607,612
04D92:  MOVFF  609,613
04D96:  RCALL  4BAE
....................       glcd_line(x2, y1, x2, y2, color); 
04D98:  MOVFF  606,60F
04D9C:  MOVFF  605,610
04DA0:  MOVFF  606,611
04DA4:  MOVFF  607,612
04DA8:  MOVFF  609,613
04DAC:  RCALL  4BAE
04DAE:  MOVLB  6
....................    } 
.................... } 
04DB0:  MOVLB  0
04DB2:  RETLW  00
....................  
.................... ///////////////////////////////////////////////////////////////////////// 
.................... // Purpose:       Draw a bar (wide line) on a graphic LCD 
.................... // Inputs:        (x1, y1) - the start coordinate 
.................... //                (x2, y2) - the end coordinate 
.................... //                width  - The number of pixels wide 
.................... //                color - ON or OFF 
.................... ///////////////////////////////////////////////////////////////////////// 
.................... #ifdef LARGE_LCD 
.................... void glcd_bar(int16 x1, int16 y1, int16 x2, int16 y2, int8 width, int1 color) 
.................... #else 
.................... void glcd_bar(int8 x1, int8 y1, int8 x2, int8 y2, int8 width, int1 color) 
.................... #endif 
.................... { 
....................    int8         half_width; 
....................    signed int16 dy, dx; 
....................    signed int8  addx=1, addy=1, j; 
....................    signed int16 P, diff, c1, c2; 
....................  
....................    #ifdef LARGE_LCD 
....................    int16 i=0; 
....................    dx = abs((signed int16)(x2 - x1)); 
....................    dy = abs((signed int16)(y2 - y1)); 
....................    #else 
....................    int8 i=0; 
....................    dx = abs((signed int8)(x2 - x1)); 
....................    dy = abs((signed int8)(y2 - y1)); 
....................    #endif 
....................  
....................    half_width = width/2; 
....................    c1 = -(dx*x1 + dy*y1); 
....................    c2 = -(dx*x2 + dy*y2); 
....................  
....................    if(x1 > x2) 
....................    { 
....................       signed int16 temp; 
....................       temp = c1; 
....................       c1 = c2; 
....................       c2 = temp; 
....................       addx = -1; 
....................    } 
....................    if(y1 > y2) 
....................    { 
....................       signed int16 temp; 
....................       temp = c1; 
....................       c1 = c2; 
....................       c2 = temp; 
....................       addy = -1; 
....................    } 
....................  
....................    if(dx >= dy) 
....................    { 
....................       P = 2*dy - dx; 
....................       diff = P - dx; 
....................  
....................       for(i=0; i<=dx; ++i) 
....................       { 
....................          for(j=-half_width; j<half_width+width%2; ++j) 
....................          { 
....................             #ifdef LARGE_LCD 
....................             int16 temp; 
....................             #else 
....................             int8 temp; 
....................             #endif 
....................  
....................             temp = dx*x1+dy*(y1+j);    // Use more RAM to increase speed 
....................             if(temp+c1 >= 0 && temp+c2 <=0) 
....................                glcd_pixel(x1, y1+j, color); 
....................          } 
....................          if(P < 0) 
....................          { 
....................             P  += 2*dy; 
....................             x1 += addx; 
....................          } 
....................          else 
....................          { 
....................             P  += diff; 
....................             x1 += addx; 
....................             y1 += addy; 
....................          } 
....................       } 
....................    } 
....................    else 
....................    { 
....................       P = 2*dx - dy; 
....................       diff = P - dy; 
....................  
....................       for(i=0; i<=dy; ++i) 
....................       { 
....................          if(P < 0) 
....................          { 
....................             P  += 2*dx; 
....................             y1 += addy; 
....................          } 
....................          else 
....................          { 
....................             P  += diff; 
....................             x1 += addx; 
....................             y1 += addy; 
....................          } 
....................          for(j=-half_width; j<half_width+width%2; ++j) 
....................          { 
....................             #ifdef LARGE_LCD 
....................             int16 temp; 
....................             #else 
....................             int8 temp; 
....................             #endif 
....................  
....................             temp = dx*x1+dy*(y1+j);    // Use more RAM to increase speed 
....................             if(temp+c1 >= 0 && temp+c2 <=0) 
....................                glcd_pixel(x1+j, y1, color); 
....................          } 
....................       } 
....................    } 
.................... } 
....................  
....................  
.................... ///////////////////////////////////////////////////////////////////////// 
.................... // Purpose:       Draw a circle on a graphic LCD 
.................... // Inputs:        (x,y) - the center of the circle 
.................... //                radius - the radius of the circle 
.................... //                fill - YES or NO 
.................... //                color - ON or OFF 
.................... ///////////////////////////////////////////////////////////////////////// 
.................... #ifdef LARGE_LCD 
.................... void glcd_circle(int16 x, int16 y, int16 radius, int1 fill, int1 color) 
.................... #else 
.................... void glcd_circle(int8 x, int8 y, int8 radius, int1 fill, int1 color) 
.................... #endif 
.................... { 
....................    #ifdef LARGE_LCD 
....................    signed int16 a, b, P; 
....................    #else 
....................    signed int8  a, b, P; 
....................    #endif 
....................  
....................    a = 0; 
*
059F8:  MOVLB  6
059FA:  CLRF   x07
....................    b = radius; 
059FC:  MOVFF  604,608
....................    P = 1 - radius; 
05A00:  MOVLW  01
05A02:  BSF    FD8.0
05A04:  SUBFWB x04,W
05A06:  MOVWF  x09
....................  
....................    do 
....................    { 
....................       if(fill) 
05A08:  MOVF   x05,F
05A0A:  BZ    5AD6
....................       { 
....................          glcd_line(x-a, y+b, x+a, y+b, color); 
05A0C:  MOVF   x07,W
05A0E:  SUBWF  x02,W
05A10:  MOVWF  x0A
05A12:  MOVF   x08,W
05A14:  ADDWF  x03,W
05A16:  MOVWF  x0B
05A18:  MOVF   x07,W
05A1A:  ADDWF  x02,W
05A1C:  MOVWF  x0C
05A1E:  MOVF   x08,W
05A20:  ADDWF  x03,W
05A22:  MOVWF  x0D
05A24:  MOVFF  60A,60F
05A28:  MOVFF  60B,610
05A2C:  MOVFF  60C,611
05A30:  MOVWF  x12
05A32:  MOVFF  606,613
05A36:  MOVLB  0
05A38:  CALL   4BAE
....................          glcd_line(x-a, y-b, x+a, y-b, color); 
05A3C:  MOVLB  6
05A3E:  MOVF   x07,W
05A40:  SUBWF  x02,W
05A42:  MOVWF  x0A
05A44:  MOVF   x08,W
05A46:  SUBWF  x03,W
05A48:  MOVWF  x0B
05A4A:  MOVF   x07,W
05A4C:  ADDWF  x02,W
05A4E:  MOVWF  x0C
05A50:  MOVF   x08,W
05A52:  SUBWF  x03,W
05A54:  MOVWF  x0D
05A56:  MOVFF  60A,60F
05A5A:  MOVFF  60B,610
05A5E:  MOVFF  60C,611
05A62:  MOVWF  x12
05A64:  MOVFF  606,613
05A68:  MOVLB  0
05A6A:  CALL   4BAE
....................          glcd_line(x-b, y+a, x+b, y+a, color); 
05A6E:  MOVLB  6
05A70:  MOVF   x08,W
05A72:  SUBWF  x02,W
05A74:  MOVWF  x0A
05A76:  MOVF   x07,W
05A78:  ADDWF  x03,W
05A7A:  MOVWF  x0B
05A7C:  MOVF   x08,W
05A7E:  ADDWF  x02,W
05A80:  MOVWF  x0C
05A82:  MOVF   x07,W
05A84:  ADDWF  x03,W
05A86:  MOVWF  x0D
05A88:  MOVFF  60A,60F
05A8C:  MOVFF  60B,610
05A90:  MOVFF  60C,611
05A94:  MOVWF  x12
05A96:  MOVFF  606,613
05A9A:  MOVLB  0
05A9C:  CALL   4BAE
....................          glcd_line(x-b, y-a, x+b, y-a, color); 
05AA0:  MOVLB  6
05AA2:  MOVF   x08,W
05AA4:  SUBWF  x02,W
05AA6:  MOVWF  x0A
05AA8:  MOVF   x07,W
05AAA:  SUBWF  x03,W
05AAC:  MOVWF  x0B
05AAE:  MOVF   x08,W
05AB0:  ADDWF  x02,W
05AB2:  MOVWF  x0C
05AB4:  MOVF   x07,W
05AB6:  SUBWF  x03,W
05AB8:  MOVWF  x0D
05ABA:  MOVFF  60A,60F
05ABE:  MOVFF  60B,610
05AC2:  MOVFF  60C,611
05AC6:  MOVWF  x12
05AC8:  MOVFF  606,613
05ACC:  MOVLB  0
05ACE:  CALL   4BAE
....................       } 
....................       else 
05AD2:  BRA    5BC4
05AD4:  MOVLB  6
....................       { 
....................          glcd_pixel(a+x, b+y, color); 
05AD6:  MOVF   x02,W
05AD8:  ADDWF  x07,W
05ADA:  MOVWF  x0A
05ADC:  MOVF   x03,W
05ADE:  ADDWF  x08,W
05AE0:  MOVWF  x0B
05AE2:  MOVFF  60A,61F
05AE6:  MOVWF  x20
05AE8:  MOVFF  606,621
05AEC:  MOVLB  0
05AEE:  CALL   17E6
....................          glcd_pixel(b+x, a+y, color); 
05AF2:  MOVLB  6
05AF4:  MOVF   x02,W
05AF6:  ADDWF  x08,W
05AF8:  MOVWF  x0A
05AFA:  MOVF   x03,W
05AFC:  ADDWF  x07,W
05AFE:  MOVWF  x0B
05B00:  MOVFF  60A,61F
05B04:  MOVWF  x20
05B06:  MOVFF  606,621
05B0A:  MOVLB  0
05B0C:  CALL   17E6
....................          glcd_pixel(x-a, b+y, color); 
05B10:  MOVLB  6
05B12:  MOVF   x07,W
05B14:  SUBWF  x02,W
05B16:  MOVWF  x0A
05B18:  MOVF   x03,W
05B1A:  ADDWF  x08,W
05B1C:  MOVWF  x0B
05B1E:  MOVFF  60A,61F
05B22:  MOVWF  x20
05B24:  MOVFF  606,621
05B28:  MOVLB  0
05B2A:  CALL   17E6
....................          glcd_pixel(x-b, a+y, color); 
05B2E:  MOVLB  6
05B30:  MOVF   x08,W
05B32:  SUBWF  x02,W
05B34:  MOVWF  x0A
05B36:  MOVF   x03,W
05B38:  ADDWF  x07,W
05B3A:  MOVWF  x0B
05B3C:  MOVFF  60A,61F
05B40:  MOVWF  x20
05B42:  MOVFF  606,621
05B46:  MOVLB  0
05B48:  CALL   17E6
....................          glcd_pixel(b+x, y-a, color); 
05B4C:  MOVLB  6
05B4E:  MOVF   x02,W
05B50:  ADDWF  x08,W
05B52:  MOVWF  x0A
05B54:  MOVF   x07,W
05B56:  SUBWF  x03,W
05B58:  MOVWF  x0B
05B5A:  MOVFF  60A,61F
05B5E:  MOVWF  x20
05B60:  MOVFF  606,621
05B64:  MOVLB  0
05B66:  CALL   17E6
....................          glcd_pixel(a+x, y-b, color); 
05B6A:  MOVLB  6
05B6C:  MOVF   x02,W
05B6E:  ADDWF  x07,W
05B70:  MOVWF  x0A
05B72:  MOVF   x08,W
05B74:  SUBWF  x03,W
05B76:  MOVWF  x0B
05B78:  MOVFF  60A,61F
05B7C:  MOVWF  x20
05B7E:  MOVFF  606,621
05B82:  MOVLB  0
05B84:  CALL   17E6
....................          glcd_pixel(x-a, y-b, color); 
05B88:  MOVLB  6
05B8A:  MOVF   x07,W
05B8C:  SUBWF  x02,W
05B8E:  MOVWF  x0A
05B90:  MOVF   x08,W
05B92:  SUBWF  x03,W
05B94:  MOVWF  x0B
05B96:  MOVFF  60A,61F
05B9A:  MOVWF  x20
05B9C:  MOVFF  606,621
05BA0:  MOVLB  0
05BA2:  CALL   17E6
....................          glcd_pixel(x-b, y-a, color); 
05BA6:  MOVLB  6
05BA8:  MOVF   x08,W
05BAA:  SUBWF  x02,W
05BAC:  MOVWF  x0A
05BAE:  MOVF   x07,W
05BB0:  SUBWF  x03,W
05BB2:  MOVWF  x0B
05BB4:  MOVFF  60A,61F
05BB8:  MOVWF  x20
05BBA:  MOVFF  606,621
05BBE:  MOVLB  0
05BC0:  CALL   17E6
....................       } 
....................  
....................       if(P < 0) 
05BC4:  MOVLB  6
05BC6:  BTFSC  x09.7
05BC8:  BRA    5BCC
05BCA:  BRA    5BE8
....................          P += 3 + 2 * a++; 
05BCC:  MOVF   x07,W
05BCE:  INCF   x07,F
05BD0:  MOVWF  x0A
05BD2:  MOVLW  02
05BD4:  MOVWF  x0B
05BD6:  MOVFF  60A,60C
05BDA:  MOVLB  0
05BDC:  RCALL  59AA
05BDE:  MOVF   01,W
05BE0:  ADDLW  03
05BE2:  MOVLB  6
05BE4:  ADDWF  x09,F
....................       else 
05BE6:  BRA    5C0A
....................          P += 5 + 2 * (a++ - b--); 
05BE8:  MOVF   x07,W
05BEA:  INCF   x07,F
05BEC:  MOVWF  x0A
05BEE:  MOVF   x08,W
05BF0:  DECF   x08,F
05BF2:  SUBWF  x0A,W
05BF4:  MOVWF  x0A
05BF6:  MOVLW  02
05BF8:  MOVWF  x0B
05BFA:  MOVFF  60A,60C
05BFE:  MOVLB  0
05C00:  RCALL  59AA
05C02:  MOVF   01,W
05C04:  ADDLW  05
05C06:  MOVLB  6
05C08:  ADDWF  x09,F
....................     } while(a <= b); 
05C0A:  MOVF   x07,W
05C0C:  XORLW  80
05C0E:  MOVWF  00
05C10:  MOVF   x08,W
05C12:  XORLW  80
05C14:  SUBWF  00,W
05C16:  BTFSC  FD8.2
05C18:  BRA    5A08
05C1A:  BTFSS  FD8.0
05C1C:  BRA    5A08
.................... } 
05C1E:  MOVLB  0
05C20:  RETLW  00
....................  
....................  
.................... ///////////////////////////////////////////////////////////////////////// 
.................... // Purpose:       Write text on a graphic LCD 
.................... // Inputs:        (x,y) - The upper left coordinate of the first letter 
.................... //                textptr - A pointer to an array of text to display 
.................... //                size - The size of the text: 1 = 5x7, 2 = 10x14, ... 
.................... //                color - ON or OFF 
.................... ///////////////////////////////////////////////////////////////////////// 
.................... #ifdef LARGE_LCD 
.................... void glcd_text57(int16 x, int16 y, char* textptr, int8 size, int1 color) 
.................... #else 
.................... void glcd_text57(int8 x, int8 y, char* textptr, int8 size, int1 color) 
.................... #endif 
.................... { 
....................    int8 j, k, l, m;                       // Loop counters 
....................    int8 pixelData[5];                     // Stores character data 
....................  
....................    for(; *textptr != '\0'; ++textptr, ++x)// Loop through the passed string 
*
018A2:  MOVFF  607,03
018A6:  MOVLB  6
018A8:  MOVFF  606,FE9
018AC:  MOVFF  607,FEA
018B0:  MOVF   FEF,F
018B2:  BTFSC  FD8.2
018B4:  BRA    1A56
....................    { 
....................       if(*textptr < 'S') // Checks if the letter is in the first font array 
018B6:  MOVFF  607,03
018BA:  MOVFF  606,FE9
018BE:  MOVFF  607,FEA
018C2:  MOVF   FEF,W
018C4:  SUBLW  52
018C6:  BNC   1916
....................          memcpy(pixelData, FONT[*textptr - ' '], 5); 
018C8:  MOVFF  607,03
018CC:  MOVFF  606,FE9
018D0:  MOVFF  607,FEA
018D4:  MOVLW  20
018D6:  SUBWF  FEF,W
018D8:  MULLW  05
018DA:  MOVF   FF3,W
018DC:  CLRF   03
018DE:  MOVWF  x13
018E0:  MOVLW  06
018E2:  MOVWF  FEA
018E4:  MOVLW  0E
018E6:  MOVWF  FE9
018E8:  CLRF   x17
018EA:  MOVFF  613,616
018EE:  MOVFF  FF2,614
018F2:  BCF    FF2.7
018F4:  MOVLW  05
018F6:  MOVWF  01
018F8:  CLRF   FF7
018FA:  MOVF   x13,W
018FC:  MOVLB  0
018FE:  CALL   009E
01902:  TBLRD*-
01904:  TBLRD*+
01906:  MOVFF  FF5,FEE
0190A:  DECFSZ 01,F
0190C:  BRA    1904
0190E:  MOVLB  6
01910:  BTFSC  x14.7
01912:  BSF    FF2.7
....................       else if(*textptr <= '~') // Check if the letter is in the second font array 
01914:  BRA    1980
01916:  MOVFF  607,03
0191A:  MOVFF  606,FE9
0191E:  MOVFF  607,FEA
01922:  MOVF   FEF,W
01924:  SUBLW  7E
01926:  BNC   1976
....................          memcpy(pixelData, FONT2[*textptr - 'S'], 5); 
01928:  MOVFF  607,03
0192C:  MOVFF  606,FE9
01930:  MOVFF  607,FEA
01934:  MOVLW  53
01936:  SUBWF  FEF,W
01938:  MULLW  05
0193A:  MOVF   FF3,W
0193C:  CLRF   03
0193E:  MOVWF  x13
01940:  MOVLW  06
01942:  MOVWF  FEA
01944:  MOVLW  0E
01946:  MOVWF  FE9
01948:  CLRF   x17
0194A:  MOVFF  613,616
0194E:  MOVFF  FF2,614
01952:  BCF    FF2.7
01954:  MOVLW  05
01956:  MOVWF  01
01958:  CLRF   FF7
0195A:  MOVF   x13,W
0195C:  MOVLB  0
0195E:  CALL   01BC
01962:  TBLRD*-
01964:  TBLRD*+
01966:  MOVFF  FF5,FEE
0196A:  DECFSZ 01,F
0196C:  BRA    1964
0196E:  MOVLB  6
01970:  BTFSC  x14.7
01972:  BSF    FF2.7
....................       else 
01974:  BRA    1980
....................          memcpy(pixelData, FONT[0], 5);   // Default to space 
01976:  CLRF   x0E
01978:  CLRF   x0F
0197A:  CLRF   x10
0197C:  CLRF   x11
0197E:  CLRF   x12
....................  
....................       // Handles newline and carriage returns 
....................       switch(*textptr) 
....................       { 
01980:  MOVFF  607,03
01984:  MOVF   x06,W
01986:  MOVWF  FE9
01988:  MOVFF  03,FEA
0198C:  MOVF   FEF,W
0198E:  XORLW  0A
01990:  MOVLB  0
01992:  BZ    199A
01994:  XORLW  07
01996:  BZ    19AA
01998:  BRA    19B0
....................          case '\n': 
....................             y += 7*size + 1; 
0199A:  MOVLB  6
0199C:  MOVF   x08,W
0199E:  MULLW  07
019A0:  MOVF   FF3,W
019A2:  ADDLW  01
019A4:  ADDWF  x05,F
....................             continue; 
019A6:  BRA    1A48
019A8:  MOVLB  0
....................          case '\r': 
....................             x = 0; 
019AA:  MOVLB  6
019AC:  CLRF   x04
....................             continue; 
019AE:  BRA    1A48
....................       } 
....................  
....................       if(x+5*size >= GLCD_WIDTH)          // Performs character wrapping 
019B0:  MOVLB  6
019B2:  MOVF   x08,W
019B4:  MULLW  05
019B6:  MOVF   FF3,W
019B8:  ADDWF  x04,W
019BA:  SUBLW  7F
019BC:  BC    19CA
....................       { 
....................          x = 0;                           // Set x at far left position 
019BE:  CLRF   x04
....................          y += 7*size + 1;                 // Set y at next position down 
019C0:  MOVF   x08,W
019C2:  MULLW  07
019C4:  MOVF   FF3,W
019C6:  ADDLW  01
019C8:  ADDWF  x05,F
....................       } 
....................       for(j=0; j<5; ++j, x+=size)         // Loop through character byte data 
019CA:  CLRF   x0A
019CC:  MOVF   x0A,W
019CE:  SUBLW  04
019D0:  BNC   1A48
....................       { 
....................          for(k=0; k < 7; ++k)             // Loop through the vertical pixels 
019D2:  CLRF   x0B
019D4:  MOVF   x0B,W
019D6:  SUBLW  06
019D8:  BNC   1A40
....................          { 
....................             if(bit_test(pixelData[j], k)) // Check if the pixel should be set 
019DA:  CLRF   03
019DC:  MOVF   x0A,W
019DE:  ADDLW  0E
019E0:  MOVWF  FE9
019E2:  MOVLW  06
019E4:  ADDWFC 03,W
019E6:  MOVWF  FEA
019E8:  MOVFF  FEF,613
019EC:  MOVFF  613,00
019F0:  MOVF   x0B,W
019F2:  MOVWF  01
019F4:  BZ    19FE
019F6:  BCF    FD8.0
019F8:  RRCF   00,F
019FA:  DECFSZ 01,F
019FC:  BRA    19F6
019FE:  BTFSS  00.0
01A00:  BRA    1A3C
....................             { 
....................                for(l=0; l < size; ++l)    // These two loops change the 
01A02:  CLRF   x0C
01A04:  MOVF   x08,W
01A06:  SUBWF  x0C,W
01A08:  BC    1A3C
....................                {                          // character's size 
....................                   for(m=0; m < size; ++m) 
01A0A:  CLRF   x0D
01A0C:  MOVF   x08,W
01A0E:  SUBWF  x0D,W
01A10:  BC    1A38
....................                   { 
....................                      glcd_pixel(x+m, y+k*size+l, color); // Draws the pixel 
01A12:  MOVF   x0D,W
01A14:  ADDWF  x04,W
01A16:  MOVWF  x13
01A18:  MOVF   x0B,W
01A1A:  MULWF  x08
01A1C:  MOVF   FF3,W
01A1E:  ADDWF  x05,W
01A20:  ADDWF  x0C,W
01A22:  MOVWF  x14
01A24:  MOVFF  613,61F
01A28:  MOVWF  x20
01A2A:  MOVFF  609,621
01A2E:  MOVLB  0
01A30:  RCALL  17E6
....................                   } 
01A32:  MOVLB  6
01A34:  INCF   x0D,F
01A36:  BRA    1A0C
....................                } 
01A38:  INCF   x0C,F
01A3A:  BRA    1A04
....................             } 
....................          } 
01A3C:  INCF   x0B,F
01A3E:  BRA    19D4
....................       } 
01A40:  INCF   x0A,F
01A42:  MOVF   x08,W
01A44:  ADDWF  x04,F
01A46:  BRA    19CC
....................    } 
01A48:  INCF   x06,F
01A4A:  BTFSC  FD8.2
01A4C:  INCF   x07,F
01A4E:  INCF   x04,F
01A50:  MOVLB  0
01A52:  BRA    18A2
01A54:  MOVLB  6
.................... } 
01A56:  MOVLB  0
01A58:  RETLW  00
....................  
.................... #endif 
....................  
.................... #include "imagen.h" 
.................... const int8 Bombillo [64][16] = { 
.................... 0x00, 0x00, 0x00, 0x00, 0x00, 0x00, 0x00, 0x00, 0x00, 0x00, 0x00, 0x00, 0x00, 0x00, 0x00, 0x00, 
.................... 0x00, 0x00, 0x00, 0x00, 0x00, 0x00, 0x00, 0x00, 0x00, 0x00, 0x00, 0x00, 0x00, 0x00, 0x00, 0x00, 
.................... 0x00, 0x00, 0x00, 0x00, 0x00, 0x00, 0x00, 0x00, 0x00, 0x00, 0x00, 0x00, 0x00, 0x00, 0x00, 0x00, 
.................... 0x00, 0x00, 0x00, 0x00, 0x00, 0x00, 0x00, 0x00, 0x00, 0x00, 0x00, 0x00, 0x00, 0x00, 0x00, 0x00, 
.................... 0x00, 0x00, 0x00, 0x00, 0x00, 0x00, 0x00, 0x00, 0x00, 0x00, 0x00, 0x00, 0x00, 0x00, 0x00, 0x00, 
.................... 0x00, 0x00, 0x00, 0x00, 0x00, 0x00, 0x00, 0x00, 0x00, 0x00, 0x00, 0x00, 0x00, 0x00, 0x00, 0x00, 
.................... 0x00, 0x00, 0x00, 0x00, 0x00, 0x00, 0x00, 0x00, 0x00, 0x00, 0x00, 0x00, 0x00, 0x00, 0x00, 0x00, 
.................... 0x00, 0x00, 0x00, 0x00, 0x00, 0x00, 0x00, 0x00, 0x00, 0x00, 0x00, 0x00, 0x00, 0x00, 0x00, 0x00, 
.................... 0x00, 0x00, 0x00, 0x00, 0x00, 0x00, 0x00, 0x00, 0x00, 0x00, 0x00, 0x00, 0x00, 0x00, 0x00, 0x00, 
.................... 0x00, 0x00, 0x00, 0x00, 0x00, 0x00, 0x00, 0x00, 0x00, 0x00, 0x00, 0x00, 0x00, 0x00, 0x00, 0x00, 
.................... 0x00, 0x00, 0x00, 0x00, 0x00, 0x00, 0x00, 0x00, 0x00, 0x00, 0x00, 0x00, 0x00, 0x00, 0x00, 0x00, 
.................... 0x00, 0x00, 0x00, 0x00, 0x00, 0x00, 0x00, 0x00, 0x00, 0x00, 0x00, 0x00, 0x00, 0x00, 0x00, 0x00, 
.................... 0x00, 0x00, 0x00, 0x00, 0x00, 0x00, 0x00, 0x00, 0x00, 0x00, 0x00, 0x00, 0x00, 0x00, 0x00, 0x00, 
.................... 0x00, 0x00, 0x00, 0x00, 0x00, 0x00, 0x00, 0x00, 0x00, 0x00, 0x00, 0x00, 0x00, 0x00, 0x00, 0x00, 
.................... 0x00, 0x00, 0x00, 0x00, 0x00, 0x00, 0x00, 0x00, 0x00, 0x00, 0x00, 0x00, 0x00, 0x00, 0x00, 0x00, 
.................... 0x00, 0x00, 0x00, 0x00, 0x00, 0x00, 0x00, 0x00, 0x00, 0x00, 0x00, 0x00, 0x00, 0x08, 0x00, 0x80, 
.................... 0x00, 0x00, 0x00, 0x00, 0x00, 0x00, 0x00, 0x00, 0x00, 0x00, 0x00, 0x00, 0x00, 0x04, 0x01, 0x00, 
.................... 0x00, 0x00, 0x00, 0x00, 0x00, 0x00, 0x00, 0x00, 0x00, 0x00, 0x00, 0x00, 0x00, 0x02, 0x02, 0x00, 
.................... 0x00, 0x00, 0x00, 0x00, 0x00, 0x00, 0x00, 0x00, 0x00, 0x00, 0x00, 0x00, 0x00, 0x00, 0x78, 0x00, 
.................... 0x00, 0x00, 0x00, 0x00, 0x00, 0x00, 0x00, 0x00, 0x00, 0x00, 0x00, 0x00, 0x00, 0x00, 0x84, 0x00, 
.................... 0x00, 0x00, 0x00, 0x00, 0x00, 0x00, 0x00, 0x00, 0x00, 0x00, 0x00, 0x00, 0x00, 0x01, 0x02, 0x00, 
.................... 0x00, 0x00, 0x00, 0x00, 0x00, 0x00, 0x00, 0x00, 0x00, 0x00, 0x00, 0x00, 0x00, 0xF9, 0x02, 0xF8, 
.................... 0x00, 0x00, 0x00, 0x00, 0x00, 0x00, 0x00, 0x00, 0x00, 0x00, 0x00, 0x00, 0x00, 0x01, 0x02, 0x00, 
.................... 0x00, 0x00, 0x00, 0x00, 0x00, 0x00, 0x00, 0x00, 0x00, 0x00, 0x00, 0x00, 0x00, 0x01, 0x02, 0x00, 
.................... 0x00, 0x00, 0x00, 0x00, 0x00, 0x00, 0x00, 0x00, 0x00, 0x00, 0x00, 0x00, 0x00, 0x04, 0x84, 0x80, 
.................... 0x00, 0x00, 0x00, 0x00, 0x00, 0x00, 0x00, 0x00, 0x00, 0x00, 0x00, 0x00, 0x00, 0x08, 0x78, 0x40, 
.................... 0x00, 0x00, 0x00, 0x00, 0x00, 0x00, 0x00, 0x00, 0x00, 0x00, 0x00, 0x00, 0x00, 0x10, 0x48, 0x20, 
.................... 0x00, 0x00, 0x00, 0x00, 0x00, 0x00, 0x00, 0x00, 0x00, 0x00, 0x00, 0x00, 0x00, 0x20, 0x48, 0x10, 
.................... 0x00, 0x00, 0x00, 0x00, 0x00, 0x00, 0x00, 0x00, 0x00, 0x00, 0x00, 0x00, 0x00, 0x00, 0x78, 0x00, 
.................... 0x00, 0x00, 0x00, 0x00, 0x00, 0x00, 0x00, 0x00, 0x00, 0x00, 0x00, 0x00, 0x00, 0x00, 0x00, 0x00, 
.................... 0x00, 0x00, 0x00, 0x00, 0x00, 0x00, 0x00, 0x00, 0x00, 0x00, 0x00, 0x00, 0x00, 0x00, 0x00, 0x00, 
.................... 0x00, 0x00, 0x00, 0x00, 0x00, 0x00, 0x00, 0x00, 0x00, 0x00, 0x00, 0x00, 0x00, 0x00, 0x00, 0x00, 
.................... 0x00, 0x00, 0x00, 0x00, 0x00, 0x00, 0x00, 0x00, 0x00, 0x00, 0x00, 0x00, 0x00, 0x00, 0x00, 0x00, 
.................... 0x00, 0x00, 0x00, 0x00, 0x00, 0x00, 0x00, 0x00, 0x00, 0x00, 0x00, 0x00, 0x00, 0x00, 0x00, 0x00, 
.................... 0x00, 0x00, 0x00, 0x00, 0x00, 0x00, 0x00, 0x00, 0x00, 0x00, 0x00, 0x00, 0x00, 0x00, 0x00, 0x00, 
.................... 0x00, 0x00, 0x00, 0x00, 0x00, 0x00, 0x00, 0x00, 0x00, 0x00, 0x00, 0x00, 0x00, 0x00, 0x00, 0x00, 
.................... 0x00, 0x00, 0x00, 0x00, 0x00, 0x00, 0x00, 0x00, 0x00, 0x00, 0x00, 0x00, 0x00, 0x00, 0x00, 0x00, 
.................... 0x00, 0x00, 0x00, 0x00, 0x00, 0x00, 0x00, 0x00, 0x00, 0x00, 0x00, 0x00, 0x00, 0x00, 0x00, 0x00, 
.................... 0x00, 0x00, 0x00, 0x00, 0x00, 0x00, 0x00, 0x00, 0x00, 0x00, 0x00, 0x00, 0x00, 0x00, 0x00, 0x00, 
.................... 0x00, 0x00, 0x00, 0x00, 0x00, 0x00, 0x00, 0x00, 0x00, 0x00, 0x00, 0x00, 0x00, 0x00, 0x00, 0x00, 
.................... 0x00, 0x00, 0x00, 0x00, 0x00, 0x00, 0x00, 0x00, 0x00, 0x00, 0x00, 0x00, 0x00, 0x00, 0x00, 0x00, 
.................... 0x00, 0x00, 0x00, 0x00, 0x00, 0x00, 0x00, 0x00, 0x00, 0x00, 0x00, 0x00, 0x00, 0x00, 0x00, 0x00, 
.................... 0x00, 0x00, 0x00, 0x00, 0x00, 0x00, 0x00, 0x00, 0x00, 0x00, 0x00, 0x00, 0x00, 0x00, 0x00, 0x00, 
.................... 0x00, 0x00, 0x00, 0x00, 0x00, 0x00, 0x00, 0x00, 0x00, 0x00, 0x00, 0x00, 0x00, 0x00, 0x00, 0x00, 
.................... 0x00, 0x00, 0x00, 0x00, 0x00, 0x00, 0x00, 0x00, 0x00, 0x00, 0x00, 0x00, 0x00, 0x00, 0x00, 0x00, 
.................... 0x00, 0x00, 0x00, 0x00, 0x00, 0x00, 0x00, 0x00, 0x00, 0x00, 0x00, 0x00, 0x00, 0x00, 0x00, 0x00, 
.................... 0x00, 0x00, 0x00, 0x00, 0x00, 0x00, 0x00, 0x00, 0x00, 0x00, 0x00, 0x00, 0x00, 0x00, 0x00, 0x00, 
.................... 0x00, 0x00, 0x00, 0x00, 0x00, 0x00, 0x00, 0x00, 0x00, 0x00, 0x00, 0x00, 0x00, 0x00, 0x00, 0x00, 
.................... 0x00, 0x00, 0x00, 0x00, 0x00, 0x00, 0x00, 0x00, 0x00, 0x00, 0x00, 0x00, 0x00, 0x00, 0x00, 0x00, 
.................... 0x00, 0x00, 0x00, 0x00, 0x00, 0x00, 0x00, 0x00, 0x00, 0x00, 0x00, 0x00, 0x00, 0x00, 0x00, 0x00, 
.................... 0x00, 0x00, 0x00, 0x00, 0x00, 0x00, 0x00, 0x00, 0x00, 0x00, 0x00, 0x00, 0x00, 0x00, 0x00, 0x00, 
.................... 0x00, 0x00, 0x00, 0x00, 0x00, 0x00, 0x00, 0x00, 0x00, 0x00, 0x00, 0x00, 0x00, 0x00, 0x00, 0x00, 
.................... 0x00, 0x00, 0x00, 0x00, 0x00, 0x00, 0x00, 0x00, 0x00, 0x00, 0x00, 0x00, 0x00, 0x00, 0x00, 0x00, 
.................... 0x00, 0x00, 0x00, 0x00, 0x00, 0x00, 0x00, 0x00, 0x00, 0x00, 0x00, 0x00, 0x00, 0x00, 0x00, 0x00, 
.................... 0x00, 0x00, 0x00, 0x00, 0x00, 0x00, 0x00, 0x00, 0x00, 0x00, 0x00, 0x00, 0x00, 0x00, 0x00, 0x00, 
.................... 0x00, 0x00, 0x00, 0x00, 0x00, 0x00, 0x00, 0x00, 0x00, 0x00, 0x00, 0x00, 0x00, 0x00, 0x00, 0x00, 
.................... 0x00, 0x00, 0x00, 0x00, 0x00, 0x00, 0x00, 0x00, 0x00, 0x00, 0x00, 0x00, 0x00, 0x00, 0x00, 0x00, 
.................... 0x00, 0x00, 0x00, 0x00, 0x00, 0x00, 0x00, 0x00, 0x00, 0x00, 0x00, 0x00, 0x00, 0x00, 0x00, 0x00, 
.................... 0x00, 0x00, 0x00, 0x00, 0x00, 0x00, 0x00, 0x00, 0x00, 0x00, 0x00, 0x00, 0x00, 0x00, 0x00, 0x00, 
.................... 0x00, 0x00, 0x00, 0x00, 0x00, 0x00, 0x00, 0x00, 0x00, 0x00, 0x00, 0x00, 0x00, 0x00, 0x00, 0x00, 
.................... 0x00, 0x00, 0x00, 0x00, 0x00, 0x00, 0x00, 0x00, 0x00, 0x00, 0x00, 0x00, 0x00, 0x00, 0x00, 0x00, 
.................... 0x00, 0x00, 0x00, 0x00, 0x00, 0x00, 0x00, 0x00, 0x00, 0x00, 0x00, 0x00, 0x00, 0x00, 0x00, 0x00, 
.................... 0x00, 0x00, 0x00, 0x00, 0x00, 0x00, 0x00, 0x00, 0x00, 0x00, 0x00, 0x00, 0x00, 0x00, 0x00, 0x00, 
.................... 0x00, 0x00, 0x00, 0x00, 0x00, 0x00, 0x00, 0x00, 0x00, 0x00, 0x00, 0x00, 0x00, 0x00, 0x00, 0x00 
.................... }; 
....................  
.................... const int8 Tomai [64][16] = { 
.................... 0x00, 0x00, 0x00, 0x00, 0x00, 0x00, 0x00, 0x00, 0x00, 0x00, 0x00, 0x00, 0x00, 0x00, 0x00, 0x00, 
.................... 0x00, 0x00, 0x00, 0x00, 0x00, 0x00, 0x00, 0x00, 0x00, 0x00, 0x00, 0x00, 0x00, 0x00, 0x00, 0x00, 
.................... 0x00, 0x00, 0x00, 0x00, 0x00, 0x00, 0x00, 0x00, 0x00, 0x00, 0x00, 0x00, 0x00, 0x00, 0x00, 0x00, 
.................... 0x00, 0x00, 0x00, 0x00, 0x00, 0x00, 0x00, 0x00, 0x00, 0x00, 0x00, 0x00, 0x00, 0x00, 0x00, 0x00, 
.................... 0x00, 0x00, 0x00, 0x00, 0x00, 0x00, 0x00, 0x00, 0x00, 0x00, 0x00, 0x00, 0x00, 0x00, 0x00, 0x00, 
.................... 0x00, 0x00, 0x00, 0x00, 0x00, 0x00, 0x00, 0x00, 0x00, 0x00, 0x00, 0x00, 0x00, 0x00, 0x00, 0x00, 
.................... 0x00, 0x00, 0x00, 0x00, 0x00, 0x00, 0x00, 0x00, 0x00, 0x00, 0x00, 0x00, 0x00, 0x00, 0x00, 0x00, 
.................... 0x00, 0x00, 0x00, 0x00, 0x00, 0x00, 0x00, 0x00, 0x00, 0x00, 0x00, 0x00, 0x00, 0x00, 0x00, 0x00, 
.................... 0x00, 0x00, 0x00, 0x00, 0x00, 0x00, 0x00, 0x00, 0x00, 0x00, 0x00, 0x00, 0x00, 0x00, 0x00, 0x00, 
.................... 0x00, 0x00, 0x00, 0x00, 0x00, 0x00, 0x00, 0x00, 0x00, 0x00, 0x00, 0x00, 0x00, 0x00, 0x00, 0x00, 
.................... 0x00, 0x00, 0x00, 0x00, 0x00, 0x00, 0x00, 0x00, 0x00, 0x00, 0x00, 0x00, 0x00, 0x00, 0x00, 0x00, 
.................... 0x00, 0x00, 0x00, 0x00, 0x00, 0x00, 0x00, 0x00, 0x00, 0x00, 0x00, 0x00, 0x00, 0x00, 0x00, 0x00, 
.................... 0x00, 0x00, 0x00, 0x00, 0x00, 0x00, 0x00, 0x00, 0x00, 0x00, 0x00, 0x00, 0x00, 0x00, 0x00, 0x00, 
.................... 0x00, 0x00, 0x00, 0x00, 0x00, 0x00, 0x00, 0x00, 0x00, 0x00, 0x00, 0x00, 0x00, 0x00, 0x00, 0x00, 
.................... 0x00, 0x00, 0x00, 0x00, 0x00, 0x00, 0x00, 0x00, 0x00, 0x00, 0x00, 0x00, 0x00, 0x00, 0x00, 0x00, 
.................... 0x00, 0x00, 0x00, 0x00, 0x00, 0x00, 0x00, 0x00, 0x00, 0x00, 0x00, 0x00, 0x00, 0x00, 0x00, 0x00, 
.................... 0x00, 0x00, 0x00, 0x00, 0x00, 0x00, 0x00, 0x00, 0x00, 0x00, 0x00, 0x00, 0x00, 0x00, 0x00, 0x00, 
.................... 0x00, 0x00, 0x00, 0x00, 0x00, 0x00, 0x00, 0x00, 0x00, 0x00, 0x00, 0x00, 0x00, 0x00, 0x00, 0x00, 
.................... 0x00, 0x00, 0x00, 0x00, 0x00, 0x00, 0x00, 0x00, 0x00, 0x00, 0x00, 0x00, 0x00, 0x00, 0x00, 0x00, 
.................... 0x00, 0x00, 0x00, 0x00, 0x00, 0x00, 0x00, 0x00, 0x00, 0x00, 0x00, 0x00, 0x00, 0x00, 0x00, 0x00, 
.................... 0x00, 0x00, 0x00, 0x00, 0x00, 0x00, 0x00, 0x00, 0x00, 0x00, 0x00, 0x00, 0x00, 0x00, 0x00, 0x00, 
.................... 0x00, 0x00, 0x00, 0x00, 0x00, 0x00, 0x00, 0x00, 0x00, 0x00, 0x00, 0x00, 0x00, 0x00, 0x00, 0x00, 
.................... 0x00, 0x00, 0x00, 0x00, 0x00, 0x00, 0x00, 0x00, 0x00, 0x00, 0x00, 0x00, 0x00, 0x00, 0x00, 0x00, 
.................... 0x00, 0x00, 0x00, 0x00, 0x00, 0x00, 0x00, 0x00, 0x00, 0x00, 0x00, 0x00, 0x00, 0x00, 0x00, 0x00, 
.................... 0x00, 0x00, 0x00, 0x00, 0x00, 0x00, 0x00, 0x00, 0x00, 0x00, 0x00, 0x00, 0x00, 0x00, 0x00, 0x00, 
.................... 0x00, 0x00, 0x00, 0x00, 0x00, 0x00, 0x00, 0x00, 0x00, 0x00, 0x00, 0x00, 0x00, 0x00, 0x00, 0x00, 
.................... 0x00, 0x00, 0x00, 0x00, 0x00, 0x00, 0x00, 0x00, 0x00, 0x00, 0x00, 0x00, 0x00, 0x00, 0x00, 0x00, 
.................... 0x00, 0x00, 0x00, 0x00, 0x00, 0x00, 0x00, 0x00, 0x00, 0x00, 0x00, 0x00, 0x00, 0x00, 0x00, 0x00, 
.................... 0x00, 0x00, 0x00, 0x00, 0x00, 0x00, 0x00, 0x00, 0x00, 0x00, 0x00, 0x00, 0x00, 0x00, 0x00, 0x00, 
.................... 0x00, 0x00, 0x00, 0x00, 0x00, 0x00, 0x00, 0x00, 0x00, 0x00, 0x00, 0x00, 0x00, 0x00, 0x00, 0x00, 
.................... 0x00, 0x00, 0x00, 0x00, 0x00, 0x00, 0x00, 0x00, 0x00, 0x00, 0x00, 0x00, 0x00, 0x7F, 0xFF, 0xF8, 
.................... 0x00, 0x00, 0x00, 0x00, 0x00, 0x00, 0x00, 0x00, 0x00, 0x00, 0x00, 0x00, 0x00, 0x40, 0x00, 0x08, 
.................... 0x00, 0x00, 0x00, 0x00, 0x00, 0x00, 0x00, 0x00, 0x00, 0x00, 0x00, 0x00, 0x00, 0x47, 0x03, 0x88, 
.................... 0x00, 0x00, 0x00, 0x00, 0x00, 0x00, 0x00, 0x00, 0x00, 0x00, 0x00, 0x00, 0x00, 0x45, 0x02, 0x88, 
.................... 0x00, 0x00, 0x00, 0x00, 0x00, 0x00, 0x00, 0x00, 0x00, 0x00, 0x00, 0x00, 0x00, 0x45, 0x02, 0x88, 
.................... 0x00, 0x00, 0x00, 0x00, 0x00, 0x00, 0x00, 0x00, 0x00, 0x00, 0x00, 0x00, 0x00, 0x45, 0x02, 0x88, 
.................... 0x00, 0x00, 0x00, 0x00, 0x00, 0x00, 0x00, 0x00, 0x00, 0x00, 0x00, 0x00, 0x00, 0x45, 0x02, 0x88, 
.................... 0x00, 0x00, 0x00, 0x00, 0x00, 0x00, 0x00, 0x00, 0x00, 0x00, 0x00, 0x00, 0x00, 0x47, 0x03, 0x88, 
.................... 0x00, 0x00, 0x00, 0x00, 0x00, 0x00, 0x00, 0x00, 0x00, 0x00, 0x00, 0x00, 0x00, 0x40, 0x00, 0x08, 
.................... 0x00, 0x00, 0x00, 0x00, 0x00, 0x00, 0x00, 0x00, 0x00, 0x00, 0x00, 0x00, 0x00, 0x40, 0xFC, 0x08, 
.................... 0x00, 0x00, 0x00, 0x00, 0x00, 0x00, 0x00, 0x00, 0x00, 0x00, 0x00, 0x00, 0x00, 0x40, 0x84, 0x08, 
.................... 0x00, 0x00, 0x00, 0x00, 0x00, 0x00, 0x00, 0x00, 0x00, 0x00, 0x00, 0x00, 0x00, 0x40, 0x84, 0x08, 
.................... 0x00, 0x00, 0x00, 0x00, 0x00, 0x00, 0x00, 0x00, 0x00, 0x00, 0x00, 0x00, 0x00, 0x40, 0xFC, 0x08, 
.................... 0x00, 0x00, 0x00, 0x00, 0x00, 0x00, 0x00, 0x00, 0x00, 0x00, 0x00, 0x00, 0x00, 0x40, 0x00, 0x08, 
.................... 0x00, 0x00, 0x00, 0x00, 0x00, 0x00, 0x00, 0x00, 0x00, 0x00, 0x00, 0x00, 0x00, 0x7F, 0xFF, 0xF8, 
.................... 0x00, 0x00, 0x00, 0x00, 0x00, 0x00, 0x00, 0x00, 0x00, 0x00, 0x00, 0x00, 0x00, 0x00, 0x00, 0x00, 
.................... 0x00, 0x00, 0x00, 0x00, 0x00, 0x00, 0x00, 0x00, 0x00, 0x00, 0x00, 0x00, 0x00, 0x00, 0x00, 0x00, 
.................... 0x00, 0x00, 0x00, 0x00, 0x00, 0x00, 0x00, 0x00, 0x00, 0x00, 0x00, 0x00, 0x00, 0x00, 0x00, 0x00, 
.................... 0x00, 0x00, 0x00, 0x00, 0x00, 0x00, 0x00, 0x00, 0x00, 0x00, 0x00, 0x00, 0x00, 0x00, 0x00, 0x00, 
.................... 0x00, 0x00, 0x00, 0x00, 0x00, 0x00, 0x00, 0x00, 0x00, 0x00, 0x00, 0x00, 0x00, 0x00, 0x00, 0x00, 
.................... 0x00, 0x00, 0x00, 0x00, 0x00, 0x00, 0x00, 0x00, 0x00, 0x00, 0x00, 0x00, 0x00, 0x00, 0x00, 0x00, 
.................... 0x00, 0x00, 0x00, 0x00, 0x00, 0x00, 0x00, 0x00, 0x00, 0x00, 0x00, 0x00, 0x00, 0x00, 0x00, 0x00, 
.................... 0x00, 0x00, 0x00, 0x00, 0x00, 0x00, 0x00, 0x00, 0x00, 0x00, 0x00, 0x00, 0x00, 0x00, 0x00, 0x00, 
.................... 0x00, 0x00, 0x00, 0x00, 0x00, 0x00, 0x00, 0x00, 0x00, 0x00, 0x00, 0x00, 0x00, 0x00, 0x00, 0x00, 
.................... 0x00, 0x00, 0x00, 0x00, 0x00, 0x00, 0x00, 0x00, 0x00, 0x00, 0x00, 0x00, 0x00, 0x00, 0x00, 0x00, 
.................... 0x00, 0x00, 0x00, 0x00, 0x00, 0x00, 0x00, 0x00, 0x00, 0x00, 0x00, 0x00, 0x00, 0x00, 0x00, 0x00, 
.................... 0x00, 0x00, 0x00, 0x00, 0x00, 0x00, 0x00, 0x00, 0x00, 0x00, 0x00, 0x00, 0x00, 0x00, 0x00, 0x00, 
.................... 0x00, 0x00, 0x00, 0x00, 0x00, 0x00, 0x00, 0x00, 0x00, 0x00, 0x00, 0x00, 0x00, 0x00, 0x00, 0x00, 
.................... 0x00, 0x00, 0x00, 0x00, 0x00, 0x00, 0x00, 0x00, 0x00, 0x00, 0x00, 0x00, 0x00, 0x00, 0x00, 0x00, 
.................... 0x00, 0x00, 0x00, 0x00, 0x00, 0x00, 0x00, 0x00, 0x00, 0x00, 0x00, 0x00, 0x00, 0x00, 0x00, 0x00, 
.................... 0x00, 0x00, 0x00, 0x00, 0x00, 0x00, 0x00, 0x00, 0x00, 0x00, 0x00, 0x00, 0x00, 0x00, 0x00, 0x00, 
.................... 0x00, 0x00, 0x00, 0x00, 0x00, 0x00, 0x00, 0x00, 0x00, 0x00, 0x00, 0x00, 0x00, 0x00, 0x00, 0x00, 
.................... 0x00, 0x00, 0x00, 0x00, 0x00, 0x00, 0x00, 0x00, 0x00, 0x00, 0x00, 0x00, 0x00, 0x00, 0x00, 0x00, 
.................... 0x00, 0x00, 0x00, 0x00, 0x00, 0x00, 0x00, 0x00, 0x00, 0x00, 0x00, 0x00, 0x00, 0x00, 0x00, 0x00 
.................... }; 
....................  
.................... const int8 Ventilador [64][16] = { 
.................... 0x00, 0x00, 0x00, 0x00, 0x00, 0x00, 0x00, 0x00, 0x00, 0x00, 0x00, 0x00, 0x00, 0x00, 0x00, 0x00, 
.................... 0x00, 0x00, 0x00, 0x00, 0x00, 0x00, 0x00, 0x00, 0x00, 0x00, 0x00, 0x00, 0x00, 0x00, 0x00, 0x00, 
.................... 0x00, 0x00, 0x00, 0x00, 0x00, 0x00, 0x00, 0x00, 0x00, 0x00, 0x00, 0x00, 0x00, 0x00, 0x00, 0x00, 
.................... 0x00, 0x00, 0x00, 0x00, 0x00, 0x00, 0x00, 0x00, 0x00, 0x00, 0x00, 0x00, 0x00, 0x00, 0x00, 0x00, 
.................... 0x00, 0x00, 0x00, 0x00, 0x00, 0x00, 0x00, 0x00, 0x00, 0x00, 0x00, 0x00, 0x00, 0x00, 0x00, 0x00, 
.................... 0x00, 0x00, 0x00, 0x00, 0x00, 0x00, 0x00, 0x00, 0x00, 0x00, 0x00, 0x00, 0x00, 0x00, 0x00, 0x00, 
.................... 0x00, 0x00, 0x00, 0x00, 0x00, 0x00, 0x00, 0x00, 0x00, 0x00, 0x00, 0x00, 0x00, 0x00, 0x00, 0x00, 
.................... 0x00, 0x00, 0x00, 0x00, 0x00, 0x00, 0x00, 0x00, 0x00, 0x00, 0x00, 0x00, 0x00, 0x00, 0x00, 0x00, 
.................... 0x00, 0x00, 0x00, 0x00, 0x00, 0x00, 0x00, 0x00, 0x00, 0x00, 0x00, 0x00, 0x00, 0x00, 0x00, 0x00, 
.................... 0x00, 0x00, 0x00, 0x00, 0x00, 0x00, 0x00, 0x00, 0x00, 0x00, 0x00, 0x00, 0x00, 0x00, 0x00, 0x00, 
.................... 0x00, 0x00, 0x00, 0x00, 0x00, 0x00, 0x00, 0x00, 0x00, 0x00, 0x00, 0x00, 0x00, 0x00, 0x00, 0x00, 
.................... 0x00, 0x00, 0x00, 0x00, 0x00, 0x00, 0x00, 0x00, 0x00, 0x00, 0x00, 0x00, 0x00, 0x00, 0x00, 0x00, 
.................... 0x00, 0x00, 0x00, 0x00, 0x00, 0x00, 0x00, 0x00, 0x00, 0x00, 0x00, 0x00, 0x00, 0x00, 0x00, 0x00, 
.................... 0x00, 0x00, 0x00, 0x00, 0x00, 0x00, 0x00, 0x00, 0x00, 0x00, 0x00, 0x00, 0x00, 0x00, 0x00, 0x00, 
.................... 0x00, 0x00, 0x00, 0x00, 0x00, 0x00, 0x00, 0x00, 0x00, 0x00, 0x00, 0x00, 0x00, 0x00, 0x00, 0x00, 
.................... 0x00, 0x00, 0x00, 0x00, 0x00, 0x00, 0x00, 0x00, 0x00, 0x00, 0x00, 0x00, 0x00, 0x00, 0x00, 0x00, 
.................... 0x00, 0x00, 0x00, 0x00, 0x00, 0x00, 0x00, 0x00, 0x00, 0x00, 0x00, 0x00, 0x00, 0x00, 0x00, 0x00, 
.................... 0x00, 0x00, 0x00, 0x00, 0x00, 0x00, 0x00, 0x00, 0x00, 0x00, 0x00, 0x00, 0x00, 0x00, 0x00, 0x00, 
.................... 0x00, 0x00, 0x00, 0x00, 0x00, 0x00, 0x00, 0x00, 0x00, 0x00, 0x00, 0x00, 0x00, 0x00, 0x00, 0x00, 
.................... 0x00, 0x00, 0x00, 0x00, 0x00, 0x00, 0x00, 0x00, 0x00, 0x00, 0x00, 0x00, 0x00, 0x00, 0x00, 0x00, 
.................... 0x00, 0x00, 0x00, 0x00, 0x00, 0x00, 0x00, 0x00, 0x00, 0x00, 0x00, 0x00, 0x00, 0x00, 0x00, 0x00, 
.................... 0x00, 0x00, 0x00, 0x00, 0x00, 0x00, 0x00, 0x00, 0x00, 0x00, 0x00, 0x00, 0x00, 0x00, 0x00, 0x00, 
.................... 0x00, 0x00, 0x00, 0x00, 0x00, 0x00, 0x00, 0x00, 0x00, 0x00, 0x00, 0x00, 0x00, 0x00, 0x00, 0x00, 
.................... 0x00, 0x00, 0x00, 0x00, 0x00, 0x00, 0x00, 0x00, 0x00, 0x00, 0x00, 0x00, 0x00, 0x00, 0x00, 0x00, 
.................... 0x00, 0x00, 0x00, 0x00, 0x00, 0x00, 0x00, 0x00, 0x00, 0x00, 0x00, 0x00, 0x00, 0x00, 0x00, 0x00, 
.................... 0x00, 0x00, 0x00, 0x00, 0x00, 0x00, 0x00, 0x00, 0x00, 0x00, 0x00, 0x00, 0x00, 0x00, 0x00, 0x00, 
.................... 0x00, 0x00, 0x00, 0x00, 0x00, 0x00, 0x00, 0x00, 0x00, 0x00, 0x00, 0x00, 0x00, 0x00, 0x00, 0x00, 
.................... 0x00, 0x00, 0x00, 0x00, 0x00, 0x00, 0x00, 0x00, 0x00, 0x00, 0x00, 0x00, 0x00, 0x00, 0x00, 0x00, 
.................... 0x00, 0x00, 0x00, 0x00, 0x00, 0x00, 0x00, 0x00, 0x00, 0x00, 0x00, 0x00, 0x00, 0x00, 0x00, 0x00, 
.................... 0x00, 0x00, 0x00, 0x00, 0x00, 0x00, 0x00, 0x00, 0x00, 0x00, 0x00, 0x00, 0x00, 0x00, 0x00, 0x00, 
.................... 0x00, 0x00, 0x00, 0x00, 0x00, 0x00, 0x00, 0x00, 0x00, 0x00, 0x00, 0x00, 0x00, 0x00, 0x00, 0x00, 
.................... 0x00, 0x00, 0x00, 0x00, 0x00, 0x00, 0x00, 0x00, 0x00, 0x00, 0x00, 0x00, 0x00, 0x00, 0x00, 0x00, 
.................... 0x00, 0x00, 0x00, 0x00, 0x00, 0x00, 0x00, 0x00, 0x00, 0x00, 0x00, 0x00, 0x00, 0x00, 0x00, 0x00, 
.................... 0x00, 0x00, 0x00, 0x00, 0x00, 0x00, 0x00, 0x00, 0x00, 0x00, 0x00, 0x00, 0x00, 0x00, 0x00, 0x00, 
.................... 0x00, 0x00, 0x00, 0x00, 0x00, 0x00, 0x00, 0x00, 0x00, 0x00, 0x00, 0x00, 0x00, 0x00, 0x00, 0x00, 
.................... 0x00, 0x00, 0x00, 0x00, 0x00, 0x00, 0x00, 0x00, 0x00, 0x00, 0x00, 0x00, 0x00, 0x00, 0x00, 0x00, 
.................... 0x00, 0x00, 0x00, 0x00, 0x00, 0x00, 0x00, 0x00, 0x00, 0x00, 0x00, 0x00, 0x00, 0x00, 0x00, 0x00, 
.................... 0x00, 0x00, 0x00, 0x00, 0x00, 0x00, 0x00, 0x00, 0x00, 0x00, 0x00, 0x00, 0x00, 0x00, 0x00, 0x00, 
.................... 0x00, 0x00, 0x00, 0x00, 0x00, 0x00, 0x00, 0x00, 0x00, 0x00, 0x00, 0x00, 0x00, 0x00, 0x00, 0x00, 
.................... 0x00, 0x00, 0x00, 0x00, 0x00, 0x00, 0x00, 0x00, 0x00, 0x00, 0x00, 0x00, 0x00, 0x00, 0x00, 0x00, 
.................... 0x00, 0x00, 0x00, 0x00, 0x00, 0x00, 0x00, 0x00, 0x00, 0x00, 0x00, 0x00, 0x00, 0x00, 0x00, 0x00, 
.................... 0x00, 0x00, 0x00, 0x00, 0x00, 0x00, 0x00, 0x00, 0x00, 0x00, 0x00, 0x00, 0x00, 0x00, 0x00, 0x00, 
.................... 0x00, 0x00, 0x00, 0x00, 0x00, 0x00, 0x00, 0x00, 0x00, 0x00, 0x00, 0x00, 0x00, 0x00, 0x00, 0x00, 
.................... 0x00, 0x00, 0x00, 0x00, 0x00, 0x00, 0x00, 0x00, 0x00, 0x00, 0x00, 0x00, 0x00, 0x00, 0x00, 0x00, 
.................... 0x00, 0x00, 0x00, 0x00, 0x00, 0x00, 0x00, 0x00, 0x00, 0x00, 0x00, 0x00, 0x00, 0x00, 0x00, 0x00, 
.................... 0x00, 0x00, 0x00, 0x00, 0x00, 0x00, 0x00, 0x00, 0x00, 0x00, 0x00, 0x00, 0x00, 0x00, 0x00, 0x00, 
.................... 0x00, 0x00, 0x00, 0x00, 0x00, 0x00, 0x00, 0x00, 0x00, 0x00, 0x00, 0x00, 0x00, 0x00, 0x60, 0x00, 
.................... 0x00, 0x00, 0x00, 0x00, 0x00, 0x00, 0x00, 0x00, 0x00, 0x00, 0x00, 0x00, 0x00, 0x00, 0xF0, 0x00, 
.................... 0x00, 0x00, 0x00, 0x00, 0x00, 0x00, 0x00, 0x00, 0x00, 0x00, 0x00, 0x00, 0x00, 0x01, 0xF8, 0x00, 
.................... 0x00, 0x00, 0x00, 0x00, 0x00, 0x00, 0x00, 0x00, 0x00, 0x00, 0x00, 0x00, 0x00, 0x01, 0xF8, 0x00, 
.................... 0x00, 0x00, 0x00, 0x00, 0x00, 0x00, 0x00, 0x00, 0x00, 0x00, 0x00, 0x00, 0x00, 0x01, 0xF8, 0x00, 
.................... 0x00, 0x00, 0x00, 0x00, 0x00, 0x00, 0x00, 0x00, 0x00, 0x00, 0x00, 0x00, 0x00, 0x00, 0xF0, 0x00, 
.................... 0x00, 0x00, 0x00, 0x00, 0x00, 0x00, 0x00, 0x00, 0x00, 0x00, 0x00, 0x00, 0x00, 0x38, 0x71, 0xC0, 
.................... 0x00, 0x00, 0x00, 0x00, 0x00, 0x00, 0x00, 0x00, 0x00, 0x00, 0x00, 0x00, 0x00, 0x7C, 0x93, 0xE0, 
.................... 0x00, 0x00, 0x00, 0x00, 0x00, 0x00, 0x00, 0x00, 0x00, 0x00, 0x00, 0x00, 0x00, 0xFF, 0x0F, 0xF0, 
.................... 0x00, 0x00, 0x00, 0x00, 0x00, 0x00, 0x00, 0x00, 0x00, 0x00, 0x00, 0x00, 0x00, 0xFF, 0x0F, 0xF0, 
.................... 0x00, 0x00, 0x00, 0x00, 0x00, 0x00, 0x00, 0x00, 0x00, 0x00, 0x00, 0x00, 0x00, 0x7D, 0x93, 0xE0, 
.................... 0x00, 0x00, 0x00, 0x00, 0x00, 0x00, 0x00, 0x00, 0x00, 0x00, 0x00, 0x00, 0x00, 0x38, 0x61, 0xC0, 
.................... 0x00, 0x00, 0x00, 0x00, 0x00, 0x00, 0x00, 0x00, 0x00, 0x00, 0x00, 0x00, 0x00, 0x00, 0xF0, 0x00, 
.................... 0x00, 0x00, 0x00, 0x00, 0x00, 0x00, 0x00, 0x00, 0x00, 0x00, 0x00, 0x00, 0x00, 0x01, 0xF8, 0x00, 
.................... 0x00, 0x00, 0x00, 0x00, 0x00, 0x00, 0x00, 0x00, 0x00, 0x00, 0x00, 0x00, 0x00, 0x01, 0xF8, 0x00, 
.................... 0x00, 0x00, 0x00, 0x00, 0x00, 0x00, 0x00, 0x00, 0x00, 0x00, 0x00, 0x00, 0x00, 0x01, 0xF8, 0x00, 
.................... 0x00, 0x00, 0x00, 0x00, 0x00, 0x00, 0x00, 0x00, 0x00, 0x00, 0x00, 0x00, 0x00, 0x00, 0xF0, 0x00, 
.................... 0x00, 0x00, 0x00, 0x00, 0x00, 0x00, 0x00, 0x00, 0x00, 0x00, 0x00, 0x00, 0x00, 0x00, 0x60, 0x00 
.................... }; 
....................  
.................... #include "FuncionesDisplay.h" 
....................  
.................... typedef struct{ 
....................    char Letra[20]; 
.................... }MENUU; 
....................  
.................... MENUU Menus; 
....................   
.................... void displayContrasena(int digito, int x, int y, int sombreado) 
.................... { 
....................    char voltage[9]; 
....................    sprintf(voltage, "%i", digito); 
*
04DB4:  MOVLW  05
04DB6:  MOVLB  4
04DB8:  MOVWF  x2C
04DBA:  MOVLW  F9
04DBC:  MOVWF  x2B
04DBE:  MOVFF  5F5,602
04DC2:  MOVLW  1F
04DC4:  MOVLB  6
04DC6:  MOVWF  x03
04DC8:  MOVLB  0
04DCA:  RCALL  4AD0
....................     
....................    if(sombreado==1) 
04DCC:  MOVLB  5
04DCE:  DECFSZ xF8,W
04DD0:  BRA    4E2E
....................       {glcd_rect(x, y, x+18, y+24, YES, ON);glcd_text57(x+2, y+1, voltage, 2, OFF);} 
04DD2:  MOVLW  12
04DD4:  ADDWF  xF6,W
04DD6:  MOVLB  6
04DD8:  MOVWF  x02
04DDA:  MOVLW  18
04DDC:  MOVLB  5
04DDE:  ADDWF  xF7,W
04DE0:  MOVLB  6
04DE2:  MOVWF  x03
04DE4:  MOVFF  5F6,604
04DE8:  MOVFF  5F7,605
04DEC:  MOVFF  602,606
04DF0:  MOVWF  x07
04DF2:  MOVLW  01
04DF4:  MOVWF  x08
04DF6:  MOVWF  x09
04DF8:  MOVLB  0
04DFA:  RCALL  4CF0
04DFC:  MOVLW  02
04DFE:  MOVLB  5
04E00:  ADDWF  xF6,W
04E02:  MOVLB  6
04E04:  MOVWF  x02
04E06:  MOVLW  01
04E08:  MOVLB  5
04E0A:  ADDWF  xF7,W
04E0C:  MOVLB  6
04E0E:  MOVWF  x03
04E10:  MOVFF  602,604
04E14:  MOVWF  x05
04E16:  MOVLW  05
04E18:  MOVWF  x07
04E1A:  MOVLW  F9
04E1C:  MOVWF  x06
04E1E:  MOVLW  02
04E20:  MOVWF  x08
04E22:  CLRF   x09
04E24:  MOVLB  0
04E26:  CALL   18A2
....................    else    
04E2A:  BRA    4E86
04E2C:  MOVLB  5
....................       {glcd_rect(x, y, x+18, y+24, NO, OFF);glcd_text57(x+2, y+1, voltage, 2, ON);} 
04E2E:  MOVLW  12
04E30:  ADDWF  xF6,W
04E32:  MOVLB  6
04E34:  MOVWF  x02
04E36:  MOVLW  18
04E38:  MOVLB  5
04E3A:  ADDWF  xF7,W
04E3C:  MOVLB  6
04E3E:  MOVWF  x03
04E40:  MOVFF  5F6,604
04E44:  MOVFF  5F7,605
04E48:  MOVFF  602,606
04E4C:  MOVWF  x07
04E4E:  CLRF   x08
04E50:  CLRF   x09
04E52:  MOVLB  0
04E54:  RCALL  4CF0
04E56:  MOVLW  02
04E58:  MOVLB  5
04E5A:  ADDWF  xF6,W
04E5C:  MOVLB  6
04E5E:  MOVWF  x02
04E60:  MOVLW  01
04E62:  MOVLB  5
04E64:  ADDWF  xF7,W
04E66:  MOVLB  6
04E68:  MOVWF  x03
04E6A:  MOVFF  602,604
04E6E:  MOVWF  x05
04E70:  MOVLW  05
04E72:  MOVWF  x07
04E74:  MOVLW  F9
04E76:  MOVWF  x06
04E78:  MOVLW  02
04E7A:  MOVWF  x08
04E7C:  MOVLW  01
04E7E:  MOVWF  x09
04E80:  MOVLB  0
04E82:  CALL   18A2
....................  
.................... } 
04E86:  RETLW  00
....................  
.................... void displayTiempo(int digito, int x, int y, int sombreado, int tamano) 
.................... { 
....................    char voltage[9]; 
....................    sprintf(voltage, "%i", digito); 
*
05648:  MOVLW  05
0564A:  MOVLB  4
0564C:  MOVWF  x2C
0564E:  MOVLW  F0
05650:  MOVWF  x2B
05652:  MOVFF  5EB,602
05656:  MOVLW  1F
05658:  MOVLB  6
0565A:  MOVWF  x03
0565C:  MOVLB  0
0565E:  CALL   4AD0
....................     
....................    if(sombreado==1) 
05662:  MOVLB  5
05664:  DECFSZ xEE,W
05666:  BRA    56C8
....................       {glcd_rect(x, y, x+(tamano*6), y+(tamano*8), YES, ON);glcd_text57(x+2, y+1, voltage, tamano, OFF);} 
05668:  MOVF   xEF,W
0566A:  MULLW  06
0566C:  MOVF   FF3,W
0566E:  ADDWF  xEC,W
05670:  MOVWF  xF9
05672:  MOVF   xEF,W
05674:  MULLW  08
05676:  MOVF   FF3,W
05678:  ADDWF  xED,W
0567A:  MOVWF  xFA
0567C:  MOVFF  5EC,604
05680:  MOVFF  5ED,605
05684:  MOVFF  5F9,606
05688:  MOVFF  FE8,607
0568C:  MOVLW  01
0568E:  MOVLB  6
05690:  MOVWF  x08
05692:  MOVWF  x09
05694:  MOVLB  0
05696:  CALL   4CF0
0569A:  MOVLW  02
0569C:  MOVLB  5
0569E:  ADDWF  xEC,W
056A0:  MOVWF  xF9
056A2:  MOVLW  01
056A4:  ADDWF  xED,W
056A6:  MOVWF  xFA
056A8:  MOVFF  5F9,604
056AC:  MOVFF  FE8,605
056B0:  MOVLW  05
056B2:  MOVLB  6
056B4:  MOVWF  x07
056B6:  MOVLW  F0
056B8:  MOVWF  x06
056BA:  MOVFF  5EF,608
056BE:  CLRF   x09
056C0:  MOVLB  0
056C2:  CALL   18A2
056C6:  MOVLB  5
....................    if(sombreado==0) 
056C8:  MOVF   xEE,F
056CA:  BNZ   572E
....................       {glcd_rect(x, y, x+(tamano*6), y+(tamano*8), YES, OFF);glcd_text57(x+2, y+1, voltage, tamano, ON);} 
056CC:  MOVF   xEF,W
056CE:  MULLW  06
056D0:  MOVF   FF3,W
056D2:  ADDWF  xEC,W
056D4:  MOVWF  xF9
056D6:  MOVF   xEF,W
056D8:  MULLW  08
056DA:  MOVF   FF3,W
056DC:  ADDWF  xED,W
056DE:  MOVWF  xFA
056E0:  MOVFF  5EC,604
056E4:  MOVFF  5ED,605
056E8:  MOVFF  5F9,606
056EC:  MOVFF  FE8,607
056F0:  MOVLW  01
056F2:  MOVLB  6
056F4:  MOVWF  x08
056F6:  CLRF   x09
056F8:  MOVLB  0
056FA:  CALL   4CF0
056FE:  MOVLW  02
05700:  MOVLB  5
05702:  ADDWF  xEC,W
05704:  MOVWF  xF9
05706:  MOVLW  01
05708:  ADDWF  xED,W
0570A:  MOVWF  xFA
0570C:  MOVFF  5F9,604
05710:  MOVFF  FE8,605
05714:  MOVLW  05
05716:  MOVLB  6
05718:  MOVWF  x07
0571A:  MOVLW  F0
0571C:  MOVWF  x06
0571E:  MOVFF  5EF,608
05722:  MOVLW  01
05724:  MOVWF  x09
05726:  MOVLB  0
05728:  CALL   18A2
0572C:  MOVLB  5
....................  
.................... } 
0572E:  MOVLB  0
05730:  RETLW  00
....................  
.................... void displayMenu(char palabra[100], int x, int y, int sombreado, int tamano) 
.................... { 
....................    strcpy(Menus.Letra,palabra); 
*
04E88:  MOVLB  5
04E8A:  MOVFF  5F3,01
04E8E:  MOVFF  5F4,03
04E92:  MOVFF  5F3,5F9
04E96:  MOVFF  5F4,5FA
04E9A:  MOVLW  04
04E9C:  MOVWF  FEA
04E9E:  MOVLW  17
04EA0:  MOVWF  FE9
04EA2:  MOVFF  5F4,FE2
04EA6:  MOVFF  5F3,FE1
04EAA:  MOVF   FE7,F
04EAC:  MOVFF  FE6,FEE
04EB0:  BNZ   4EAA
....................    if(sombreado==1) 
04EB2:  DECFSZ xF7,W
04EB4:  BRA    4F08
....................       {glcd_rect(0, y, 127, y+(tamano*8), YES, ON);glcd_text57(x+1, y+1, Menus.Letra, tamano, OFF);} 
04EB6:  MOVF   xF8,W
04EB8:  MULLW  08
04EBA:  MOVF   FF3,W
04EBC:  ADDWF  xF6,W
04EBE:  MOVWF  xF9
04EC0:  MOVLB  6
04EC2:  CLRF   x04
04EC4:  MOVFF  5F6,605
04EC8:  MOVLW  7F
04ECA:  MOVWF  x06
04ECC:  MOVFF  5F9,607
04ED0:  MOVLW  01
04ED2:  MOVWF  x08
04ED4:  MOVWF  x09
04ED6:  MOVLB  0
04ED8:  RCALL  4CF0
04EDA:  MOVLW  01
04EDC:  MOVLB  5
04EDE:  ADDWF  xF5,W
04EE0:  MOVWF  xF9
04EE2:  MOVLW  01
04EE4:  ADDWF  xF6,W
04EE6:  MOVWF  xFA
04EE8:  MOVFF  5F9,604
04EEC:  MOVFF  FE8,605
04EF0:  MOVLW  04
04EF2:  MOVLB  6
04EF4:  MOVWF  x07
04EF6:  MOVLW  17
04EF8:  MOVWF  x06
04EFA:  MOVFF  5F8,608
04EFE:  CLRF   x09
04F00:  MOVLB  0
04F02:  CALL   18A2
04F06:  MOVLB  5
....................    if(sombreado==0) 
04F08:  MOVF   xF7,F
04F0A:  BNZ   4F60
....................       {glcd_rect(0, y, 127, y+(tamano*8), YES, OFF);glcd_text57(x+1, y+1, Menus.Letra, tamano, ON);} 
04F0C:  MOVF   xF8,W
04F0E:  MULLW  08
04F10:  MOVF   FF3,W
04F12:  ADDWF  xF6,W
04F14:  MOVWF  xF9
04F16:  MOVLB  6
04F18:  CLRF   x04
04F1A:  MOVFF  5F6,605
04F1E:  MOVLW  7F
04F20:  MOVWF  x06
04F22:  MOVFF  5F9,607
04F26:  MOVLW  01
04F28:  MOVWF  x08
04F2A:  CLRF   x09
04F2C:  MOVLB  0
04F2E:  RCALL  4CF0
04F30:  MOVLW  01
04F32:  MOVLB  5
04F34:  ADDWF  xF5,W
04F36:  MOVWF  xF9
04F38:  MOVLW  01
04F3A:  ADDWF  xF6,W
04F3C:  MOVWF  xFA
04F3E:  MOVFF  5F9,604
04F42:  MOVFF  FE8,605
04F46:  MOVLW  04
04F48:  MOVLB  6
04F4A:  MOVWF  x07
04F4C:  MOVLW  17
04F4E:  MOVWF  x06
04F50:  MOVFF  5F8,608
04F54:  MOVLW  01
04F56:  MOVWF  x09
04F58:  MOVLB  0
04F5A:  CALL   18A2
04F5E:  MOVLB  5
....................  
.................... } 
04F60:  MOVLB  0
04F62:  RETLW  00
....................  
.................... void displayfloat2(float adc,int x,int y,int sombreado, int tamano) { 
....................    char voltage[9];     
....................       sprintf(voltage, "%2.0f C",adc); // Converts adc to text 
*
05C22:  MOVLW  05
05C24:  MOVLB  4
05C26:  MOVWF  x2C
05C28:  MOVLW  F7
05C2A:  MOVWF  x2B
05C2C:  MOVLW  01
05C2E:  MOVWF  FE9
05C30:  MOVFF  5F2,603
05C34:  MOVFF  5F1,602
05C38:  MOVFF  5F0,601
05C3C:  MOVFF  5EF,600
05C40:  MOVLB  6
05C42:  CLRF   x04
05C44:  MOVLB  0
05C46:  RCALL  57F6
05C48:  MOVLW  20
05C4A:  MOVLB  6
05C4C:  MOVWF  x0D
05C4E:  MOVLB  0
05C50:  CALL   4AAE
05C54:  MOVLW  43
05C56:  MOVLB  6
05C58:  MOVWF  x0D
05C5A:  MOVLB  0
05C5C:  CALL   4AAE
....................        
....................    if(sombreado==1) 
05C60:  MOVLB  5
05C62:  DECFSZ xF5,W
05C64:  BRA    5CF0
....................       {glcd_rect(x, y, x+(tamano*20), y+(tamano*8), YES, ON);glcd_text57(x+2, y+1, voltage, tamano, OFF);glcd_circle(x+17,y+2,1,ON,OFF);} 
05C66:  MOVF   xF6,W
05C68:  MULLW  14
05C6A:  MOVF   FF3,W
05C6C:  ADDWF  xF3,W
05C6E:  MOVLB  6
05C70:  MOVWF  x00
05C72:  MOVLB  5
05C74:  MOVF   xF6,W
05C76:  MULLW  08
05C78:  MOVF   FF3,W
05C7A:  ADDWF  xF4,W
05C7C:  MOVLB  6
05C7E:  MOVWF  x01
05C80:  MOVFF  5F3,604
05C84:  MOVFF  5F4,605
05C88:  MOVFF  600,606
05C8C:  MOVWF  x07
05C8E:  MOVLW  01
05C90:  MOVWF  x08
05C92:  MOVWF  x09
05C94:  MOVLB  0
05C96:  CALL   4CF0
05C9A:  MOVLW  02
05C9C:  MOVLB  5
05C9E:  ADDWF  xF3,W
05CA0:  MOVLB  6
05CA2:  MOVWF  x00
05CA4:  MOVLW  01
05CA6:  MOVLB  5
05CA8:  ADDWF  xF4,W
05CAA:  MOVLB  6
05CAC:  MOVWF  x01
05CAE:  MOVFF  600,604
05CB2:  MOVWF  x05
05CB4:  MOVLW  05
05CB6:  MOVWF  x07
05CB8:  MOVLW  F7
05CBA:  MOVWF  x06
05CBC:  MOVFF  5F6,608
05CC0:  CLRF   x09
05CC2:  MOVLB  0
05CC4:  CALL   18A2
05CC8:  MOVLW  11
05CCA:  MOVLB  5
05CCC:  ADDWF  xF3,W
05CCE:  MOVLB  6
05CD0:  MOVWF  x00
05CD2:  MOVLW  02
05CD4:  MOVLB  5
05CD6:  ADDWF  xF4,W
05CD8:  MOVLB  6
05CDA:  MOVWF  x01
05CDC:  MOVFF  600,602
05CE0:  MOVWF  x03
05CE2:  MOVLW  01
05CE4:  MOVWF  x04
05CE6:  MOVWF  x05
05CE8:  CLRF   x06
05CEA:  MOVLB  0
05CEC:  RCALL  59F8
05CEE:  MOVLB  5
....................    if(sombreado==0) 
05CF0:  MOVF   xF5,F
05CF2:  BNZ   5D80
....................       {glcd_rect(x, y, x+(tamano*20), y+(tamano*8), YES, OFF);glcd_text57(x+2, y+1, voltage, tamano, ON);glcd_circle(x+17,y+2,1,ON,ON);} 
05CF4:  MOVF   xF6,W
05CF6:  MULLW  14
05CF8:  MOVF   FF3,W
05CFA:  ADDWF  xF3,W
05CFC:  MOVLB  6
05CFE:  MOVWF  x00
05D00:  MOVLB  5
05D02:  MOVF   xF6,W
05D04:  MULLW  08
05D06:  MOVF   FF3,W
05D08:  ADDWF  xF4,W
05D0A:  MOVLB  6
05D0C:  MOVWF  x01
05D0E:  MOVFF  5F3,604
05D12:  MOVFF  5F4,605
05D16:  MOVFF  600,606
05D1A:  MOVWF  x07
05D1C:  MOVLW  01
05D1E:  MOVWF  x08
05D20:  CLRF   x09
05D22:  MOVLB  0
05D24:  CALL   4CF0
05D28:  MOVLW  02
05D2A:  MOVLB  5
05D2C:  ADDWF  xF3,W
05D2E:  MOVLB  6
05D30:  MOVWF  x00
05D32:  MOVLW  01
05D34:  MOVLB  5
05D36:  ADDWF  xF4,W
05D38:  MOVLB  6
05D3A:  MOVWF  x01
05D3C:  MOVFF  600,604
05D40:  MOVWF  x05
05D42:  MOVLW  05
05D44:  MOVWF  x07
05D46:  MOVLW  F7
05D48:  MOVWF  x06
05D4A:  MOVFF  5F6,608
05D4E:  MOVLW  01
05D50:  MOVWF  x09
05D52:  MOVLB  0
05D54:  CALL   18A2
05D58:  MOVLW  11
05D5A:  MOVLB  5
05D5C:  ADDWF  xF3,W
05D5E:  MOVLB  6
05D60:  MOVWF  x00
05D62:  MOVLW  02
05D64:  MOVLB  5
05D66:  ADDWF  xF4,W
05D68:  MOVLB  6
05D6A:  MOVWF  x01
05D6C:  MOVFF  600,602
05D70:  MOVWF  x03
05D72:  MOVLW  01
05D74:  MOVWF  x04
05D76:  MOVWF  x05
05D78:  MOVWF  x06
05D7A:  MOVLB  0
05D7C:  RCALL  59F8
05D7E:  MOVLB  5
....................        
.................... } 
05D80:  MOVLB  0
05D82:  GOTO   7452 (RETURN)
....................  
.................... void displayfloat(float adc,int x,int y,int sombreado, int tamano) { 
....................    char voltage[9];     
....................       sprintf(voltage, "%2.2f ",adc); // Converts adc to text 
*
05FB2:  MOVLW  05
05FB4:  MOVLB  4
05FB6:  MOVWF  x2C
05FB8:  MOVLW  F7
05FBA:  MOVWF  x2B
05FBC:  MOVLW  89
05FBE:  MOVWF  FE9
05FC0:  MOVFF  5F2,603
05FC4:  MOVFF  5F1,602
05FC8:  MOVFF  5F0,601
05FCC:  MOVFF  5EF,600
05FD0:  MOVLW  02
05FD2:  MOVLB  6
05FD4:  MOVWF  x04
05FD6:  MOVLB  0
05FD8:  RCALL  57F6
05FDA:  MOVLW  20
05FDC:  MOVLB  6
05FDE:  MOVWF  x0D
05FE0:  MOVLB  0
05FE2:  CALL   4AAE
....................        
....................    if(sombreado==1) 
05FE6:  MOVLB  5
05FE8:  DECFSZ xF5,W
05FEA:  BRA    6050
....................       {glcd_rect(x, y, x+(tamano*20), y+(tamano*8), YES, ON);glcd_text57(x+2, y+1, voltage, tamano, OFF);} 
05FEC:  MOVF   xF6,W
05FEE:  MULLW  14
05FF0:  MOVF   FF3,W
05FF2:  ADDWF  xF3,W
05FF4:  MOVLB  6
05FF6:  MOVWF  x00
05FF8:  MOVLB  5
05FFA:  MOVF   xF6,W
05FFC:  MULLW  08
05FFE:  MOVF   FF3,W
06000:  ADDWF  xF4,W
06002:  MOVLB  6
06004:  MOVWF  x01
06006:  MOVFF  5F3,604
0600A:  MOVFF  5F4,605
0600E:  MOVFF  600,606
06012:  MOVWF  x07
06014:  MOVLW  01
06016:  MOVWF  x08
06018:  MOVWF  x09
0601A:  MOVLB  0
0601C:  CALL   4CF0
06020:  MOVLW  02
06022:  MOVLB  5
06024:  ADDWF  xF3,W
06026:  MOVLB  6
06028:  MOVWF  x00
0602A:  MOVLW  01
0602C:  MOVLB  5
0602E:  ADDWF  xF4,W
06030:  MOVLB  6
06032:  MOVWF  x01
06034:  MOVFF  600,604
06038:  MOVWF  x05
0603A:  MOVLW  05
0603C:  MOVWF  x07
0603E:  MOVLW  F7
06040:  MOVWF  x06
06042:  MOVFF  5F6,608
06046:  CLRF   x09
06048:  MOVLB  0
0604A:  CALL   18A2
0604E:  MOVLB  5
....................    if(sombreado==0) 
06050:  MOVF   xF5,F
06052:  BNZ   60BA
....................       {glcd_rect(x, y, x+(tamano*20), y+(tamano*8), YES, OFF);glcd_text57(x+2, y+1, voltage, tamano, ON);} 
06054:  MOVF   xF6,W
06056:  MULLW  14
06058:  MOVF   FF3,W
0605A:  ADDWF  xF3,W
0605C:  MOVLB  6
0605E:  MOVWF  x00
06060:  MOVLB  5
06062:  MOVF   xF6,W
06064:  MULLW  08
06066:  MOVF   FF3,W
06068:  ADDWF  xF4,W
0606A:  MOVLB  6
0606C:  MOVWF  x01
0606E:  MOVFF  5F3,604
06072:  MOVFF  5F4,605
06076:  MOVFF  600,606
0607A:  MOVWF  x07
0607C:  MOVLW  01
0607E:  MOVWF  x08
06080:  CLRF   x09
06082:  MOVLB  0
06084:  CALL   4CF0
06088:  MOVLW  02
0608A:  MOVLB  5
0608C:  ADDWF  xF3,W
0608E:  MOVLB  6
06090:  MOVWF  x00
06092:  MOVLW  01
06094:  MOVLB  5
06096:  ADDWF  xF4,W
06098:  MOVLB  6
0609A:  MOVWF  x01
0609C:  MOVFF  600,604
060A0:  MOVWF  x05
060A2:  MOVLW  05
060A4:  MOVWF  x07
060A6:  MOVLW  F7
060A8:  MOVWF  x06
060AA:  MOVFF  5F6,608
060AE:  MOVLW  01
060B0:  MOVWF  x09
060B2:  MOVLB  0
060B4:  CALL   18A2
060B8:  MOVLB  5
....................        
.................... } 
060BA:  MOVLB  0
060BC:  RETLW  00
....................  
.................... // Funcion para conversor analogo-digital 
.................... unsigned int16 sensores(int x){ 
.................... unsigned int16 y;set_adc_channel(x);delay_ms(1);y=read_adc();return (y); 
*
03002:  MOVLB  5
03004:  RLCF   xFC,W
03006:  MOVWF  00
03008:  RLCF   00,F
0300A:  MOVLW  FC
0300C:  ANDWF  00,F
0300E:  MOVFF  00,01
03012:  MOVF   FC2,W
03014:  ANDLW  C3
03016:  IORWF  00,W
03018:  MOVWF  FC2
0301A:  MOVLW  01
0301C:  MOVWF  xFF
0301E:  MOVLB  0
03020:  CALL   154C
03024:  BSF    FC2.1
03026:  BTFSC  FC2.1
03028:  BRA    3026
0302A:  MOVFF  FC4,5FE
0302E:  MOVLB  5
03030:  MOVFF  FC3,5FD
03034:  MOVFF  5FD,01
03038:  MOVFF  5FE,02
.................... } 
0303C:  MOVLB  0
0303E:  RETLW  00
....................  
....................  
.................... #define   UP               !input(PIN_A5) 
.................... #define   DOWN             !input(PIN_E0) 
.................... #define   RIGHT            !input(PIN_E1) 
.................... #define   LEFT             !input(PIN_E2) 
.................... #define   VIDRIOUP         !input(PIN_A4) 
.................... #define   VIDRIODN         !input(PIN_A3) 
....................  
.................... #define   Alarma_on           output_bit(PIN_C7,1) 
.................... #define   Alarma_off          output_bit(PIN_C7,0) 
.................... #define   LuzBlanca_on        output_bit(PIN_C0,1) 
.................... #define   LuzBlanca_off       output_bit(PIN_C0,0) 
.................... #define   LuzUV_on            output_bit(PIN_C1,1) 
.................... #define   LuzUV_off           output_bit(PIN_C1,0) 
.................... #define   Motor_on            output_bit(PIN_C2,1) 
.................... #define   Motor_off           output_bit(PIN_C2,0) 
.................... #define   Display_on          output_bit(PIN_B1,1) 
.................... #define   Display_off         output_bit(PIN_B1,0) 
....................  
.................... #define   PresDownFlow 2 
....................  
.................... short Flanco=0,Flanco1=0,Flanco2=0,Flanco3=0,Flanco4=0,Flanco5=0,imprimir=0,flag_blower=0,flag_toma=0,flag_luz=0,flag_alarma=0,w=0; 
.................... short tiempo_purga=0,tiempo_trabajo=0,flag_latencia=0,flag_uv=0,tiempo_uv=0,guardauv=0,tiempocumplido=1; 
.................... short guardatrabajo=0,Lectura=0,n=0; 
.................... char  JP[] = "JP Inglobal", Cabina[] = "Cabina Flujo Laminar",Dos_puntos[]=":"; 
.................... char  Clase[] = "   PCR", Tiempo[] = "Tiempo de Purga",UV[]="UV"; 
.................... char  Inflowt[] = "Vel:",Downflowt[] = "T:", ZF[] = "Fabrica:208.0", ZA[] = "Actual:",AJ[]="Ajuste:"; 
.................... char  Vida_Filtro[] = "Filtro:",ZFP[] = "Fabrica:240.0", Perdida[]="!Filtro Saturado!", Tempo[]="Tempo UV:",Vida_UV[] = "UVLife:"; 
.................... int8 Menu=200, unidad=1, Opcion=1,negativo=10,G_l=0,G_h=0,tiemporeset=0; 
.................... int8 q=0,r=0,l=0,h=0,Entero=0,Decimal1=0,Alarma=10; 
....................  
.................... unsigned int16 Inflow_adc=0,Filtro_Downflow_adc=0,Temporal1=0,segundos_uv=0; 
....................  
.................... int16 t_latencia=0,minutos_uv=0,minutos_trabajo=0,G16=0,tup=0,tdown=0,tright=0,tleft=0; 
.................... signed int  Tpurga[4]={0,0,0,0};       // Tiempo de Purga transcurrido 
.................... signed int  Tpurgap[4]={9,0,0,0};      // Tiempo de Purga programado 
.................... signed int  Tppurgap[4]={9,0,0,0};     // Tiempo de Post-Purga programado 
.................... signed int  Tuv[4]={0,0,0,0};          // Tiempo de UV transcurrido(en Horas) 
.................... signed int  Tempouvp[4]={0,0,0,0};        // Tiempo de UV transcurrido 
.................... signed int  Tempouv[4]={0,0,0,0};         // Tiempo de UV transcurrido 
.................... signed int  Ttrabajo[4]={0,0,0,0};        // Tiempo de trabajo transcurrido (en Horas) 
.................... signed int  Contrasena[4]={0,0,0,0};      // Contrasena de 4 digitos 
.................... signed int  Password[4]={0,0,0,0};        // Contrasena Almacenada de 4 digitos 
.................... float Inflow=0.0,Downflow=0.0,Filtro_Downflow=0.0,Diferencia=0.0,barra=0.0,barra_old=0.0; 
.................... float Velocidad=0.0,x_uno=0.0,x_cuadrado=0.0,x_cubo=0.0,Ajuste1=0.0,Ajuste2=0.0; 
.................... float Temporal=0.0,Temporal2=0.0; 
.................... float a=0.00000957915546738639,b=-0.00727819571978831,c= 1.85375754678451,d= -156.816806902063; 
.................... //float t=378.463968402560,f=-18275.0402762787;//Sensor 2 Posible bueno 
....................  
.................... float promedio[8]={0.0,0.0,0.0,0.0,0.0,0.0,0.0,0.0}; 
.................... float promedio2[8]={0.0,0.0,0.0,0.0,0.0,0.0,0.0,0.0}; 
.................... float PromPresion[8]={0.0,0.0,0.0,0.0,0.0,0.0,0.0,0.0}; 
.................... float Flujo=0.0,zero_fabrica=208.0,zero_actual=0.0; 
.................... float V1=0.0,Presion=0.0,G=2.0; 
....................  
.................... int16 pulsos=0,retardo=0; 
.................... int8 i=0,l2=0,h2=0,Temperatura=0; 
.................... short Cruce=OFF,Purga=OFF; 
.................... int16 tiempocruce=0; 
.................... int8 Porcentaje=0,VelMotor=0; 
.................... float Tcruce=0.0,Tcruce2=0; 
....................  
.................... #include "Funciones.h" 
.................... float Leer_Sensor_Presion(int media){ 
*
04858:  MOVLB  5
0485A:  CLRF   xEF
0485C:  CLRF   xEE
0485E:  CLRF   xED
04860:  CLRF   xEC
04862:  CLRF   xF3
04864:  CLRF   xF2
04866:  CLRF   xF1
04868:  CLRF   xF0
0486A:  CLRF   xF7
0486C:  CLRF   xF6
0486E:  CLRF   xF5
04870:  CLRF   xF4
04872:  CLRF   xFB
04874:  CLRF   xFA
04876:  CLRF   xF9
04878:  CLRF   xF8
....................    float promediopresion=0.0; 
....................    float VG=0.0,VS=0.0,G2=0.0; 
....................     
....................    Filtro_Downflow_adc=sensores(PresDownFlow); 
0487A:  MOVLW  02
0487C:  MOVWF  xFC
0487E:  MOVLB  0
04880:  CALL   3002
04884:  MOVFF  02,4DE
04888:  MOVFF  01,4DD
....................    V1=Filtro_Downflow_adc;  
0488C:  MOVFF  4DE,621
04890:  MOVFF  4DD,620
04894:  CALL   1A5A
04898:  MOVFF  03,5CE
0489C:  MOVFF  02,5CD
048A0:  MOVFF  01,5CC
048A4:  MOVFF  00,5CB
....................     
....................    //-----------MPXV5004DP------------------//  
....................     
....................    Presion=(V1/G)-1.0;// Presion=(Voltaje/Ganancia)-1 
048A8:  MOVFF  5CE,61F
048AC:  MOVFF  5CD,61E
048B0:  MOVFF  5CC,61D
048B4:  MOVFF  5CB,61C
048B8:  MOVFF  5D6,623
048BC:  MOVFF  5D5,622
048C0:  MOVFF  5D4,621
048C4:  MOVFF  5D3,620
048C8:  CALL   1A90
048CC:  MOVFF  00,5FC
048D0:  MOVFF  01,5FD
048D4:  MOVFF  02,5FE
048D8:  MOVFF  03,5FF
048DC:  BSF    FD8.1
048DE:  MOVFF  03,623
048E2:  MOVFF  02,622
048E6:  MOVFF  01,621
048EA:  MOVFF  00,620
048EE:  MOVLB  6
048F0:  CLRF   x27
048F2:  CLRF   x26
048F4:  CLRF   x25
048F6:  MOVLW  7F
048F8:  MOVWF  x24
048FA:  MOVLB  0
048FC:  CALL   1BEE
04900:  MOVFF  03,5D2
04904:  MOVFF  02,5D1
04908:  MOVFF  01,5D0
0490C:  MOVFF  00,5CF
....................     
....................    //-----------MPXV7002DP------------------//  
....................    //VS = (V1*5.0)/1023.0;   //Lectura de Divisor de Voltaje de PT100 con resistencia de 1k (+-10%) 
....................    //G2=G; 
....................    //VG = (G2*5.0)/1023.0; 
....................    //Presion=(VS-VG);// Presion=(Voltaje/Ganancia)-1 
....................    //Presion=(V1/G)-1.0;// Presion=(Voltaje/Ganancia)-1 
....................     
....................    if(Presion<0.0) 
04910:  MOVFF  5D2,61F
04914:  MOVFF  5D1,61E
04918:  MOVFF  5D0,61D
0491C:  MOVFF  5CF,61C
04920:  MOVLB  6
04922:  CLRF   x23
04924:  CLRF   x22
04926:  CLRF   x21
04928:  CLRF   x20
0492A:  MOVLB  0
0492C:  CALL   25D6
04930:  BNC   493C
....................    { 
....................       Presion=0.0; 
04932:  MOVLB  5
04934:  CLRF   xD2
04936:  CLRF   xD1
04938:  CLRF   xD0
0493A:  CLRF   xCF
....................    } 
....................  
....................    if(r>media-1) 
0493C:  MOVLW  01
0493E:  MOVLB  5
04940:  SUBWF  xEB,W
04942:  MOVLB  4
04944:  SUBWF  xD5,W
04946:  BZ    494C
04948:  BNC   494C
....................    {r=0;} 
0494A:  CLRF   xD5
....................    PromPresion[r]=Presion*4.02;r++; 
0494C:  MOVF   xD5,W
0494E:  MULLW  04
04950:  MOVF   FF3,W
04952:  CLRF   03
04954:  ADDLW  9F
04956:  MOVWF  FE9
04958:  MOVLW  05
0495A:  ADDWFC 03,W
0495C:  MOVWF  FEA
0495E:  MOVFF  5D2,61F
04962:  MOVFF  5D1,61E
04966:  MOVFF  5D0,61D
0496A:  MOVFF  5CF,61C
0496E:  MOVLW  D7
04970:  MOVLB  6
04972:  MOVWF  x23
04974:  MOVLW  A3
04976:  MOVWF  x22
04978:  CLRF   x21
0497A:  MOVLW  81
0497C:  MOVWF  x20
0497E:  MOVLB  0
04980:  CALL   307C
04984:  MOVFF  00,FEF
04988:  MOVFF  01,FEC
0498C:  MOVFF  02,FEC
04990:  MOVFF  03,FEC
04994:  MOVLB  4
04996:  INCF   xD5,F
....................           
....................    for(q=0;q<=(media-1);q++) 
04998:  CLRF   xD4
0499A:  MOVLW  01
0499C:  MOVLB  5
0499E:  SUBWF  xEB,W
049A0:  MOVLB  4
049A2:  SUBWF  xD4,W
049A4:  BZ    49A8
049A6:  BC    4A18
....................    { 
....................       promediopresion+=PromPresion[q]; 
049A8:  MOVF   xD4,W
049AA:  MULLW  04
049AC:  MOVF   FF3,W
049AE:  CLRF   03
049B0:  ADDLW  9F
049B2:  MOVWF  FE9
049B4:  MOVLW  05
049B6:  ADDWFC 03,W
049B8:  MOVWF  FEA
049BA:  MOVFF  FEF,00
049BE:  MOVFF  FEC,01
049C2:  MOVFF  FEC,02
049C6:  MOVFF  FEC,03
049CA:  MOVFF  FEA,5FD
049CE:  MOVFF  FE9,5FC
049D2:  BCF    FD8.1
049D4:  MOVFF  5EF,623
049D8:  MOVFF  5EE,622
049DC:  MOVFF  5ED,621
049E0:  MOVFF  5EC,620
049E4:  MOVFF  03,627
049E8:  MOVFF  02,626
049EC:  MOVFF  01,625
049F0:  MOVFF  00,624
049F4:  MOVLB  0
049F6:  CALL   1BEE
049FA:  MOVFF  5FD,FEA
049FE:  MOVFF  5FC,FE9
04A02:  MOVFF  03,5EF
04A06:  MOVFF  02,5EE
04A0A:  MOVFF  01,5ED
04A0E:  MOVFF  00,5EC
....................    }  
04A12:  MOVLB  4
04A14:  INCF   xD4,F
04A16:  BRA    499A
....................    promediopresion=promediopresion/media;    
04A18:  MOVLB  6
04A1A:  CLRF   x21
04A1C:  MOVFF  5EB,620
04A20:  MOVLB  0
04A22:  CALL   1A5A
04A26:  MOVFF  5EF,61F
04A2A:  MOVFF  5EE,61E
04A2E:  MOVFF  5ED,61D
04A32:  MOVFF  5EC,61C
04A36:  MOVFF  03,623
04A3A:  MOVFF  02,622
04A3E:  MOVFF  01,621
04A42:  MOVFF  00,620
04A46:  CALL   1A90
04A4A:  MOVFF  03,5EF
04A4E:  MOVFF  02,5EE
04A52:  MOVFF  01,5ED
04A56:  MOVFF  00,5EC
....................     
....................    return promediopresion*Ajuste2; 
04A5A:  MOVFF  5EF,61F
04A5E:  MOVFF  5EE,61E
04A62:  MOVFF  5ED,61D
04A66:  MOVFF  5EC,61C
04A6A:  MOVFF  546,623
04A6E:  MOVFF  545,622
04A72:  MOVFF  544,621
04A76:  MOVFF  543,620
04A7A:  CALL   307C
.................... } 
04A7E:  GOTO   6746 (RETURN)
....................  
.................... float leeTemperatura(int8 media){ 
*
04688:  MOVLB  5
0468A:  CLRF   xEF
0468C:  CLRF   xEE
0468E:  CLRF   xED
04690:  CLRF   xEC
04692:  CLRF   xF3
04694:  CLRF   xF2
04696:  CLRF   xF1
04698:  CLRF   xF0
0469A:  CLRF   xF7
0469C:  CLRF   xF6
0469E:  CLRF   xF5
046A0:  CLRF   xF4
046A2:  CLRF   xFB
046A4:  CLRF   xFA
046A6:  CLRF   xF9
046A8:  CLRF   xF8
....................    float ADC=0,V=0,T=0,Tempera=0; 
....................    ADC=sensores(0); 
046AA:  CLRF   xFC
046AC:  MOVLB  0
046AE:  CALL   3002
046B2:  MOVFF  02,621
046B6:  MOVFF  01,620
046BA:  CALL   1A5A
046BE:  MOVFF  03,5EF
046C2:  MOVFF  02,5EE
046C6:  MOVFF  01,5ED
046CA:  MOVFF  00,5EC
....................    V=5*ADC/1023; 
046CE:  MOVLB  6
046D0:  CLRF   x1F
046D2:  CLRF   x1E
046D4:  MOVLW  20
046D6:  MOVWF  x1D
046D8:  MOVLW  81
046DA:  MOVWF  x1C
046DC:  MOVFF  5EF,623
046E0:  MOVFF  5EE,622
046E4:  MOVFF  5ED,621
046E8:  MOVFF  5EC,620
046EC:  MOVLB  0
046EE:  CALL   307C
046F2:  MOVFF  00,5FC
046F6:  MOVFF  01,5FD
046FA:  MOVFF  02,5FE
046FE:  MOVFF  03,5FF
04702:  MOVFF  03,61F
04706:  MOVFF  02,61E
0470A:  MOVFF  01,61D
0470E:  MOVFF  00,61C
04712:  MOVLB  6
04714:  CLRF   x23
04716:  MOVLW  C0
04718:  MOVWF  x22
0471A:  MOVLW  7F
0471C:  MOVWF  x21
0471E:  MOVLW  88
04720:  MOVWF  x20
04722:  MOVLB  0
04724:  CALL   1A90
04728:  MOVFF  03,5F3
0472C:  MOVFF  02,5F2
04730:  MOVFF  01,5F1
04734:  MOVFF  00,5F0
....................    T=V/0.01; 
04738:  MOVFF  5F3,61F
0473C:  MOVFF  5F2,61E
04740:  MOVFF  5F1,61D
04744:  MOVFF  5F0,61C
04748:  MOVLW  0A
0474A:  MOVLB  6
0474C:  MOVWF  x23
0474E:  MOVLW  D7
04750:  MOVWF  x22
04752:  MOVLW  23
04754:  MOVWF  x21
04756:  MOVLW  78
04758:  MOVWF  x20
0475A:  MOVLB  0
0475C:  CALL   1A90
04760:  MOVFF  03,5F7
04764:  MOVFF  02,5F6
04768:  MOVFF  01,5F5
0476C:  MOVFF  00,5F4
....................    if(l2>media) 
04770:  MOVLB  5
04772:  MOVF   xDC,W
04774:  SUBWF  xEB,W
04776:  BC    477A
....................       l2=0; 
04778:  CLRF   xDC
....................        
....................    promedio2[l2]=T;l2++; 
0477A:  MOVF   xDC,W
0477C:  MULLW  04
0477E:  MOVF   FF3,W
04780:  CLRF   03
04782:  ADDLW  7F
04784:  MOVWF  FE9
04786:  MOVLW  05
04788:  ADDWFC 03,W
0478A:  MOVWF  FEA
0478C:  MOVFF  5F4,FEF
04790:  MOVFF  5F5,FEC
04794:  MOVFF  5F6,FEC
04798:  MOVFF  5F7,FEC
0479C:  INCF   xDC,F
....................    Tempera=0; 
0479E:  CLRF   xFB
047A0:  CLRF   xFA
047A2:  CLRF   xF9
047A4:  CLRF   xF8
....................       
....................      for(h2=0;h2<=(media-1);h2++){ 
047A6:  CLRF   xDD
047A8:  MOVLW  01
047AA:  SUBWF  xEB,W
047AC:  SUBWF  xDD,W
047AE:  BZ    47B2
047B0:  BC    4822
....................         Tempera+=promedio2[h2]; 
047B2:  MOVF   xDD,W
047B4:  MULLW  04
047B6:  MOVF   FF3,W
047B8:  CLRF   03
047BA:  ADDLW  7F
047BC:  MOVWF  FE9
047BE:  MOVLW  05
047C0:  ADDWFC 03,W
047C2:  MOVWF  FEA
047C4:  MOVFF  FEF,00
047C8:  MOVFF  FEC,01
047CC:  MOVFF  FEC,02
047D0:  MOVFF  FEC,03
047D4:  MOVFF  FEA,5FD
047D8:  MOVFF  FE9,5FC
047DC:  BCF    FD8.1
047DE:  MOVFF  5FB,623
047E2:  MOVFF  5FA,622
047E6:  MOVFF  5F9,621
047EA:  MOVFF  5F8,620
047EE:  MOVFF  03,627
047F2:  MOVFF  02,626
047F6:  MOVFF  01,625
047FA:  MOVFF  00,624
047FE:  MOVLB  0
04800:  CALL   1BEE
04804:  MOVFF  5FD,FEA
04808:  MOVFF  5FC,FE9
0480C:  MOVFF  03,5FB
04810:  MOVFF  02,5FA
04814:  MOVFF  01,5F9
04818:  MOVFF  00,5F8
....................      }       
0481C:  MOVLB  5
0481E:  INCF   xDD,F
04820:  BRA    47A8
....................    return Tempera/media; 
04822:  MOVLB  6
04824:  CLRF   x21
04826:  MOVFF  5EB,620
0482A:  MOVLB  0
0482C:  CALL   1A5A
04830:  MOVFF  5FB,61F
04834:  MOVFF  5FA,61E
04838:  MOVFF  5F9,61D
0483C:  MOVFF  5F8,61C
04840:  MOVFF  03,623
04844:  MOVFF  02,622
04848:  MOVFF  01,621
0484C:  MOVFF  00,620
04850:  CALL   1A90
.................... } 
04854:  GOTO   6722 (RETURN)
....................  
.................... void LeeEEPROM(void){ 
....................    Password[0]=read_eeprom(0); 
*
01E66:  MOVFF  FF2,5EB
01E6A:  BCF    FF2.7
01E6C:  CLRF   FAA
01E6E:  CLRF   FA9
01E70:  BCF    FA6.6
01E72:  BCF    FA6.7
01E74:  BSF    FA6.0
01E76:  MOVF   FA8,W
01E78:  MOVLB  5
01E7A:  BTFSC  xEB.7
01E7C:  BSF    FF2.7
01E7E:  MOVWF  x13
....................    delay_ms(10); 
01E80:  MOVLW  0A
01E82:  MOVWF  xFF
01E84:  MOVLB  0
01E86:  CALL   154C
....................    Password[1]=read_eeprom(1); 
01E8A:  MOVFF  FF2,5EB
01E8E:  BCF    FF2.7
01E90:  CLRF   FAA
01E92:  MOVLW  01
01E94:  MOVWF  FA9
01E96:  BCF    FA6.6
01E98:  BCF    FA6.7
01E9A:  BSF    FA6.0
01E9C:  MOVF   FA8,W
01E9E:  MOVLB  5
01EA0:  BTFSC  xEB.7
01EA2:  BSF    FF2.7
01EA4:  MOVWF  x14
....................    delay_ms(10); 
01EA6:  MOVLW  0A
01EA8:  MOVWF  xFF
01EAA:  MOVLB  0
01EAC:  CALL   154C
....................    Password[2]=read_eeprom(2); 
01EB0:  MOVFF  FF2,5EB
01EB4:  BCF    FF2.7
01EB6:  CLRF   FAA
01EB8:  MOVLW  02
01EBA:  MOVWF  FA9
01EBC:  BCF    FA6.6
01EBE:  BCF    FA6.7
01EC0:  BSF    FA6.0
01EC2:  MOVF   FA8,W
01EC4:  MOVLB  5
01EC6:  BTFSC  xEB.7
01EC8:  BSF    FF2.7
01ECA:  MOVWF  x15
....................    delay_ms(10); 
01ECC:  MOVLW  0A
01ECE:  MOVWF  xFF
01ED0:  MOVLB  0
01ED2:  CALL   154C
....................    Password[3]=read_eeprom(3); 
01ED6:  MOVFF  FF2,5EB
01EDA:  BCF    FF2.7
01EDC:  CLRF   FAA
01EDE:  MOVLW  03
01EE0:  MOVWF  FA9
01EE2:  BCF    FA6.6
01EE4:  BCF    FA6.7
01EE6:  BSF    FA6.0
01EE8:  MOVF   FA8,W
01EEA:  MOVLB  5
01EEC:  BTFSC  xEB.7
01EEE:  BSF    FF2.7
01EF0:  MOVWF  x16
....................    delay_ms(10); 
01EF2:  MOVLW  0A
01EF4:  MOVWF  xFF
01EF6:  MOVLB  0
01EF8:  CALL   154C
....................    Tpurgap[0]=read_eeprom(4); 
01EFC:  MOVFF  FF2,5EB
01F00:  BCF    FF2.7
01F02:  CLRF   FAA
01F04:  MOVLW  04
01F06:  MOVWF  FA9
01F08:  BCF    FA6.6
01F0A:  BCF    FA6.7
01F0C:  BSF    FA6.0
01F0E:  MOVF   FA8,W
01F10:  MOVLB  5
01F12:  BTFSC  xEB.7
01F14:  BSF    FF2.7
01F16:  MOVLB  4
01F18:  MOVWF  xF7
....................    delay_ms(10); 
01F1A:  MOVLW  0A
01F1C:  MOVLB  5
01F1E:  MOVWF  xFF
01F20:  MOVLB  0
01F22:  CALL   154C
....................    Tpurgap[1]=read_eeprom(5); 
01F26:  MOVFF  FF2,5EB
01F2A:  BCF    FF2.7
01F2C:  CLRF   FAA
01F2E:  MOVLW  05
01F30:  MOVWF  FA9
01F32:  BCF    FA6.6
01F34:  BCF    FA6.7
01F36:  BSF    FA6.0
01F38:  MOVF   FA8,W
01F3A:  MOVLB  5
01F3C:  BTFSC  xEB.7
01F3E:  BSF    FF2.7
01F40:  MOVLB  4
01F42:  MOVWF  xF8
....................    delay_ms(10); 
01F44:  MOVLW  0A
01F46:  MOVLB  5
01F48:  MOVWF  xFF
01F4A:  MOVLB  0
01F4C:  CALL   154C
....................    Tpurgap[2]=read_eeprom(6); 
01F50:  MOVFF  FF2,5EB
01F54:  BCF    FF2.7
01F56:  CLRF   FAA
01F58:  MOVLW  06
01F5A:  MOVWF  FA9
01F5C:  BCF    FA6.6
01F5E:  BCF    FA6.7
01F60:  BSF    FA6.0
01F62:  MOVF   FA8,W
01F64:  MOVLB  5
01F66:  BTFSC  xEB.7
01F68:  BSF    FF2.7
01F6A:  MOVLB  4
01F6C:  MOVWF  xF9
....................    delay_ms(10); 
01F6E:  MOVLW  0A
01F70:  MOVLB  5
01F72:  MOVWF  xFF
01F74:  MOVLB  0
01F76:  CALL   154C
....................    Tpurgap[3]=read_eeprom(7); 
01F7A:  MOVFF  FF2,5EB
01F7E:  BCF    FF2.7
01F80:  CLRF   FAA
01F82:  MOVLW  07
01F84:  MOVWF  FA9
01F86:  BCF    FA6.6
01F88:  BCF    FA6.7
01F8A:  BSF    FA6.0
01F8C:  MOVF   FA8,W
01F8E:  MOVLB  5
01F90:  BTFSC  xEB.7
01F92:  BSF    FF2.7
01F94:  MOVLB  4
01F96:  MOVWF  xFA
....................    delay_ms(10); 
01F98:  MOVLW  0A
01F9A:  MOVLB  5
01F9C:  MOVWF  xFF
01F9E:  MOVLB  0
01FA0:  CALL   154C
....................    Tppurgap[0]=read_eeprom(8); 
01FA4:  MOVFF  FF2,5EB
01FA8:  BCF    FF2.7
01FAA:  CLRF   FAA
01FAC:  MOVLW  08
01FAE:  MOVWF  FA9
01FB0:  BCF    FA6.6
01FB2:  BCF    FA6.7
01FB4:  BSF    FA6.0
01FB6:  MOVF   FA8,W
01FB8:  MOVLB  5
01FBA:  BTFSC  xEB.7
01FBC:  BSF    FF2.7
01FBE:  MOVLB  4
01FC0:  MOVWF  xFB
....................    delay_ms(10); 
01FC2:  MOVLW  0A
01FC4:  MOVLB  5
01FC6:  MOVWF  xFF
01FC8:  MOVLB  0
01FCA:  CALL   154C
....................    Tppurgap[1]=read_eeprom(9); 
01FCE:  MOVFF  FF2,5EB
01FD2:  BCF    FF2.7
01FD4:  CLRF   FAA
01FD6:  MOVLW  09
01FD8:  MOVWF  FA9
01FDA:  BCF    FA6.6
01FDC:  BCF    FA6.7
01FDE:  BSF    FA6.0
01FE0:  MOVF   FA8,W
01FE2:  MOVLB  5
01FE4:  BTFSC  xEB.7
01FE6:  BSF    FF2.7
01FE8:  MOVLB  4
01FEA:  MOVWF  xFC
....................    delay_ms(10); 
01FEC:  MOVLW  0A
01FEE:  MOVLB  5
01FF0:  MOVWF  xFF
01FF2:  MOVLB  0
01FF4:  CALL   154C
....................    Tppurgap[2]=read_eeprom(10); 
01FF8:  MOVFF  FF2,5EB
01FFC:  BCF    FF2.7
01FFE:  CLRF   FAA
02000:  MOVLW  0A
02002:  MOVWF  FA9
02004:  BCF    FA6.6
02006:  BCF    FA6.7
02008:  BSF    FA6.0
0200A:  MOVF   FA8,W
0200C:  MOVLB  5
0200E:  BTFSC  xEB.7
02010:  BSF    FF2.7
02012:  MOVLB  4
02014:  MOVWF  xFD
....................    delay_ms(10); 
02016:  MOVLW  0A
02018:  MOVLB  5
0201A:  MOVWF  xFF
0201C:  MOVLB  0
0201E:  CALL   154C
....................    Tppurgap[3]=read_eeprom(11); 
02022:  MOVFF  FF2,5EB
02026:  BCF    FF2.7
02028:  CLRF   FAA
0202A:  MOVLW  0B
0202C:  MOVWF  FA9
0202E:  BCF    FA6.6
02030:  BCF    FA6.7
02032:  BSF    FA6.0
02034:  MOVF   FA8,W
02036:  MOVLB  5
02038:  BTFSC  xEB.7
0203A:  BSF    FF2.7
0203C:  MOVLB  4
0203E:  MOVWF  xFE
....................    delay_ms(10); 
02040:  MOVLW  0A
02042:  MOVLB  5
02044:  MOVWF  xFF
02046:  MOVLB  0
02048:  CALL   154C
....................    Tuv[0]=read_eeprom(12); 
0204C:  MOVFF  FF2,5EB
02050:  BCF    FF2.7
02052:  CLRF   FAA
02054:  MOVLW  0C
02056:  MOVWF  FA9
02058:  BCF    FA6.6
0205A:  BCF    FA6.7
0205C:  BSF    FA6.0
0205E:  MOVF   FA8,W
02060:  MOVLB  5
02062:  BTFSC  xEB.7
02064:  BSF    FF2.7
02066:  MOVLB  4
02068:  MOVWF  xFF
....................    delay_ms(10); 
0206A:  MOVLW  0A
0206C:  MOVLB  5
0206E:  MOVWF  xFF
02070:  MOVLB  0
02072:  CALL   154C
....................    Tuv[1]=read_eeprom(13); 
02076:  MOVFF  FF2,5EB
0207A:  BCF    FF2.7
0207C:  CLRF   FAA
0207E:  MOVLW  0D
02080:  MOVWF  FA9
02082:  BCF    FA6.6
02084:  BCF    FA6.7
02086:  BSF    FA6.0
02088:  MOVF   FA8,W
0208A:  MOVLB  5
0208C:  BTFSC  xEB.7
0208E:  BSF    FF2.7
02090:  MOVWF  x00
....................    delay_ms(10); 
02092:  MOVLW  0A
02094:  MOVWF  xFF
02096:  MOVLB  0
02098:  CALL   154C
....................    Tuv[2]=read_eeprom(14); 
0209C:  MOVFF  FF2,5EB
020A0:  BCF    FF2.7
020A2:  CLRF   FAA
020A4:  MOVLW  0E
020A6:  MOVWF  FA9
020A8:  BCF    FA6.6
020AA:  BCF    FA6.7
020AC:  BSF    FA6.0
020AE:  MOVF   FA8,W
020B0:  MOVLB  5
020B2:  BTFSC  xEB.7
020B4:  BSF    FF2.7
020B6:  MOVWF  x01
....................    delay_ms(10); 
020B8:  MOVLW  0A
020BA:  MOVWF  xFF
020BC:  MOVLB  0
020BE:  CALL   154C
....................    Tuv[3]=read_eeprom(15); 
020C2:  MOVFF  FF2,5EB
020C6:  BCF    FF2.7
020C8:  CLRF   FAA
020CA:  MOVLW  0F
020CC:  MOVWF  FA9
020CE:  BCF    FA6.6
020D0:  BCF    FA6.7
020D2:  BSF    FA6.0
020D4:  MOVF   FA8,W
020D6:  MOVLB  5
020D8:  BTFSC  xEB.7
020DA:  BSF    FF2.7
020DC:  MOVWF  x02
....................    delay_ms(10); 
020DE:  MOVLW  0A
020E0:  MOVWF  xFF
020E2:  MOVLB  0
020E4:  CALL   154C
....................    Ttrabajo[0]=read_eeprom(16); 
020E8:  MOVFF  FF2,5EB
020EC:  BCF    FF2.7
020EE:  CLRF   FAA
020F0:  MOVLW  10
020F2:  MOVWF  FA9
020F4:  BCF    FA6.6
020F6:  BCF    FA6.7
020F8:  BSF    FA6.0
020FA:  MOVF   FA8,W
020FC:  MOVLB  5
020FE:  BTFSC  xEB.7
02100:  BSF    FF2.7
02102:  MOVWF  x0B
....................    delay_ms(10); 
02104:  MOVLW  0A
02106:  MOVWF  xFF
02108:  MOVLB  0
0210A:  CALL   154C
....................    Ttrabajo[1]=read_eeprom(17); 
0210E:  MOVFF  FF2,5EB
02112:  BCF    FF2.7
02114:  CLRF   FAA
02116:  MOVLW  11
02118:  MOVWF  FA9
0211A:  BCF    FA6.6
0211C:  BCF    FA6.7
0211E:  BSF    FA6.0
02120:  MOVF   FA8,W
02122:  MOVLB  5
02124:  BTFSC  xEB.7
02126:  BSF    FF2.7
02128:  MOVWF  x0C
....................    delay_ms(10); 
0212A:  MOVLW  0A
0212C:  MOVWF  xFF
0212E:  MOVLB  0
02130:  CALL   154C
....................    Ttrabajo[2]=read_eeprom(18); 
02134:  MOVFF  FF2,5EB
02138:  BCF    FF2.7
0213A:  CLRF   FAA
0213C:  MOVLW  12
0213E:  MOVWF  FA9
02140:  BCF    FA6.6
02142:  BCF    FA6.7
02144:  BSF    FA6.0
02146:  MOVF   FA8,W
02148:  MOVLB  5
0214A:  BTFSC  xEB.7
0214C:  BSF    FF2.7
0214E:  MOVWF  x0D
....................    delay_ms(10); 
02150:  MOVLW  0A
02152:  MOVWF  xFF
02154:  MOVLB  0
02156:  CALL   154C
....................    Ttrabajo[3]=read_eeprom(19); 
0215A:  MOVFF  FF2,5EB
0215E:  BCF    FF2.7
02160:  CLRF   FAA
02162:  MOVLW  13
02164:  MOVWF  FA9
02166:  BCF    FA6.6
02168:  BCF    FA6.7
0216A:  BSF    FA6.0
0216C:  MOVF   FA8,W
0216E:  MOVLB  5
02170:  BTFSC  xEB.7
02172:  BSF    FF2.7
02174:  MOVWF  x0E
....................    delay_ms(10); 
02176:  MOVLW  0A
02178:  MOVWF  xFF
0217A:  MOVLB  0
0217C:  CALL   154C
....................    //flag_alarma=read_eeprom(20); 
....................    //delay_ms(10); 
....................    Tempouvp[0]=read_eeprom(21); 
02180:  MOVFF  FF2,5EB
02184:  BCF    FF2.7
02186:  CLRF   FAA
02188:  MOVLW  15
0218A:  MOVWF  FA9
0218C:  BCF    FA6.6
0218E:  BCF    FA6.7
02190:  BSF    FA6.0
02192:  MOVF   FA8,W
02194:  MOVLB  5
02196:  BTFSC  xEB.7
02198:  BSF    FF2.7
0219A:  MOVWF  x03
....................    delay_ms(10); 
0219C:  MOVLW  0A
0219E:  MOVWF  xFF
021A0:  MOVLB  0
021A2:  CALL   154C
....................    Tempouvp[1]=read_eeprom(22); 
021A6:  MOVFF  FF2,5EB
021AA:  BCF    FF2.7
021AC:  CLRF   FAA
021AE:  MOVLW  16
021B0:  MOVWF  FA9
021B2:  BCF    FA6.6
021B4:  BCF    FA6.7
021B6:  BSF    FA6.0
021B8:  MOVF   FA8,W
021BA:  MOVLB  5
021BC:  BTFSC  xEB.7
021BE:  BSF    FF2.7
021C0:  MOVWF  x04
....................    delay_ms(10); 
021C2:  MOVLW  0A
021C4:  MOVWF  xFF
021C6:  MOVLB  0
021C8:  CALL   154C
....................    Tempouvp[2]=read_eeprom(23); 
021CC:  MOVFF  FF2,5EB
021D0:  BCF    FF2.7
021D2:  CLRF   FAA
021D4:  MOVLW  17
021D6:  MOVWF  FA9
021D8:  BCF    FA6.6
021DA:  BCF    FA6.7
021DC:  BSF    FA6.0
021DE:  MOVF   FA8,W
021E0:  MOVLB  5
021E2:  BTFSC  xEB.7
021E4:  BSF    FF2.7
021E6:  MOVWF  x05
....................    delay_ms(10); 
021E8:  MOVLW  0A
021EA:  MOVWF  xFF
021EC:  MOVLB  0
021EE:  CALL   154C
....................    Tempouvp[3]=read_eeprom(24); 
021F2:  MOVFF  FF2,5EB
021F6:  BCF    FF2.7
021F8:  CLRF   FAA
021FA:  MOVLW  18
021FC:  MOVWF  FA9
021FE:  BCF    FA6.6
02200:  BCF    FA6.7
02202:  BSF    FA6.0
02204:  MOVF   FA8,W
02206:  MOVLB  5
02208:  BTFSC  xEB.7
0220A:  BSF    FF2.7
0220C:  MOVWF  x06
....................     
....................    delay_ms(10); 
0220E:  MOVLW  0A
02210:  MOVWF  xFF
02212:  MOVLB  0
02214:  CALL   154C
....................    Entero=read_eeprom(25);//Decimal1=read_eeprom(26); 
02218:  MOVFF  FF2,5EB
0221C:  BCF    FF2.7
0221E:  CLRF   FAA
02220:  MOVLW  19
02222:  MOVWF  FA9
02224:  BCF    FA6.6
02226:  BCF    FA6.7
02228:  BSF    FA6.0
0222A:  MOVF   FA8,W
0222C:  MOVLB  5
0222E:  BTFSC  xEB.7
02230:  BSF    FF2.7
02232:  MOVLB  4
02234:  MOVWF  xD8
....................    delay_ms(10); 
02236:  MOVLW  0A
02238:  MOVLB  5
0223A:  MOVWF  xFF
0223C:  MOVLB  0
0223E:  CALL   154C
....................    Temporal=read_eeprom(26); 
02242:  MOVFF  FF2,5EB
02246:  BCF    FF2.7
02248:  CLRF   FAA
0224A:  MOVLW  1A
0224C:  MOVWF  FA9
0224E:  BCF    FA6.6
02250:  BCF    FA6.7
02252:  BSF    FA6.0
02254:  MOVF   FA8,W
02256:  MOVLB  5
02258:  BTFSC  xEB.7
0225A:  BSF    FF2.7
0225C:  MOVLB  6
0225E:  CLRF   x21
02260:  MOVWF  x20
02262:  MOVLB  0
02264:  CALL   1A5A
02268:  MOVFF  03,54A
0226C:  MOVFF  02,549
02270:  MOVFF  01,548
02274:  MOVFF  00,547
....................    delay_ms(10); 
02278:  MOVLW  0A
0227A:  MOVLB  5
0227C:  MOVWF  xFF
0227E:  MOVLB  0
02280:  CALL   154C
....................    Temporal=Temporal/10.0; 
02284:  MOVFF  54A,61F
02288:  MOVFF  549,61E
0228C:  MOVFF  548,61D
02290:  MOVFF  547,61C
02294:  MOVLB  6
02296:  CLRF   x23
02298:  CLRF   x22
0229A:  MOVLW  20
0229C:  MOVWF  x21
0229E:  MOVLW  82
022A0:  MOVWF  x20
022A2:  MOVLB  0
022A4:  CALL   1A90
022A8:  MOVFF  03,54A
022AC:  MOVFF  02,549
022B0:  MOVFF  01,548
022B4:  MOVFF  00,547
....................    Ajuste1=Entero+Temporal; 
022B8:  MOVLB  6
022BA:  CLRF   x21
022BC:  MOVFF  4D8,620
022C0:  MOVLB  0
022C2:  CALL   1A5A
022C6:  BCF    FD8.1
022C8:  MOVFF  03,623
022CC:  MOVFF  02,622
022D0:  MOVFF  01,621
022D4:  MOVFF  00,620
022D8:  MOVFF  54A,627
022DC:  MOVFF  549,626
022E0:  MOVFF  548,625
022E4:  MOVFF  547,624
022E8:  RCALL  1BEE
022EA:  MOVFF  03,542
022EE:  MOVFF  02,541
022F2:  MOVFF  01,540
022F6:  MOVFF  00,53F
....................     
....................     
....................    Entero=read_eeprom(27);//Decimal1=read_eeprom(26); 
022FA:  MOVFF  FF2,5EB
022FE:  BCF    FF2.7
02300:  CLRF   FAA
02302:  MOVLW  1B
02304:  MOVWF  FA9
02306:  BCF    FA6.6
02308:  BCF    FA6.7
0230A:  BSF    FA6.0
0230C:  MOVF   FA8,W
0230E:  MOVLB  5
02310:  BTFSC  xEB.7
02312:  BSF    FF2.7
02314:  MOVLB  4
02316:  MOVWF  xD8
....................    delay_ms(10); 
02318:  MOVLW  0A
0231A:  MOVLB  5
0231C:  MOVWF  xFF
0231E:  MOVLB  0
02320:  CALL   154C
....................    Temporal=read_eeprom(28); 
02324:  MOVFF  FF2,5EB
02328:  BCF    FF2.7
0232A:  CLRF   FAA
0232C:  MOVLW  1C
0232E:  MOVWF  FA9
02330:  BCF    FA6.6
02332:  BCF    FA6.7
02334:  BSF    FA6.0
02336:  MOVF   FA8,W
02338:  MOVLB  5
0233A:  BTFSC  xEB.7
0233C:  BSF    FF2.7
0233E:  MOVLB  6
02340:  CLRF   x21
02342:  MOVWF  x20
02344:  MOVLB  0
02346:  CALL   1A5A
0234A:  MOVFF  03,54A
0234E:  MOVFF  02,549
02352:  MOVFF  01,548
02356:  MOVFF  00,547
....................    delay_ms(10); 
0235A:  MOVLW  0A
0235C:  MOVLB  5
0235E:  MOVWF  xFF
02360:  MOVLB  0
02362:  CALL   154C
....................    Temporal=Temporal/10.0; 
02366:  MOVFF  54A,61F
0236A:  MOVFF  549,61E
0236E:  MOVFF  548,61D
02372:  MOVFF  547,61C
02376:  MOVLB  6
02378:  CLRF   x23
0237A:  CLRF   x22
0237C:  MOVLW  20
0237E:  MOVWF  x21
02380:  MOVLW  82
02382:  MOVWF  x20
02384:  MOVLB  0
02386:  CALL   1A90
0238A:  MOVFF  03,54A
0238E:  MOVFF  02,549
02392:  MOVFF  01,548
02396:  MOVFF  00,547
....................    Ajuste2=Entero+Temporal; 
0239A:  MOVLB  6
0239C:  CLRF   x21
0239E:  MOVFF  4D8,620
023A2:  MOVLB  0
023A4:  CALL   1A5A
023A8:  BCF    FD8.1
023AA:  MOVFF  03,623
023AE:  MOVFF  02,622
023B2:  MOVFF  01,621
023B6:  MOVFF  00,620
023BA:  MOVFF  54A,627
023BE:  MOVFF  549,626
023C2:  MOVFF  548,625
023C6:  MOVFF  547,624
023CA:  RCALL  1BEE
023CC:  MOVFF  03,546
023D0:  MOVFF  02,545
023D4:  MOVFF  01,544
023D8:  MOVFF  00,543
....................     
....................    zero_actual=make16(read_eeprom(30),read_eeprom(29)); 
023DC:  MOVFF  FF2,5EB
023E0:  BCF    FF2.7
023E2:  CLRF   FAA
023E4:  MOVLW  1E
023E6:  MOVWF  FA9
023E8:  BCF    FA6.6
023EA:  BCF    FA6.7
023EC:  BSF    FA6.0
023EE:  MOVF   FA8,W
023F0:  MOVLB  5
023F2:  BTFSC  xEB.7
023F4:  BSF    FF2.7
023F6:  MOVWF  xEC
023F8:  MOVFF  FF2,5ED
023FC:  BCF    FF2.7
023FE:  CLRF   FAA
02400:  MOVLW  1D
02402:  MOVWF  FA9
02404:  BCF    FA6.6
02406:  BCF    FA6.7
02408:  BSF    FA6.0
0240A:  MOVF   FA8,W
0240C:  BTFSC  xED.7
0240E:  BSF    FF2.7
02410:  MOVWF  xEE
02412:  MOVFF  5EC,03
02416:  MOVF   xEE,W
02418:  MOVLB  6
0241A:  MOVWF  x20
0241C:  MOVFF  03,621
02420:  MOVLB  0
02422:  CALL   1A5A
02426:  MOVFF  03,5CA
0242A:  MOVFF  02,5C9
0242E:  MOVFF  01,5C8
02432:  MOVFF  00,5C7
....................    delay_ms(10); 
02436:  MOVLW  0A
02438:  MOVLB  5
0243A:  MOVWF  xFF
0243C:  MOVLB  0
0243E:  CALL   154C
....................    minutos_trabajo=make16(read_eeprom(34),read_eeprom(33)); 
02442:  MOVFF  FF2,5EB
02446:  BCF    FF2.7
02448:  CLRF   FAA
0244A:  MOVLW  22
0244C:  MOVWF  FA9
0244E:  BCF    FA6.6
02450:  BCF    FA6.7
02452:  BSF    FA6.0
02454:  MOVF   FA8,W
02456:  MOVLB  5
02458:  BTFSC  xEB.7
0245A:  BSF    FF2.7
0245C:  MOVWF  xEC
0245E:  MOVFF  FF2,5ED
02462:  BCF    FF2.7
02464:  CLRF   FAA
02466:  MOVLW  21
02468:  MOVWF  FA9
0246A:  BCF    FA6.6
0246C:  BCF    FA6.7
0246E:  BSF    FA6.0
02470:  MOVF   FA8,W
02472:  BTFSC  xED.7
02474:  BSF    FF2.7
02476:  MOVWF  xEE
02478:  MOVFF  5EC,4E8
0247C:  MOVFF  5EE,4E7
....................    delay_ms(10); 
02480:  MOVLW  0A
02482:  MOVWF  xFF
02484:  MOVLB  0
02486:  CALL   154C
....................    minutos_uv=read_eeprom(31); 
0248A:  MOVFF  FF2,5EB
0248E:  BCF    FF2.7
02490:  CLRF   FAA
02492:  MOVLW  1F
02494:  MOVWF  FA9
02496:  BCF    FA6.6
02498:  BCF    FA6.7
0249A:  BSF    FA6.0
0249C:  MOVF   FA8,W
0249E:  MOVLB  5
024A0:  BTFSC  xEB.7
024A2:  BSF    FF2.7
024A4:  MOVLB  4
024A6:  CLRF   xE6
024A8:  MOVWF  xE5
....................    delay_ms(10); 
024AA:  MOVLW  0A
024AC:  MOVLB  5
024AE:  MOVWF  xFF
024B0:  MOVLB  0
024B2:  CALL   154C
....................    VelMotor=read_eeprom(32); 
024B6:  MOVFF  FF2,5EB
024BA:  BCF    FF2.7
024BC:  CLRF   FAA
024BE:  MOVLW  20
024C0:  MOVWF  FA9
024C2:  BCF    FA6.6
024C4:  BCF    FA6.7
024C6:  BSF    FA6.0
024C8:  MOVF   FA8,W
024CA:  MOVLB  5
024CC:  BTFSC  xEB.7
024CE:  BSF    FF2.7
024D0:  MOVWF  xE2
....................    delay_ms(10); 
024D2:  MOVLW  0A
024D4:  MOVWF  xFF
024D6:  MOVLB  0
024D8:  CALL   154C
....................     
....................    Diferencia=make16(read_eeprom(61),read_eeprom(60)); 
024DC:  MOVFF  FF2,5EB
024E0:  BCF    FF2.7
024E2:  CLRF   FAA
024E4:  MOVLW  3D
024E6:  MOVWF  FA9
024E8:  BCF    FA6.6
024EA:  BCF    FA6.7
024EC:  BSF    FA6.0
024EE:  MOVF   FA8,W
024F0:  MOVLB  5
024F2:  BTFSC  xEB.7
024F4:  BSF    FF2.7
024F6:  MOVWF  xEC
024F8:  MOVFF  FF2,5ED
024FC:  BCF    FF2.7
024FE:  CLRF   FAA
02500:  MOVLW  3C
02502:  MOVWF  FA9
02504:  BCF    FA6.6
02506:  BCF    FA6.7
02508:  BSF    FA6.0
0250A:  MOVF   FA8,W
0250C:  BTFSC  xED.7
0250E:  BSF    FF2.7
02510:  MOVWF  xEE
02512:  MOVFF  5EC,03
02516:  MOVF   xEE,W
02518:  MOVLB  6
0251A:  MOVWF  x20
0251C:  MOVFF  03,621
02520:  MOVLB  0
02522:  CALL   1A5A
02526:  MOVFF  03,526
0252A:  MOVFF  02,525
0252E:  MOVFF  01,524
02532:  MOVFF  00,523
....................    delay_ms(10); 
02536:  MOVLW  0A
02538:  MOVLB  5
0253A:  MOVWF  xFF
0253C:  MOVLB  0
0253E:  CALL   154C
....................    G=make16(read_eeprom(63),read_eeprom(62)); 
02542:  MOVFF  FF2,5EB
02546:  BCF    FF2.7
02548:  CLRF   FAA
0254A:  MOVLW  3F
0254C:  MOVWF  FA9
0254E:  BCF    FA6.6
02550:  BCF    FA6.7
02552:  BSF    FA6.0
02554:  MOVF   FA8,W
02556:  MOVLB  5
02558:  BTFSC  xEB.7
0255A:  BSF    FF2.7
0255C:  MOVWF  xEC
0255E:  MOVFF  FF2,5ED
02562:  BCF    FF2.7
02564:  CLRF   FAA
02566:  MOVLW  3E
02568:  MOVWF  FA9
0256A:  BCF    FA6.6
0256C:  BCF    FA6.7
0256E:  BSF    FA6.0
02570:  MOVF   FA8,W
02572:  BTFSC  xED.7
02574:  BSF    FF2.7
02576:  MOVWF  xEE
02578:  MOVFF  5EC,03
0257C:  MOVF   xEE,W
0257E:  MOVLB  6
02580:  MOVWF  x20
02582:  MOVFF  03,621
02586:  MOVLB  0
02588:  CALL   1A5A
0258C:  MOVFF  03,5D6
02590:  MOVFF  02,5D5
02594:  MOVFF  01,5D4
02598:  MOVFF  00,5D3
....................    delay_ms(10); 
0259C:  MOVLW  0A
0259E:  MOVLB  5
025A0:  MOVWF  xFF
025A2:  MOVLB  0
025A4:  CALL   154C
....................    negativo=read_eeprom(50); 
025A8:  MOVFF  FF2,5EB
025AC:  BCF    FF2.7
025AE:  CLRF   FAA
025B0:  MOVLW  32
025B2:  MOVWF  FA9
025B4:  BCF    FA6.6
025B6:  BCF    FA6.7
025B8:  BSF    FA6.0
025BA:  MOVF   FA8,W
025BC:  MOVLB  5
025BE:  BTFSC  xEB.7
025C0:  BSF    FF2.7
025C2:  MOVLB  4
025C4:  MOVWF  xD0
....................    delay_ms(10); 
025C6:  MOVLW  0A
025C8:  MOVLB  5
025CA:  MOVWF  xFF
025CC:  MOVLB  0
025CE:  CALL   154C
....................  
.................... } 
025D2:  GOTO   66EA (RETURN)
....................  
.................... void LimitaValores(void){ 
....................    if(Password[0]>9 || Password[0]<0){ 
*
02650:  MOVLB  5
02652:  BTFSC  x13.7
02654:  BRA    265C
02656:  MOVF   x13,W
02658:  SUBLW  09
0265A:  BNC   2662
0265C:  BTFSC  x13.7
0265E:  BRA    2662
02660:  BRA    268E
....................       Password[0]=0;write_eeprom(0,0); 
02662:  CLRF   x13
02664:  CLRF   FAA
02666:  CLRF   FA9
02668:  CLRF   FA8
0266A:  BCF    FA6.6
0266C:  BCF    FA6.7
0266E:  BSF    FA6.2
02670:  MOVF   FF2,W
02672:  MOVWF  00
02674:  BCF    FF2.7
02676:  MOVLB  F
02678:  MOVLW  55
0267A:  MOVWF  FA7
0267C:  MOVLW  AA
0267E:  MOVWF  FA7
02680:  BSF    FA6.1
02682:  BTFSC  FA6.1
02684:  BRA    2682
02686:  BCF    FA6.2
02688:  MOVF   00,W
0268A:  IORWF  FF2,F
0268C:  MOVLB  5
....................    } 
....................    if(Password[1]>9 || Password[1]<0){ 
0268E:  BTFSC  x14.7
02690:  BRA    2698
02692:  MOVF   x14,W
02694:  SUBLW  09
02696:  BNC   269E
02698:  BTFSC  x14.7
0269A:  BRA    269E
0269C:  BRA    26CC
....................       Password[1]=0;write_eeprom(1,0); 
0269E:  CLRF   x14
026A0:  CLRF   FAA
026A2:  MOVLW  01
026A4:  MOVWF  FA9
026A6:  CLRF   FA8
026A8:  BCF    FA6.6
026AA:  BCF    FA6.7
026AC:  BSF    FA6.2
026AE:  MOVF   FF2,W
026B0:  MOVWF  00
026B2:  BCF    FF2.7
026B4:  MOVLB  F
026B6:  MOVLW  55
026B8:  MOVWF  FA7
026BA:  MOVLW  AA
026BC:  MOVWF  FA7
026BE:  BSF    FA6.1
026C0:  BTFSC  FA6.1
026C2:  BRA    26C0
026C4:  BCF    FA6.2
026C6:  MOVF   00,W
026C8:  IORWF  FF2,F
026CA:  MOVLB  5
....................    } 
....................    if(Password[2]>9 || Password[2]<0){ 
026CC:  BTFSC  x15.7
026CE:  BRA    26D6
026D0:  MOVF   x15,W
026D2:  SUBLW  09
026D4:  BNC   26DC
026D6:  BTFSC  x15.7
026D8:  BRA    26DC
026DA:  BRA    270A
....................       Password[2]=0;write_eeprom(2,0); 
026DC:  CLRF   x15
026DE:  CLRF   FAA
026E0:  MOVLW  02
026E2:  MOVWF  FA9
026E4:  CLRF   FA8
026E6:  BCF    FA6.6
026E8:  BCF    FA6.7
026EA:  BSF    FA6.2
026EC:  MOVF   FF2,W
026EE:  MOVWF  00
026F0:  BCF    FF2.7
026F2:  MOVLB  F
026F4:  MOVLW  55
026F6:  MOVWF  FA7
026F8:  MOVLW  AA
026FA:  MOVWF  FA7
026FC:  BSF    FA6.1
026FE:  BTFSC  FA6.1
02700:  BRA    26FE
02702:  BCF    FA6.2
02704:  MOVF   00,W
02706:  IORWF  FF2,F
02708:  MOVLB  5
....................    } 
....................    if(Password[3]>9 || Password[3]<0){ 
0270A:  BTFSC  x16.7
0270C:  BRA    2714
0270E:  MOVF   x16,W
02710:  SUBLW  09
02712:  BNC   271A
02714:  BTFSC  x16.7
02716:  BRA    271A
02718:  BRA    2746
....................       Password[3]=0;write_eeprom(3,0); 
0271A:  CLRF   x16
0271C:  CLRF   FAA
0271E:  MOVLW  03
02720:  MOVWF  FA9
02722:  CLRF   FA8
02724:  BCF    FA6.6
02726:  BCF    FA6.7
02728:  BSF    FA6.2
0272A:  MOVF   FF2,W
0272C:  MOVWF  00
0272E:  BCF    FF2.7
02730:  MOVLB  F
02732:  MOVLW  55
02734:  MOVWF  FA7
02736:  MOVLW  AA
02738:  MOVWF  FA7
0273A:  BSF    FA6.1
0273C:  BTFSC  FA6.1
0273E:  BRA    273C
02740:  BCF    FA6.2
02742:  MOVF   00,W
02744:  IORWF  FF2,F
....................    } 
....................    if(Tpurgap[0]>9 || Tpurgap[0]<0){ 
02746:  MOVLB  4
02748:  BTFSC  xF7.7
0274A:  BRA    2752
0274C:  MOVF   xF7,W
0274E:  SUBLW  09
02750:  BNC   2758
02752:  BTFSC  xF7.7
02754:  BRA    2758
02756:  BRA    2786
....................       Tpurgap[0]=0;write_eeprom(4,0); 
02758:  CLRF   xF7
0275A:  CLRF   FAA
0275C:  MOVLW  04
0275E:  MOVWF  FA9
02760:  CLRF   FA8
02762:  BCF    FA6.6
02764:  BCF    FA6.7
02766:  BSF    FA6.2
02768:  MOVF   FF2,W
0276A:  MOVWF  00
0276C:  BCF    FF2.7
0276E:  MOVLB  F
02770:  MOVLW  55
02772:  MOVWF  FA7
02774:  MOVLW  AA
02776:  MOVWF  FA7
02778:  BSF    FA6.1
0277A:  BTFSC  FA6.1
0277C:  BRA    277A
0277E:  BCF    FA6.2
02780:  MOVF   00,W
02782:  IORWF  FF2,F
02784:  MOVLB  4
....................    } 
....................    if(Tpurgap[1]>9 || Tpurgap[1]<0){ 
02786:  BTFSC  xF8.7
02788:  BRA    2790
0278A:  MOVF   xF8,W
0278C:  SUBLW  09
0278E:  BNC   2796
02790:  BTFSC  xF8.7
02792:  BRA    2796
02794:  BRA    27C4
....................       Tpurgap[1]=0;write_eeprom(5,0); 
02796:  CLRF   xF8
02798:  CLRF   FAA
0279A:  MOVLW  05
0279C:  MOVWF  FA9
0279E:  CLRF   FA8
027A0:  BCF    FA6.6
027A2:  BCF    FA6.7
027A4:  BSF    FA6.2
027A6:  MOVF   FF2,W
027A8:  MOVWF  00
027AA:  BCF    FF2.7
027AC:  MOVLB  F
027AE:  MOVLW  55
027B0:  MOVWF  FA7
027B2:  MOVLW  AA
027B4:  MOVWF  FA7
027B6:  BSF    FA6.1
027B8:  BTFSC  FA6.1
027BA:  BRA    27B8
027BC:  BCF    FA6.2
027BE:  MOVF   00,W
027C0:  IORWF  FF2,F
027C2:  MOVLB  4
....................    } 
....................    if(Tpurgap[2]>9 || Tpurgap[2]<0){ 
027C4:  BTFSC  xF9.7
027C6:  BRA    27CE
027C8:  MOVF   xF9,W
027CA:  SUBLW  09
027CC:  BNC   27D4
027CE:  BTFSC  xF9.7
027D0:  BRA    27D4
027D2:  BRA    2806
....................       Tpurgap[2]=2;write_eeprom(6,2); 
027D4:  MOVLW  02
027D6:  MOVWF  xF9
027D8:  CLRF   FAA
027DA:  MOVLW  06
027DC:  MOVWF  FA9
027DE:  MOVLW  02
027E0:  MOVWF  FA8
027E2:  BCF    FA6.6
027E4:  BCF    FA6.7
027E6:  BSF    FA6.2
027E8:  MOVF   FF2,W
027EA:  MOVWF  00
027EC:  BCF    FF2.7
027EE:  MOVLB  F
027F0:  MOVLW  55
027F2:  MOVWF  FA7
027F4:  MOVLW  AA
027F6:  MOVWF  FA7
027F8:  BSF    FA6.1
027FA:  BTFSC  FA6.1
027FC:  BRA    27FA
027FE:  BCF    FA6.2
02800:  MOVF   00,W
02802:  IORWF  FF2,F
02804:  MOVLB  4
....................    } 
....................    if(Tpurgap[3]>9 || Tpurgap[3]<0){ 
02806:  BTFSC  xFA.7
02808:  BRA    2810
0280A:  MOVF   xFA,W
0280C:  SUBLW  09
0280E:  BNC   2816
02810:  BTFSC  xFA.7
02812:  BRA    2816
02814:  BRA    2844
....................       Tpurgap[3]=0;write_eeprom(7,0); 
02816:  CLRF   xFA
02818:  CLRF   FAA
0281A:  MOVLW  07
0281C:  MOVWF  FA9
0281E:  CLRF   FA8
02820:  BCF    FA6.6
02822:  BCF    FA6.7
02824:  BSF    FA6.2
02826:  MOVF   FF2,W
02828:  MOVWF  00
0282A:  BCF    FF2.7
0282C:  MOVLB  F
0282E:  MOVLW  55
02830:  MOVWF  FA7
02832:  MOVLW  AA
02834:  MOVWF  FA7
02836:  BSF    FA6.1
02838:  BTFSC  FA6.1
0283A:  BRA    2838
0283C:  BCF    FA6.2
0283E:  MOVF   00,W
02840:  IORWF  FF2,F
02842:  MOVLB  4
....................    } 
....................    if(Tppurgap[0]>9 || Tppurgap[0]<0){ 
02844:  BTFSC  xFB.7
02846:  BRA    284E
02848:  MOVF   xFB,W
0284A:  SUBLW  09
0284C:  BNC   2854
0284E:  BTFSC  xFB.7
02850:  BRA    2854
02852:  BRA    2882
....................       Tppurgap[0]=0;write_eeprom(8,0); 
02854:  CLRF   xFB
02856:  CLRF   FAA
02858:  MOVLW  08
0285A:  MOVWF  FA9
0285C:  CLRF   FA8
0285E:  BCF    FA6.6
02860:  BCF    FA6.7
02862:  BSF    FA6.2
02864:  MOVF   FF2,W
02866:  MOVWF  00
02868:  BCF    FF2.7
0286A:  MOVLB  F
0286C:  MOVLW  55
0286E:  MOVWF  FA7
02870:  MOVLW  AA
02872:  MOVWF  FA7
02874:  BSF    FA6.1
02876:  BTFSC  FA6.1
02878:  BRA    2876
0287A:  BCF    FA6.2
0287C:  MOVF   00,W
0287E:  IORWF  FF2,F
02880:  MOVLB  4
....................    } 
....................    if(Tppurgap[1]>9 || Tppurgap[1]<0){ 
02882:  BTFSC  xFC.7
02884:  BRA    288C
02886:  MOVF   xFC,W
02888:  SUBLW  09
0288A:  BNC   2892
0288C:  BTFSC  xFC.7
0288E:  BRA    2892
02890:  BRA    28C0
....................       Tppurgap[1]=0;write_eeprom(9,0); 
02892:  CLRF   xFC
02894:  CLRF   FAA
02896:  MOVLW  09
02898:  MOVWF  FA9
0289A:  CLRF   FA8
0289C:  BCF    FA6.6
0289E:  BCF    FA6.7
028A0:  BSF    FA6.2
028A2:  MOVF   FF2,W
028A4:  MOVWF  00
028A6:  BCF    FF2.7
028A8:  MOVLB  F
028AA:  MOVLW  55
028AC:  MOVWF  FA7
028AE:  MOVLW  AA
028B0:  MOVWF  FA7
028B2:  BSF    FA6.1
028B4:  BTFSC  FA6.1
028B6:  BRA    28B4
028B8:  BCF    FA6.2
028BA:  MOVF   00,W
028BC:  IORWF  FF2,F
028BE:  MOVLB  4
....................    } 
....................    if(Tppurgap[2]>9 || Tppurgap[2]<0){ 
028C0:  BTFSC  xFD.7
028C2:  BRA    28CA
028C4:  MOVF   xFD,W
028C6:  SUBLW  09
028C8:  BNC   28D0
028CA:  BTFSC  xFD.7
028CC:  BRA    28D0
028CE:  BRA    2902
....................       Tppurgap[2]=2;write_eeprom(10,2); 
028D0:  MOVLW  02
028D2:  MOVWF  xFD
028D4:  CLRF   FAA
028D6:  MOVLW  0A
028D8:  MOVWF  FA9
028DA:  MOVLW  02
028DC:  MOVWF  FA8
028DE:  BCF    FA6.6
028E0:  BCF    FA6.7
028E2:  BSF    FA6.2
028E4:  MOVF   FF2,W
028E6:  MOVWF  00
028E8:  BCF    FF2.7
028EA:  MOVLB  F
028EC:  MOVLW  55
028EE:  MOVWF  FA7
028F0:  MOVLW  AA
028F2:  MOVWF  FA7
028F4:  BSF    FA6.1
028F6:  BTFSC  FA6.1
028F8:  BRA    28F6
028FA:  BCF    FA6.2
028FC:  MOVF   00,W
028FE:  IORWF  FF2,F
02900:  MOVLB  4
....................    } 
....................    if(Tppurgap[3]>9 || Tppurgap[3]<0){ 
02902:  BTFSC  xFE.7
02904:  BRA    290C
02906:  MOVF   xFE,W
02908:  SUBLW  09
0290A:  BNC   2912
0290C:  BTFSC  xFE.7
0290E:  BRA    2912
02910:  BRA    2940
....................       Tppurgap[3]=0;write_eeprom(11,0); 
02912:  CLRF   xFE
02914:  CLRF   FAA
02916:  MOVLW  0B
02918:  MOVWF  FA9
0291A:  CLRF   FA8
0291C:  BCF    FA6.6
0291E:  BCF    FA6.7
02920:  BSF    FA6.2
02922:  MOVF   FF2,W
02924:  MOVWF  00
02926:  BCF    FF2.7
02928:  MOVLB  F
0292A:  MOVLW  55
0292C:  MOVWF  FA7
0292E:  MOVLW  AA
02930:  MOVWF  FA7
02932:  BSF    FA6.1
02934:  BTFSC  FA6.1
02936:  BRA    2934
02938:  BCF    FA6.2
0293A:  MOVF   00,W
0293C:  IORWF  FF2,F
0293E:  MOVLB  4
....................    } 
....................    if(Tuv[0]>9 || Tuv[0]<0){ 
02940:  BTFSC  xFF.7
02942:  BRA    294A
02944:  MOVF   xFF,W
02946:  SUBLW  09
02948:  BNC   2950
0294A:  BTFSC  xFF.7
0294C:  BRA    2950
0294E:  BRA    297C
....................       Tuv[0]=0;write_eeprom(12,0); 
02950:  CLRF   xFF
02952:  CLRF   FAA
02954:  MOVLW  0C
02956:  MOVWF  FA9
02958:  CLRF   FA8
0295A:  BCF    FA6.6
0295C:  BCF    FA6.7
0295E:  BSF    FA6.2
02960:  MOVF   FF2,W
02962:  MOVWF  00
02964:  BCF    FF2.7
02966:  MOVLB  F
02968:  MOVLW  55
0296A:  MOVWF  FA7
0296C:  MOVLW  AA
0296E:  MOVWF  FA7
02970:  BSF    FA6.1
02972:  BTFSC  FA6.1
02974:  BRA    2972
02976:  BCF    FA6.2
02978:  MOVF   00,W
0297A:  IORWF  FF2,F
....................    } 
....................    if(Tuv[1]>9 || Tuv[1]<0){ 
0297C:  MOVLB  5
0297E:  BTFSC  x00.7
02980:  BRA    2988
02982:  MOVF   x00,W
02984:  SUBLW  09
02986:  BNC   298E
02988:  BTFSC  x00.7
0298A:  BRA    298E
0298C:  BRA    29BC
....................       Tuv[1]=0;write_eeprom(13,0); 
0298E:  CLRF   x00
02990:  CLRF   FAA
02992:  MOVLW  0D
02994:  MOVWF  FA9
02996:  CLRF   FA8
02998:  BCF    FA6.6
0299A:  BCF    FA6.7
0299C:  BSF    FA6.2
0299E:  MOVF   FF2,W
029A0:  MOVWF  00
029A2:  BCF    FF2.7
029A4:  MOVLB  F
029A6:  MOVLW  55
029A8:  MOVWF  FA7
029AA:  MOVLW  AA
029AC:  MOVWF  FA7
029AE:  BSF    FA6.1
029B0:  BTFSC  FA6.1
029B2:  BRA    29B0
029B4:  BCF    FA6.2
029B6:  MOVF   00,W
029B8:  IORWF  FF2,F
029BA:  MOVLB  5
....................    } 
....................    if(Tuv[2]>9 || Tuv[2]<0){ 
029BC:  BTFSC  x01.7
029BE:  BRA    29C6
029C0:  MOVF   x01,W
029C2:  SUBLW  09
029C4:  BNC   29CC
029C6:  BTFSC  x01.7
029C8:  BRA    29CC
029CA:  BRA    29FA
....................       Tuv[2]=0;write_eeprom(14,0); 
029CC:  CLRF   x01
029CE:  CLRF   FAA
029D0:  MOVLW  0E
029D2:  MOVWF  FA9
029D4:  CLRF   FA8
029D6:  BCF    FA6.6
029D8:  BCF    FA6.7
029DA:  BSF    FA6.2
029DC:  MOVF   FF2,W
029DE:  MOVWF  00
029E0:  BCF    FF2.7
029E2:  MOVLB  F
029E4:  MOVLW  55
029E6:  MOVWF  FA7
029E8:  MOVLW  AA
029EA:  MOVWF  FA7
029EC:  BSF    FA6.1
029EE:  BTFSC  FA6.1
029F0:  BRA    29EE
029F2:  BCF    FA6.2
029F4:  MOVF   00,W
029F6:  IORWF  FF2,F
029F8:  MOVLB  5
....................    } 
....................    if(Tuv[3]>9 || Tuv[3]<0){ 
029FA:  BTFSC  x02.7
029FC:  BRA    2A04
029FE:  MOVF   x02,W
02A00:  SUBLW  09
02A02:  BNC   2A0A
02A04:  BTFSC  x02.7
02A06:  BRA    2A0A
02A08:  BRA    2A38
....................       Tuv[3]=0;write_eeprom(15,0); 
02A0A:  CLRF   x02
02A0C:  CLRF   FAA
02A0E:  MOVLW  0F
02A10:  MOVWF  FA9
02A12:  CLRF   FA8
02A14:  BCF    FA6.6
02A16:  BCF    FA6.7
02A18:  BSF    FA6.2
02A1A:  MOVF   FF2,W
02A1C:  MOVWF  00
02A1E:  BCF    FF2.7
02A20:  MOVLB  F
02A22:  MOVLW  55
02A24:  MOVWF  FA7
02A26:  MOVLW  AA
02A28:  MOVWF  FA7
02A2A:  BSF    FA6.1
02A2C:  BTFSC  FA6.1
02A2E:  BRA    2A2C
02A30:  BCF    FA6.2
02A32:  MOVF   00,W
02A34:  IORWF  FF2,F
02A36:  MOVLB  5
....................    } 
....................    if(Ttrabajo[0]>9 || Ttrabajo[0]<0){ 
02A38:  BTFSC  x0B.7
02A3A:  BRA    2A42
02A3C:  MOVF   x0B,W
02A3E:  SUBLW  09
02A40:  BNC   2A48
02A42:  BTFSC  x0B.7
02A44:  BRA    2A48
02A46:  BRA    2A76
....................       Ttrabajo[0]=0;write_eeprom(16,0); 
02A48:  CLRF   x0B
02A4A:  CLRF   FAA
02A4C:  MOVLW  10
02A4E:  MOVWF  FA9
02A50:  CLRF   FA8
02A52:  BCF    FA6.6
02A54:  BCF    FA6.7
02A56:  BSF    FA6.2
02A58:  MOVF   FF2,W
02A5A:  MOVWF  00
02A5C:  BCF    FF2.7
02A5E:  MOVLB  F
02A60:  MOVLW  55
02A62:  MOVWF  FA7
02A64:  MOVLW  AA
02A66:  MOVWF  FA7
02A68:  BSF    FA6.1
02A6A:  BTFSC  FA6.1
02A6C:  BRA    2A6A
02A6E:  BCF    FA6.2
02A70:  MOVF   00,W
02A72:  IORWF  FF2,F
02A74:  MOVLB  5
....................    } 
....................    if(Ttrabajo[1]>9 || Ttrabajo[1]<0){ 
02A76:  BTFSC  x0C.7
02A78:  BRA    2A80
02A7A:  MOVF   x0C,W
02A7C:  SUBLW  09
02A7E:  BNC   2A86
02A80:  BTFSC  x0C.7
02A82:  BRA    2A86
02A84:  BRA    2AB4
....................       Ttrabajo[1]=0;write_eeprom(17,0); 
02A86:  CLRF   x0C
02A88:  CLRF   FAA
02A8A:  MOVLW  11
02A8C:  MOVWF  FA9
02A8E:  CLRF   FA8
02A90:  BCF    FA6.6
02A92:  BCF    FA6.7
02A94:  BSF    FA6.2
02A96:  MOVF   FF2,W
02A98:  MOVWF  00
02A9A:  BCF    FF2.7
02A9C:  MOVLB  F
02A9E:  MOVLW  55
02AA0:  MOVWF  FA7
02AA2:  MOVLW  AA
02AA4:  MOVWF  FA7
02AA6:  BSF    FA6.1
02AA8:  BTFSC  FA6.1
02AAA:  BRA    2AA8
02AAC:  BCF    FA6.2
02AAE:  MOVF   00,W
02AB0:  IORWF  FF2,F
02AB2:  MOVLB  5
....................    } 
....................    if(Ttrabajo[2]>9 || Ttrabajo[2]<0){ 
02AB4:  BTFSC  x0D.7
02AB6:  BRA    2ABE
02AB8:  MOVF   x0D,W
02ABA:  SUBLW  09
02ABC:  BNC   2AC4
02ABE:  BTFSC  x0D.7
02AC0:  BRA    2AC4
02AC2:  BRA    2AF2
....................       Ttrabajo[2]=0;write_eeprom(18,0); 
02AC4:  CLRF   x0D
02AC6:  CLRF   FAA
02AC8:  MOVLW  12
02ACA:  MOVWF  FA9
02ACC:  CLRF   FA8
02ACE:  BCF    FA6.6
02AD0:  BCF    FA6.7
02AD2:  BSF    FA6.2
02AD4:  MOVF   FF2,W
02AD6:  MOVWF  00
02AD8:  BCF    FF2.7
02ADA:  MOVLB  F
02ADC:  MOVLW  55
02ADE:  MOVWF  FA7
02AE0:  MOVLW  AA
02AE2:  MOVWF  FA7
02AE4:  BSF    FA6.1
02AE6:  BTFSC  FA6.1
02AE8:  BRA    2AE6
02AEA:  BCF    FA6.2
02AEC:  MOVF   00,W
02AEE:  IORWF  FF2,F
02AF0:  MOVLB  5
....................    } 
....................    if(Ttrabajo[3]>9 || Ttrabajo[3]<0){ 
02AF2:  BTFSC  x0E.7
02AF4:  BRA    2AFC
02AF6:  MOVF   x0E,W
02AF8:  SUBLW  09
02AFA:  BNC   2B02
02AFC:  BTFSC  x0E.7
02AFE:  BRA    2B02
02B00:  BRA    2B30
....................       Ttrabajo[3]=0;write_eeprom(19,0); 
02B02:  CLRF   x0E
02B04:  CLRF   FAA
02B06:  MOVLW  13
02B08:  MOVWF  FA9
02B0A:  CLRF   FA8
02B0C:  BCF    FA6.6
02B0E:  BCF    FA6.7
02B10:  BSF    FA6.2
02B12:  MOVF   FF2,W
02B14:  MOVWF  00
02B16:  BCF    FF2.7
02B18:  MOVLB  F
02B1A:  MOVLW  55
02B1C:  MOVWF  FA7
02B1E:  MOVLW  AA
02B20:  MOVWF  FA7
02B22:  BSF    FA6.1
02B24:  BTFSC  FA6.1
02B26:  BRA    2B24
02B28:  BCF    FA6.2
02B2A:  MOVF   00,W
02B2C:  IORWF  FF2,F
02B2E:  MOVLB  5
....................    } 
....................    if(Tempouvp[0]>9 || Tempouvp[0]<0){ 
02B30:  BTFSC  x03.7
02B32:  BRA    2B3A
02B34:  MOVF   x03,W
02B36:  SUBLW  09
02B38:  BNC   2B40
02B3A:  BTFSC  x03.7
02B3C:  BRA    2B40
02B3E:  BRA    2B6E
....................       Tempouvp[0]=0;write_eeprom(21,0); 
02B40:  CLRF   x03
02B42:  CLRF   FAA
02B44:  MOVLW  15
02B46:  MOVWF  FA9
02B48:  CLRF   FA8
02B4A:  BCF    FA6.6
02B4C:  BCF    FA6.7
02B4E:  BSF    FA6.2
02B50:  MOVF   FF2,W
02B52:  MOVWF  00
02B54:  BCF    FF2.7
02B56:  MOVLB  F
02B58:  MOVLW  55
02B5A:  MOVWF  FA7
02B5C:  MOVLW  AA
02B5E:  MOVWF  FA7
02B60:  BSF    FA6.1
02B62:  BTFSC  FA6.1
02B64:  BRA    2B62
02B66:  BCF    FA6.2
02B68:  MOVF   00,W
02B6A:  IORWF  FF2,F
02B6C:  MOVLB  5
....................    } 
....................    if(Tempouvp[1]>9 || Tempouvp[1]<0){ 
02B6E:  BTFSC  x04.7
02B70:  BRA    2B78
02B72:  MOVF   x04,W
02B74:  SUBLW  09
02B76:  BNC   2B7E
02B78:  BTFSC  x04.7
02B7A:  BRA    2B7E
02B7C:  BRA    2BAC
....................       Tempouvp[1]=0;write_eeprom(22,0); 
02B7E:  CLRF   x04
02B80:  CLRF   FAA
02B82:  MOVLW  16
02B84:  MOVWF  FA9
02B86:  CLRF   FA8
02B88:  BCF    FA6.6
02B8A:  BCF    FA6.7
02B8C:  BSF    FA6.2
02B8E:  MOVF   FF2,W
02B90:  MOVWF  00
02B92:  BCF    FF2.7
02B94:  MOVLB  F
02B96:  MOVLW  55
02B98:  MOVWF  FA7
02B9A:  MOVLW  AA
02B9C:  MOVWF  FA7
02B9E:  BSF    FA6.1
02BA0:  BTFSC  FA6.1
02BA2:  BRA    2BA0
02BA4:  BCF    FA6.2
02BA6:  MOVF   00,W
02BA8:  IORWF  FF2,F
02BAA:  MOVLB  5
....................    } 
....................    if(Tempouvp[2]>9 || Tempouvp[2]<0){ 
02BAC:  BTFSC  x05.7
02BAE:  BRA    2BB6
02BB0:  MOVF   x05,W
02BB2:  SUBLW  09
02BB4:  BNC   2BBC
02BB6:  BTFSC  x05.7
02BB8:  BRA    2BBC
02BBA:  BRA    2BEA
....................       Tempouvp[2]=0;write_eeprom(23,0); 
02BBC:  CLRF   x05
02BBE:  CLRF   FAA
02BC0:  MOVLW  17
02BC2:  MOVWF  FA9
02BC4:  CLRF   FA8
02BC6:  BCF    FA6.6
02BC8:  BCF    FA6.7
02BCA:  BSF    FA6.2
02BCC:  MOVF   FF2,W
02BCE:  MOVWF  00
02BD0:  BCF    FF2.7
02BD2:  MOVLB  F
02BD4:  MOVLW  55
02BD6:  MOVWF  FA7
02BD8:  MOVLW  AA
02BDA:  MOVWF  FA7
02BDC:  BSF    FA6.1
02BDE:  BTFSC  FA6.1
02BE0:  BRA    2BDE
02BE2:  BCF    FA6.2
02BE4:  MOVF   00,W
02BE6:  IORWF  FF2,F
02BE8:  MOVLB  5
....................    } 
....................    if(Tempouvp[3]>9 || Tempouvp[3]<0){ 
02BEA:  BTFSC  x06.7
02BEC:  BRA    2BF4
02BEE:  MOVF   x06,W
02BF0:  SUBLW  09
02BF2:  BNC   2BFA
02BF4:  BTFSC  x06.7
02BF6:  BRA    2BFA
02BF8:  BRA    2C2A
....................       Tempouvp[3]=1;write_eeprom(24,1); 
02BFA:  MOVLW  01
02BFC:  MOVWF  x06
02BFE:  CLRF   FAA
02C00:  MOVLW  18
02C02:  MOVWF  FA9
02C04:  MOVLW  01
02C06:  MOVWF  FA8
02C08:  BCF    FA6.6
02C0A:  BCF    FA6.7
02C0C:  BSF    FA6.2
02C0E:  MOVF   FF2,W
02C10:  MOVWF  00
02C12:  BCF    FF2.7
02C14:  MOVLB  F
02C16:  MOVLW  55
02C18:  MOVWF  FA7
02C1A:  MOVLW  AA
02C1C:  MOVWF  FA7
02C1E:  BSF    FA6.1
02C20:  BTFSC  FA6.1
02C22:  BRA    2C20
02C24:  BCF    FA6.2
02C26:  MOVF   00,W
02C28:  IORWF  FF2,F
....................    } 
....................    if(Ajuste1>2.0){ 
02C2A:  MOVLB  6
02C2C:  CLRF   x1F
02C2E:  CLRF   x1E
02C30:  CLRF   x1D
02C32:  MOVLW  80
02C34:  MOVWF  x1C
02C36:  MOVFF  542,623
02C3A:  MOVFF  541,622
02C3E:  MOVFF  540,621
02C42:  MOVFF  53F,620
02C46:  MOVLB  0
02C48:  RCALL  25D6
02C4A:  BNC   2CB0
....................       Ajuste1=1.5;write_eeprom(25,1);write_eeprom(26,5); 
02C4C:  MOVLB  5
02C4E:  CLRF   x42
02C50:  CLRF   x41
02C52:  MOVLW  40
02C54:  MOVWF  x40
02C56:  MOVLW  7F
02C58:  MOVWF  x3F
02C5A:  CLRF   FAA
02C5C:  MOVLW  19
02C5E:  MOVWF  FA9
02C60:  MOVLW  01
02C62:  MOVWF  FA8
02C64:  BCF    FA6.6
02C66:  BCF    FA6.7
02C68:  BSF    FA6.2
02C6A:  MOVF   FF2,W
02C6C:  MOVWF  00
02C6E:  BCF    FF2.7
02C70:  MOVLB  F
02C72:  MOVLW  55
02C74:  MOVWF  FA7
02C76:  MOVLW  AA
02C78:  MOVWF  FA7
02C7A:  BSF    FA6.1
02C7C:  BTFSC  FA6.1
02C7E:  BRA    2C7C
02C80:  BCF    FA6.2
02C82:  MOVF   00,W
02C84:  IORWF  FF2,F
02C86:  CLRF   FAA
02C88:  MOVLW  1A
02C8A:  MOVWF  FA9
02C8C:  MOVLW  05
02C8E:  MOVWF  FA8
02C90:  BCF    FA6.6
02C92:  BCF    FA6.7
02C94:  BSF    FA6.2
02C96:  MOVF   FF2,W
02C98:  MOVWF  00
02C9A:  BCF    FF2.7
02C9C:  MOVLW  55
02C9E:  MOVWF  FA7
02CA0:  MOVLW  AA
02CA2:  MOVWF  FA7
02CA4:  BSF    FA6.1
02CA6:  BTFSC  FA6.1
02CA8:  BRA    2CA6
02CAA:  BCF    FA6.2
02CAC:  MOVF   00,W
02CAE:  IORWF  FF2,F
....................    } 
....................    if(Ajuste2>2.0){ 
02CB0:  MOVLB  6
02CB2:  CLRF   x1F
02CB4:  CLRF   x1E
02CB6:  CLRF   x1D
02CB8:  MOVLW  80
02CBA:  MOVWF  x1C
02CBC:  MOVFF  546,623
02CC0:  MOVFF  545,622
02CC4:  MOVFF  544,621
02CC8:  MOVFF  543,620
02CCC:  MOVLB  0
02CCE:  RCALL  25D6
02CD0:  BNC   2D32
....................       Ajuste2=1.0;write_eeprom(27,1);write_eeprom(28,0); 
02CD2:  MOVLB  5
02CD4:  CLRF   x46
02CD6:  CLRF   x45
02CD8:  CLRF   x44
02CDA:  MOVLW  7F
02CDC:  MOVWF  x43
02CDE:  CLRF   FAA
02CE0:  MOVLW  1B
02CE2:  MOVWF  FA9
02CE4:  MOVLW  01
02CE6:  MOVWF  FA8
02CE8:  BCF    FA6.6
02CEA:  BCF    FA6.7
02CEC:  BSF    FA6.2
02CEE:  MOVF   FF2,W
02CF0:  MOVWF  00
02CF2:  BCF    FF2.7
02CF4:  MOVLB  F
02CF6:  MOVLW  55
02CF8:  MOVWF  FA7
02CFA:  MOVLW  AA
02CFC:  MOVWF  FA7
02CFE:  BSF    FA6.1
02D00:  BTFSC  FA6.1
02D02:  BRA    2D00
02D04:  BCF    FA6.2
02D06:  MOVF   00,W
02D08:  IORWF  FF2,F
02D0A:  CLRF   FAA
02D0C:  MOVLW  1C
02D0E:  MOVWF  FA9
02D10:  CLRF   FA8
02D12:  BCF    FA6.6
02D14:  BCF    FA6.7
02D16:  BSF    FA6.2
02D18:  MOVF   FF2,W
02D1A:  MOVWF  00
02D1C:  BCF    FF2.7
02D1E:  MOVLW  55
02D20:  MOVWF  FA7
02D22:  MOVLW  AA
02D24:  MOVWF  FA7
02D26:  BSF    FA6.1
02D28:  BTFSC  FA6.1
02D2A:  BRA    2D28
02D2C:  BCF    FA6.2
02D2E:  MOVF   00,W
02D30:  IORWF  FF2,F
....................    } 
....................    if(zero_actual>300){ 
02D32:  MOVLB  6
02D34:  CLRF   x1F
02D36:  CLRF   x1E
02D38:  MOVLW  16
02D3A:  MOVWF  x1D
02D3C:  MOVLW  87
02D3E:  MOVWF  x1C
02D40:  MOVFF  5CA,623
02D44:  MOVFF  5C9,622
02D48:  MOVFF  5C8,621
02D4C:  MOVFF  5C7,620
02D50:  MOVLB  0
02D52:  RCALL  25D6
02D54:  BNC   2DB8
....................       zero_actual=203;write_eeprom(29,203);write_eeprom(30,0); 
02D56:  MOVLB  5
02D58:  CLRF   xCA
02D5A:  CLRF   xC9
02D5C:  MOVLW  4B
02D5E:  MOVWF  xC8
02D60:  MOVLW  86
02D62:  MOVWF  xC7
02D64:  CLRF   FAA
02D66:  MOVLW  1D
02D68:  MOVWF  FA9
02D6A:  MOVLW  CB
02D6C:  MOVWF  FA8
02D6E:  BCF    FA6.6
02D70:  BCF    FA6.7
02D72:  BSF    FA6.2
02D74:  MOVF   FF2,W
02D76:  MOVWF  00
02D78:  BCF    FF2.7
02D7A:  MOVLB  F
02D7C:  MOVLW  55
02D7E:  MOVWF  FA7
02D80:  MOVLW  AA
02D82:  MOVWF  FA7
02D84:  BSF    FA6.1
02D86:  BTFSC  FA6.1
02D88:  BRA    2D86
02D8A:  BCF    FA6.2
02D8C:  MOVF   00,W
02D8E:  IORWF  FF2,F
02D90:  CLRF   FAA
02D92:  MOVLW  1E
02D94:  MOVWF  FA9
02D96:  CLRF   FA8
02D98:  BCF    FA6.6
02D9A:  BCF    FA6.7
02D9C:  BSF    FA6.2
02D9E:  MOVF   FF2,W
02DA0:  MOVWF  00
02DA2:  BCF    FF2.7
02DA4:  MOVLW  55
02DA6:  MOVWF  FA7
02DA8:  MOVLW  AA
02DAA:  MOVWF  FA7
02DAC:  BSF    FA6.1
02DAE:  BTFSC  FA6.1
02DB0:  BRA    2DAE
02DB2:  BCF    FA6.2
02DB4:  MOVF   00,W
02DB6:  IORWF  FF2,F
....................    } 
....................    if(minutos_uv>60){ 
02DB8:  MOVLB  4
02DBA:  MOVF   xE6,F
02DBC:  BNZ   2DC4
02DBE:  MOVF   xE5,W
02DC0:  SUBLW  3C
02DC2:  BC    2DF2
....................       minutos_uv=0;write_eeprom(31,0); 
02DC4:  CLRF   xE6
02DC6:  CLRF   xE5
02DC8:  CLRF   FAA
02DCA:  MOVLW  1F
02DCC:  MOVWF  FA9
02DCE:  CLRF   FA8
02DD0:  BCF    FA6.6
02DD2:  BCF    FA6.7
02DD4:  BSF    FA6.2
02DD6:  MOVF   FF2,W
02DD8:  MOVWF  00
02DDA:  BCF    FF2.7
02DDC:  MOVLB  F
02DDE:  MOVLW  55
02DE0:  MOVWF  FA7
02DE2:  MOVLW  AA
02DE4:  MOVWF  FA7
02DE6:  BSF    FA6.1
02DE8:  BTFSC  FA6.1
02DEA:  BRA    2DE8
02DEC:  BCF    FA6.2
02DEE:  MOVF   00,W
02DF0:  IORWF  FF2,F
....................    } 
....................    if(VelMotor>6){ 
02DF2:  MOVLB  5
02DF4:  MOVF   xE2,W
02DF6:  SUBLW  06
02DF8:  BC    2E2A
....................       VelMotor=2;write_eeprom(32,2); 
02DFA:  MOVLW  02
02DFC:  MOVWF  xE2
02DFE:  CLRF   FAA
02E00:  MOVLW  20
02E02:  MOVWF  FA9
02E04:  MOVLW  02
02E06:  MOVWF  FA8
02E08:  BCF    FA6.6
02E0A:  BCF    FA6.7
02E0C:  BSF    FA6.2
02E0E:  MOVF   FF2,W
02E10:  MOVWF  00
02E12:  BCF    FF2.7
02E14:  MOVLB  F
02E16:  MOVLW  55
02E18:  MOVWF  FA7
02E1A:  MOVLW  AA
02E1C:  MOVWF  FA7
02E1E:  BSF    FA6.1
02E20:  BTFSC  FA6.1
02E22:  BRA    2E20
02E24:  BCF    FA6.2
02E26:  MOVF   00,W
02E28:  IORWF  FF2,F
....................    }    
....................    if(minutos_trabajo>3600){ 
02E2A:  MOVLB  4
02E2C:  MOVF   xE8,W
02E2E:  SUBLW  0D
02E30:  BC    2E92
02E32:  XORLW  FF
02E34:  BNZ   2E3C
02E36:  MOVF   xE7,W
02E38:  SUBLW  10
02E3A:  BC    2E92
....................       minutos_trabajo=0;write_eeprom(33,0);write_eeprom(34,0); 
02E3C:  CLRF   xE8
02E3E:  CLRF   xE7
02E40:  CLRF   FAA
02E42:  MOVLW  21
02E44:  MOVWF  FA9
02E46:  CLRF   FA8
02E48:  BCF    FA6.6
02E4A:  BCF    FA6.7
02E4C:  BSF    FA6.2
02E4E:  MOVF   FF2,W
02E50:  MOVWF  00
02E52:  BCF    FF2.7
02E54:  MOVLB  F
02E56:  MOVLW  55
02E58:  MOVWF  FA7
02E5A:  MOVLW  AA
02E5C:  MOVWF  FA7
02E5E:  BSF    FA6.1
02E60:  BTFSC  FA6.1
02E62:  BRA    2E60
02E64:  BCF    FA6.2
02E66:  MOVF   00,W
02E68:  IORWF  FF2,F
02E6A:  CLRF   FAA
02E6C:  MOVLW  22
02E6E:  MOVWF  FA9
02E70:  CLRF   FA8
02E72:  BCF    FA6.6
02E74:  BCF    FA6.7
02E76:  BSF    FA6.2
02E78:  MOVF   FF2,W
02E7A:  MOVWF  00
02E7C:  BCF    FF2.7
02E7E:  MOVLW  55
02E80:  MOVWF  FA7
02E82:  MOVLW  AA
02E84:  MOVWF  FA7
02E86:  BSF    FA6.1
02E88:  BTFSC  FA6.1
02E8A:  BRA    2E88
02E8C:  BCF    FA6.2
02E8E:  MOVF   00,W
02E90:  IORWF  FF2,F
....................    } 
....................    //if(Relacion>2.0){ 
....................       //Relacion=0.57;write_eeprom(35,0);write_eeprom(36,57); 
....................    //} 
....................    if(Diferencia>200){ 
02E92:  MOVLB  6
02E94:  CLRF   x1F
02E96:  CLRF   x1E
02E98:  MOVLW  48
02E9A:  MOVWF  x1D
02E9C:  MOVLW  86
02E9E:  MOVWF  x1C
02EA0:  MOVFF  526,623
02EA4:  MOVFF  525,622
02EA8:  MOVFF  524,621
02EAC:  MOVFF  523,620
02EB0:  MOVLB  0
02EB2:  CALL   25D6
02EB6:  BNC   2F14
....................       Diferencia=0;write_eeprom(60,0);write_eeprom(61,0); 
02EB8:  MOVLB  5
02EBA:  CLRF   x26
02EBC:  CLRF   x25
02EBE:  CLRF   x24
02EC0:  CLRF   x23
02EC2:  CLRF   FAA
02EC4:  MOVLW  3C
02EC6:  MOVWF  FA9
02EC8:  CLRF   FA8
02ECA:  BCF    FA6.6
02ECC:  BCF    FA6.7
02ECE:  BSF    FA6.2
02ED0:  MOVF   FF2,W
02ED2:  MOVWF  00
02ED4:  BCF    FF2.7
02ED6:  MOVLB  F
02ED8:  MOVLW  55
02EDA:  MOVWF  FA7
02EDC:  MOVLW  AA
02EDE:  MOVWF  FA7
02EE0:  BSF    FA6.1
02EE2:  BTFSC  FA6.1
02EE4:  BRA    2EE2
02EE6:  BCF    FA6.2
02EE8:  MOVF   00,W
02EEA:  IORWF  FF2,F
02EEC:  CLRF   FAA
02EEE:  MOVLW  3D
02EF0:  MOVWF  FA9
02EF2:  CLRF   FA8
02EF4:  BCF    FA6.6
02EF6:  BCF    FA6.7
02EF8:  BSF    FA6.2
02EFA:  MOVF   FF2,W
02EFC:  MOVWF  00
02EFE:  BCF    FF2.7
02F00:  MOVLW  55
02F02:  MOVWF  FA7
02F04:  MOVLW  AA
02F06:  MOVWF  FA7
02F08:  BSF    FA6.1
02F0A:  BTFSC  FA6.1
02F0C:  BRA    2F0A
02F0E:  BCF    FA6.2
02F10:  MOVF   00,W
02F12:  IORWF  FF2,F
....................    } 
....................    if(G<180 || G>350){ 
02F14:  MOVFF  5D6,61F
02F18:  MOVFF  5D5,61E
02F1C:  MOVFF  5D4,61D
02F20:  MOVFF  5D3,61C
02F24:  MOVLB  6
02F26:  CLRF   x23
02F28:  CLRF   x22
02F2A:  MOVLW  34
02F2C:  MOVWF  x21
02F2E:  MOVLW  86
02F30:  MOVWF  x20
02F32:  MOVLB  0
02F34:  CALL   25D6
02F38:  BC    2F60
02F3A:  MOVLB  6
02F3C:  CLRF   x1F
02F3E:  CLRF   x1E
02F40:  MOVLW  2F
02F42:  MOVWF  x1D
02F44:  MOVLW  87
02F46:  MOVWF  x1C
02F48:  MOVFF  5D6,623
02F4C:  MOVFF  5D5,622
02F50:  MOVFF  5D4,621
02F54:  MOVFF  5D3,620
02F58:  MOVLB  0
02F5A:  CALL   25D6
02F5E:  BNC   2FC2
....................       G=240;write_eeprom(62,240);write_eeprom(63,0); 
02F60:  MOVLB  5
02F62:  CLRF   xD6
02F64:  CLRF   xD5
02F66:  MOVLW  70
02F68:  MOVWF  xD4
02F6A:  MOVLW  86
02F6C:  MOVWF  xD3
02F6E:  CLRF   FAA
02F70:  MOVLW  3E
02F72:  MOVWF  FA9
02F74:  MOVLW  F0
02F76:  MOVWF  FA8
02F78:  BCF    FA6.6
02F7A:  BCF    FA6.7
02F7C:  BSF    FA6.2
02F7E:  MOVF   FF2,W
02F80:  MOVWF  00
02F82:  BCF    FF2.7
02F84:  MOVLB  F
02F86:  MOVLW  55
02F88:  MOVWF  FA7
02F8A:  MOVLW  AA
02F8C:  MOVWF  FA7
02F8E:  BSF    FA6.1
02F90:  BTFSC  FA6.1
02F92:  BRA    2F90
02F94:  BCF    FA6.2
02F96:  MOVF   00,W
02F98:  IORWF  FF2,F
02F9A:  CLRF   FAA
02F9C:  MOVLW  3F
02F9E:  MOVWF  FA9
02FA0:  CLRF   FA8
02FA2:  BCF    FA6.6
02FA4:  BCF    FA6.7
02FA6:  BSF    FA6.2
02FA8:  MOVF   FF2,W
02FAA:  MOVWF  00
02FAC:  BCF    FF2.7
02FAE:  MOVLW  55
02FB0:  MOVWF  FA7
02FB2:  MOVLW  AA
02FB4:  MOVWF  FA7
02FB6:  BSF    FA6.1
02FB8:  BTFSC  FA6.1
02FBA:  BRA    2FB8
02FBC:  BCF    FA6.2
02FBE:  MOVF   00,W
02FC0:  IORWF  FF2,F
....................    } 
....................    if(negativo>20){ 
02FC2:  MOVLB  4
02FC4:  MOVF   xD0,W
02FC6:  SUBLW  14
02FC8:  BC    2FFC
....................       negativo=10;write_eeprom(50,10); 
02FCA:  MOVLW  0A
02FCC:  MOVWF  xD0
02FCE:  CLRF   FAA
02FD0:  MOVLW  32
02FD2:  MOVWF  FA9
02FD4:  MOVLW  0A
02FD6:  MOVWF  FA8
02FD8:  BCF    FA6.6
02FDA:  BCF    FA6.7
02FDC:  BSF    FA6.2
02FDE:  MOVF   FF2,W
02FE0:  MOVWF  00
02FE2:  BCF    FF2.7
02FE4:  MOVLB  F
02FE6:  MOVLW  55
02FE8:  MOVWF  FA7
02FEA:  MOVLW  AA
02FEC:  MOVWF  FA7
02FEE:  BSF    FA6.1
02FF0:  BTFSC  FA6.1
02FF2:  BRA    2FF0
02FF4:  BCF    FA6.2
02FF6:  MOVF   00,W
02FF8:  IORWF  FF2,F
02FFA:  MOVLB  4
....................    } 
.................... } 
02FFC:  MOVLB  0
02FFE:  GOTO   66EE (RETURN)
....................  
.................... void VelocidadMotor(int8 Vel){ 
....................    if(Vel==6){ 
*
01574:  MOVLB  5
01576:  MOVF   xEB,W
01578:  SUBLW  06
0157A:  BNZ   1584
....................       Porcentaje=0; 
0157C:  CLRF   xE1
....................       Motor_on; 
0157E:  BSF    F8B.2
01580:  BCF    F94.2
....................    }else if(Vel==5){ 
01582:  BRA    15F2
01584:  MOVF   xEB,W
01586:  SUBLW  05
01588:  BNZ   1598
....................       Porcentaje=15; 
0158A:  MOVLW  0F
0158C:  MOVWF  xE1
....................       retardo=2000; 
0158E:  MOVLW  07
01590:  MOVWF  xDA
01592:  MOVLW  D0
01594:  MOVWF  xD9
....................    }else if(Vel==4){ 
01596:  BRA    15F2
01598:  MOVF   xEB,W
0159A:  SUBLW  04
0159C:  BNZ   15AC
....................       Porcentaje=25; 
0159E:  MOVLW  19
015A0:  MOVWF  xE1
....................       retardo=3000; 
015A2:  MOVLW  0B
015A4:  MOVWF  xDA
015A6:  MOVLW  B8
015A8:  MOVWF  xD9
....................    }else if(Vel==3){ 
015AA:  BRA    15F2
015AC:  MOVF   xEB,W
015AE:  SUBLW  03
015B0:  BNZ   15C0
....................       Porcentaje=35; 
015B2:  MOVLW  23
015B4:  MOVWF  xE1
....................       retardo=3600; 
015B6:  MOVLW  0E
015B8:  MOVWF  xDA
015BA:  MOVLW  10
015BC:  MOVWF  xD9
....................    }else if(Vel==2){ 
015BE:  BRA    15F2
015C0:  MOVF   xEB,W
015C2:  SUBLW  02
015C4:  BNZ   15D4
....................       Porcentaje=45; 
015C6:  MOVLW  2D
015C8:  MOVWF  xE1
....................       retardo=4300; 
015CA:  MOVLW  10
015CC:  MOVWF  xDA
015CE:  MOVLW  CC
015D0:  MOVWF  xD9
....................    }else if(Vel==1){ 
015D2:  BRA    15F2
015D4:  DECFSZ xEB,W
015D6:  BRA    15E6
....................       Porcentaje=50; 
015D8:  MOVLW  32
015DA:  MOVWF  xE1
....................       retardo=5000; 
015DC:  MOVLW  13
015DE:  MOVWF  xDA
015E0:  MOVLW  88
015E2:  MOVWF  xD9
....................    }else if(Vel==0){ 
015E4:  BRA    15F2
015E6:  MOVF   xEB,F
015E8:  BNZ   15F2
....................       Porcentaje=100; 
015EA:  MOVLW  64
015EC:  MOVWF  xE1
....................       Motor_off; 
015EE:  BCF    F8B.2
015F0:  BCF    F94.2
....................    } 
.................... } 
015F2:  MOVLB  0
015F4:  RETLW  00
....................  
.................... short PidePassword(int8 MenuAnt, int8 MenuActual, int8 MenuPost, int8 clave0,int8 clave1, int8 clave2,int8 clave3){ 
....................       if(n==0) 
*
04F64:  MOVLB  4
04F66:  BTFSC  x2F.5
04F68:  BRA    5000
....................       { 
....................          displayContrasena(Contrasena[0],20,30,1);displayContrasena(Contrasena[1],40,30,0); 
04F6A:  MOVFF  50F,5F5
04F6E:  MOVLW  14
04F70:  MOVLB  5
04F72:  MOVWF  xF6
04F74:  MOVLW  1E
04F76:  MOVWF  xF7
04F78:  MOVLW  01
04F7A:  MOVWF  xF8
04F7C:  MOVLB  0
04F7E:  RCALL  4DB4
04F80:  MOVFF  510,5F5
04F84:  MOVLW  28
04F86:  MOVLB  5
04F88:  MOVWF  xF6
04F8A:  MOVLW  1E
04F8C:  MOVWF  xF7
04F8E:  CLRF   xF8
04F90:  MOVLB  0
04F92:  RCALL  4DB4
....................          displayContrasena(Contrasena[2],60,30,0);displayContrasena(Contrasena[0],80,30,0); 
04F94:  MOVFF  511,5F5
04F98:  MOVLW  3C
04F9A:  MOVLB  5
04F9C:  MOVWF  xF6
04F9E:  MOVLW  1E
04FA0:  MOVWF  xF7
04FA2:  CLRF   xF8
04FA4:  MOVLB  0
04FA6:  RCALL  4DB4
04FA8:  MOVFF  50F,5F5
04FAC:  MOVLW  50
04FAE:  MOVLB  5
04FB0:  MOVWF  xF6
04FB2:  MOVLW  1E
04FB4:  MOVWF  xF7
04FB6:  CLRF   xF8
04FB8:  MOVLB  0
04FBA:  RCALL  4DB4
....................          strcpy(Menus.Letra,"Clave"); 
04FBC:  MOVLW  04
04FBE:  MOVWF  FEA
04FC0:  MOVLW  17
04FC2:  MOVWF  FE9
04FC4:  MOVFF  FF2,5F3
04FC8:  BCF    FF2.7
04FCA:  MOVLW  00
04FCC:  CALL   0F0A
04FD0:  TBLRD*-
04FD2:  TBLRD*+
04FD4:  MOVF   FF5,W
04FD6:  MOVWF  FEE
04FD8:  IORLW  00
04FDA:  BNZ   4FD2
04FDC:  MOVLB  5
04FDE:  BTFSC  xF3.7
04FE0:  BSF    FF2.7
....................          displayMenu(Menus.Letra,20,0,1,3); 
04FE2:  MOVLW  04
04FE4:  MOVWF  xF4
04FE6:  MOVLW  17
04FE8:  MOVWF  xF3
04FEA:  MOVLW  14
04FEC:  MOVWF  xF5
04FEE:  CLRF   xF6
04FF0:  MOVLW  01
04FF2:  MOVWF  xF7
04FF4:  MOVLW  03
04FF6:  MOVWF  xF8
04FF8:  MOVLB  0
04FFA:  RCALL  4E88
....................          n=1; 
04FFC:  MOVLB  4
04FFE:  BSF    x2F.5
....................       } 
....................        
....................       if(UP){ 
05000:  BSF    F92.5
05002:  BTFSC  F80.5
05004:  BRA    50E0
....................          flag_latencia=0;t_latencia=0; 
05006:  BCF    x2E.6
05008:  CLRF   xE4
0500A:  CLRF   xE3
....................          if(Flanco == 0){ 
0500C:  BTFSC  x2D.0
0500E:  BRA    50DE
....................             Flanco = 1;delay_ms(5); 
05010:  BSF    x2D.0
05012:  MOVLW  05
05014:  MOVLB  5
05016:  MOVWF  xFF
05018:  MOVLB  0
0501A:  CALL   154C
....................             for(i=1;i<=4;i++){ 
0501E:  MOVLW  01
05020:  MOVLB  5
05022:  MOVWF  xDB
05024:  MOVF   xDB,W
05026:  SUBLW  04
05028:  BNC   50DC
....................                if(unidad==i){ 
0502A:  MOVF   xDB,W
0502C:  MOVLB  4
0502E:  SUBWF  xCE,W
05030:  BNZ   50A6
....................                   Contrasena[i-1]++; 
05032:  MOVLW  01
05034:  MOVLB  5
05036:  SUBWF  xDB,W
05038:  CLRF   03
0503A:  ADDLW  0F
0503C:  MOVWF  FE9
0503E:  MOVLW  05
05040:  ADDWFC 03,W
05042:  MOVWF  FEA
05044:  INCF   FEF,F
....................                   if(Contrasena[i-1]>9){ 
05046:  MOVLW  01
05048:  SUBWF  xDB,W
0504A:  CLRF   03
0504C:  ADDLW  0F
0504E:  MOVWF  FE9
05050:  MOVLW  05
05052:  ADDWFC 03,W
05054:  MOVWF  FEA
05056:  BTFSC  FEF.7
05058:  BRA    5072
0505A:  MOVF   FEF,W
0505C:  SUBLW  09
0505E:  BC    5072
....................                      Contrasena[i-1]=0; 
05060:  MOVLW  01
05062:  SUBWF  xDB,W
05064:  CLRF   03
05066:  ADDLW  0F
05068:  MOVWF  FE9
0506A:  MOVLW  05
0506C:  ADDWFC 03,W
0506E:  MOVWF  FEA
05070:  CLRF   FEF
....................                   } 
....................                   displayContrasena(Contrasena[i-1],i*20,30,1); 
05072:  MOVLW  01
05074:  SUBWF  xDB,W
05076:  CLRF   03
05078:  ADDLW  0F
0507A:  MOVWF  FE9
0507C:  MOVLW  05
0507E:  ADDWFC 03,W
05080:  MOVWF  FEA
05082:  MOVFF  FEF,5F3
05086:  MOVF   xDB,W
05088:  MULLW  14
0508A:  MOVFF  FF3,5F4
0508E:  MOVFF  5F3,5F5
05092:  MOVFF  5F4,5F6
05096:  MOVLW  1E
05098:  MOVWF  xF7
0509A:  MOVLW  01
0509C:  MOVWF  xF8
0509E:  MOVLB  0
050A0:  RCALL  4DB4
....................                }else{ 
050A2:  BRA    50D6
050A4:  MOVLB  4
....................                   displayContrasena(Contrasena[i-1],i*20,30,0); 
050A6:  MOVLW  01
050A8:  MOVLB  5
050AA:  SUBWF  xDB,W
050AC:  CLRF   03
050AE:  ADDLW  0F
050B0:  MOVWF  FE9
050B2:  MOVLW  05
050B4:  ADDWFC 03,W
050B6:  MOVWF  FEA
050B8:  MOVFF  FEF,5F3
050BC:  MOVF   xDB,W
050BE:  MULLW  14
050C0:  MOVFF  FF3,5F4
050C4:  MOVFF  5F3,5F5
050C8:  MOVFF  5F4,5F6
050CC:  MOVLW  1E
050CE:  MOVWF  xF7
050D0:  CLRF   xF8
050D2:  MOVLB  0
050D4:  RCALL  4DB4
....................                } 
....................             } 
050D6:  MOVLB  5
050D8:  INCF   xDB,F
050DA:  BRA    5024
050DC:  MOVLB  4
....................          } 
....................       }else{ 
050DE:  BRA    50E2
....................          Flanco = 0; 
050E0:  BCF    x2D.0
....................       } 
....................              
....................       if(DOWN){ 
050E2:  BSF    F96.0
050E4:  BTFSC  F84.0
050E6:  BRA    51C0
....................          flag_latencia=0;t_latencia=0; 
050E8:  BCF    x2E.6
050EA:  CLRF   xE4
050EC:  CLRF   xE3
....................          if(Flanco2 == 0){ 
050EE:  BTFSC  x2D.2
050F0:  BRA    51BE
....................             Flanco2 = 1;delay_ms(5); 
050F2:  BSF    x2D.2
050F4:  MOVLW  05
050F6:  MOVLB  5
050F8:  MOVWF  xFF
050FA:  MOVLB  0
050FC:  CALL   154C
....................             for(i=1;i<=4;i++){ 
05100:  MOVLW  01
05102:  MOVLB  5
05104:  MOVWF  xDB
05106:  MOVF   xDB,W
05108:  SUBLW  04
0510A:  BNC   51BC
....................                if(unidad==i){ 
0510C:  MOVF   xDB,W
0510E:  MOVLB  4
05110:  SUBWF  xCE,W
05112:  BNZ   5186
....................                   Contrasena[i-1]--; 
05114:  MOVLW  01
05116:  MOVLB  5
05118:  SUBWF  xDB,W
0511A:  CLRF   03
0511C:  ADDLW  0F
0511E:  MOVWF  FE9
05120:  MOVLW  05
05122:  ADDWFC 03,W
05124:  MOVWF  FEA
05126:  DECF   FEF,F
....................                   if(Contrasena[i-1]<0){ 
05128:  MOVLW  01
0512A:  SUBWF  xDB,W
0512C:  CLRF   03
0512E:  ADDLW  0F
05130:  MOVWF  FE9
05132:  MOVLW  05
05134:  ADDWFC 03,W
05136:  MOVWF  FEA
05138:  BTFSC  FEF.7
0513A:  BRA    513E
0513C:  BRA    5152
....................                      Contrasena[i-1]=9; 
0513E:  MOVLW  01
05140:  SUBWF  xDB,W
05142:  CLRF   03
05144:  ADDLW  0F
05146:  MOVWF  FE9
05148:  MOVLW  05
0514A:  ADDWFC 03,W
0514C:  MOVWF  FEA
0514E:  MOVLW  09
05150:  MOVWF  FEF
....................                   } 
....................                   displayContrasena(Contrasena[i-1],i*20,30,1); 
05152:  MOVLW  01
05154:  SUBWF  xDB,W
05156:  CLRF   03
05158:  ADDLW  0F
0515A:  MOVWF  FE9
0515C:  MOVLW  05
0515E:  ADDWFC 03,W
05160:  MOVWF  FEA
05162:  MOVFF  FEF,5F3
05166:  MOVF   xDB,W
05168:  MULLW  14
0516A:  MOVFF  FF3,5F4
0516E:  MOVFF  5F3,5F5
05172:  MOVFF  5F4,5F6
05176:  MOVLW  1E
05178:  MOVWF  xF7
0517A:  MOVLW  01
0517C:  MOVWF  xF8
0517E:  MOVLB  0
05180:  RCALL  4DB4
....................                }else{ 
05182:  BRA    51B6
05184:  MOVLB  4
....................                   displayContrasena(Contrasena[i-1],i*20,30,0); 
05186:  MOVLW  01
05188:  MOVLB  5
0518A:  SUBWF  xDB,W
0518C:  CLRF   03
0518E:  ADDLW  0F
05190:  MOVWF  FE9
05192:  MOVLW  05
05194:  ADDWFC 03,W
05196:  MOVWF  FEA
05198:  MOVFF  FEF,5F3
0519C:  MOVF   xDB,W
0519E:  MULLW  14
051A0:  MOVFF  FF3,5F4
051A4:  MOVFF  5F3,5F5
051A8:  MOVFF  5F4,5F6
051AC:  MOVLW  1E
051AE:  MOVWF  xF7
051B0:  CLRF   xF8
051B2:  MOVLB  0
051B4:  RCALL  4DB4
....................                } 
....................             }       
051B6:  MOVLB  5
051B8:  INCF   xDB,F
051BA:  BRA    5106
051BC:  MOVLB  4
....................          }      
....................       }else{ 
051BE:  BRA    51C2
....................          Flanco2 = 0; 
051C0:  BCF    x2D.2
....................       } 
....................              
....................       if(RIGHT){ 
051C2:  BSF    F96.1
051C4:  BTFSC  F84.1
051C6:  BRA    5268
....................          flag_latencia=0;t_latencia=0; 
051C8:  BCF    x2E.6
051CA:  CLRF   xE4
051CC:  CLRF   xE3
....................          if(Flanco1 == 0){ 
051CE:  BTFSC  x2D.1
051D0:  BRA    5266
....................             Flanco1 = 1;delay_ms(5);unidad++; 
051D2:  BSF    x2D.1
051D4:  MOVLW  05
051D6:  MOVLB  5
051D8:  MOVWF  xFF
051DA:  MOVLB  0
051DC:  CALL   154C
051E0:  MOVLB  4
051E2:  INCF   xCE,F
....................             for(i=1;i<=4;i++){ 
051E4:  MOVLW  01
051E6:  MOVLB  5
051E8:  MOVWF  xDB
051EA:  MOVF   xDB,W
051EC:  SUBLW  04
051EE:  BNC   5264
....................                if(unidad==i){ 
051F0:  MOVF   xDB,W
051F2:  MOVLB  4
051F4:  SUBWF  xCE,W
051F6:  BNZ   522E
....................                   displayContrasena(Contrasena[i-1],i*20,30,1); 
051F8:  MOVLW  01
051FA:  MOVLB  5
051FC:  SUBWF  xDB,W
051FE:  CLRF   03
05200:  ADDLW  0F
05202:  MOVWF  FE9
05204:  MOVLW  05
05206:  ADDWFC 03,W
05208:  MOVWF  FEA
0520A:  MOVFF  FEF,5F3
0520E:  MOVF   xDB,W
05210:  MULLW  14
05212:  MOVFF  FF3,5F4
05216:  MOVFF  5F3,5F5
0521A:  MOVFF  5F4,5F6
0521E:  MOVLW  1E
05220:  MOVWF  xF7
05222:  MOVLW  01
05224:  MOVWF  xF8
05226:  MOVLB  0
05228:  RCALL  4DB4
....................                }else{ 
0522A:  BRA    525E
0522C:  MOVLB  4
....................                   displayContrasena(Contrasena[i-1],i*20,30,0); 
0522E:  MOVLW  01
05230:  MOVLB  5
05232:  SUBWF  xDB,W
05234:  CLRF   03
05236:  ADDLW  0F
05238:  MOVWF  FE9
0523A:  MOVLW  05
0523C:  ADDWFC 03,W
0523E:  MOVWF  FEA
05240:  MOVFF  FEF,5F3
05244:  MOVF   xDB,W
05246:  MULLW  14
05248:  MOVFF  FF3,5F4
0524C:  MOVFF  5F3,5F5
05250:  MOVFF  5F4,5F6
05254:  MOVLW  1E
05256:  MOVWF  xF7
05258:  CLRF   xF8
0525A:  MOVLB  0
0525C:  RCALL  4DB4
....................                } 
....................             } 
0525E:  MOVLB  5
05260:  INCF   xDB,F
05262:  BRA    51EA
05264:  MOVLB  4
....................          } 
....................       }else{ 
05266:  BRA    526A
....................          Flanco1 = 0; 
05268:  BCF    x2D.1
....................       } 
....................        
....................       if(LEFT){ 
0526A:  BSF    F96.2
0526C:  BTFSC  F84.2
0526E:  BRA    52B8
....................          delay_ms(100); 
05270:  MOVLW  64
05272:  MOVLB  5
05274:  MOVWF  xFF
05276:  MOVLB  0
05278:  CALL   154C
....................          if(LEFT){ 
0527C:  BSF    F96.2
0527E:  BTFSC  F84.2
05280:  BRA    52B6
....................             Menu=MenuAnt;glcd_fillScreen(OFF);n=0;Opcion=1;unidad=1; 
05282:  MOVFF  5EC,4CD
05286:  MOVLB  5
05288:  CLRF   xF3
0528A:  MOVLB  0
0528C:  CALL   162C
05290:  MOVLB  4
05292:  BCF    x2F.5
05294:  MOVLW  01
05296:  MOVWF  xCF
05298:  MOVWF  xCE
....................             Contrasena[0]=0;Contrasena[1]=0;Contrasena[2]=0;Contrasena[3]=0; 
0529A:  MOVLB  5
0529C:  CLRF   x0F
0529E:  CLRF   x10
052A0:  CLRF   x11
052A2:  CLRF   x12
....................             glcd_fillScreen(OFF);glcd_update(); 
052A4:  CLRF   xF3
052A6:  MOVLB  0
052A8:  CALL   162C
052AC:  CALL   1686
....................             return 1; 
052B0:  MOVLW  01
052B2:  MOVWF  01
052B4:  BRA    5642
052B6:  MOVLB  4
....................          } 
....................       } 
....................      
....................       if(unidad>4){ 
052B8:  MOVF   xCE,W
052BA:  SUBLW  04
052BC:  BTFSC  FD8.0
052BE:  BRA    5644
....................          glcd_fillScreen(OFF);unidad=1;flag_latencia=0;t_latencia=0; 
052C0:  MOVLB  5
052C2:  CLRF   xF3
052C4:  MOVLB  0
052C6:  CALL   162C
052CA:  MOVLW  01
052CC:  MOVLB  4
052CE:  MOVWF  xCE
052D0:  BCF    x2E.6
052D2:  CLRF   xE4
052D4:  CLRF   xE3
....................           
....................          if(Contrasena[0]==3&&Contrasena[1]==8&&Contrasena[2]==9&&Contrasena[3]==2 && MenuActual==0){ // Si Ingresa clave para reset general del sistema. 
052D6:  MOVLB  5
052D8:  MOVF   x0F,W
052DA:  SUBLW  03
052DC:  BTFSS  FD8.2
052DE:  BRA    53D2
052E0:  MOVF   x10,W
052E2:  SUBLW  08
052E4:  BTFSS  FD8.2
052E6:  BRA    53D2
052E8:  MOVF   x11,W
052EA:  SUBLW  09
052EC:  BNZ   53D2
052EE:  MOVF   x12,W
052F0:  SUBLW  02
052F2:  BNZ   53D2
052F4:  MOVF   xED,F
052F6:  BNZ   53D2
....................             write_eeprom(0,0);delay_ms(20);write_eeprom(1,0);delay_ms(20);// Reestablece a contrasea de Fabrica y reinicia Programa. 
052F8:  CLRF   FAA
052FA:  CLRF   FA9
052FC:  CLRF   FA8
052FE:  BCF    FA6.6
05300:  BCF    FA6.7
05302:  BSF    FA6.2
05304:  MOVF   FF2,W
05306:  MOVWF  00
05308:  BCF    FF2.7
0530A:  MOVLB  F
0530C:  MOVLW  55
0530E:  MOVWF  FA7
05310:  MOVLW  AA
05312:  MOVWF  FA7
05314:  BSF    FA6.1
05316:  BTFSC  FA6.1
05318:  BRA    5316
0531A:  BCF    FA6.2
0531C:  MOVF   00,W
0531E:  IORWF  FF2,F
05320:  MOVLW  14
05322:  MOVLB  5
05324:  MOVWF  xFF
05326:  MOVLB  0
05328:  CALL   154C
0532C:  CLRF   FAA
0532E:  MOVLW  01
05330:  MOVWF  FA9
05332:  CLRF   FA8
05334:  BCF    FA6.6
05336:  BCF    FA6.7
05338:  BSF    FA6.2
0533A:  MOVF   FF2,W
0533C:  MOVWF  00
0533E:  BCF    FF2.7
05340:  MOVLB  F
05342:  MOVLW  55
05344:  MOVWF  FA7
05346:  MOVLW  AA
05348:  MOVWF  FA7
0534A:  BSF    FA6.1
0534C:  BTFSC  FA6.1
0534E:  BRA    534C
05350:  BCF    FA6.2
05352:  MOVF   00,W
05354:  IORWF  FF2,F
05356:  MOVLW  14
05358:  MOVLB  5
0535A:  MOVWF  xFF
0535C:  MOVLB  0
0535E:  CALL   154C
....................             write_eeprom(2,0);delay_ms(20);write_eeprom(3,0);delay_ms(20); 
05362:  CLRF   FAA
05364:  MOVLW  02
05366:  MOVWF  FA9
05368:  CLRF   FA8
0536A:  BCF    FA6.6
0536C:  BCF    FA6.7
0536E:  BSF    FA6.2
05370:  MOVF   FF2,W
05372:  MOVWF  00
05374:  BCF    FF2.7
05376:  MOVLB  F
05378:  MOVLW  55
0537A:  MOVWF  FA7
0537C:  MOVLW  AA
0537E:  MOVWF  FA7
05380:  BSF    FA6.1
05382:  BTFSC  FA6.1
05384:  BRA    5382
05386:  BCF    FA6.2
05388:  MOVF   00,W
0538A:  IORWF  FF2,F
0538C:  MOVLW  14
0538E:  MOVLB  5
05390:  MOVWF  xFF
05392:  MOVLB  0
05394:  CALL   154C
05398:  CLRF   FAA
0539A:  MOVLW  03
0539C:  MOVWF  FA9
0539E:  CLRF   FA8
053A0:  BCF    FA6.6
053A2:  BCF    FA6.7
053A4:  BSF    FA6.2
053A6:  MOVF   FF2,W
053A8:  MOVWF  00
053AA:  BCF    FF2.7
053AC:  MOVLB  F
053AE:  MOVLW  55
053B0:  MOVWF  FA7
053B2:  MOVLW  AA
053B4:  MOVWF  FA7
053B6:  BSF    FA6.1
053B8:  BTFSC  FA6.1
053BA:  BRA    53B8
053BC:  BCF    FA6.2
053BE:  MOVF   00,W
053C0:  IORWF  FF2,F
053C2:  MOVLW  14
053C4:  MOVLB  5
053C6:  MOVWF  xFF
053C8:  MOVLB  0
053CA:  CALL   154C
....................             reset_cpu(); 
053CE:  RESET
053D0:  MOVLB  5
....................          } 
....................        
....................          if((Contrasena[0]==clave0)&&(Contrasena[1]==clave1)&&(Contrasena[2]==clave2)&&(Contrasena[3]==clave3)){ 
053D2:  MOVF   xEF,W
053D4:  SUBWF  x0F,W
053D6:  BTFSS  FD8.2
053D8:  BRA    54BA
053DA:  MOVF   xF0,W
053DC:  SUBWF  x10,W
053DE:  BNZ   54BA
053E0:  MOVF   xF1,W
053E2:  SUBWF  x11,W
053E4:  BNZ   54BA
053E6:  MOVF   xF2,W
053E8:  SUBWF  x12,W
053EA:  BNZ   54BA
....................             glcd_fillScreen(OFF); 
053EC:  CLRF   xF3
053EE:  MOVLB  0
053F0:  CALL   162C
....................             strcpy(Menus.Letra,"Clave"); 
053F4:  MOVLW  04
053F6:  MOVWF  FEA
053F8:  MOVLW  17
053FA:  MOVWF  FE9
053FC:  MOVFF  FF2,5F3
05400:  BCF    FF2.7
05402:  MOVLW  00
05404:  CALL   0F0A
05408:  TBLRD*-
0540A:  TBLRD*+
0540C:  MOVF   FF5,W
0540E:  MOVWF  FEE
05410:  IORLW  00
05412:  BNZ   540A
05414:  MOVLB  5
05416:  BTFSC  xF3.7
05418:  BSF    FF2.7
....................             displayMenu(Menus.Letra,30,0,0,2); 
0541A:  MOVLW  04
0541C:  MOVWF  xF4
0541E:  MOVLW  17
05420:  MOVWF  xF3
05422:  MOVLW  1E
05424:  MOVWF  xF5
05426:  CLRF   xF6
05428:  CLRF   xF7
0542A:  MOVLW  02
0542C:  MOVWF  xF8
0542E:  MOVLB  0
05430:  RCALL  4E88
....................             strcpy(Menus.Letra,"Correcta"); 
05432:  MOVLW  04
05434:  MOVWF  FEA
05436:  MOVLW  17
05438:  MOVWF  FE9
0543A:  MOVFF  FF2,5F3
0543E:  BCF    FF2.7
05440:  MOVLW  00
05442:  CALL   0F2E
05446:  TBLRD*-
05448:  TBLRD*+
0544A:  MOVF   FF5,W
0544C:  MOVWF  FEE
0544E:  IORLW  00
05450:  BNZ   5448
05452:  MOVLB  5
05454:  BTFSC  xF3.7
05456:  BSF    FF2.7
....................             displayMenu(Menus.Letra,15,30,0,2); 
05458:  MOVLW  04
0545A:  MOVWF  xF4
0545C:  MOVLW  17
0545E:  MOVWF  xF3
05460:  MOVLW  0F
05462:  MOVWF  xF5
05464:  MOVLW  1E
05466:  MOVWF  xF6
05468:  CLRF   xF7
0546A:  MOVLW  02
0546C:  MOVWF  xF8
0546E:  MOVLB  0
05470:  RCALL  4E88
....................             Menu=MenuPost;glcd_update();delay_ms(1000);glcd_fillScreen(OFF); 
05472:  MOVFF  5EE,4CD
05476:  CALL   1686
0547A:  MOVLW  04
0547C:  MOVLB  5
0547E:  MOVWF  xF3
05480:  MOVLW  FA
05482:  MOVWF  xFF
05484:  MOVLB  0
05486:  CALL   154C
0548A:  MOVLB  5
0548C:  DECFSZ xF3,F
0548E:  BRA    5480
05490:  CLRF   xF3
05492:  MOVLB  0
05494:  CALL   162C
....................             Contrasena[0]=0;Contrasena[1]=0;Contrasena[2]=0;Contrasena[3]=0; 
05498:  MOVLB  5
0549A:  CLRF   x0F
0549C:  CLRF   x10
0549E:  CLRF   x11
054A0:  CLRF   x12
....................             if(MenuActual==0)tiempo_purga=1;n=0; 
054A2:  MOVF   xED,F
054A4:  BNZ   54AA
054A6:  MOVLB  4
054A8:  BSF    x2E.4
054AA:  MOVLB  4
054AC:  BCF    x2F.5
....................             return 1; 
054AE:  MOVLW  01
054B0:  MOVWF  01
054B2:  MOVLB  0
054B4:  BRA    5642
....................          }else{ 
054B6:  BRA    5642
054B8:  MOVLB  5
....................             glcd_fillScreen(OFF); 
054BA:  CLRF   xF3
054BC:  MOVLB  0
054BE:  CALL   162C
....................             strcpy(Menus.Letra,"Clave"); 
054C2:  MOVLW  04
054C4:  MOVWF  FEA
054C6:  MOVLW  17
054C8:  MOVWF  FE9
054CA:  MOVFF  FF2,5F3
054CE:  BCF    FF2.7
054D0:  MOVLW  00
054D2:  CALL   0F0A
054D6:  TBLRD*-
054D8:  TBLRD*+
054DA:  MOVF   FF5,W
054DC:  MOVWF  FEE
054DE:  IORLW  00
054E0:  BNZ   54D8
054E2:  MOVLB  5
054E4:  BTFSC  xF3.7
054E6:  BSF    FF2.7
....................             displayMenu(Menus.Letra,30,0,0,2); 
054E8:  MOVLW  04
054EA:  MOVWF  xF4
054EC:  MOVLW  17
054EE:  MOVWF  xF3
054F0:  MOVLW  1E
054F2:  MOVWF  xF5
054F4:  CLRF   xF6
054F6:  CLRF   xF7
054F8:  MOVLW  02
054FA:  MOVWF  xF8
054FC:  MOVLB  0
054FE:  RCALL  4E88
....................             strcpy(Menus.Letra,"Incorrecta"); 
05500:  MOVLW  04
05502:  MOVWF  FEA
05504:  MOVLW  17
05506:  MOVWF  FE9
05508:  MOVFF  FF2,5F3
0550C:  BCF    FF2.7
0550E:  MOVLW  00
05510:  CALL   0F56
05514:  TBLRD*-
05516:  TBLRD*+
05518:  MOVF   FF5,W
0551A:  MOVWF  FEE
0551C:  IORLW  00
0551E:  BNZ   5516
05520:  MOVLB  5
05522:  BTFSC  xF3.7
05524:  BSF    FF2.7
....................             displayMenu(Menus.Letra,0,30,0,2); 
05526:  MOVLW  04
05528:  MOVWF  xF4
0552A:  MOVLW  17
0552C:  MOVWF  xF3
0552E:  CLRF   xF5
05530:  MOVLW  1E
05532:  MOVWF  xF6
05534:  CLRF   xF7
05536:  MOVLW  02
05538:  MOVWF  xF8
0553A:  MOVLB  0
0553C:  RCALL  4E88
....................             unidad=1;glcd_update();delay_ms(1000);Contrasena[0]=0;Contrasena[1]=0;Contrasena[2]=0;Contrasena[3]=0;glcd_fillScreen(OFF); 
0553E:  MOVLW  01
05540:  MOVLB  4
05542:  MOVWF  xCE
05544:  MOVLB  0
05546:  CALL   1686
0554A:  MOVLW  04
0554C:  MOVLB  5
0554E:  MOVWF  xF3
05550:  MOVLW  FA
05552:  MOVWF  xFF
05554:  MOVLB  0
05556:  CALL   154C
0555A:  MOVLB  5
0555C:  DECFSZ xF3,F
0555E:  BRA    5550
05560:  CLRF   x0F
05562:  CLRF   x10
05564:  CLRF   x11
05566:  CLRF   x12
05568:  CLRF   xF3
0556A:  MOVLB  0
0556C:  CALL   162C
....................             glcd_rect(0, 0, 127, 25, YES, ON);strcpy(Menus.Letra,"Clave");glcd_text57(25, 1, Menus.Letra, 3, OFF);displayContrasena(Contrasena[0],20,30,1); 
05570:  MOVLB  6
05572:  CLRF   x04
05574:  CLRF   x05
05576:  MOVLW  7F
05578:  MOVWF  x06
0557A:  MOVLW  19
0557C:  MOVWF  x07
0557E:  MOVLW  01
05580:  MOVWF  x08
05582:  MOVWF  x09
05584:  MOVLB  0
05586:  CALL   4CF0
0558A:  MOVLW  04
0558C:  MOVWF  FEA
0558E:  MOVLW  17
05590:  MOVWF  FE9
05592:  MOVFF  FF2,5F3
05596:  BCF    FF2.7
05598:  MOVLW  00
0559A:  CALL   0F0A
0559E:  TBLRD*-
055A0:  TBLRD*+
055A2:  MOVF   FF5,W
055A4:  MOVWF  FEE
055A6:  IORLW  00
055A8:  BNZ   55A0
055AA:  MOVLB  5
055AC:  BTFSC  xF3.7
055AE:  BSF    FF2.7
055B0:  MOVLW  19
055B2:  MOVLB  6
055B4:  MOVWF  x04
055B6:  MOVLW  01
055B8:  MOVWF  x05
055BA:  MOVLW  04
055BC:  MOVWF  x07
055BE:  MOVLW  17
055C0:  MOVWF  x06
055C2:  MOVLW  03
055C4:  MOVWF  x08
055C6:  CLRF   x09
055C8:  MOVLB  0
055CA:  CALL   18A2
055CE:  MOVFF  50F,5F5
055D2:  MOVLW  14
055D4:  MOVLB  5
055D6:  MOVWF  xF6
055D8:  MOVLW  1E
055DA:  MOVWF  xF7
055DC:  MOVLW  01
055DE:  MOVWF  xF8
055E0:  MOVLB  0
055E2:  CALL   4DB4
....................             displayContrasena(Contrasena[1],40,30,0);displayContrasena(Contrasena[2],60,30,0);displayContrasena(Contrasena[0],80,30,0); 
055E6:  MOVFF  510,5F5
055EA:  MOVLW  28
055EC:  MOVLB  5
055EE:  MOVWF  xF6
055F0:  MOVLW  1E
055F2:  MOVWF  xF7
055F4:  CLRF   xF8
055F6:  MOVLB  0
055F8:  CALL   4DB4
055FC:  MOVFF  511,5F5
05600:  MOVLW  3C
05602:  MOVLB  5
05604:  MOVWF  xF6
05606:  MOVLW  1E
05608:  MOVWF  xF7
0560A:  CLRF   xF8
0560C:  MOVLB  0
0560E:  CALL   4DB4
05612:  MOVFF  50F,5F5
05616:  MOVLW  50
05618:  MOVLB  5
0561A:  MOVWF  xF6
0561C:  MOVLW  1E
0561E:  MOVWF  xF7
05620:  CLRF   xF8
05622:  MOVLB  0
05624:  CALL   4DB4
....................             Menu=MenuAnt;glcd_fillScreen(OFF);n=0; 
05628:  MOVFF  5EC,4CD
0562C:  MOVLB  5
0562E:  CLRF   xF3
05630:  MOVLB  0
05632:  CALL   162C
05636:  MOVLB  4
05638:  BCF    x2F.5
....................             return 0; 
0563A:  MOVLW  00
0563C:  MOVWF  01
0563E:  MOVLB  0
05640:  BRA    5642
05642:  MOVLB  4
....................          } 
....................       } 
.................... } 
05644:  MOVLB  0
05646:  RETLW  00
....................  
....................  
.................... #int_EXT            // Interrupcin de encoder para control. 
.................... void ext0() {       // 6 pulsos por vuelta. 
....................       if(UP) 
*
013E6:  BSF    F92.5
013E8:  BTFSC  F80.5
013EA:  BRA    13F6
....................          tup++; 
013EC:  MOVLB  4
013EE:  INCF   xEB,F
013F0:  BTFSC  FD8.2
013F2:  INCF   xEC,F
....................       else 
013F4:  BRA    13FC
....................          tup=0; 
013F6:  MOVLB  4
013F8:  CLRF   xEC
013FA:  CLRF   xEB
....................           
....................       if(DOWN) 
013FC:  BSF    F96.0
013FE:  BTFSC  F84.0
01400:  BRA    140A
....................          tdown++; 
01402:  INCF   xED,F
01404:  BTFSC  FD8.2
01406:  INCF   xEE,F
....................       else 
01408:  BRA    140E
....................          tdown=0; 
0140A:  CLRF   xEE
0140C:  CLRF   xED
....................           
....................       if(RIGHT) 
0140E:  BSF    F96.1
01410:  BTFSC  F84.1
01412:  BRA    141C
....................          tright++; 
01414:  INCF   xEF,F
01416:  BTFSC  FD8.2
01418:  INCF   xF0,F
....................       else 
0141A:  BRA    1420
....................          tright=0; 
0141C:  CLRF   xF0
0141E:  CLRF   xEF
....................        
....................       if(LEFT) 
01420:  BSF    F96.2
01422:  BTFSC  F84.2
01424:  BRA    142E
....................          tleft++; 
01426:  INCF   xF1,F
01428:  BTFSC  FD8.2
0142A:  INCF   xF2,F
....................       else 
0142C:  BRA    1432
....................          tleft=0; 
0142E:  CLRF   xF2
01430:  CLRF   xF1
....................    pulsos++; 
01432:  MOVLB  5
01434:  INCF   xD7,F
01436:  BTFSC  FD8.2
01438:  INCF   xD8,F
....................    if(pulsos>=120){ 
0143A:  MOVF   xD8,F
0143C:  BNZ   1444
0143E:  MOVF   xD7,W
01440:  SUBLW  77
01442:  BC    14F4
....................       pulsos=0; 
01444:  CLRF   xD8
01446:  CLRF   xD7
....................       imprimir=1;Lectura=1;tiemporeset++; 
01448:  MOVLB  4
0144A:  BSF    x2D.6
0144C:  BSF    x2F.4
0144E:  INCF   xD3,F
....................     
....................       if(flag_blower==1) 
01450:  BTFSS  x2D.7
01452:  BRA    145A
....................          minutos_trabajo++;  
01454:  INCF   xE7,F
01456:  BTFSC  FD8.2
01458:  INCF   xE8,F
....................        
....................       if(tiempo_uv==1){ 
0145A:  BTFSS  x2F.0
0145C:  BRA    14AE
....................          segundos_uv++; 
0145E:  INCF   xE1,F
01460:  BTFSC  FD8.2
01462:  INCF   xE2,F
....................        
....................          if(Tempouv[0]>0){ 
01464:  MOVLB  5
01466:  BTFSC  x07.7
01468:  BRA    1474
0146A:  MOVF   x07,W
0146C:  SUBLW  00
0146E:  BC    1474
....................             Tempouv[0]--; 
01470:  DECF   x07,F
....................          }else{ 
01472:  BRA    14B0
....................             Tempouv[0]=9; 
01474:  MOVLW  09
01476:  MOVWF  x07
....................             if(Tempouv[1]>0){ 
01478:  BTFSC  x08.7
0147A:  BRA    1486
0147C:  MOVF   x08,W
0147E:  SUBLW  00
01480:  BC    1486
....................                Tempouv[1]--; 
01482:  DECF   x08,F
....................             }else{ 
01484:  BRA    14B0
....................                Tempouv[1]=5; 
01486:  MOVLW  05
01488:  MOVWF  x08
....................                if(Tempouv[2]>0){ 
0148A:  BTFSC  x09.7
0148C:  BRA    1498
0148E:  MOVF   x09,W
01490:  SUBLW  00
01492:  BC    1498
....................                   Tempouv[2]--; 
01494:  DECF   x09,F
....................                }else{ 
01496:  BRA    14B0
....................                   Tempouv[2]=9; 
01498:  MOVLW  09
0149A:  MOVWF  x09
....................                   if(Tempouv[3]>0){ 
0149C:  BTFSC  x0A.7
0149E:  BRA    14AA
014A0:  MOVF   x0A,W
014A2:  SUBLW  00
014A4:  BC    14AA
....................                      Tempouv[3]--; 
014A6:  DECF   x0A,F
....................                   }else{ 
014A8:  BRA    14B0
....................                      tiempocumplido=1; 
014AA:  MOVLB  4
014AC:  BSF    x2F.2
014AE:  MOVLB  5
....................                   } 
....................                } 
....................             } 
....................          }     
....................       } 
....................    
....................       if(tiempo_purga==1 || Purga){                   
014B0:  MOVLB  4
014B2:  BTFSC  x2E.4
014B4:  BRA    14BA
014B6:  BTFSS  x2F.7
014B8:  BRA    14F2
....................          Tpurga[0]++; 
014BA:  INCF   xF3,F
....................          if(Tpurga[0]>9){ 
014BC:  BTFSC  xF3.7
014BE:  BRA    14CA
014C0:  MOVF   xF3,W
014C2:  SUBLW  09
014C4:  BC    14CA
....................             Tpurga[0]=0; 
014C6:  CLRF   xF3
....................             Tpurga[1]++; 
014C8:  INCF   xF4,F
....................          } 
....................          if(Tpurga[1]>5){ 
014CA:  BTFSC  xF4.7
014CC:  BRA    14D8
014CE:  MOVF   xF4,W
014D0:  SUBLW  05
014D2:  BC    14D8
....................             Tpurga[1]=0; 
014D4:  CLRF   xF4
....................             Tpurga[2]++; 
014D6:  INCF   xF5,F
....................          } 
....................          if(Tpurga[2]>9){ 
014D8:  BTFSC  xF5.7
014DA:  BRA    14E6
014DC:  MOVF   xF5,W
014DE:  SUBLW  09
014E0:  BC    14E6
....................             Tpurga[2]=0; 
014E2:  CLRF   xF5
....................             Tpurga[3]++; 
014E4:  INCF   xF6,F
....................          } 
....................          if(Tpurga[3]>5){ 
014E6:  BTFSC  xF6.7
014E8:  BRA    14F2
014EA:  MOVF   xF6,W
014EC:  SUBLW  05
014EE:  BC    14F2
....................             Tpurga[3]=0; 
014F0:  CLRF   xF6
014F2:  MOVLB  5
....................          } 
....................       }  
....................    } 
....................    tiempocruce=0; 
014F4:  CLRF   xE0
014F6:  CLRF   xDF
....................    Cruce=ON; 
014F8:  MOVLB  4
014FA:  BSF    x2F.6
....................    if(VelMotor<6){ 
014FC:  MOVLB  5
014FE:  MOVF   xE2,W
01500:  SUBLW  05
01502:  BNC   1544
....................       if(VelMotor>0 && Porcentaje<100){ 
01504:  MOVF   xE2,F
01506:  BZ    1540
01508:  MOVF   xE1,W
0150A:  SUBLW  63
0150C:  BNC   1540
....................          delay_us(retardo);       
0150E:  MOVFF  5DA,630
01512:  MOVLB  6
01514:  INCF   x30,F
01516:  DECF   x30,F
01518:  BTFSC  FD8.2
0151A:  BRA    1528
0151C:  MOVLW  FF
0151E:  MOVWF  x31
01520:  MOVLB  0
01522:  RCALL  13C6
01524:  MOVLB  6
01526:  BRA    1516
01528:  MOVFF  5D9,631
0152C:  MOVLB  0
0152E:  RCALL  13C6
....................          Motor_on; 
01530:  BSF    F8B.2
01532:  BCF    F94.2
....................          delay_us(100);       
01534:  MOVLW  A6
01536:  MOVWF  00
01538:  DECFSZ 00,F
0153A:  BRA    1538
0153C:  NOP   
0153E:  MOVLB  5
....................       } 
....................       Motor_off; 
01540:  BCF    F8B.2
01542:  BCF    F94.2
....................    } 
.................... } 
....................  
01544:  BCF    FF2.1
01546:  MOVLB  0
01548:  GOTO   0058
.................... void glcd_imagen(int8 x) 
.................... { 
....................    char i,j; 
....................    signed char k;  
....................       
....................    if(x==3){ 
*
05DA8:  MOVLB  5
05DAA:  MOVF   xEB,W
05DAC:  SUBLW  03
05DAE:  BNZ   5E56
....................    for( i = 0 ; i < 64 ; i ++ ) 
05DB0:  CLRF   xEC
05DB2:  MOVF   xEC,W
05DB4:  SUBLW  3F
05DB6:  BNC   5E56
....................    {  for( j = 0 ; j < 16 ; j ++) 
05DB8:  CLRF   xED
05DBA:  MOVF   xED,W
05DBC:  SUBLW  0F
05DBE:  BNC   5E52
....................       {  for(k=7;k>-1;k--) 
05DC0:  MOVLW  07
05DC2:  MOVWF  xEE
05DC4:  MOVF   xEE,W
05DC6:  XORLW  80
05DC8:  SUBLW  7F
05DCA:  BC    5E4E
....................          {       
....................             if( bit_test(Bombillo[i][j] ,7-k ))  
05DCC:  CLRF   xF0
05DCE:  MOVFF  5EC,5EF
05DD2:  CLRF   xF2
05DD4:  MOVLW  10
05DD6:  MOVWF  xF1
05DD8:  MOVLB  0
05DDA:  RCALL  5D86
05DDC:  MOVFF  02,5F0
05DE0:  MOVFF  01,5EF
05DE4:  MOVLB  5
05DE6:  MOVF   xED,W
05DE8:  ADDWF  01,W
05DEA:  MOVWF  01
05DEC:  MOVLW  00
05DEE:  ADDWFC 02,W
05DF0:  MOVWF  03
05DF2:  MOVF   01,W
05DF4:  MOVFF  FF2,5EF
05DF8:  BCF    FF2.7
05DFA:  MOVFF  03,FF7
05DFE:  MOVLB  0
05E00:  CALL   02B6
05E04:  MOVLB  5
05E06:  BTFSC  xEF.7
05E08:  BSF    FF2.7
05E0A:  MOVWF  xEF
05E0C:  MOVLW  07
05E0E:  BSF    FD8.0
05E10:  SUBFWB xEE,W
05E12:  MOVWF  xF0
05E14:  MOVFF  5EF,00
05E18:  MOVF   xF0,W
05E1A:  MOVWF  01
05E1C:  BZ    5E26
05E1E:  BCF    FD8.0
05E20:  RRCF   00,F
05E22:  DECFSZ 01,F
05E24:  BRA    5E1E
05E26:  BTFSS  00.0
05E28:  BRA    5E4A
....................                glcd_pixel( j*8+k,i, ON ); 
05E2A:  MOVF   xED,W
05E2C:  MULLW  08
05E2E:  MOVF   FF3,W
05E30:  ADDWF  xEE,W
05E32:  MOVWF  xEF
05E34:  MOVFF  FE8,61F
05E38:  MOVFF  5EC,620
05E3C:  MOVLW  01
05E3E:  MOVLB  6
05E40:  MOVWF  x21
05E42:  MOVLB  0
05E44:  CALL   17E6
05E48:  MOVLB  5
....................          }   
05E4A:  DECF   xEE,F
05E4C:  BRA    5DC4
....................       } 
05E4E:  INCF   xED,F
05E50:  BRA    5DBA
....................    } 
05E52:  INCF   xEC,F
05E54:  BRA    5DB2
....................    } 
....................     
....................    if(x==4){ 
05E56:  MOVF   xEB,W
05E58:  SUBLW  04
05E5A:  BNZ   5F02
....................    for( i = 0 ; i < 64 ; i ++ ) 
05E5C:  CLRF   xEC
05E5E:  MOVF   xEC,W
05E60:  SUBLW  3F
05E62:  BNC   5F02
....................    {  for( j = 0 ; j < 16 ; j ++) 
05E64:  CLRF   xED
05E66:  MOVF   xED,W
05E68:  SUBLW  0F
05E6A:  BNC   5EFE
....................       {  for(k=7;k>-1;k--) 
05E6C:  MOVLW  07
05E6E:  MOVWF  xEE
05E70:  MOVF   xEE,W
05E72:  XORLW  80
05E74:  SUBLW  7F
05E76:  BC    5EFA
....................          {       
....................             if( bit_test(Tomai[i][j] ,7-k ))  
05E78:  CLRF   xF0
05E7A:  MOVFF  5EC,5EF
05E7E:  CLRF   xF2
05E80:  MOVLW  10
05E82:  MOVWF  xF1
05E84:  MOVLB  0
05E86:  RCALL  5D86
05E88:  MOVFF  02,5F0
05E8C:  MOVFF  01,5EF
05E90:  MOVLB  5
05E92:  MOVF   xED,W
05E94:  ADDWF  01,W
05E96:  MOVWF  01
05E98:  MOVLW  00
05E9A:  ADDWFC 02,W
05E9C:  MOVWF  03
05E9E:  MOVF   01,W
05EA0:  MOVFF  FF2,5EF
05EA4:  BCF    FF2.7
05EA6:  MOVFF  03,FF7
05EAA:  MOVLB  0
05EAC:  CALL   06D2
05EB0:  MOVLB  5
05EB2:  BTFSC  xEF.7
05EB4:  BSF    FF2.7
05EB6:  MOVWF  xEF
05EB8:  MOVLW  07
05EBA:  BSF    FD8.0
05EBC:  SUBFWB xEE,W
05EBE:  MOVWF  xF0
05EC0:  MOVFF  5EF,00
05EC4:  MOVF   xF0,W
05EC6:  MOVWF  01
05EC8:  BZ    5ED2
05ECA:  BCF    FD8.0
05ECC:  RRCF   00,F
05ECE:  DECFSZ 01,F
05ED0:  BRA    5ECA
05ED2:  BTFSS  00.0
05ED4:  BRA    5EF6
....................                glcd_pixel( j*8+k,i, ON ); 
05ED6:  MOVF   xED,W
05ED8:  MULLW  08
05EDA:  MOVF   FF3,W
05EDC:  ADDWF  xEE,W
05EDE:  MOVWF  xEF
05EE0:  MOVFF  FE8,61F
05EE4:  MOVFF  5EC,620
05EE8:  MOVLW  01
05EEA:  MOVLB  6
05EEC:  MOVWF  x21
05EEE:  MOVLB  0
05EF0:  CALL   17E6
05EF4:  MOVLB  5
....................          }   
05EF6:  DECF   xEE,F
05EF8:  BRA    5E70
....................       } 
05EFA:  INCF   xED,F
05EFC:  BRA    5E66
....................    } 
05EFE:  INCF   xEC,F
05F00:  BRA    5E5E
....................    } 
....................     
....................    if(x==5){ 
05F02:  MOVF   xEB,W
05F04:  SUBLW  05
05F06:  BNZ   5FAE
....................    for( i = 0 ; i < 64 ; i ++ ) 
05F08:  CLRF   xEC
05F0A:  MOVF   xEC,W
05F0C:  SUBLW  3F
05F0E:  BNC   5FAE
....................    {  for( j = 0 ; j < 16 ; j ++) 
05F10:  CLRF   xED
05F12:  MOVF   xED,W
05F14:  SUBLW  0F
05F16:  BNC   5FAA
....................       {  for(k=7;k>-1;k--) 
05F18:  MOVLW  07
05F1A:  MOVWF  xEE
05F1C:  MOVF   xEE,W
05F1E:  XORLW  80
05F20:  SUBLW  7F
05F22:  BC    5FA6
....................          {       
....................             if( bit_test(Ventilador[i][j] ,7-k ))  
05F24:  CLRF   xF0
05F26:  MOVFF  5EC,5EF
05F2A:  CLRF   xF2
05F2C:  MOVLW  10
05F2E:  MOVWF  xF1
05F30:  MOVLB  0
05F32:  RCALL  5D86
05F34:  MOVFF  02,5F0
05F38:  MOVFF  01,5EF
05F3C:  MOVLB  5
05F3E:  MOVF   xED,W
05F40:  ADDWF  01,W
05F42:  MOVWF  01
05F44:  MOVLW  00
05F46:  ADDWFC 02,W
05F48:  MOVWF  03
05F4A:  MOVF   01,W
05F4C:  MOVFF  FF2,5EF
05F50:  BCF    FF2.7
05F52:  MOVFF  03,FF7
05F56:  MOVLB  0
05F58:  CALL   0AEE
05F5C:  MOVLB  5
05F5E:  BTFSC  xEF.7
05F60:  BSF    FF2.7
05F62:  MOVWF  xEF
05F64:  MOVLW  07
05F66:  BSF    FD8.0
05F68:  SUBFWB xEE,W
05F6A:  MOVWF  xF0
05F6C:  MOVFF  5EF,00
05F70:  MOVF   xF0,W
05F72:  MOVWF  01
05F74:  BZ    5F7E
05F76:  BCF    FD8.0
05F78:  RRCF   00,F
05F7A:  DECFSZ 01,F
05F7C:  BRA    5F76
05F7E:  BTFSS  00.0
05F80:  BRA    5FA2
....................                glcd_pixel( j*8+k,i, ON ); 
05F82:  MOVF   xED,W
05F84:  MULLW  08
05F86:  MOVF   FF3,W
05F88:  ADDWF  xEE,W
05F8A:  MOVWF  xEF
05F8C:  MOVFF  FE8,61F
05F90:  MOVFF  5EC,620
05F94:  MOVLW  01
05F96:  MOVLB  6
05F98:  MOVWF  x21
05F9A:  MOVLB  0
05F9C:  CALL   17E6
05FA0:  MOVLB  5
....................          }   
05FA2:  DECF   xEE,F
05FA4:  BRA    5F1C
....................       } 
05FA6:  INCF   xED,F
05FA8:  BRA    5F12
....................    } 
05FAA:  INCF   xEC,F
05FAC:  BRA    5F0A
....................    } 
.................... } 
05FAE:  MOVLB  0
05FB0:  RETLW  00
....................  
....................  
.................... Float LeerFlujoInFlow(int media) 
.................... { 
....................     InFlow_adc=sensores(1); 
*
042BA:  MOVLW  01
042BC:  MOVLB  5
042BE:  MOVWF  xFC
042C0:  MOVLB  0
042C2:  CALL   3002
042C6:  MOVFF  02,4DC
042CA:  MOVFF  01,4DB
....................        
....................     if(negativo==10) 
042CE:  MOVLB  4
042D0:  MOVF   xD0,W
042D2:  SUBLW  0A
042D4:  BNZ   431C
....................     { 
....................       x_uno=Inflow_adc+Diferencia; 
042D6:  MOVFF  4DC,621
042DA:  MOVFF  4DB,620
042DE:  MOVLB  0
042E0:  CALL   1A5A
042E4:  BCF    FD8.1
042E6:  MOVFF  03,623
042EA:  MOVFF  02,622
042EE:  MOVFF  01,621
042F2:  MOVFF  00,620
042F6:  MOVFF  526,627
042FA:  MOVFF  525,626
042FE:  MOVFF  524,625
04302:  MOVFF  523,624
04306:  CALL   1BEE
0430A:  MOVFF  03,536
0430E:  MOVFF  02,535
04312:  MOVFF  01,534
04316:  MOVFF  00,533
0431A:  MOVLB  4
....................     } 
....................     if(negativo==20) 
0431C:  MOVF   xD0,W
0431E:  SUBLW  14
04320:  BNZ   4366
....................     { 
....................       x_uno=Inflow_adc-Diferencia; 
04322:  MOVFF  4DC,621
04326:  MOVFF  4DB,620
0432A:  MOVLB  0
0432C:  CALL   1A5A
04330:  BSF    FD8.1
04332:  MOVFF  03,623
04336:  MOVFF  02,622
0433A:  MOVFF  01,621
0433E:  MOVFF  00,620
04342:  MOVFF  526,627
04346:  MOVFF  525,626
0434A:  MOVFF  524,625
0434E:  MOVFF  523,624
04352:  CALL   1BEE
04356:  MOVFF  03,536
0435A:  MOVFF  02,535
0435E:  MOVFF  01,534
04362:  MOVFF  00,533
....................     } 
....................     Velocidad=(pow(x_uno,3)*a)+(pow(x_uno,2)*b)+(x_uno*c)+(d); 
04366:  MOVFF  536,5F3
0436A:  MOVFF  535,5F2
0436E:  MOVFF  534,5F1
04372:  MOVFF  533,5F0
04376:  MOVLB  5
04378:  CLRF   xF7
0437A:  CLRF   xF6
0437C:  MOVLW  40
0437E:  MOVWF  xF5
04380:  MOVLW  80
04382:  MOVWF  xF4
04384:  MOVLB  0
04386:  RCALL  3FAE
04388:  MOVFF  00,5EC
0438C:  MOVFF  01,5ED
04390:  MOVFF  02,5EE
04394:  MOVFF  03,5EF
04398:  MOVFF  03,61F
0439C:  MOVFF  02,61E
043A0:  MOVFF  01,61D
043A4:  MOVFF  00,61C
043A8:  MOVFF  552,623
043AC:  MOVFF  551,622
043B0:  MOVFF  550,621
043B4:  MOVFF  54F,620
043B8:  CALL   307C
043BC:  MOVFF  00,5EC
043C0:  MOVFF  01,5ED
043C4:  MOVFF  02,5EE
043C8:  MOVFF  03,5EF
043CC:  MOVFF  536,5F3
043D0:  MOVFF  535,5F2
043D4:  MOVFF  534,5F1
043D8:  MOVFF  533,5F0
043DC:  MOVLB  5
043DE:  CLRF   xF7
043E0:  CLRF   xF6
043E2:  CLRF   xF5
043E4:  MOVLW  80
043E6:  MOVWF  xF4
043E8:  MOVLB  0
043EA:  RCALL  3FAE
043EC:  MOVFF  00,5F0
043F0:  MOVFF  01,5F1
043F4:  MOVFF  02,5F2
043F8:  MOVFF  03,5F3
043FC:  MOVFF  03,61F
04400:  MOVFF  02,61E
04404:  MOVFF  01,61D
04408:  MOVFF  00,61C
0440C:  MOVFF  556,623
04410:  MOVFF  555,622
04414:  MOVFF  554,621
04418:  MOVFF  553,620
0441C:  CALL   307C
04420:  MOVFF  FEA,5F1
04424:  MOVFF  FE9,5F0
04428:  BCF    FD8.1
0442A:  MOVFF  5EF,623
0442E:  MOVFF  5EE,622
04432:  MOVFF  5ED,621
04436:  MOVFF  5EC,620
0443A:  MOVFF  03,627
0443E:  MOVFF  02,626
04442:  MOVFF  01,625
04446:  MOVFF  00,624
0444A:  CALL   1BEE
0444E:  MOVFF  5F1,FEA
04452:  MOVFF  5F0,FE9
04456:  MOVFF  00,5EC
0445A:  MOVFF  01,5ED
0445E:  MOVFF  02,5EE
04462:  MOVFF  03,5EF
04466:  MOVFF  536,61F
0446A:  MOVFF  535,61E
0446E:  MOVFF  534,61D
04472:  MOVFF  533,61C
04476:  MOVFF  55A,623
0447A:  MOVFF  559,622
0447E:  MOVFF  558,621
04482:  MOVFF  557,620
04486:  CALL   307C
0448A:  MOVFF  FEA,5F3
0448E:  MOVFF  FE9,5F2
04492:  BCF    FD8.1
04494:  MOVFF  5EF,623
04498:  MOVFF  5EE,622
0449C:  MOVFF  5ED,621
044A0:  MOVFF  5EC,620
044A4:  MOVFF  03,627
044A8:  MOVFF  02,626
044AC:  MOVFF  01,625
044B0:  MOVFF  00,624
044B4:  CALL   1BEE
044B8:  MOVFF  5F3,FEA
044BC:  MOVFF  5F2,FE9
044C0:  MOVFF  00,5EC
044C4:  MOVFF  01,5ED
044C8:  MOVFF  02,5EE
044CC:  MOVFF  03,5EF
044D0:  MOVFF  FEA,5F5
044D4:  MOVFF  FE9,5F4
044D8:  BCF    FD8.1
044DA:  MOVFF  03,623
044DE:  MOVFF  02,622
044E2:  MOVFF  01,621
044E6:  MOVFF  00,620
044EA:  MOVFF  55E,627
044EE:  MOVFF  55D,626
044F2:  MOVFF  55C,625
044F6:  MOVFF  55B,624
044FA:  CALL   1BEE
044FE:  MOVFF  5F5,FEA
04502:  MOVFF  5F4,FE9
04506:  MOVFF  03,532
0450A:  MOVFF  02,531
0450E:  MOVFF  01,530
04512:  MOVFF  00,52F
....................     //Velocidad=Velocidad*correccion;//Ajuste de Temperatura 
....................      
....................     if(Velocidad<0.0) 
04516:  MOVFF  532,61F
0451A:  MOVFF  531,61E
0451E:  MOVFF  530,61D
04522:  MOVFF  52F,61C
04526:  MOVLB  6
04528:  CLRF   x23
0452A:  CLRF   x22
0452C:  CLRF   x21
0452E:  CLRF   x20
04530:  MOVLB  0
04532:  CALL   25D6
04536:  BNC   4542
....................      {Velocidad=0.0;} 
04538:  MOVLB  5
0453A:  CLRF   x32
0453C:  CLRF   x31
0453E:  CLRF   x30
04540:  CLRF   x2F
....................       
....................      if(l>=media) 
04542:  MOVLB  5
04544:  MOVF   xEB,W
04546:  MOVLB  4
04548:  SUBWF  xD6,W
0454A:  BNC   454E
....................        {l=0;} 
0454C:  CLRF   xD6
....................       
....................      promedio[l]=Velocidad;l++; 
0454E:  MOVF   xD6,W
04550:  MULLW  04
04552:  MOVF   FF3,W
04554:  CLRF   03
04556:  ADDLW  5F
04558:  MOVWF  FE9
0455A:  MOVLW  05
0455C:  ADDWFC 03,W
0455E:  MOVWF  FEA
04560:  MOVFF  52F,FEF
04564:  MOVFF  530,FEC
04568:  MOVFF  531,FEC
0456C:  MOVFF  532,FEC
04570:  INCF   xD6,F
....................      Flujo=0; 
04572:  MOVLB  5
04574:  CLRF   xC2
04576:  CLRF   xC1
04578:  CLRF   xC0
0457A:  CLRF   xBF
....................         for(h=0;h<=(media-1);h++) 
0457C:  MOVLB  4
0457E:  CLRF   xD7
04580:  MOVLW  01
04582:  MOVLB  5
04584:  SUBWF  xEB,W
04586:  MOVLB  4
04588:  SUBWF  xD7,W
0458A:  BZ    458E
0458C:  BC    45FE
....................         { 
....................            Flujo+=promedio[h]; 
0458E:  MOVF   xD7,W
04590:  MULLW  04
04592:  MOVF   FF3,W
04594:  CLRF   03
04596:  ADDLW  5F
04598:  MOVWF  FE9
0459A:  MOVLW  05
0459C:  ADDWFC 03,W
0459E:  MOVWF  FEA
045A0:  MOVFF  FEF,00
045A4:  MOVFF  FEC,01
045A8:  MOVFF  FEC,02
045AC:  MOVFF  FEC,03
045B0:  MOVFF  FEA,5ED
045B4:  MOVFF  FE9,5EC
045B8:  BCF    FD8.1
045BA:  MOVFF  5C2,623
045BE:  MOVFF  5C1,622
045C2:  MOVFF  5C0,621
045C6:  MOVFF  5BF,620
045CA:  MOVFF  03,627
045CE:  MOVFF  02,626
045D2:  MOVFF  01,625
045D6:  MOVFF  00,624
045DA:  MOVLB  0
045DC:  CALL   1BEE
045E0:  MOVFF  5ED,FEA
045E4:  MOVFF  5EC,FE9
045E8:  MOVFF  03,5C2
045EC:  MOVFF  02,5C1
045F0:  MOVFF  01,5C0
045F4:  MOVFF  00,5BF
....................         }  
045F8:  MOVLB  4
045FA:  INCF   xD7,F
045FC:  BRA    4580
....................            Flujo=(Flujo/media)*Ajuste1;  
045FE:  MOVLB  6
04600:  CLRF   x21
04602:  MOVFF  5EB,620
04606:  MOVLB  0
04608:  CALL   1A5A
0460C:  MOVFF  5C2,61F
04610:  MOVFF  5C1,61E
04614:  MOVFF  5C0,61D
04618:  MOVFF  5BF,61C
0461C:  MOVFF  03,623
04620:  MOVFF  02,622
04624:  MOVFF  01,621
04628:  MOVFF  00,620
0462C:  CALL   1A90
04630:  MOVFF  00,5EC
04634:  MOVFF  01,5ED
04638:  MOVFF  02,5EE
0463C:  MOVFF  03,5EF
04640:  MOVFF  03,61F
04644:  MOVFF  02,61E
04648:  MOVFF  01,61D
0464C:  MOVFF  00,61C
04650:  MOVFF  542,623
04654:  MOVFF  541,622
04658:  MOVFF  540,621
0465C:  MOVFF  53F,620
04660:  CALL   307C
04664:  MOVFF  03,5C2
04668:  MOVFF  02,5C1
0466C:  MOVFF  01,5C0
04670:  MOVFF  00,5BF
....................            return Flujo; 
04674:  MOVFF  5BF,00
04678:  MOVFF  5C0,01
0467C:  MOVFF  5C1,02
04680:  MOVFF  5C2,03
.................... } 
04684:  GOTO   6706 (RETURN)
....................  
.................... void main(){ 
*
060BE:  CLRF   FF8
060C0:  BCF    FD0.7
060C2:  BSF    07.7
060C4:  CLRF   FEA
060C6:  CLRF   FE9
060C8:  MOVLB  4
060CA:  BCF    x2D.0
060CC:  BCF    x2D.1
060CE:  BCF    x2D.2
060D0:  BCF    x2D.3
060D2:  BCF    x2D.4
060D4:  BCF    x2D.5
060D6:  BCF    x2D.6
060D8:  BCF    x2D.7
060DA:  BCF    x2E.0
060DC:  BCF    x2E.1
060DE:  BCF    x2E.2
060E0:  BCF    x2E.3
060E2:  BCF    x2E.4
060E4:  BCF    x2E.5
060E6:  BCF    x2E.6
060E8:  BCF    x2E.7
060EA:  BCF    x2F.0
060EC:  BCF    x2F.1
060EE:  BSF    x2F.2
060F0:  BCF    x2F.3
060F2:  BCF    x2F.4
060F4:  BCF    x2F.5
060F6:  MOVLW  C8
060F8:  MOVWF  xCD
060FA:  MOVLW  01
060FC:  MOVWF  xCE
060FE:  MOVWF  xCF
06100:  MOVLW  0A
06102:  MOVWF  xD0
06104:  CLRF   xD1
06106:  CLRF   xD2
06108:  CLRF   xD3
0610A:  CLRF   xD4
0610C:  CLRF   xD5
0610E:  CLRF   xD6
06110:  CLRF   xD7
06112:  CLRF   xD8
06114:  CLRF   xD9
06116:  MOVWF  xDA
06118:  CLRF   xDC
0611A:  CLRF   xDB
0611C:  CLRF   xDE
0611E:  CLRF   xDD
06120:  CLRF   xE0
06122:  CLRF   xDF
06124:  CLRF   xE2
06126:  CLRF   xE1
06128:  CLRF   xE4
0612A:  CLRF   xE3
0612C:  CLRF   xE6
0612E:  CLRF   xE5
06130:  CLRF   xE8
06132:  CLRF   xE7
06134:  CLRF   xEA
06136:  CLRF   xE9
06138:  CLRF   xEC
0613A:  CLRF   xEB
0613C:  CLRF   xEE
0613E:  CLRF   xED
06140:  CLRF   xF0
06142:  CLRF   xEF
06144:  CLRF   xF2
06146:  CLRF   xF1
06148:  MOVLB  5
0614A:  CLRF   x1A
0614C:  CLRF   x19
0614E:  CLRF   x18
06150:  CLRF   x17
06152:  CLRF   x1E
06154:  CLRF   x1D
06156:  CLRF   x1C
06158:  CLRF   x1B
0615A:  CLRF   x22
0615C:  CLRF   x21
0615E:  CLRF   x20
06160:  CLRF   x1F
06162:  CLRF   x26
06164:  CLRF   x25
06166:  CLRF   x24
06168:  CLRF   x23
0616A:  CLRF   x2A
0616C:  CLRF   x29
0616E:  CLRF   x28
06170:  CLRF   x27
06172:  CLRF   x2E
06174:  CLRF   x2D
06176:  CLRF   x2C
06178:  CLRF   x2B
0617A:  CLRF   x32
0617C:  CLRF   x31
0617E:  CLRF   x30
06180:  CLRF   x2F
06182:  CLRF   x36
06184:  CLRF   x35
06186:  CLRF   x34
06188:  CLRF   x33
0618A:  CLRF   x3A
0618C:  CLRF   x39
0618E:  CLRF   x38
06190:  CLRF   x37
06192:  CLRF   x3E
06194:  CLRF   x3D
06196:  CLRF   x3C
06198:  CLRF   x3B
0619A:  CLRF   x42
0619C:  CLRF   x41
0619E:  CLRF   x40
061A0:  CLRF   x3F
061A2:  CLRF   x46
061A4:  CLRF   x45
061A6:  CLRF   x44
061A8:  CLRF   x43
061AA:  CLRF   x4A
061AC:  CLRF   x49
061AE:  CLRF   x48
061B0:  CLRF   x47
061B2:  CLRF   x4E
061B4:  CLRF   x4D
061B6:  CLRF   x4C
061B8:  CLRF   x4B
061BA:  MOVLW  29
061BC:  MOVWF  x52
061BE:  MOVLW  B6
061C0:  MOVWF  x51
061C2:  MOVLW  20
061C4:  MOVWF  x50
061C6:  MOVLW  6E
061C8:  MOVWF  x4F
061CA:  MOVLW  EE
061CC:  MOVWF  x56
061CE:  MOVLW  7D
061D0:  MOVWF  x55
061D2:  MOVLW  EE
061D4:  MOVWF  x54
061D6:  MOVLW  77
061D8:  MOVWF  x53
061DA:  MOVLW  ED
061DC:  MOVWF  x5A
061DE:  MOVLW  47
061E0:  MOVWF  x59
061E2:  MOVLW  6D
061E4:  MOVWF  x58
061E6:  MOVLW  7F
061E8:  MOVWF  x57
061EA:  MOVLW  1A
061EC:  MOVWF  x5E
061EE:  MOVLW  D1
061F0:  MOVWF  x5D
061F2:  MOVLW  9C
061F4:  MOVWF  x5C
061F6:  MOVLW  86
061F8:  MOVWF  x5B
061FA:  CLRF   xC2
061FC:  CLRF   xC1
061FE:  CLRF   xC0
06200:  CLRF   xBF
06202:  CLRF   xC6
06204:  CLRF   xC5
06206:  MOVLW  50
06208:  MOVWF  xC4
0620A:  MOVLW  86
0620C:  MOVWF  xC3
0620E:  CLRF   xCA
06210:  CLRF   xC9
06212:  CLRF   xC8
06214:  CLRF   xC7
06216:  CLRF   xCE
06218:  CLRF   xCD
0621A:  CLRF   xCC
0621C:  CLRF   xCB
0621E:  CLRF   xD2
06220:  CLRF   xD1
06222:  CLRF   xD0
06224:  CLRF   xCF
06226:  CLRF   xD6
06228:  CLRF   xD5
0622A:  CLRF   xD4
0622C:  MOVLW  80
0622E:  MOVWF  xD3
06230:  CLRF   xD8
06232:  CLRF   xD7
06234:  CLRF   xDA
06236:  CLRF   xD9
06238:  CLRF   xDB
0623A:  CLRF   xDC
0623C:  CLRF   xDD
0623E:  CLRF   xDE
06240:  MOVLB  4
06242:  BCF    x2F.6
06244:  BCF    x2F.7
06246:  MOVLB  5
06248:  CLRF   xE0
0624A:  CLRF   xDF
0624C:  CLRF   xE1
0624E:  CLRF   xE2
06250:  CLRF   xE6
06252:  CLRF   xE5
06254:  CLRF   xE4
06256:  CLRF   xE3
06258:  CLRF   xEA
0625A:  CLRF   xE9
0625C:  CLRF   xE8
0625E:  CLRF   xE7
06260:  MOVF   FC1,W
06262:  ANDLW  C0
06264:  IORLW  0F
06266:  MOVWF  FC1
06268:  MOVLW  07
0626A:  MOVWF  FB4
0626C:  MOVLB  4
0626E:  CLRF   x2B
06270:  CLRF   x2C
06272:  MOVLW  4A
06274:  MOVWF  x30
06276:  MOVLW  50
06278:  MOVWF  x31
0627A:  MOVLW  20
0627C:  MOVWF  x32
0627E:  MOVLW  49
06280:  MOVWF  x33
06282:  MOVLW  6E
06284:  MOVWF  x34
06286:  MOVLW  67
06288:  MOVWF  x35
0628A:  MOVLW  6C
0628C:  MOVWF  x36
0628E:  MOVLW  6F
06290:  MOVWF  x37
06292:  MOVLW  62
06294:  MOVWF  x38
06296:  MOVLW  61
06298:  MOVWF  x39
0629A:  MOVLW  6C
0629C:  MOVWF  x3A
0629E:  CLRF   x3B
062A0:  MOVLW  43
062A2:  MOVWF  x3C
062A4:  MOVLW  61
062A6:  MOVWF  x3D
062A8:  MOVLW  62
062AA:  MOVWF  x3E
062AC:  MOVLW  69
062AE:  MOVWF  x3F
062B0:  MOVLW  6E
062B2:  MOVWF  x40
062B4:  MOVLW  61
062B6:  MOVWF  x41
062B8:  MOVLW  20
062BA:  MOVWF  x42
062BC:  MOVLW  46
062BE:  MOVWF  x43
062C0:  MOVLW  6C
062C2:  MOVWF  x44
062C4:  MOVLW  75
062C6:  MOVWF  x45
062C8:  MOVLW  6A
062CA:  MOVWF  x46
062CC:  MOVLW  6F
062CE:  MOVWF  x47
062D0:  MOVLW  20
062D2:  MOVWF  x48
062D4:  MOVLW  4C
062D6:  MOVWF  x49
062D8:  MOVLW  61
062DA:  MOVWF  x4A
062DC:  MOVLW  6D
062DE:  MOVWF  x4B
062E0:  MOVLW  69
062E2:  MOVWF  x4C
062E4:  MOVLW  6E
062E6:  MOVWF  x4D
062E8:  MOVLW  61
062EA:  MOVWF  x4E
062EC:  MOVLW  72
062EE:  MOVWF  x4F
062F0:  CLRF   x50
062F2:  MOVLW  3A
062F4:  MOVWF  x51
062F6:  CLRF   x52
062F8:  MOVLW  20
062FA:  MOVWF  x53
062FC:  MOVWF  x54
062FE:  MOVWF  x55
06300:  MOVLW  50
06302:  MOVWF  x56
06304:  MOVLW  43
06306:  MOVWF  x57
06308:  MOVLW  52
0630A:  MOVWF  x58
0630C:  CLRF   x59
0630E:  MOVLW  54
06310:  MOVWF  x5A
06312:  MOVLW  69
06314:  MOVWF  x5B
06316:  MOVLW  65
06318:  MOVWF  x5C
0631A:  MOVLW  6D
0631C:  MOVWF  x5D
0631E:  MOVLW  70
06320:  MOVWF  x5E
06322:  MOVLW  6F
06324:  MOVWF  x5F
06326:  MOVLW  20
06328:  MOVWF  x60
0632A:  MOVLW  64
0632C:  MOVWF  x61
0632E:  MOVLW  65
06330:  MOVWF  x62
06332:  MOVLW  20
06334:  MOVWF  x63
06336:  MOVLW  50
06338:  MOVWF  x64
0633A:  MOVLW  75
0633C:  MOVWF  x65
0633E:  MOVLW  72
06340:  MOVWF  x66
06342:  MOVLW  67
06344:  MOVWF  x67
06346:  MOVLW  61
06348:  MOVWF  x68
0634A:  CLRF   x69
0634C:  MOVLW  55
0634E:  MOVWF  x6A
06350:  MOVLW  56
06352:  MOVWF  x6B
06354:  CLRF   x6C
06356:  MOVWF  x6D
06358:  MOVLW  65
0635A:  MOVWF  x6E
0635C:  MOVLW  6C
0635E:  MOVWF  x6F
06360:  MOVLW  3A
06362:  MOVWF  x70
06364:  CLRF   x71
06366:  MOVLW  54
06368:  MOVWF  x72
0636A:  MOVLW  3A
0636C:  MOVWF  x73
0636E:  CLRF   x74
06370:  MOVLW  46
06372:  MOVWF  x75
06374:  MOVLW  61
06376:  MOVWF  x76
06378:  MOVLW  62
0637A:  MOVWF  x77
0637C:  MOVLW  72
0637E:  MOVWF  x78
06380:  MOVLW  69
06382:  MOVWF  x79
06384:  MOVLW  63
06386:  MOVWF  x7A
06388:  MOVLW  61
0638A:  MOVWF  x7B
0638C:  MOVLW  3A
0638E:  MOVWF  x7C
06390:  MOVLW  32
06392:  MOVWF  x7D
06394:  MOVLW  30
06396:  MOVWF  x7E
06398:  MOVLW  38
0639A:  MOVWF  x7F
0639C:  MOVLW  2E
0639E:  MOVWF  x80
063A0:  MOVLW  30
063A2:  MOVWF  x81
063A4:  CLRF   x82
063A6:  MOVLW  41
063A8:  MOVWF  x83
063AA:  MOVLW  63
063AC:  MOVWF  x84
063AE:  MOVLW  74
063B0:  MOVWF  x85
063B2:  MOVLW  75
063B4:  MOVWF  x86
063B6:  MOVLW  61
063B8:  MOVWF  x87
063BA:  MOVLW  6C
063BC:  MOVWF  x88
063BE:  MOVLW  3A
063C0:  MOVWF  x89
063C2:  CLRF   x8A
063C4:  MOVLW  41
063C6:  MOVWF  x8B
063C8:  MOVLW  6A
063CA:  MOVWF  x8C
063CC:  MOVLW  75
063CE:  MOVWF  x8D
063D0:  MOVLW  73
063D2:  MOVWF  x8E
063D4:  MOVLW  74
063D6:  MOVWF  x8F
063D8:  MOVLW  65
063DA:  MOVWF  x90
063DC:  MOVLW  3A
063DE:  MOVWF  x91
063E0:  CLRF   x92
063E2:  MOVLW  46
063E4:  MOVWF  x93
063E6:  MOVLW  69
063E8:  MOVWF  x94
063EA:  MOVLW  6C
063EC:  MOVWF  x95
063EE:  MOVLW  74
063F0:  MOVWF  x96
063F2:  MOVLW  72
063F4:  MOVWF  x97
063F6:  MOVLW  6F
063F8:  MOVWF  x98
063FA:  MOVLW  3A
063FC:  MOVWF  x99
063FE:  CLRF   x9A
06400:  MOVLW  46
06402:  MOVWF  x9B
06404:  MOVLW  61
06406:  MOVWF  x9C
06408:  MOVLW  62
0640A:  MOVWF  x9D
0640C:  MOVLW  72
0640E:  MOVWF  x9E
06410:  MOVLW  69
06412:  MOVWF  x9F
06414:  MOVLW  63
06416:  MOVWF  xA0
06418:  MOVLW  61
0641A:  MOVWF  xA1
0641C:  MOVLW  3A
0641E:  MOVWF  xA2
06420:  MOVLW  32
06422:  MOVWF  xA3
06424:  MOVLW  34
06426:  MOVWF  xA4
06428:  MOVLW  30
0642A:  MOVWF  xA5
0642C:  MOVLW  2E
0642E:  MOVWF  xA6
06430:  MOVLW  30
06432:  MOVWF  xA7
06434:  CLRF   xA8
06436:  MOVLW  21
06438:  MOVWF  xA9
0643A:  MOVLW  46
0643C:  MOVWF  xAA
0643E:  MOVLW  69
06440:  MOVWF  xAB
06442:  MOVLW  6C
06444:  MOVWF  xAC
06446:  MOVLW  74
06448:  MOVWF  xAD
0644A:  MOVLW  72
0644C:  MOVWF  xAE
0644E:  MOVLW  6F
06450:  MOVWF  xAF
06452:  MOVLW  20
06454:  MOVWF  xB0
06456:  MOVLW  53
06458:  MOVWF  xB1
0645A:  MOVLW  61
0645C:  MOVWF  xB2
0645E:  MOVLW  74
06460:  MOVWF  xB3
06462:  MOVLW  75
06464:  MOVWF  xB4
06466:  MOVLW  72
06468:  MOVWF  xB5
0646A:  MOVLW  61
0646C:  MOVWF  xB6
0646E:  MOVLW  64
06470:  MOVWF  xB7
06472:  MOVLW  6F
06474:  MOVWF  xB8
06476:  MOVLW  21
06478:  MOVWF  xB9
0647A:  CLRF   xBA
0647C:  MOVLW  54
0647E:  MOVWF  xBB
06480:  MOVLW  65
06482:  MOVWF  xBC
06484:  MOVLW  6D
06486:  MOVWF  xBD
06488:  MOVLW  70
0648A:  MOVWF  xBE
0648C:  MOVLW  6F
0648E:  MOVWF  xBF
06490:  MOVLW  20
06492:  MOVWF  xC0
06494:  MOVLW  55
06496:  MOVWF  xC1
06498:  MOVLW  56
0649A:  MOVWF  xC2
0649C:  MOVLW  3A
0649E:  MOVWF  xC3
064A0:  CLRF   xC4
064A2:  MOVLW  55
064A4:  MOVWF  xC5
064A6:  MOVLW  56
064A8:  MOVWF  xC6
064AA:  MOVLW  4C
064AC:  MOVWF  xC7
064AE:  MOVLW  69
064B0:  MOVWF  xC8
064B2:  MOVLW  66
064B4:  MOVWF  xC9
064B6:  MOVLW  65
064B8:  MOVWF  xCA
064BA:  MOVLW  3A
064BC:  MOVWF  xCB
064BE:  CLRF   xCC
064C0:  CLRF   xF3
064C2:  CLRF   xF4
064C4:  CLRF   xF5
064C6:  CLRF   xF6
064C8:  MOVLW  09
064CA:  MOVWF  xF7
064CC:  CLRF   xF8
064CE:  CLRF   xF9
064D0:  CLRF   xFA
064D2:  MOVWF  xFB
064D4:  CLRF   xFC
064D6:  CLRF   xFD
064D8:  CLRF   xFE
064DA:  CLRF   xFF
064DC:  MOVLB  5
064DE:  CLRF   x00
064E0:  CLRF   x01
064E2:  CLRF   x02
064E4:  CLRF   x03
064E6:  CLRF   x04
064E8:  CLRF   x05
064EA:  CLRF   x06
064EC:  CLRF   x07
064EE:  CLRF   x08
064F0:  CLRF   x09
064F2:  CLRF   x0A
064F4:  CLRF   x0B
064F6:  CLRF   x0C
064F8:  CLRF   x0D
064FA:  CLRF   x0E
064FC:  CLRF   x0F
064FE:  CLRF   x10
06500:  CLRF   x11
06502:  CLRF   x12
06504:  CLRF   x13
06506:  CLRF   x14
06508:  CLRF   x15
0650A:  CLRF   x16
0650C:  CLRF   x5F
0650E:  CLRF   x60
06510:  CLRF   x61
06512:  CLRF   x62
06514:  CLRF   x63
06516:  CLRF   x64
06518:  CLRF   x65
0651A:  CLRF   x66
0651C:  CLRF   x67
0651E:  CLRF   x68
06520:  CLRF   x69
06522:  CLRF   x6A
06524:  CLRF   x6B
06526:  CLRF   x6C
06528:  CLRF   x6D
0652A:  CLRF   x6E
0652C:  CLRF   x6F
0652E:  CLRF   x70
06530:  CLRF   x71
06532:  CLRF   x72
06534:  CLRF   x73
06536:  CLRF   x74
06538:  CLRF   x75
0653A:  CLRF   x76
0653C:  CLRF   x77
0653E:  CLRF   x78
06540:  CLRF   x79
06542:  CLRF   x7A
06544:  CLRF   x7B
06546:  CLRF   x7C
06548:  CLRF   x7D
0654A:  CLRF   x7E
0654C:  CLRF   x7F
0654E:  CLRF   x80
06550:  CLRF   x81
06552:  CLRF   x82
06554:  CLRF   x83
06556:  CLRF   x84
06558:  CLRF   x85
0655A:  CLRF   x86
0655C:  CLRF   x87
0655E:  CLRF   x88
06560:  CLRF   x89
06562:  CLRF   x8A
06564:  CLRF   x8B
06566:  CLRF   x8C
06568:  CLRF   x8D
0656A:  CLRF   x8E
0656C:  CLRF   x8F
0656E:  CLRF   x90
06570:  CLRF   x91
06572:  CLRF   x92
06574:  CLRF   x93
06576:  CLRF   x94
06578:  CLRF   x95
0657A:  CLRF   x96
0657C:  CLRF   x97
0657E:  CLRF   x98
06580:  CLRF   x99
06582:  CLRF   x9A
06584:  CLRF   x9B
06586:  CLRF   x9C
06588:  CLRF   x9D
0658A:  CLRF   x9E
0658C:  CLRF   x9F
0658E:  CLRF   xA0
06590:  CLRF   xA1
06592:  CLRF   xA2
06594:  CLRF   xA3
06596:  CLRF   xA4
06598:  CLRF   xA5
0659A:  CLRF   xA6
0659C:  CLRF   xA7
0659E:  CLRF   xA8
065A0:  CLRF   xA9
065A2:  CLRF   xAA
065A4:  CLRF   xAB
065A6:  CLRF   xAC
065A8:  CLRF   xAD
065AA:  CLRF   xAE
065AC:  CLRF   xAF
065AE:  CLRF   xB0
065B0:  CLRF   xB1
065B2:  CLRF   xB2
065B4:  CLRF   xB3
065B6:  CLRF   xB4
065B8:  CLRF   xB5
065BA:  CLRF   xB6
065BC:  CLRF   xB7
065BE:  CLRF   xB8
065C0:  CLRF   xB9
065C2:  CLRF   xBA
065C4:  CLRF   xBB
065C6:  CLRF   xBC
065C8:  CLRF   xBD
065CA:  CLRF   xBE
....................    delay_ms(1000); 
065CC:  MOVLW  04
065CE:  MOVWF  xEB
065D0:  MOVLW  FA
065D2:  MOVWF  xFF
065D4:  MOVLB  0
065D6:  CALL   154C
065DA:  MOVLB  5
065DC:  DECFSZ xEB,F
065DE:  BRA    65D0
....................    Cruce=OFF; 
065E0:  MOVLB  4
065E2:  BCF    x2F.6
....................    VelocidadMotor(0); 
065E4:  MOVLB  5
065E6:  CLRF   xEB
065E8:  MOVLB  0
065EA:  CALL   1574
....................    Tcruce2=83; 
065EE:  MOVLB  5
065F0:  CLRF   xEA
065F2:  CLRF   xE9
065F4:  MOVLW  26
065F6:  MOVWF  xE8
065F8:  MOVLW  85
065FA:  MOVWF  xE7
....................    Tcruce=8300; 
065FC:  CLRF   xE6
065FE:  MOVLW  B0
06600:  MOVWF  xE5
06602:  MOVLW  01
06604:  MOVWF  xE4
06606:  MOVLW  8C
06608:  MOVWF  xE3
....................    Motor_off; 
0660A:  BCF    F8B.2
0660C:  BCF    F94.2
....................    //setup_timer_1(T1_INTERNAL|T1_DIV_BY_1); 
....................    //enable_interrupts(INT_TIMER1); 
....................    enable_interrupts(INT_EXT_L2H); 
0660E:  BSF    FF2.4
06610:  BSF    FF1.6
....................    setup_adc_ports(AN0_TO_AN1); 
06612:  MOVF   FC1,W
06614:  ANDLW  C0
06616:  IORLW  0D
06618:  MOVWF  FC1
....................    setup_adc(ADC_CLOCK_DIV_32 ); 
0661A:  MOVF   FC0,W
0661C:  ANDLW  C0
0661E:  IORLW  02
06620:  MOVWF  FC0
06622:  BSF    FC0.7
06624:  BSF    FC2.0
....................    enable_interrupts(global);   
06626:  MOVLW  C0
06628:  IORWF  FF2,F
....................    VelocidadMotor(0); 
0662A:  CLRF   xEB
0662C:  MOVLB  0
0662E:  CALL   1574
....................    Motor_off; 
06632:  BCF    F8B.2
06634:  BCF    F94.2
.................... //-------Inicio de Cabina-------------------------------------------------------------------------// 
....................    Display_on; 
06636:  BSF    F8A.1
06638:  BCF    F93.1
....................    glcd_init(ON);             //Inicializa la glcd 
0663A:  MOVLW  01
0663C:  MOVLB  5
0663E:  MOVWF  xEB
06640:  MOVLB  0
06642:  CALL   173E
....................    glcd_fillScreen(OFF);      //Limpia la pantalla 
06646:  MOVLB  5
06648:  CLRF   xF3
0664A:  MOVLB  0
0664C:  CALL   162C
....................    glcd_text57(0, 0, JP, 2, ON);glcd_text57(5, 20, Cabina, 1, ON);glcd_text57(10, 40, Clase, 2, ON);              
06650:  MOVLB  6
06652:  CLRF   x04
06654:  CLRF   x05
06656:  MOVLW  04
06658:  MOVWF  x07
0665A:  MOVLW  30
0665C:  MOVWF  x06
0665E:  MOVLW  02
06660:  MOVWF  x08
06662:  MOVLW  01
06664:  MOVWF  x09
06666:  MOVLB  0
06668:  CALL   18A2
0666C:  MOVLW  05
0666E:  MOVLB  6
06670:  MOVWF  x04
06672:  MOVLW  14
06674:  MOVWF  x05
06676:  MOVLW  04
06678:  MOVWF  x07
0667A:  MOVLW  3C
0667C:  MOVWF  x06
0667E:  MOVLW  01
06680:  MOVWF  x08
06682:  MOVWF  x09
06684:  MOVLB  0
06686:  CALL   18A2
0668A:  MOVLW  0A
0668C:  MOVLB  6
0668E:  MOVWF  x04
06690:  MOVLW  28
06692:  MOVWF  x05
06694:  MOVLW  04
06696:  MOVWF  x07
06698:  MOVLW  53
0669A:  MOVWF  x06
0669C:  MOVLW  02
0669E:  MOVWF  x08
066A0:  MOVLW  01
066A2:  MOVWF  x09
066A4:  MOVLB  0
066A6:  CALL   18A2
....................    glcd_update(); 
066AA:  CALL   1686
....................    delay_ms(3000); 
066AE:  MOVLW  0C
066B0:  MOVLB  5
066B2:  MOVWF  xEB
066B4:  MOVLW  FA
066B6:  MOVWF  xFF
066B8:  MOVLB  0
066BA:  CALL   154C
066BE:  MOVLB  5
066C0:  DECFSZ xEB,F
066C2:  BRA    66B4
....................                         
....................    glcd_fillScreen(OFF);      //Limpia la pantalla 
066C4:  CLRF   xF3
066C6:  MOVLB  0
066C8:  CALL   162C
....................    Menu=0; 
066CC:  MOVLB  4
066CE:  CLRF   xCD
....................    LuzBlanca_off;Alarma_off; 
066D0:  BCF    F8B.0
066D2:  BCF    F94.0
066D4:  BCF    F8B.7
066D6:  BCF    F94.7
.................... //-------Inicio de Cabina-------------------------------------------------------------------------// 
....................    VelocidadMotor(0); 
066D8:  MOVLB  5
066DA:  CLRF   xEB
066DC:  MOVLB  0
066DE:  CALL   1574
....................    Motor_off; 
066E2:  BCF    F8B.2
066E4:  BCF    F94.2
....................    LeeEEPROM(); // Lectura de variables almacenadas en la EEPROM  
066E6:  GOTO   1E66
....................    LimitaValores(); 
066EA:  GOTO   2650
....................    //Menu=2; 
....................    while(true){  
....................    glcd_update(); 
066EE:  CALL   1686
.................... //**Actualizacin de Lectura de Sensores**//    
....................    if(Lectura==1){ 
066F2:  MOVLB  4
066F4:  BTFSS  x2F.4
066F6:  BRA    6758
....................       Lectura=0; 
066F8:  BCF    x2F.4
....................       InFlow=LeerFlujoInFlow(8); 
066FA:  MOVLW  08
066FC:  MOVLB  5
066FE:  MOVWF  xEB
06700:  MOVLB  0
06702:  GOTO   42BA
06706:  MOVFF  03,51A
0670A:  MOVFF  02,519
0670E:  MOVFF  01,518
06712:  MOVFF  00,517
....................       Temperatura=leeTemperatura(5); 
06716:  MOVLW  05
06718:  MOVLB  5
0671A:  MOVWF  xEB
0671C:  MOVLB  0
0671E:  GOTO   4688
06722:  MOVFF  03,61F
06726:  MOVFF  02,61E
0672A:  MOVFF  01,61D
0672E:  MOVFF  00,61C
06732:  CALL   3040
06736:  MOVFF  01,5DE
....................       Filtro_DownFlow=Leer_Sensor_Presion(8); 
0673A:  MOVLW  08
0673C:  MOVLB  5
0673E:  MOVWF  xEB
06740:  MOVLB  0
06742:  GOTO   4858
06746:  MOVFF  03,522
0674A:  MOVFF  02,521
0674E:  MOVFF  01,520
06752:  MOVFF  00,51F
06756:  MOVLB  4
....................    } 
.................... //----------------------------------------// 
....................  
.................... //**Contador de Tiempo de Trabajo del filtro**// 
....................    if(minutos_trabajo>=3600){ // Tiempo de Trabajo 
06758:  MOVF   xE8,W
0675A:  SUBLW  0D
0675C:  BTFSC  FD8.0
0675E:  BRA    6906
06760:  XORLW  FF
06762:  BNZ   676C
06764:  MOVF   xE7,W
06766:  SUBLW  0F
06768:  BTFSC  FD8.0
0676A:  BRA    6906
....................       minutos_trabajo=0; //Minutos Trabajo realmente son segundos. 
0676C:  CLRF   xE8
0676E:  CLRF   xE7
....................       write_eeprom(33,make8(minutos_trabajo,0)); 
06770:  MOVFF  4E7,5EB
06774:  CLRF   FAA
06776:  MOVLW  21
06778:  MOVWF  FA9
0677A:  MOVFF  5EB,FA8
0677E:  BCF    FA6.6
06780:  BCF    FA6.7
06782:  BSF    FA6.2
06784:  MOVF   FF2,W
06786:  MOVWF  00
06788:  BCF    FF2.7
0678A:  MOVLB  F
0678C:  MOVLW  55
0678E:  MOVWF  FA7
06790:  MOVLW  AA
06792:  MOVWF  FA7
06794:  BSF    FA6.1
06796:  BTFSC  FA6.1
06798:  BRA    6796
0679A:  BCF    FA6.2
0679C:  MOVF   00,W
0679E:  IORWF  FF2,F
....................       delay_ms(20); 
067A0:  MOVLW  14
067A2:  MOVLB  5
067A4:  MOVWF  xFF
067A6:  MOVLB  0
067A8:  CALL   154C
....................       write_eeprom(34,make8(minutos_trabajo,1)); 
067AC:  MOVFF  4E8,5EB
067B0:  CLRF   FAA
067B2:  MOVLW  22
067B4:  MOVWF  FA9
067B6:  MOVFF  5EB,FA8
067BA:  BCF    FA6.6
067BC:  BCF    FA6.7
067BE:  BSF    FA6.2
067C0:  MOVF   FF2,W
067C2:  MOVWF  00
067C4:  BCF    FF2.7
067C6:  MOVLB  F
067C8:  MOVLW  55
067CA:  MOVWF  FA7
067CC:  MOVLW  AA
067CE:  MOVWF  FA7
067D0:  BSF    FA6.1
067D2:  BTFSC  FA6.1
067D4:  BRA    67D2
067D6:  BCF    FA6.2
067D8:  MOVF   00,W
067DA:  IORWF  FF2,F
....................       delay_ms(20); 
067DC:  MOVLW  14
067DE:  MOVLB  5
067E0:  MOVWF  xFF
067E2:  MOVLB  0
067E4:  CALL   154C
....................       Ttrabajo[0]++; 
067E8:  MOVLB  5
067EA:  INCF   x0B,F
....................       if(Ttrabajo[0]>9){ 
067EC:  BTFSC  x0B.7
067EE:  BRA    67FA
067F0:  MOVF   x0B,W
067F2:  SUBLW  09
067F4:  BC    67FA
....................          Ttrabajo[0]=0; 
067F6:  CLRF   x0B
....................          Ttrabajo[1]++; 
067F8:  INCF   x0C,F
....................       } 
....................       if(Ttrabajo[1]>9){ 
067FA:  BTFSC  x0C.7
067FC:  BRA    6808
067FE:  MOVF   x0C,W
06800:  SUBLW  09
06802:  BC    6808
....................          Ttrabajo[1]=0; 
06804:  CLRF   x0C
....................          Ttrabajo[2]++; 
06806:  INCF   x0D,F
....................       } 
....................       if(Ttrabajo[2]>9){ 
06808:  BTFSC  x0D.7
0680A:  BRA    6816
0680C:  MOVF   x0D,W
0680E:  SUBLW  09
06810:  BC    6816
....................          Ttrabajo[2]=0; 
06812:  CLRF   x0D
....................          Ttrabajo[3]++; 
06814:  INCF   x0E,F
....................       } 
....................       if(Ttrabajo[3]>9){ 
06816:  BTFSC  x0E.7
06818:  BRA    6822
0681A:  MOVF   x0E,W
0681C:  SUBLW  09
0681E:  BC    6822
....................          Ttrabajo[3]=0; 
06820:  CLRF   x0E
....................       } 
....................       write_eeprom(16,Ttrabajo[0]); 
06822:  CLRF   FAA
06824:  MOVLW  10
06826:  MOVWF  FA9
06828:  MOVFF  50B,FA8
0682C:  BCF    FA6.6
0682E:  BCF    FA6.7
06830:  BSF    FA6.2
06832:  MOVF   FF2,W
06834:  MOVWF  00
06836:  BCF    FF2.7
06838:  MOVLB  F
0683A:  MOVLW  55
0683C:  MOVWF  FA7
0683E:  MOVLW  AA
06840:  MOVWF  FA7
06842:  BSF    FA6.1
06844:  BTFSC  FA6.1
06846:  BRA    6844
06848:  BCF    FA6.2
0684A:  MOVF   00,W
0684C:  IORWF  FF2,F
....................       delay_ms(20); 
0684E:  MOVLW  14
06850:  MOVLB  5
06852:  MOVWF  xFF
06854:  MOVLB  0
06856:  CALL   154C
....................       write_eeprom(17,Ttrabajo[1]); 
0685A:  CLRF   FAA
0685C:  MOVLW  11
0685E:  MOVWF  FA9
06860:  MOVFF  50C,FA8
06864:  BCF    FA6.6
06866:  BCF    FA6.7
06868:  BSF    FA6.2
0686A:  MOVF   FF2,W
0686C:  MOVWF  00
0686E:  BCF    FF2.7
06870:  MOVLB  F
06872:  MOVLW  55
06874:  MOVWF  FA7
06876:  MOVLW  AA
06878:  MOVWF  FA7
0687A:  BSF    FA6.1
0687C:  BTFSC  FA6.1
0687E:  BRA    687C
06880:  BCF    FA6.2
06882:  MOVF   00,W
06884:  IORWF  FF2,F
....................       delay_ms(20); 
06886:  MOVLW  14
06888:  MOVLB  5
0688A:  MOVWF  xFF
0688C:  MOVLB  0
0688E:  CALL   154C
....................       write_eeprom(18,Ttrabajo[2]); 
06892:  CLRF   FAA
06894:  MOVLW  12
06896:  MOVWF  FA9
06898:  MOVFF  50D,FA8
0689C:  BCF    FA6.6
0689E:  BCF    FA6.7
068A0:  BSF    FA6.2
068A2:  MOVF   FF2,W
068A4:  MOVWF  00
068A6:  BCF    FF2.7
068A8:  MOVLB  F
068AA:  MOVLW  55
068AC:  MOVWF  FA7
068AE:  MOVLW  AA
068B0:  MOVWF  FA7
068B2:  BSF    FA6.1
068B4:  BTFSC  FA6.1
068B6:  BRA    68B4
068B8:  BCF    FA6.2
068BA:  MOVF   00,W
068BC:  IORWF  FF2,F
....................       delay_ms(20); 
068BE:  MOVLW  14
068C0:  MOVLB  5
068C2:  MOVWF  xFF
068C4:  MOVLB  0
068C6:  CALL   154C
....................       write_eeprom(19,Ttrabajo[3]); 
068CA:  CLRF   FAA
068CC:  MOVLW  13
068CE:  MOVWF  FA9
068D0:  MOVFF  50E,FA8
068D4:  BCF    FA6.6
068D6:  BCF    FA6.7
068D8:  BSF    FA6.2
068DA:  MOVF   FF2,W
068DC:  MOVWF  00
068DE:  BCF    FF2.7
068E0:  MOVLB  F
068E2:  MOVLW  55
068E4:  MOVWF  FA7
068E6:  MOVLW  AA
068E8:  MOVWF  FA7
068EA:  BSF    FA6.1
068EC:  BTFSC  FA6.1
068EE:  BRA    68EC
068F0:  BCF    FA6.2
068F2:  MOVF   00,W
068F4:  IORWF  FF2,F
....................       delay_ms(20); 
068F6:  MOVLW  14
068F8:  MOVLB  5
068FA:  MOVWF  xFF
068FC:  MOVLB  0
068FE:  CALL   154C
....................    }else if(minutos_trabajo==900 || minutos_trabajo==1800 || minutos_trabajo==2700 ){ 
06902:  BRA    69A2
06904:  MOVLB  4
06906:  MOVF   xE7,W
06908:  SUBLW  84
0690A:  BNZ   6912
0690C:  MOVF   xE8,W
0690E:  SUBLW  03
06910:  BZ    692A
06912:  MOVF   xE7,W
06914:  SUBLW  08
06916:  BNZ   691E
06918:  MOVF   xE8,W
0691A:  SUBLW  07
0691C:  BZ    692A
0691E:  MOVF   xE7,W
06920:  SUBLW  8C
06922:  BNZ   69A4
06924:  MOVF   xE8,W
06926:  SUBLW  0A
06928:  BNZ   69A4
....................       write_eeprom(33,make8(minutos_trabajo,0)); 
0692A:  MOVFF  4E7,5EB
0692E:  CLRF   FAA
06930:  MOVLW  21
06932:  MOVWF  FA9
06934:  MOVFF  5EB,FA8
06938:  BCF    FA6.6
0693A:  BCF    FA6.7
0693C:  BSF    FA6.2
0693E:  MOVF   FF2,W
06940:  MOVWF  00
06942:  BCF    FF2.7
06944:  MOVLB  F
06946:  MOVLW  55
06948:  MOVWF  FA7
0694A:  MOVLW  AA
0694C:  MOVWF  FA7
0694E:  BSF    FA6.1
06950:  BTFSC  FA6.1
06952:  BRA    6950
06954:  BCF    FA6.2
06956:  MOVF   00,W
06958:  IORWF  FF2,F
....................       delay_ms(20); 
0695A:  MOVLW  14
0695C:  MOVLB  5
0695E:  MOVWF  xFF
06960:  MOVLB  0
06962:  CALL   154C
....................       write_eeprom(34,make8(minutos_trabajo,1)); 
06966:  MOVFF  4E8,5EB
0696A:  CLRF   FAA
0696C:  MOVLW  22
0696E:  MOVWF  FA9
06970:  MOVFF  5EB,FA8
06974:  BCF    FA6.6
06976:  BCF    FA6.7
06978:  BSF    FA6.2
0697A:  MOVF   FF2,W
0697C:  MOVWF  00
0697E:  BCF    FF2.7
06980:  MOVLB  F
06982:  MOVLW  55
06984:  MOVWF  FA7
06986:  MOVLW  AA
06988:  MOVWF  FA7
0698A:  BSF    FA6.1
0698C:  BTFSC  FA6.1
0698E:  BRA    698C
06990:  BCF    FA6.2
06992:  MOVF   00,W
06994:  IORWF  FF2,F
....................       delay_ms(20); 
06996:  MOVLW  14
06998:  MOVLB  5
0699A:  MOVWF  xFF
0699C:  MOVLB  0
0699E:  CALL   154C
069A2:  MOVLB  4
....................    } 
.................... //----------------------------------------//       
....................  
.................... //**Contador de Tiempo de Trabajo de UV**// 
....................          if(segundos_uv>=60){ 
069A4:  MOVF   xE2,F
069A6:  BNZ   69AE
069A8:  MOVF   xE1,W
069AA:  SUBLW  3B
069AC:  BC    69B8
....................             segundos_uv=0; 
069AE:  CLRF   xE2
069B0:  CLRF   xE1
....................             minutos_uv++; 
069B2:  INCF   xE5,F
069B4:  BTFSC  FD8.2
069B6:  INCF   xE6,F
....................          } 
....................           
....................          if(minutos_uv>=60){ 
069B8:  MOVF   xE6,F
069BA:  BNZ   69C4
069BC:  MOVF   xE5,W
069BE:  SUBLW  3B
069C0:  BTFSC  FD8.0
069C2:  BRA    6B20
....................             minutos_uv=0; 
069C4:  CLRF   xE6
069C6:  CLRF   xE5
....................             Tuv[0]++; 
069C8:  INCF   xFF,F
....................             if(Tuv[0]>9){ 
069CA:  BTFSC  xFF.7
069CC:  BRA    69DA
069CE:  MOVF   xFF,W
069D0:  SUBLW  09
069D2:  BC    69DA
....................                Tuv[0]=0; 
069D4:  CLRF   xFF
....................                Tuv[1]++; 
069D6:  MOVLB  5
069D8:  INCF   x00,F
....................             } 
....................             if(Tuv[1]>9){ 
069DA:  MOVLB  5
069DC:  BTFSC  x00.7
069DE:  BRA    69EA
069E0:  MOVF   x00,W
069E2:  SUBLW  09
069E4:  BC    69EA
....................                Tuv[1]=0; 
069E6:  CLRF   x00
....................                Tuv[2]++; 
069E8:  INCF   x01,F
....................             } 
....................             if(Tuv[2]>9){ 
069EA:  BTFSC  x01.7
069EC:  BRA    69F8
069EE:  MOVF   x01,W
069F0:  SUBLW  09
069F2:  BC    69F8
....................                Tuv[2]=0; 
069F4:  CLRF   x01
....................                Tuv[3]++; 
069F6:  INCF   x02,F
....................             } 
....................             if(Tuv[3]>9){ 
069F8:  BTFSC  x02.7
069FA:  BRA    6A04
069FC:  MOVF   x02,W
069FE:  SUBLW  09
06A00:  BC    6A04
....................                Tuv[3]=0; 
06A02:  CLRF   x02
....................             } 
....................             write_eeprom(31,minutos_uv); 
06A04:  CLRF   FAA
06A06:  MOVLW  1F
06A08:  MOVWF  FA9
06A0A:  MOVFF  4E5,FA8
06A0E:  BCF    FA6.6
06A10:  BCF    FA6.7
06A12:  BSF    FA6.2
06A14:  MOVF   FF2,W
06A16:  MOVWF  00
06A18:  BCF    FF2.7
06A1A:  MOVLB  F
06A1C:  MOVLW  55
06A1E:  MOVWF  FA7
06A20:  MOVLW  AA
06A22:  MOVWF  FA7
06A24:  BSF    FA6.1
06A26:  BTFSC  FA6.1
06A28:  BRA    6A26
06A2A:  BCF    FA6.2
06A2C:  MOVF   00,W
06A2E:  IORWF  FF2,F
....................             delay_ms(20); 
06A30:  MOVLW  14
06A32:  MOVLB  5
06A34:  MOVWF  xFF
06A36:  MOVLB  0
06A38:  CALL   154C
....................             write_eeprom(12,Tuv[0]); 
06A3C:  CLRF   FAA
06A3E:  MOVLW  0C
06A40:  MOVWF  FA9
06A42:  MOVFF  4FF,FA8
06A46:  BCF    FA6.6
06A48:  BCF    FA6.7
06A4A:  BSF    FA6.2
06A4C:  MOVF   FF2,W
06A4E:  MOVWF  00
06A50:  BCF    FF2.7
06A52:  MOVLB  F
06A54:  MOVLW  55
06A56:  MOVWF  FA7
06A58:  MOVLW  AA
06A5A:  MOVWF  FA7
06A5C:  BSF    FA6.1
06A5E:  BTFSC  FA6.1
06A60:  BRA    6A5E
06A62:  BCF    FA6.2
06A64:  MOVF   00,W
06A66:  IORWF  FF2,F
....................             delay_ms(20); 
06A68:  MOVLW  14
06A6A:  MOVLB  5
06A6C:  MOVWF  xFF
06A6E:  MOVLB  0
06A70:  CALL   154C
....................             write_eeprom(13,Tuv[1]); 
06A74:  CLRF   FAA
06A76:  MOVLW  0D
06A78:  MOVWF  FA9
06A7A:  MOVFF  500,FA8
06A7E:  BCF    FA6.6
06A80:  BCF    FA6.7
06A82:  BSF    FA6.2
06A84:  MOVF   FF2,W
06A86:  MOVWF  00
06A88:  BCF    FF2.7
06A8A:  MOVLB  F
06A8C:  MOVLW  55
06A8E:  MOVWF  FA7
06A90:  MOVLW  AA
06A92:  MOVWF  FA7
06A94:  BSF    FA6.1
06A96:  BTFSC  FA6.1
06A98:  BRA    6A96
06A9A:  BCF    FA6.2
06A9C:  MOVF   00,W
06A9E:  IORWF  FF2,F
....................             delay_ms(20); 
06AA0:  MOVLW  14
06AA2:  MOVLB  5
06AA4:  MOVWF  xFF
06AA6:  MOVLB  0
06AA8:  CALL   154C
....................             write_eeprom(14,Tuv[2]); 
06AAC:  CLRF   FAA
06AAE:  MOVLW  0E
06AB0:  MOVWF  FA9
06AB2:  MOVFF  501,FA8
06AB6:  BCF    FA6.6
06AB8:  BCF    FA6.7
06ABA:  BSF    FA6.2
06ABC:  MOVF   FF2,W
06ABE:  MOVWF  00
06AC0:  BCF    FF2.7
06AC2:  MOVLB  F
06AC4:  MOVLW  55
06AC6:  MOVWF  FA7
06AC8:  MOVLW  AA
06ACA:  MOVWF  FA7
06ACC:  BSF    FA6.1
06ACE:  BTFSC  FA6.1
06AD0:  BRA    6ACE
06AD2:  BCF    FA6.2
06AD4:  MOVF   00,W
06AD6:  IORWF  FF2,F
....................             delay_ms(20); 
06AD8:  MOVLW  14
06ADA:  MOVLB  5
06ADC:  MOVWF  xFF
06ADE:  MOVLB  0
06AE0:  CALL   154C
....................             write_eeprom(15,Tuv[3]); 
06AE4:  CLRF   FAA
06AE6:  MOVLW  0F
06AE8:  MOVWF  FA9
06AEA:  MOVFF  502,FA8
06AEE:  BCF    FA6.6
06AF0:  BCF    FA6.7
06AF2:  BSF    FA6.2
06AF4:  MOVF   FF2,W
06AF6:  MOVWF  00
06AF8:  BCF    FF2.7
06AFA:  MOVLB  F
06AFC:  MOVLW  55
06AFE:  MOVWF  FA7
06B00:  MOVLW  AA
06B02:  MOVWF  FA7
06B04:  BSF    FA6.1
06B06:  BTFSC  FA6.1
06B08:  BRA    6B06
06B0A:  BCF    FA6.2
06B0C:  MOVF   00,W
06B0E:  IORWF  FF2,F
....................             delay_ms(20); 
06B10:  MOVLW  14
06B12:  MOVLB  5
06B14:  MOVWF  xFF
06B16:  MOVLB  0
06B18:  CALL   154C
....................          }else if(minutos_uv==15 || minutos_uv==30 || minutos_uv==45){ 
06B1C:  BRA    6B76
06B1E:  MOVLB  4
06B20:  MOVF   xE5,W
06B22:  SUBLW  0F
06B24:  BNZ   6B2A
06B26:  MOVF   xE6,F
06B28:  BZ    6B3E
06B2A:  MOVF   xE5,W
06B2C:  SUBLW  1E
06B2E:  BNZ   6B34
06B30:  MOVF   xE6,F
06B32:  BZ    6B3E
06B34:  MOVF   xE5,W
06B36:  SUBLW  2D
06B38:  BNZ   6B78
06B3A:  MOVF   xE6,F
06B3C:  BNZ   6B78
....................             write_eeprom(31,minutos_uv); 
06B3E:  CLRF   FAA
06B40:  MOVLW  1F
06B42:  MOVWF  FA9
06B44:  MOVFF  4E5,FA8
06B48:  BCF    FA6.6
06B4A:  BCF    FA6.7
06B4C:  BSF    FA6.2
06B4E:  MOVF   FF2,W
06B50:  MOVWF  00
06B52:  BCF    FF2.7
06B54:  MOVLB  F
06B56:  MOVLW  55
06B58:  MOVWF  FA7
06B5A:  MOVLW  AA
06B5C:  MOVWF  FA7
06B5E:  BSF    FA6.1
06B60:  BTFSC  FA6.1
06B62:  BRA    6B60
06B64:  BCF    FA6.2
06B66:  MOVF   00,W
06B68:  IORWF  FF2,F
....................             delay_ms(20); 
06B6A:  MOVLW  14
06B6C:  MOVLB  5
06B6E:  MOVWF  xFF
06B70:  MOVLB  0
06B72:  CALL   154C
06B76:  MOVLB  4
....................          } 
.................... //----------------------------------------// 
....................  
....................    if(Menu!=2){// Si no esta en el menu de estados apaga la alarma 
06B78:  MOVF   xCD,W
06B7A:  SUBLW  02
06B7C:  BZ    6B86
....................       Alarma_off; 
06B7E:  BCF    F8B.7
06B80:  BCF    F94.7
....................       Alarma=10; 
06B82:  MOVLW  0A
06B84:  MOVWF  xDA
....................    } 
....................     
.................... //_-------------------------------------------------------------------------------------------------------------------------------------------------------- 
....................    if(Menu==0){ //Menu de Contrasea. 
06B86:  MOVF   xCD,F
06B88:  BNZ   6BC0
....................       while(PidePassword(0,0,1,Password[0],Password[1],Password[2],Password[3])==0){ 
06B8A:  MOVLB  5
06B8C:  CLRF   xEC
06B8E:  CLRF   xED
06B90:  MOVLW  01
06B92:  MOVWF  xEE
06B94:  MOVFF  513,5EF
06B98:  MOVFF  514,5F0
06B9C:  MOVFF  515,5F1
06BA0:  MOVFF  516,5F2
06BA4:  MOVLB  0
06BA6:  CALL   4F64
06BAA:  MOVF   01,F
06BAC:  BNZ   6BC2
....................          VelocidadMotor(0); 
06BAE:  MOVLB  5
06BB0:  CLRF   xEB
06BB2:  MOVLB  0
06BB4:  CALL   1574
....................          glcd_update(); 
06BB8:  CALL   1686
....................       }        
06BBC:  MOVLB  4
06BBE:  BRA    6B8A
06BC0:  MOVLB  0
....................    } 
.................... //_--------------------------------------------------------------------------------------------------------------------------------------------------------        
....................  
.................... //_-------------------------------------------------------------------------------------------------------------------------------------------------------- 
....................       if(Menu==1){//Menu de Purga. 
06BC2:  MOVLB  4
06BC4:  DECFSZ xCD,W
06BC6:  BRA    6E40
....................          glcd_text57(15, 1, Tiempo, 1, ON); 
06BC8:  MOVLW  0F
06BCA:  MOVLB  6
06BCC:  MOVWF  x04
06BCE:  MOVLW  01
06BD0:  MOVWF  x05
06BD2:  MOVLW  04
06BD4:  MOVWF  x07
06BD6:  MOVLW  5A
06BD8:  MOVWF  x06
06BDA:  MOVLW  01
06BDC:  MOVWF  x08
06BDE:  MOVWF  x09
06BE0:  MOVLB  0
06BE2:  CALL   18A2
....................          LuzBlanca_off;//Alarma_off; 
06BE6:  BCF    F8B.0
06BE8:  BCF    F94.0
....................          glcd_rect(9, 54, 120, 64, YES, OFF);          
06BEA:  MOVLW  09
06BEC:  MOVLB  6
06BEE:  MOVWF  x04
06BF0:  MOVLW  36
06BF2:  MOVWF  x05
06BF4:  MOVLW  78
06BF6:  MOVWF  x06
06BF8:  MOVLW  40
06BFA:  MOVWF  x07
06BFC:  MOVLW  01
06BFE:  MOVWF  x08
06C00:  CLRF   x09
06C02:  MOVLB  0
06C04:  CALL   4CF0
....................          displayTiempo(Tpurga[3],20,20,0,2);displayTiempo(Tpurga[2],40,20,0,2);glcd_text57(60, 22, Dos_puntos, 2, ON); 
06C08:  MOVFF  4F6,5EB
06C0C:  MOVLW  14
06C0E:  MOVLB  5
06C10:  MOVWF  xEC
06C12:  MOVWF  xED
06C14:  CLRF   xEE
06C16:  MOVLW  02
06C18:  MOVWF  xEF
06C1A:  MOVLB  0
06C1C:  CALL   5648
06C20:  MOVFF  4F5,5EB
06C24:  MOVLW  28
06C26:  MOVLB  5
06C28:  MOVWF  xEC
06C2A:  MOVLW  14
06C2C:  MOVWF  xED
06C2E:  CLRF   xEE
06C30:  MOVLW  02
06C32:  MOVWF  xEF
06C34:  MOVLB  0
06C36:  CALL   5648
06C3A:  MOVLW  3C
06C3C:  MOVLB  6
06C3E:  MOVWF  x04
06C40:  MOVLW  16
06C42:  MOVWF  x05
06C44:  MOVLW  04
06C46:  MOVWF  x07
06C48:  MOVLW  51
06C4A:  MOVWF  x06
06C4C:  MOVLW  02
06C4E:  MOVWF  x08
06C50:  MOVLW  01
06C52:  MOVWF  x09
06C54:  MOVLB  0
06C56:  CALL   18A2
....................          displayTiempo(Tpurga[1],70,20,0,2);displayTiempo(Tpurga[0],90,20,0,2);         
06C5A:  MOVFF  4F4,5EB
06C5E:  MOVLW  46
06C60:  MOVLB  5
06C62:  MOVWF  xEC
06C64:  MOVLW  14
06C66:  MOVWF  xED
06C68:  CLRF   xEE
06C6A:  MOVLW  02
06C6C:  MOVWF  xEF
06C6E:  MOVLB  0
06C70:  CALL   5648
06C74:  MOVFF  4F3,5EB
06C78:  MOVLW  5A
06C7A:  MOVLB  5
06C7C:  MOVWF  xEC
06C7E:  MOVLW  14
06C80:  MOVWF  xED
06C82:  CLRF   xEE
06C84:  MOVLW  02
06C86:  MOVWF  xEF
06C88:  MOVLB  0
06C8A:  CALL   5648
....................           
....................          if(VIDRIODN){ 
06C8E:  BSF    F92.3
06C90:  BTFSC  F80.3
06C92:  BRA    6D1E
....................             strcpy(Menus.Letra,"  !Abra Proteccion"); 
06C94:  MOVLW  04
06C96:  MOVWF  FEA
06C98:  MOVLW  17
06C9A:  MOVWF  FE9
06C9C:  MOVFF  FF2,5EB
06CA0:  BCF    FF2.7
06CA2:  MOVLW  00
06CA4:  CALL   0F80
06CA8:  TBLRD*-
06CAA:  TBLRD*+
06CAC:  MOVF   FF5,W
06CAE:  MOVWF  FEE
06CB0:  IORLW  00
06CB2:  BNZ   6CAA
06CB4:  MOVLB  5
06CB6:  BTFSC  xEB.7
06CB8:  BSF    FF2.7
....................             displayMenu(Menus.Letra,0,46,1,1); 
06CBA:  MOVLW  04
06CBC:  MOVWF  xF4
06CBE:  MOVLW  17
06CC0:  MOVWF  xF3
06CC2:  CLRF   xF5
06CC4:  MOVLW  2E
06CC6:  MOVWF  xF6
06CC8:  MOVLW  01
06CCA:  MOVWF  xF7
06CCC:  MOVWF  xF8
06CCE:  MOVLB  0
06CD0:  CALL   4E88
....................             strcpy(Menus.Letra,"      Frontal!    "); 
06CD4:  MOVLW  04
06CD6:  MOVWF  FEA
06CD8:  MOVLW  17
06CDA:  MOVWF  FE9
06CDC:  MOVFF  FF2,5EB
06CE0:  BCF    FF2.7
06CE2:  MOVLW  00
06CE4:  CALL   0FB2
06CE8:  TBLRD*-
06CEA:  TBLRD*+
06CEC:  MOVF   FF5,W
06CEE:  MOVWF  FEE
06CF0:  IORLW  00
06CF2:  BNZ   6CEA
06CF4:  MOVLB  5
06CF6:  BTFSC  xEB.7
06CF8:  BSF    FF2.7
....................             displayMenu(Menus.Letra,0,55,1,1); 
06CFA:  MOVLW  04
06CFC:  MOVWF  xF4
06CFE:  MOVLW  17
06D00:  MOVWF  xF3
06D02:  CLRF   xF5
06D04:  MOVLW  37
06D06:  MOVWF  xF6
06D08:  MOVLW  01
06D0A:  MOVWF  xF7
06D0C:  MOVWF  xF8
06D0E:  MOVLB  0
06D10:  CALL   4E88
....................             tiempo_purga=0; 
06D14:  MOVLB  4
06D16:  BCF    x2E.4
....................             Purga=OFF; 
06D18:  BCF    x2F.7
....................          }else{ 
06D1A:  BRA    6DA6
06D1C:  MOVLB  0
....................             tiempo_purga=1; 
06D1E:  MOVLB  4
06D20:  BSF    x2E.4
....................             Purga=ON; 
06D22:  BSF    x2F.7
....................             strcpy(Menus.Letra,"                  "); 
06D24:  MOVLW  04
06D26:  MOVWF  FEA
06D28:  MOVLW  17
06D2A:  MOVWF  FE9
06D2C:  MOVFF  FF2,5EB
06D30:  BCF    FF2.7
06D32:  MOVLW  00
06D34:  MOVLB  0
06D36:  CALL   0FE4
06D3A:  TBLRD*-
06D3C:  TBLRD*+
06D3E:  MOVF   FF5,W
06D40:  MOVWF  FEE
06D42:  IORLW  00
06D44:  BNZ   6D3C
06D46:  MOVLB  5
06D48:  BTFSC  xEB.7
06D4A:  BSF    FF2.7
....................             displayMenu(Menus.Letra,0,46,0,1); 
06D4C:  MOVLW  04
06D4E:  MOVWF  xF4
06D50:  MOVLW  17
06D52:  MOVWF  xF3
06D54:  CLRF   xF5
06D56:  MOVLW  2E
06D58:  MOVWF  xF6
06D5A:  CLRF   xF7
06D5C:  MOVLW  01
06D5E:  MOVWF  xF8
06D60:  MOVLB  0
06D62:  CALL   4E88
....................             strcpy(Menus.Letra,"                  "); 
06D66:  MOVLW  04
06D68:  MOVWF  FEA
06D6A:  MOVLW  17
06D6C:  MOVWF  FE9
06D6E:  MOVFF  FF2,5EB
06D72:  BCF    FF2.7
06D74:  MOVLW  00
06D76:  CALL   0FE4
06D7A:  TBLRD*-
06D7C:  TBLRD*+
06D7E:  MOVF   FF5,W
06D80:  MOVWF  FEE
06D82:  IORLW  00
06D84:  BNZ   6D7C
06D86:  MOVLB  5
06D88:  BTFSC  xEB.7
06D8A:  BSF    FF2.7
....................             displayMenu(Menus.Letra,0,55,0,1); 
06D8C:  MOVLW  04
06D8E:  MOVWF  xF4
06D90:  MOVLW  17
06D92:  MOVWF  xF3
06D94:  CLRF   xF5
06D96:  MOVLW  37
06D98:  MOVWF  xF6
06D9A:  CLRF   xF7
06D9C:  MOVLW  01
06D9E:  MOVWF  xF8
06DA0:  MOVLB  0
06DA2:  CALL   4E88
....................          } 
....................           
....................          VelocidadMotor(VelMotor); 
06DA6:  MOVFF  5E2,5EB
06DAA:  MOVLB  0
06DAC:  CALL   1574
....................           
....................          if(RIGHT){ 
06DB0:  BSF    F96.1
06DB2:  BTFSC  F84.1
06DB4:  BRA    6DE4
....................             delay_ms(500); 
06DB6:  MOVLW  02
06DB8:  MOVLB  5
06DBA:  MOVWF  xEB
06DBC:  MOVLW  FA
06DBE:  MOVWF  xFF
06DC0:  MOVLB  0
06DC2:  CALL   154C
06DC6:  MOVLB  5
06DC8:  DECFSZ xEB,F
06DCA:  BRA    6DBC
....................             if(RIGHT){ 
06DCC:  BSF    F96.1
06DCE:  BTFSC  F84.1
06DD0:  BRA    6DE6
....................                tiempo_purga=0;Menu=2;glcd_fillScreen(OFF); 
06DD2:  MOVLB  4
06DD4:  BCF    x2E.4
06DD6:  MOVLW  02
06DD8:  MOVWF  xCD
06DDA:  MOVLB  5
06DDC:  CLRF   xF3
06DDE:  MOVLB  0
06DE0:  CALL   162C
06DE4:  MOVLB  5
....................             } 
....................          } 
....................         
....................          if((Tpurga[0]>=Tpurgap[0])&&(Tpurga[1]>=Tpurgap[1])&&(Tpurga[2]>=Tpurgap[2])&&(Tpurga[3]>=Tpurgap[3])){ 
06DE6:  MOVLB  4
06DE8:  MOVF   xF7,W
06DEA:  XORLW  80
06DEC:  MOVWF  00
06DEE:  MOVF   xF3,W
06DF0:  XORLW  80
06DF2:  SUBWF  00,W
06DF4:  BZ    6DF8
06DF6:  BC    6E40
06DF8:  MOVF   xF8,W
06DFA:  XORLW  80
06DFC:  MOVWF  00
06DFE:  MOVF   xF4,W
06E00:  XORLW  80
06E02:  SUBWF  00,W
06E04:  BZ    6E08
06E06:  BC    6E40
06E08:  MOVF   xF9,W
06E0A:  XORLW  80
06E0C:  MOVWF  00
06E0E:  MOVF   xF5,W
06E10:  XORLW  80
06E12:  SUBWF  00,W
06E14:  BZ    6E18
06E16:  BC    6E40
06E18:  MOVF   xFA,W
06E1A:  XORLW  80
06E1C:  MOVWF  00
06E1E:  MOVF   xF6,W
06E20:  XORLW  80
06E22:  SUBWF  00,W
06E24:  BZ    6E28
06E26:  BC    6E40
....................             tiempo_purga=0;Menu=2;glcd_fillScreen(OFF);flag_luz=1;flag_blower=1;flag_toma=1; 
06E28:  BCF    x2E.4
06E2A:  MOVLW  02
06E2C:  MOVWF  xCD
06E2E:  MOVLB  5
06E30:  CLRF   xF3
06E32:  MOVLB  0
06E34:  CALL   162C
06E38:  MOVLB  4
06E3A:  BSF    x2E.1
06E3C:  BSF    x2D.7
06E3E:  BSF    x2E.0
....................          }       
....................       } 
.................... //_--------------------------------------------------------------------------------------------------------------------------------------------------------        
....................  
.................... //_-------------------------------------------------------------------------------------------------------------------------------------------------------- 
....................       if(Menu==2){ //Menu General. 
06E40:  MOVF   xCD,W
06E42:  SUBLW  02
06E44:  BTFSS  FD8.2
06E46:  GOTO   7D9E
....................          Purga=OFF; 
06E4A:  BCF    x2F.7
....................          w=0; 
06E4C:  BCF    x2E.3
....................          //glcd_imagen(4); 
....................           
....................          if(VelMotor==1){ 
06E4E:  MOVLB  5
06E50:  DECFSZ xE2,W
06E52:  BRA    6F0A
....................             glcd_rect(0, 29, 13, 39, YES, ON); 
06E54:  MOVLB  6
06E56:  CLRF   x04
06E58:  MOVLW  1D
06E5A:  MOVWF  x05
06E5C:  MOVLW  0D
06E5E:  MOVWF  x06
06E60:  MOVLW  27
06E62:  MOVWF  x07
06E64:  MOVLW  01
06E66:  MOVWF  x08
06E68:  MOVWF  x09
06E6A:  MOVLB  0
06E6C:  CALL   4CF0
....................             glcd_rect(15, 26, 28, 39, NO, ON); 
06E70:  MOVLW  0F
06E72:  MOVLB  6
06E74:  MOVWF  x04
06E76:  MOVLW  1A
06E78:  MOVWF  x05
06E7A:  MOVLW  1C
06E7C:  MOVWF  x06
06E7E:  MOVLW  27
06E80:  MOVWF  x07
06E82:  CLRF   x08
06E84:  MOVLW  01
06E86:  MOVWF  x09
06E88:  MOVLB  0
06E8A:  CALL   4CF0
....................             glcd_rect(30, 23, 43, 39, NO, ON); 
06E8E:  MOVLW  1E
06E90:  MOVLB  6
06E92:  MOVWF  x04
06E94:  MOVLW  17
06E96:  MOVWF  x05
06E98:  MOVLW  2B
06E9A:  MOVWF  x06
06E9C:  MOVLW  27
06E9E:  MOVWF  x07
06EA0:  CLRF   x08
06EA2:  MOVLW  01
06EA4:  MOVWF  x09
06EA6:  MOVLB  0
06EA8:  CALL   4CF0
....................             glcd_rect(45, 20, 58, 39, NO, ON); 
06EAC:  MOVLW  2D
06EAE:  MOVLB  6
06EB0:  MOVWF  x04
06EB2:  MOVLW  14
06EB4:  MOVWF  x05
06EB6:  MOVLW  3A
06EB8:  MOVWF  x06
06EBA:  MOVLW  27
06EBC:  MOVWF  x07
06EBE:  CLRF   x08
06EC0:  MOVLW  01
06EC2:  MOVWF  x09
06EC4:  MOVLB  0
06EC6:  CALL   4CF0
....................             glcd_rect(60, 17, 73, 39, NO, ON); 
06ECA:  MOVLW  3C
06ECC:  MOVLB  6
06ECE:  MOVWF  x04
06ED0:  MOVLW  11
06ED2:  MOVWF  x05
06ED4:  MOVLW  49
06ED6:  MOVWF  x06
06ED8:  MOVLW  27
06EDA:  MOVWF  x07
06EDC:  CLRF   x08
06EDE:  MOVLW  01
06EE0:  MOVWF  x09
06EE2:  MOVLB  0
06EE4:  CALL   4CF0
....................             glcd_rect(75, 14, 88, 39, NO, ON); 
06EE8:  MOVLW  4B
06EEA:  MOVLB  6
06EEC:  MOVWF  x04
06EEE:  MOVLW  0E
06EF0:  MOVWF  x05
06EF2:  MOVLW  58
06EF4:  MOVWF  x06
06EF6:  MOVLW  27
06EF8:  MOVWF  x07
06EFA:  CLRF   x08
06EFC:  MOVLW  01
06EFE:  MOVWF  x09
06F00:  MOVLB  0
06F02:  CALL   4CF0
....................          }else if(VelMotor==2){ 
06F06:  BRA    72B2
06F08:  MOVLB  5
06F0A:  MOVF   xE2,W
06F0C:  SUBLW  02
06F0E:  BNZ   6FC6
....................             glcd_rect(0, 29, 13, 39, YES, ON); 
06F10:  MOVLB  6
06F12:  CLRF   x04
06F14:  MOVLW  1D
06F16:  MOVWF  x05
06F18:  MOVLW  0D
06F1A:  MOVWF  x06
06F1C:  MOVLW  27
06F1E:  MOVWF  x07
06F20:  MOVLW  01
06F22:  MOVWF  x08
06F24:  MOVWF  x09
06F26:  MOVLB  0
06F28:  CALL   4CF0
....................             glcd_rect(15, 26, 28, 39, YES, ON); 
06F2C:  MOVLW  0F
06F2E:  MOVLB  6
06F30:  MOVWF  x04
06F32:  MOVLW  1A
06F34:  MOVWF  x05
06F36:  MOVLW  1C
06F38:  MOVWF  x06
06F3A:  MOVLW  27
06F3C:  MOVWF  x07
06F3E:  MOVLW  01
06F40:  MOVWF  x08
06F42:  MOVWF  x09
06F44:  MOVLB  0
06F46:  CALL   4CF0
....................             glcd_rect(30, 23, 43, 39, NO, ON); 
06F4A:  MOVLW  1E
06F4C:  MOVLB  6
06F4E:  MOVWF  x04
06F50:  MOVLW  17
06F52:  MOVWF  x05
06F54:  MOVLW  2B
06F56:  MOVWF  x06
06F58:  MOVLW  27
06F5A:  MOVWF  x07
06F5C:  CLRF   x08
06F5E:  MOVLW  01
06F60:  MOVWF  x09
06F62:  MOVLB  0
06F64:  CALL   4CF0
....................             glcd_rect(45, 20, 58, 39, NO, ON); 
06F68:  MOVLW  2D
06F6A:  MOVLB  6
06F6C:  MOVWF  x04
06F6E:  MOVLW  14
06F70:  MOVWF  x05
06F72:  MOVLW  3A
06F74:  MOVWF  x06
06F76:  MOVLW  27
06F78:  MOVWF  x07
06F7A:  CLRF   x08
06F7C:  MOVLW  01
06F7E:  MOVWF  x09
06F80:  MOVLB  0
06F82:  CALL   4CF0
....................             glcd_rect(60, 17, 73, 39, NO, ON); 
06F86:  MOVLW  3C
06F88:  MOVLB  6
06F8A:  MOVWF  x04
06F8C:  MOVLW  11
06F8E:  MOVWF  x05
06F90:  MOVLW  49
06F92:  MOVWF  x06
06F94:  MOVLW  27
06F96:  MOVWF  x07
06F98:  CLRF   x08
06F9A:  MOVLW  01
06F9C:  MOVWF  x09
06F9E:  MOVLB  0
06FA0:  CALL   4CF0
....................             glcd_rect(75, 14, 88, 39, NO, ON); 
06FA4:  MOVLW  4B
06FA6:  MOVLB  6
06FA8:  MOVWF  x04
06FAA:  MOVLW  0E
06FAC:  MOVWF  x05
06FAE:  MOVLW  58
06FB0:  MOVWF  x06
06FB2:  MOVLW  27
06FB4:  MOVWF  x07
06FB6:  CLRF   x08
06FB8:  MOVLW  01
06FBA:  MOVWF  x09
06FBC:  MOVLB  0
06FBE:  CALL   4CF0
....................          }else if(VelMotor==3){ 
06FC2:  BRA    72B2
06FC4:  MOVLB  5
06FC6:  MOVF   xE2,W
06FC8:  SUBLW  03
06FCA:  BNZ   7082
....................             glcd_rect(0, 29, 13, 39, YES, ON); 
06FCC:  MOVLB  6
06FCE:  CLRF   x04
06FD0:  MOVLW  1D
06FD2:  MOVWF  x05
06FD4:  MOVLW  0D
06FD6:  MOVWF  x06
06FD8:  MOVLW  27
06FDA:  MOVWF  x07
06FDC:  MOVLW  01
06FDE:  MOVWF  x08
06FE0:  MOVWF  x09
06FE2:  MOVLB  0
06FE4:  CALL   4CF0
....................             glcd_rect(15, 26, 28, 39, YES, ON); 
06FE8:  MOVLW  0F
06FEA:  MOVLB  6
06FEC:  MOVWF  x04
06FEE:  MOVLW  1A
06FF0:  MOVWF  x05
06FF2:  MOVLW  1C
06FF4:  MOVWF  x06
06FF6:  MOVLW  27
06FF8:  MOVWF  x07
06FFA:  MOVLW  01
06FFC:  MOVWF  x08
06FFE:  MOVWF  x09
07000:  MOVLB  0
07002:  CALL   4CF0
....................             glcd_rect(30, 23, 43, 39, YES, ON); 
07006:  MOVLW  1E
07008:  MOVLB  6
0700A:  MOVWF  x04
0700C:  MOVLW  17
0700E:  MOVWF  x05
07010:  MOVLW  2B
07012:  MOVWF  x06
07014:  MOVLW  27
07016:  MOVWF  x07
07018:  MOVLW  01
0701A:  MOVWF  x08
0701C:  MOVWF  x09
0701E:  MOVLB  0
07020:  CALL   4CF0
....................             glcd_rect(45, 20, 58, 39, NO, ON); 
07024:  MOVLW  2D
07026:  MOVLB  6
07028:  MOVWF  x04
0702A:  MOVLW  14
0702C:  MOVWF  x05
0702E:  MOVLW  3A
07030:  MOVWF  x06
07032:  MOVLW  27
07034:  MOVWF  x07
07036:  CLRF   x08
07038:  MOVLW  01
0703A:  MOVWF  x09
0703C:  MOVLB  0
0703E:  CALL   4CF0
....................             glcd_rect(60, 17, 73, 39, NO, ON); 
07042:  MOVLW  3C
07044:  MOVLB  6
07046:  MOVWF  x04
07048:  MOVLW  11
0704A:  MOVWF  x05
0704C:  MOVLW  49
0704E:  MOVWF  x06
07050:  MOVLW  27
07052:  MOVWF  x07
07054:  CLRF   x08
07056:  MOVLW  01
07058:  MOVWF  x09
0705A:  MOVLB  0
0705C:  CALL   4CF0
....................             glcd_rect(75, 14, 88, 39, NO, ON); 
07060:  MOVLW  4B
07062:  MOVLB  6
07064:  MOVWF  x04
07066:  MOVLW  0E
07068:  MOVWF  x05
0706A:  MOVLW  58
0706C:  MOVWF  x06
0706E:  MOVLW  27
07070:  MOVWF  x07
07072:  CLRF   x08
07074:  MOVLW  01
07076:  MOVWF  x09
07078:  MOVLB  0
0707A:  CALL   4CF0
....................          }else if(VelMotor==4){ 
0707E:  BRA    72B2
07080:  MOVLB  5
07082:  MOVF   xE2,W
07084:  SUBLW  04
07086:  BNZ   713E
....................             glcd_rect(0, 29, 13, 39, YES, ON); 
07088:  MOVLB  6
0708A:  CLRF   x04
0708C:  MOVLW  1D
0708E:  MOVWF  x05
07090:  MOVLW  0D
07092:  MOVWF  x06
07094:  MOVLW  27
07096:  MOVWF  x07
07098:  MOVLW  01
0709A:  MOVWF  x08
0709C:  MOVWF  x09
0709E:  MOVLB  0
070A0:  CALL   4CF0
....................             glcd_rect(15, 26, 28, 39, YES, ON); 
070A4:  MOVLW  0F
070A6:  MOVLB  6
070A8:  MOVWF  x04
070AA:  MOVLW  1A
070AC:  MOVWF  x05
070AE:  MOVLW  1C
070B0:  MOVWF  x06
070B2:  MOVLW  27
070B4:  MOVWF  x07
070B6:  MOVLW  01
070B8:  MOVWF  x08
070BA:  MOVWF  x09
070BC:  MOVLB  0
070BE:  CALL   4CF0
....................             glcd_rect(30, 23, 43, 39, YES, ON); 
070C2:  MOVLW  1E
070C4:  MOVLB  6
070C6:  MOVWF  x04
070C8:  MOVLW  17
070CA:  MOVWF  x05
070CC:  MOVLW  2B
070CE:  MOVWF  x06
070D0:  MOVLW  27
070D2:  MOVWF  x07
070D4:  MOVLW  01
070D6:  MOVWF  x08
070D8:  MOVWF  x09
070DA:  MOVLB  0
070DC:  CALL   4CF0
....................             glcd_rect(45, 20, 58, 39, YES, ON); 
070E0:  MOVLW  2D
070E2:  MOVLB  6
070E4:  MOVWF  x04
070E6:  MOVLW  14
070E8:  MOVWF  x05
070EA:  MOVLW  3A
070EC:  MOVWF  x06
070EE:  MOVLW  27
070F0:  MOVWF  x07
070F2:  MOVLW  01
070F4:  MOVWF  x08
070F6:  MOVWF  x09
070F8:  MOVLB  0
070FA:  CALL   4CF0
....................             glcd_rect(60, 17, 73, 39, NO, ON); 
070FE:  MOVLW  3C
07100:  MOVLB  6
07102:  MOVWF  x04
07104:  MOVLW  11
07106:  MOVWF  x05
07108:  MOVLW  49
0710A:  MOVWF  x06
0710C:  MOVLW  27
0710E:  MOVWF  x07
07110:  CLRF   x08
07112:  MOVLW  01
07114:  MOVWF  x09
07116:  MOVLB  0
07118:  CALL   4CF0
....................             glcd_rect(75, 14, 88, 39, NO, ON); 
0711C:  MOVLW  4B
0711E:  MOVLB  6
07120:  MOVWF  x04
07122:  MOVLW  0E
07124:  MOVWF  x05
07126:  MOVLW  58
07128:  MOVWF  x06
0712A:  MOVLW  27
0712C:  MOVWF  x07
0712E:  CLRF   x08
07130:  MOVLW  01
07132:  MOVWF  x09
07134:  MOVLB  0
07136:  CALL   4CF0
....................          }else if(VelMotor==5){ 
0713A:  BRA    72B2
0713C:  MOVLB  5
0713E:  MOVF   xE2,W
07140:  SUBLW  05
07142:  BNZ   71FA
....................             glcd_rect(0, 29, 13, 39, YES, ON); 
07144:  MOVLB  6
07146:  CLRF   x04
07148:  MOVLW  1D
0714A:  MOVWF  x05
0714C:  MOVLW  0D
0714E:  MOVWF  x06
07150:  MOVLW  27
07152:  MOVWF  x07
07154:  MOVLW  01
07156:  MOVWF  x08
07158:  MOVWF  x09
0715A:  MOVLB  0
0715C:  CALL   4CF0
....................             glcd_rect(15, 26, 28, 39, YES, ON); 
07160:  MOVLW  0F
07162:  MOVLB  6
07164:  MOVWF  x04
07166:  MOVLW  1A
07168:  MOVWF  x05
0716A:  MOVLW  1C
0716C:  MOVWF  x06
0716E:  MOVLW  27
07170:  MOVWF  x07
07172:  MOVLW  01
07174:  MOVWF  x08
07176:  MOVWF  x09
07178:  MOVLB  0
0717A:  CALL   4CF0
....................             glcd_rect(30, 23, 43, 39, YES, ON); 
0717E:  MOVLW  1E
07180:  MOVLB  6
07182:  MOVWF  x04
07184:  MOVLW  17
07186:  MOVWF  x05
07188:  MOVLW  2B
0718A:  MOVWF  x06
0718C:  MOVLW  27
0718E:  MOVWF  x07
07190:  MOVLW  01
07192:  MOVWF  x08
07194:  MOVWF  x09
07196:  MOVLB  0
07198:  CALL   4CF0
....................             glcd_rect(45, 20, 58, 39, YES, ON); 
0719C:  MOVLW  2D
0719E:  MOVLB  6
071A0:  MOVWF  x04
071A2:  MOVLW  14
071A4:  MOVWF  x05
071A6:  MOVLW  3A
071A8:  MOVWF  x06
071AA:  MOVLW  27
071AC:  MOVWF  x07
071AE:  MOVLW  01
071B0:  MOVWF  x08
071B2:  MOVWF  x09
071B4:  MOVLB  0
071B6:  CALL   4CF0
....................             glcd_rect(60, 17, 73, 39, YES, ON); 
071BA:  MOVLW  3C
071BC:  MOVLB  6
071BE:  MOVWF  x04
071C0:  MOVLW  11
071C2:  MOVWF  x05
071C4:  MOVLW  49
071C6:  MOVWF  x06
071C8:  MOVLW  27
071CA:  MOVWF  x07
071CC:  MOVLW  01
071CE:  MOVWF  x08
071D0:  MOVWF  x09
071D2:  MOVLB  0
071D4:  CALL   4CF0
....................             glcd_rect(75, 14, 88, 39, NO, ON); 
071D8:  MOVLW  4B
071DA:  MOVLB  6
071DC:  MOVWF  x04
071DE:  MOVLW  0E
071E0:  MOVWF  x05
071E2:  MOVLW  58
071E4:  MOVWF  x06
071E6:  MOVLW  27
071E8:  MOVWF  x07
071EA:  CLRF   x08
071EC:  MOVLW  01
071EE:  MOVWF  x09
071F0:  MOVLB  0
071F2:  CALL   4CF0
....................          }else if(VelMotor==6){ 
071F6:  BRA    72B2
071F8:  MOVLB  5
071FA:  MOVF   xE2,W
071FC:  SUBLW  06
071FE:  BNZ   72B2
....................             glcd_rect(0, 29, 13, 39, YES, ON); 
07200:  MOVLB  6
07202:  CLRF   x04
07204:  MOVLW  1D
07206:  MOVWF  x05
07208:  MOVLW  0D
0720A:  MOVWF  x06
0720C:  MOVLW  27
0720E:  MOVWF  x07
07210:  MOVLW  01
07212:  MOVWF  x08
07214:  MOVWF  x09
07216:  MOVLB  0
07218:  CALL   4CF0
....................             glcd_rect(15, 26, 28, 39, YES, ON); 
0721C:  MOVLW  0F
0721E:  MOVLB  6
07220:  MOVWF  x04
07222:  MOVLW  1A
07224:  MOVWF  x05
07226:  MOVLW  1C
07228:  MOVWF  x06
0722A:  MOVLW  27
0722C:  MOVWF  x07
0722E:  MOVLW  01
07230:  MOVWF  x08
07232:  MOVWF  x09
07234:  MOVLB  0
07236:  CALL   4CF0
....................             glcd_rect(30, 23, 43, 39, YES, ON); 
0723A:  MOVLW  1E
0723C:  MOVLB  6
0723E:  MOVWF  x04
07240:  MOVLW  17
07242:  MOVWF  x05
07244:  MOVLW  2B
07246:  MOVWF  x06
07248:  MOVLW  27
0724A:  MOVWF  x07
0724C:  MOVLW  01
0724E:  MOVWF  x08
07250:  MOVWF  x09
07252:  MOVLB  0
07254:  CALL   4CF0
....................             glcd_rect(45, 20, 58, 39, YES, ON); 
07258:  MOVLW  2D
0725A:  MOVLB  6
0725C:  MOVWF  x04
0725E:  MOVLW  14
07260:  MOVWF  x05
07262:  MOVLW  3A
07264:  MOVWF  x06
07266:  MOVLW  27
07268:  MOVWF  x07
0726A:  MOVLW  01
0726C:  MOVWF  x08
0726E:  MOVWF  x09
07270:  MOVLB  0
07272:  CALL   4CF0
....................             glcd_rect(60, 17, 73, 39, YES, ON); 
07276:  MOVLW  3C
07278:  MOVLB  6
0727A:  MOVWF  x04
0727C:  MOVLW  11
0727E:  MOVWF  x05
07280:  MOVLW  49
07282:  MOVWF  x06
07284:  MOVLW  27
07286:  MOVWF  x07
07288:  MOVLW  01
0728A:  MOVWF  x08
0728C:  MOVWF  x09
0728E:  MOVLB  0
07290:  CALL   4CF0
....................             glcd_rect(75, 14, 88, 39, YES, ON); 
07294:  MOVLW  4B
07296:  MOVLB  6
07298:  MOVWF  x04
0729A:  MOVLW  0E
0729C:  MOVWF  x05
0729E:  MOVLW  58
072A0:  MOVWF  x06
072A2:  MOVLW  27
072A4:  MOVWF  x07
072A6:  MOVLW  01
072A8:  MOVWF  x08
072AA:  MOVWF  x09
072AC:  MOVLB  0
072AE:  CALL   4CF0
....................          } 
....................           
....................          if(imprimir==1){ 
072B2:  MOVLB  4
072B4:  BTFSS  x2D.6
072B6:  BRA    74FA
....................             glcd_text57(2, 12, Inflowt, 1, ON); 
072B8:  MOVLW  02
072BA:  MOVLB  6
072BC:  MOVWF  x04
072BE:  MOVLW  0C
072C0:  MOVWF  x05
072C2:  MOVLW  04
072C4:  MOVWF  x07
072C6:  MOVLW  6D
072C8:  MOVWF  x06
072CA:  MOVLW  01
072CC:  MOVWF  x08
072CE:  MOVWF  x09
072D0:  MOVLB  0
072D2:  CALL   18A2
....................             displayTiempo(VelMotor,23,11,0,1);   
072D6:  MOVFF  5E2,5EB
072DA:  MOVLW  17
072DC:  MOVLB  5
072DE:  MOVWF  xEC
072E0:  MOVLW  0B
072E2:  MOVWF  xED
072E4:  CLRF   xEE
072E6:  MOVLW  01
072E8:  MOVWF  xEF
072EA:  MOVLB  0
072EC:  CALL   5648
....................             glcd_rect(0, 10, 95, 63, NO, ON); 
072F0:  MOVLB  6
072F2:  CLRF   x04
072F4:  MOVLW  0A
072F6:  MOVWF  x05
072F8:  MOVLW  5F
072FA:  MOVWF  x06
072FC:  MOVLW  3F
072FE:  MOVWF  x07
07300:  CLRF   x08
07302:  MOVLW  01
07304:  MOVWF  x09
07306:  MOVLB  0
07308:  CALL   4CF0
....................             glcd_rect(100, 10, 127, 63, NO, ON); 
0730C:  MOVLW  64
0730E:  MOVLB  6
07310:  MOVWF  x04
07312:  MOVLW  0A
07314:  MOVWF  x05
07316:  MOVLW  7F
07318:  MOVWF  x06
0731A:  MOVLW  3F
0731C:  MOVWF  x07
0731E:  CLRF   x08
07320:  MOVLW  01
07322:  MOVWF  x09
07324:  MOVLB  0
07326:  CALL   4CF0
....................             //glcd_text57(35, 12, Downflowt, 1, ON); 
....................             glcd_text57(2, 41, Vida_Filtro, 1, ON); 
0732A:  MOVLW  02
0732C:  MOVLB  6
0732E:  MOVWF  x04
07330:  MOVLW  29
07332:  MOVWF  x05
07334:  MOVLW  04
07336:  MOVWF  x07
07338:  MOVLW  93
0733A:  MOVWF  x06
0733C:  MOVLW  01
0733E:  MOVWF  x08
07340:  MOVWF  x09
07342:  MOVLB  0
07344:  CALL   18A2
....................             //displayTiempo(Ttrabajo[3],60,41,0,1);displayTiempo(Ttrabajo[2],67,41,0,1);displayTiempo(Ttrabajo[1],74,41,0,1);displayTiempo(Ttrabajo[0],82,41,0,1); 
....................             if(Filtro_Downflow>=0.9){ 
07348:  MOVLW  66
0734A:  MOVLB  6
0734C:  MOVWF  x1F
0734E:  MOVWF  x1E
07350:  MOVWF  x1D
07352:  MOVLW  7E
07354:  MOVWF  x1C
07356:  MOVFF  522,623
0735A:  MOVFF  521,622
0735E:  MOVFF  520,621
07362:  MOVFF  51F,620
07366:  MOVLB  0
07368:  CALL   25D6
0736C:  BC    7370
0736E:  BNZ   73D0
....................                strcpy(Menus.Letra,"Filtro Saturado"); 
07370:  MOVLW  04
07372:  MOVWF  FEA
07374:  MOVLW  17
07376:  MOVWF  FE9
07378:  MOVFF  FF2,5EB
0737C:  BCF    FF2.7
0737E:  MOVLW  00
07380:  CALL   1016
07384:  TBLRD*-
07386:  TBLRD*+
07388:  MOVF   FF5,W
0738A:  MOVWF  FEE
0738C:  IORLW  00
0738E:  BNZ   7386
07390:  MOVLB  5
07392:  BTFSC  xEB.7
07394:  BSF    FF2.7
....................                displayMenu(Menus.Letra,0,0,1,1); 
07396:  MOVLW  04
07398:  MOVWF  xF4
0739A:  MOVLW  17
0739C:  MOVWF  xF3
0739E:  CLRF   xF5
073A0:  CLRF   xF6
073A2:  MOVLW  01
073A4:  MOVWF  xF7
073A6:  MOVWF  xF8
073A8:  MOVLB  0
073AA:  CALL   4E88
....................                Alarma_on; 
073AE:  BSF    F8B.7
073B0:  BCF    F94.7
....................                delay_ms(50); 
073B2:  MOVLW  32
073B4:  MOVLB  5
073B6:  MOVWF  xFF
073B8:  MOVLB  0
073BA:  CALL   154C
....................                Alarma_off; 
073BE:  BCF    F8B.7
073C0:  BCF    F94.7
....................                delay_ms(50); 
073C2:  MOVLW  32
073C4:  MOVLB  5
073C6:  MOVWF  xFF
073C8:  MOVLB  0
073CA:  CALL   154C
....................             }else{ 
073CE:  BRA    7410
....................                strcpy(Menus.Letra,"JPCV72-PCR-EC"); 
073D0:  MOVLW  04
073D2:  MOVWF  FEA
073D4:  MOVLW  17
073D6:  MOVWF  FE9
073D8:  MOVFF  FF2,5EB
073DC:  BCF    FF2.7
073DE:  MOVLW  00
073E0:  CALL   1044
073E4:  TBLRD*-
073E6:  TBLRD*+
073E8:  MOVF   FF5,W
073EA:  MOVWF  FEE
073EC:  IORLW  00
073EE:  BNZ   73E6
073F0:  MOVLB  5
073F2:  BTFSC  xEB.7
073F4:  BSF    FF2.7
....................                displayMenu(Menus.Letra,2,0,1,1); 
073F6:  MOVLW  04
073F8:  MOVWF  xF4
073FA:  MOVLW  17
073FC:  MOVWF  xF3
073FE:  MOVLW  02
07400:  MOVWF  xF5
07402:  CLRF   xF6
07404:  MOVLW  01
07406:  MOVWF  xF7
07408:  MOVWF  xF8
0740A:  MOVLB  0
0740C:  CALL   4E88
....................             } 
....................             displayfloat2(Temperatura,90,0,1,1); 
07410:  MOVLB  6
07412:  CLRF   x21
07414:  MOVFF  5DE,620
07418:  MOVLB  0
0741A:  CALL   1A5A
0741E:  MOVFF  00,5EB
07422:  MOVFF  01,5EC
07426:  MOVFF  02,5ED
0742A:  MOVFF  03,5EE
0742E:  MOVFF  03,5F2
07432:  MOVFF  02,5F1
07436:  MOVFF  01,5F0
0743A:  MOVFF  00,5EF
0743E:  MOVLW  5A
07440:  MOVLB  5
07442:  MOVWF  xF3
07444:  CLRF   xF4
07446:  MOVLW  01
07448:  MOVWF  xF5
0744A:  MOVWF  xF6
0744C:  MOVLB  0
0744E:  GOTO   5C22
....................              
....................             glcd_text57(2, 52, Tempo, 1, ON); 
07452:  MOVLW  02
07454:  MOVLB  6
07456:  MOVWF  x04
07458:  MOVLW  34
0745A:  MOVWF  x05
0745C:  MOVLW  04
0745E:  MOVWF  x07
07460:  MOVLW  BB
07462:  MOVWF  x06
07464:  MOVLW  01
07466:  MOVWF  x08
07468:  MOVWF  x09
0746A:  MOVLB  0
0746C:  CALL   18A2
....................             displayTiempo(Tempouv[3],59,51,0,1); 
07470:  MOVFF  50A,5EB
07474:  MOVLW  3B
07476:  MOVLB  5
07478:  MOVWF  xEC
0747A:  MOVLW  33
0747C:  MOVWF  xED
0747E:  CLRF   xEE
07480:  MOVLW  01
07482:  MOVWF  xEF
07484:  MOVLB  0
07486:  CALL   5648
....................             displayTiempo(Tempouv[2],67,51,0,1); 
0748A:  MOVFF  509,5EB
0748E:  MOVLW  43
07490:  MOVLB  5
07492:  MOVWF  xEC
07494:  MOVLW  33
07496:  MOVWF  xED
07498:  CLRF   xEE
0749A:  MOVLW  01
0749C:  MOVWF  xEF
0749E:  MOVLB  0
074A0:  CALL   5648
....................             glcd_text57(75, 52, Dos_puntos, 1, ON); 
074A4:  MOVLW  4B
074A6:  MOVLB  6
074A8:  MOVWF  x04
074AA:  MOVLW  34
074AC:  MOVWF  x05
074AE:  MOVLW  04
074B0:  MOVWF  x07
074B2:  MOVLW  51
074B4:  MOVWF  x06
074B6:  MOVLW  01
074B8:  MOVWF  x08
074BA:  MOVWF  x09
074BC:  MOVLB  0
074BE:  CALL   18A2
....................             displayTiempo(Tempouv[1],79,51,0,1); 
074C2:  MOVFF  508,5EB
074C6:  MOVLW  4F
074C8:  MOVLB  5
074CA:  MOVWF  xEC
074CC:  MOVLW  33
074CE:  MOVWF  xED
074D0:  CLRF   xEE
074D2:  MOVLW  01
074D4:  MOVWF  xEF
074D6:  MOVLB  0
074D8:  CALL   5648
....................             displayTiempo(Tempouv[0],87,51,0,1); 
074DC:  MOVFF  507,5EB
074E0:  MOVLW  57
074E2:  MOVLB  5
074E4:  MOVWF  xEC
074E6:  MOVLW  33
074E8:  MOVWF  xED
074EA:  CLRF   xEE
074EC:  MOVLW  01
074EE:  MOVWF  xEF
074F0:  MOVLB  0
074F2:  CALL   5648
....................             imprimir=0; 
074F6:  MOVLB  4
074F8:  BCF    x2D.6
....................          } 
....................           
....................          // Dibujo de barra de estado de filtro                   
....................          barra=100.0*(Filtro_Downflow/1); 
074FA:  MOVFF  522,61F
074FE:  MOVFF  521,61E
07502:  MOVFF  520,61D
07506:  MOVFF  51F,61C
0750A:  MOVLB  6
0750C:  CLRF   x23
0750E:  CLRF   x22
07510:  CLRF   x21
07512:  MOVLW  7F
07514:  MOVWF  x20
07516:  MOVLB  0
07518:  CALL   1A90
0751C:  MOVLB  6
0751E:  CLRF   x1F
07520:  CLRF   x1E
07522:  MOVLW  48
07524:  MOVWF  x1D
07526:  MOVLW  85
07528:  MOVWF  x1C
0752A:  MOVFF  03,623
0752E:  MOVFF  02,622
07532:  MOVFF  01,621
07536:  MOVFF  00,620
0753A:  MOVLB  0
0753C:  CALL   307C
07540:  MOVFF  03,52A
07544:  MOVFF  02,529
07548:  MOVFF  01,528
0754C:  MOVFF  00,527
....................          if(barra>100.0) 
07550:  MOVLB  6
07552:  CLRF   x1F
07554:  CLRF   x1E
07556:  MOVLW  48
07558:  MOVWF  x1D
0755A:  MOVLW  85
0755C:  MOVWF  x1C
0755E:  MOVFF  52A,623
07562:  MOVFF  529,622
07566:  MOVFF  528,621
0756A:  MOVFF  527,620
0756E:  MOVLB  0
07570:  CALL   25D6
07574:  BNC   7584
....................             barra=100.0; 
07576:  MOVLB  5
07578:  CLRF   x2A
0757A:  CLRF   x29
0757C:  MOVLW  48
0757E:  MOVWF  x28
07580:  MOVLW  85
07582:  MOVWF  x27
....................          barra=barra/2; 
07584:  MOVFF  52A,61F
07588:  MOVFF  529,61E
0758C:  MOVFF  528,61D
07590:  MOVFF  527,61C
07594:  MOVLB  6
07596:  CLRF   x23
07598:  CLRF   x22
0759A:  CLRF   x21
0759C:  MOVLW  80
0759E:  MOVWF  x20
075A0:  MOVLB  0
075A2:  CALL   1A90
075A6:  MOVFF  03,52A
075AA:  MOVFF  02,529
075AE:  MOVFF  01,528
075B2:  MOVFF  00,527
....................          glcd_rect(42, 41, (int8)(barra_old)+42, 48, YES, OFF);  // Clears the old bar 
075B6:  MOVFF  52E,61F
075BA:  MOVFF  52D,61E
075BE:  MOVFF  52C,61D
075C2:  MOVFF  52B,61C
075C6:  CALL   3040
075CA:  MOVLW  2A
075CC:  ADDWF  01,W
075CE:  MOVLB  5
075D0:  MOVWF  xEB
075D2:  MOVLW  2A
075D4:  MOVLB  6
075D6:  MOVWF  x04
075D8:  MOVLW  29
075DA:  MOVWF  x05
075DC:  MOVFF  5EB,606
075E0:  MOVLW  30
075E2:  MOVWF  x07
075E4:  MOVLW  01
075E6:  MOVWF  x08
075E8:  CLRF   x09
075EA:  MOVLB  0
075EC:  CALL   4CF0
....................          glcd_rect(42, 41, (int8)(barra)+42, 48, YES, ON);             // Draws a new bar 
075F0:  MOVFF  52A,61F
075F4:  MOVFF  529,61E
075F8:  MOVFF  528,61D
075FC:  MOVFF  527,61C
07600:  CALL   3040
07604:  MOVLW  2A
07606:  ADDWF  01,W
07608:  MOVLB  5
0760A:  MOVWF  xEB
0760C:  MOVLW  2A
0760E:  MOVLB  6
07610:  MOVWF  x04
07612:  MOVLW  29
07614:  MOVWF  x05
07616:  MOVFF  5EB,606
0761A:  MOVLW  30
0761C:  MOVWF  x07
0761E:  MOVLW  01
07620:  MOVWF  x08
07622:  MOVWF  x09
07624:  MOVLB  0
07626:  CALL   4CF0
....................          glcd_rect(42, 41, 94, 48, NO, ON);             // Draws a new bar 
0762A:  MOVLW  2A
0762C:  MOVLB  6
0762E:  MOVWF  x04
07630:  MOVLW  29
07632:  MOVWF  x05
07634:  MOVLW  5E
07636:  MOVWF  x06
07638:  MOVLW  30
0763A:  MOVWF  x07
0763C:  CLRF   x08
0763E:  MOVLW  01
07640:  MOVWF  x09
07642:  MOVLB  0
07644:  CALL   4CF0
....................          barra_old=barra; 
07648:  MOVFF  52A,52E
0764C:  MOVFF  529,52D
07650:  MOVFF  528,52C
07654:  MOVFF  527,52B
.................... // Fin de Dibujo de barra de estado de Filtro 
....................           
....................          if(VIDRIODN){ 
07658:  BSF    F92.3
0765A:  BTFSC  F80.3
0765C:  BRA    7668
....................            flag_blower=0; 
0765E:  MOVLB  4
07660:  BCF    x2D.7
....................            flag_luz=0; 
07662:  BCF    x2E.1
....................          }else{ 
07664:  BRA    766C
07666:  MOVLB  0
....................            flag_uv=0;  
07668:  MOVLB  4
0766A:  BCF    x2E.7
....................          } 
....................           
....................          if(flag_blower==1 && flag_uv==0){ 
0766C:  BTFSS  x2D.7
0766E:  BRA    7818
07670:  BTFSC  x2E.7
07672:  BRA    7818
....................             glcd_imagen(5);tiempo_trabajo=1; 
07674:  MOVLW  05
07676:  MOVLB  5
07678:  MOVWF  xEB
0767A:  MOVLB  0
0767C:  CALL   5DA8
07680:  MOVLB  4
07682:  BSF    x2E.5
....................             if(guardatrabajo==1){ 
07684:  BTFSS  x2F.3
07686:  BRA    780A
....................                VelocidadMotor(6); 
07688:  MOVLW  06
0768A:  MOVLB  5
0768C:  MOVWF  xEB
0768E:  MOVLB  0
07690:  CALL   1574
....................                guardatrabajo=0; 
07694:  MOVLB  4
07696:  BCF    x2F.3
....................                write_eeprom(33,make8(minutos_trabajo,0)); 
07698:  MOVFF  4E7,5EB
0769C:  CLRF   FAA
0769E:  MOVLW  21
076A0:  MOVWF  FA9
076A2:  MOVFF  5EB,FA8
076A6:  BCF    FA6.6
076A8:  BCF    FA6.7
076AA:  BSF    FA6.2
076AC:  MOVF   FF2,W
076AE:  MOVWF  00
076B0:  BCF    FF2.7
076B2:  MOVLB  F
076B4:  MOVLW  55
076B6:  MOVWF  FA7
076B8:  MOVLW  AA
076BA:  MOVWF  FA7
076BC:  BSF    FA6.1
076BE:  BTFSC  FA6.1
076C0:  BRA    76BE
076C2:  BCF    FA6.2
076C4:  MOVF   00,W
076C6:  IORWF  FF2,F
....................                delay_ms(10); 
076C8:  MOVLW  0A
076CA:  MOVLB  5
076CC:  MOVWF  xFF
076CE:  MOVLB  0
076D0:  CALL   154C
....................                write_eeprom(34,make8(minutos_trabajo,1)); 
076D4:  MOVFF  4E8,5EB
076D8:  CLRF   FAA
076DA:  MOVLW  22
076DC:  MOVWF  FA9
076DE:  MOVFF  5EB,FA8
076E2:  BCF    FA6.6
076E4:  BCF    FA6.7
076E6:  BSF    FA6.2
076E8:  MOVF   FF2,W
076EA:  MOVWF  00
076EC:  BCF    FF2.7
076EE:  MOVLB  F
076F0:  MOVLW  55
076F2:  MOVWF  FA7
076F4:  MOVLW  AA
076F6:  MOVWF  FA7
076F8:  BSF    FA6.1
076FA:  BTFSC  FA6.1
076FC:  BRA    76FA
076FE:  BCF    FA6.2
07700:  MOVF   00,W
07702:  IORWF  FF2,F
....................                delay_ms(10); 
07704:  MOVLW  0A
07706:  MOVLB  5
07708:  MOVWF  xFF
0770A:  MOVLB  0
0770C:  CALL   154C
....................                write_eeprom(16,Ttrabajo[0]); 
07710:  CLRF   FAA
07712:  MOVLW  10
07714:  MOVWF  FA9
07716:  MOVFF  50B,FA8
0771A:  BCF    FA6.6
0771C:  BCF    FA6.7
0771E:  BSF    FA6.2
07720:  MOVF   FF2,W
07722:  MOVWF  00
07724:  BCF    FF2.7
07726:  MOVLB  F
07728:  MOVLW  55
0772A:  MOVWF  FA7
0772C:  MOVLW  AA
0772E:  MOVWF  FA7
07730:  BSF    FA6.1
07732:  BTFSC  FA6.1
07734:  BRA    7732
07736:  BCF    FA6.2
07738:  MOVF   00,W
0773A:  IORWF  FF2,F
....................                delay_ms(10); 
0773C:  MOVLW  0A
0773E:  MOVLB  5
07740:  MOVWF  xFF
07742:  MOVLB  0
07744:  CALL   154C
....................                write_eeprom(17,Ttrabajo[1]); 
07748:  CLRF   FAA
0774A:  MOVLW  11
0774C:  MOVWF  FA9
0774E:  MOVFF  50C,FA8
07752:  BCF    FA6.6
07754:  BCF    FA6.7
07756:  BSF    FA6.2
07758:  MOVF   FF2,W
0775A:  MOVWF  00
0775C:  BCF    FF2.7
0775E:  MOVLB  F
07760:  MOVLW  55
07762:  MOVWF  FA7
07764:  MOVLW  AA
07766:  MOVWF  FA7
07768:  BSF    FA6.1
0776A:  BTFSC  FA6.1
0776C:  BRA    776A
0776E:  BCF    FA6.2
07770:  MOVF   00,W
07772:  IORWF  FF2,F
....................                delay_ms(10); 
07774:  MOVLW  0A
07776:  MOVLB  5
07778:  MOVWF  xFF
0777A:  MOVLB  0
0777C:  CALL   154C
....................                write_eeprom(18,Ttrabajo[2]); 
07780:  CLRF   FAA
07782:  MOVLW  12
07784:  MOVWF  FA9
07786:  MOVFF  50D,FA8
0778A:  BCF    FA6.6
0778C:  BCF    FA6.7
0778E:  BSF    FA6.2
07790:  MOVF   FF2,W
07792:  MOVWF  00
07794:  BCF    FF2.7
07796:  MOVLB  F
07798:  MOVLW  55
0779A:  MOVWF  FA7
0779C:  MOVLW  AA
0779E:  MOVWF  FA7
077A0:  BSF    FA6.1
077A2:  BTFSC  FA6.1
077A4:  BRA    77A2
077A6:  BCF    FA6.2
077A8:  MOVF   00,W
077AA:  IORWF  FF2,F
....................                delay_ms(10); 
077AC:  MOVLW  0A
077AE:  MOVLB  5
077B0:  MOVWF  xFF
077B2:  MOVLB  0
077B4:  CALL   154C
....................                write_eeprom(19,Ttrabajo[3]); 
077B8:  CLRF   FAA
077BA:  MOVLW  13
077BC:  MOVWF  FA9
077BE:  MOVFF  50E,FA8
077C2:  BCF    FA6.6
077C4:  BCF    FA6.7
077C6:  BSF    FA6.2
077C8:  MOVF   FF2,W
077CA:  MOVWF  00
077CC:  BCF    FF2.7
077CE:  MOVLB  F
077D0:  MOVLW  55
077D2:  MOVWF  FA7
077D4:  MOVLW  AA
077D6:  MOVWF  FA7
077D8:  BSF    FA6.1
077DA:  BTFSC  FA6.1
077DC:  BRA    77DA
077DE:  BCF    FA6.2
077E0:  MOVF   00,W
077E2:  IORWF  FF2,F
....................                delay_ms(10); 
077E4:  MOVLW  0A
077E6:  MOVLB  5
077E8:  MOVWF  xFF
077EA:  MOVLB  0
077EC:  CALL   154C
....................                glcd_init(ON);             //Inicializa la glcd 
077F0:  MOVLW  01
077F2:  MOVLB  5
077F4:  MOVWF  xEB
077F6:  MOVLB  0
077F8:  CALL   173E
....................                glcd_fillScreen(OFF);      //Limpia la pantalla 
077FC:  MOVLB  5
077FE:  CLRF   xF3
07800:  MOVLB  0
07802:  CALL   162C
....................                glcd_update();   
07806:  CALL   1686
....................             } 
....................             VelocidadMotor(VelMotor); 
0780A:  MOVFF  5E2,5EB
0780E:  MOVLB  0
07810:  CALL   1574
....................          }else{ 
07814:  BRA    79B2
07816:  MOVLB  4
....................             Filtro_Downflow=0; 
07818:  MOVLB  5
0781A:  CLRF   x22
0781C:  CLRF   x21
0781E:  CLRF   x20
07820:  CLRF   x1F
....................             glcd_rect(102, 45, 126, 62, YES, OFF);tiempo_trabajo=0;VelocidadMotor(0); 
07822:  MOVLW  66
07824:  MOVLB  6
07826:  MOVWF  x04
07828:  MOVLW  2D
0782A:  MOVWF  x05
0782C:  MOVLW  7E
0782E:  MOVWF  x06
07830:  MOVLW  3E
07832:  MOVWF  x07
07834:  MOVLW  01
07836:  MOVWF  x08
07838:  CLRF   x09
0783A:  MOVLB  0
0783C:  CALL   4CF0
07840:  MOVLB  4
07842:  BCF    x2E.5
07844:  MOVLB  5
07846:  CLRF   xEB
07848:  MOVLB  0
0784A:  CALL   1574
....................             if(guardatrabajo==0){ 
0784E:  MOVLB  4
07850:  BTFSC  x2F.3
07852:  BRA    79B4
....................                guardatrabajo=1; 
07854:  BSF    x2F.3
....................                write_eeprom(33,make8(minutos_trabajo,0)); 
07856:  MOVFF  4E7,5EB
0785A:  CLRF   FAA
0785C:  MOVLW  21
0785E:  MOVWF  FA9
07860:  MOVFF  5EB,FA8
07864:  BCF    FA6.6
07866:  BCF    FA6.7
07868:  BSF    FA6.2
0786A:  MOVF   FF2,W
0786C:  MOVWF  00
0786E:  BCF    FF2.7
07870:  MOVLB  F
07872:  MOVLW  55
07874:  MOVWF  FA7
07876:  MOVLW  AA
07878:  MOVWF  FA7
0787A:  BSF    FA6.1
0787C:  BTFSC  FA6.1
0787E:  BRA    787C
07880:  BCF    FA6.2
07882:  MOVF   00,W
07884:  IORWF  FF2,F
....................                delay_ms(10); 
07886:  MOVLW  0A
07888:  MOVLB  5
0788A:  MOVWF  xFF
0788C:  MOVLB  0
0788E:  CALL   154C
....................                write_eeprom(34,make8(minutos_trabajo,1)); 
07892:  MOVFF  4E8,5EB
07896:  CLRF   FAA
07898:  MOVLW  22
0789A:  MOVWF  FA9
0789C:  MOVFF  5EB,FA8
078A0:  BCF    FA6.6
078A2:  BCF    FA6.7
078A4:  BSF    FA6.2
078A6:  MOVF   FF2,W
078A8:  MOVWF  00
078AA:  BCF    FF2.7
078AC:  MOVLB  F
078AE:  MOVLW  55
078B0:  MOVWF  FA7
078B2:  MOVLW  AA
078B4:  MOVWF  FA7
078B6:  BSF    FA6.1
078B8:  BTFSC  FA6.1
078BA:  BRA    78B8
078BC:  BCF    FA6.2
078BE:  MOVF   00,W
078C0:  IORWF  FF2,F
....................                delay_ms(10); 
078C2:  MOVLW  0A
078C4:  MOVLB  5
078C6:  MOVWF  xFF
078C8:  MOVLB  0
078CA:  CALL   154C
....................                write_eeprom(16,Ttrabajo[0]); 
078CE:  CLRF   FAA
078D0:  MOVLW  10
078D2:  MOVWF  FA9
078D4:  MOVFF  50B,FA8
078D8:  BCF    FA6.6
078DA:  BCF    FA6.7
078DC:  BSF    FA6.2
078DE:  MOVF   FF2,W
078E0:  MOVWF  00
078E2:  BCF    FF2.7
078E4:  MOVLB  F
078E6:  MOVLW  55
078E8:  MOVWF  FA7
078EA:  MOVLW  AA
078EC:  MOVWF  FA7
078EE:  BSF    FA6.1
078F0:  BTFSC  FA6.1
078F2:  BRA    78F0
078F4:  BCF    FA6.2
078F6:  MOVF   00,W
078F8:  IORWF  FF2,F
....................                delay_ms(10); 
078FA:  MOVLW  0A
078FC:  MOVLB  5
078FE:  MOVWF  xFF
07900:  MOVLB  0
07902:  CALL   154C
....................                write_eeprom(17,Ttrabajo[1]); 
07906:  CLRF   FAA
07908:  MOVLW  11
0790A:  MOVWF  FA9
0790C:  MOVFF  50C,FA8
07910:  BCF    FA6.6
07912:  BCF    FA6.7
07914:  BSF    FA6.2
07916:  MOVF   FF2,W
07918:  MOVWF  00
0791A:  BCF    FF2.7
0791C:  MOVLB  F
0791E:  MOVLW  55
07920:  MOVWF  FA7
07922:  MOVLW  AA
07924:  MOVWF  FA7
07926:  BSF    FA6.1
07928:  BTFSC  FA6.1
0792A:  BRA    7928
0792C:  BCF    FA6.2
0792E:  MOVF   00,W
07930:  IORWF  FF2,F
....................                delay_ms(10); 
07932:  MOVLW  0A
07934:  MOVLB  5
07936:  MOVWF  xFF
07938:  MOVLB  0
0793A:  CALL   154C
....................                write_eeprom(18,Ttrabajo[2]); 
0793E:  CLRF   FAA
07940:  MOVLW  12
07942:  MOVWF  FA9
07944:  MOVFF  50D,FA8
07948:  BCF    FA6.6
0794A:  BCF    FA6.7
0794C:  BSF    FA6.2
0794E:  MOVF   FF2,W
07950:  MOVWF  00
07952:  BCF    FF2.7
07954:  MOVLB  F
07956:  MOVLW  55
07958:  MOVWF  FA7
0795A:  MOVLW  AA
0795C:  MOVWF  FA7
0795E:  BSF    FA6.1
07960:  BTFSC  FA6.1
07962:  BRA    7960
07964:  BCF    FA6.2
07966:  MOVF   00,W
07968:  IORWF  FF2,F
....................                delay_ms(10); 
0796A:  MOVLW  0A
0796C:  MOVLB  5
0796E:  MOVWF  xFF
07970:  MOVLB  0
07972:  CALL   154C
....................                write_eeprom(19,Ttrabajo[3]); 
07976:  CLRF   FAA
07978:  MOVLW  13
0797A:  MOVWF  FA9
0797C:  MOVFF  50E,FA8
07980:  BCF    FA6.6
07982:  BCF    FA6.7
07984:  BSF    FA6.2
07986:  MOVF   FF2,W
07988:  MOVWF  00
0798A:  BCF    FF2.7
0798C:  MOVLB  F
0798E:  MOVLW  55
07990:  MOVWF  FA7
07992:  MOVLW  AA
07994:  MOVWF  FA7
07996:  BSF    FA6.1
07998:  BTFSC  FA6.1
0799A:  BRA    7998
0799C:  BCF    FA6.2
0799E:  MOVF   00,W
079A0:  IORWF  FF2,F
....................                delay_ms(10); 
079A2:  MOVLW  0A
079A4:  MOVLB  5
079A6:  MOVWF  xFF
079A8:  MOVLB  0
079AA:  CALL   154C
....................                //glcd_init(ON);             //Inicializa la glcd 
....................                //glcd_fillScreen(OFF);      //Limpia la pantalla 
....................                glcd_update();   
079AE:  CALL   1686
079B2:  MOVLB  4
....................             } 
....................          } 
....................           
....................       if(flag_luz==1 && flag_uv==0){ 
079B4:  BTFSS  x2E.1
079B6:  BRA    79D0
079B8:  BTFSC  x2E.7
079BA:  BRA    79D0
....................          glcd_imagen(3);LuzBlanca_on; 
079BC:  MOVLW  03
079BE:  MOVLB  5
079C0:  MOVWF  xEB
079C2:  MOVLB  0
079C4:  CALL   5DA8
079C8:  BSF    F8B.0
079CA:  BCF    F94.0
....................       }else{ 
079CC:  BRA    79F2
079CE:  MOVLB  4
....................          glcd_rect(102, 14, 126, 28, YES, OFF);LuzBlanca_off; 
079D0:  MOVLW  66
079D2:  MOVLB  6
079D4:  MOVWF  x04
079D6:  MOVLW  0E
079D8:  MOVWF  x05
079DA:  MOVLW  7E
079DC:  MOVWF  x06
079DE:  MOVLW  1C
079E0:  MOVWF  x07
079E2:  MOVLW  01
079E4:  MOVWF  x08
079E6:  CLRF   x09
079E8:  MOVLB  0
079EA:  CALL   4CF0
079EE:  BCF    F8B.0
079F0:  BCF    F94.0
....................       } 
....................           
....................       if(flag_uv){ 
079F2:  MOVLB  4
079F4:  BTFSS  x2E.7
079F6:  BRA    7B46
....................          tiempo_uv=1; 
079F8:  BSF    x2F.0
....................          LuzUV_on;flag_luz=0;flag_blower=0; 
079FA:  BSF    F8B.1
079FC:  BCF    F94.1
079FE:  BCF    x2E.1
07A00:  BCF    x2D.7
....................          glcd_text57(105, 30, UV, 2, ON); 
07A02:  MOVLW  69
07A04:  MOVLB  6
07A06:  MOVWF  x04
07A08:  MOVLW  1E
07A0A:  MOVWF  x05
07A0C:  MOVLW  04
07A0E:  MOVWF  x07
07A10:  MOVLW  6A
07A12:  MOVWF  x06
07A14:  MOVLW  02
07A16:  MOVWF  x08
07A18:  MOVLW  01
07A1A:  MOVWF  x09
07A1C:  MOVLB  0
07A1E:  CALL   18A2
....................          if(guardauv==1){ 
07A22:  MOVLB  4
07A24:  BTFSS  x2F.1
07A26:  BRA    7B44
....................             guardauv=0; 
07A28:  BCF    x2F.1
....................             write_eeprom(31,minutos_uv); 
07A2A:  CLRF   FAA
07A2C:  MOVLW  1F
07A2E:  MOVWF  FA9
07A30:  MOVFF  4E5,FA8
07A34:  BCF    FA6.6
07A36:  BCF    FA6.7
07A38:  BSF    FA6.2
07A3A:  MOVF   FF2,W
07A3C:  MOVWF  00
07A3E:  BCF    FF2.7
07A40:  MOVLB  F
07A42:  MOVLW  55
07A44:  MOVWF  FA7
07A46:  MOVLW  AA
07A48:  MOVWF  FA7
07A4A:  BSF    FA6.1
07A4C:  BTFSC  FA6.1
07A4E:  BRA    7A4C
07A50:  BCF    FA6.2
07A52:  MOVF   00,W
07A54:  IORWF  FF2,F
....................             delay_ms(20); 
07A56:  MOVLW  14
07A58:  MOVLB  5
07A5A:  MOVWF  xFF
07A5C:  MOVLB  0
07A5E:  CALL   154C
....................             write_eeprom(12,Tuv[0]); 
07A62:  CLRF   FAA
07A64:  MOVLW  0C
07A66:  MOVWF  FA9
07A68:  MOVFF  4FF,FA8
07A6C:  BCF    FA6.6
07A6E:  BCF    FA6.7
07A70:  BSF    FA6.2
07A72:  MOVF   FF2,W
07A74:  MOVWF  00
07A76:  BCF    FF2.7
07A78:  MOVLB  F
07A7A:  MOVLW  55
07A7C:  MOVWF  FA7
07A7E:  MOVLW  AA
07A80:  MOVWF  FA7
07A82:  BSF    FA6.1
07A84:  BTFSC  FA6.1
07A86:  BRA    7A84
07A88:  BCF    FA6.2
07A8A:  MOVF   00,W
07A8C:  IORWF  FF2,F
....................             delay_ms(20); 
07A8E:  MOVLW  14
07A90:  MOVLB  5
07A92:  MOVWF  xFF
07A94:  MOVLB  0
07A96:  CALL   154C
....................             write_eeprom(13,Tuv[1]); 
07A9A:  CLRF   FAA
07A9C:  MOVLW  0D
07A9E:  MOVWF  FA9
07AA0:  MOVFF  500,FA8
07AA4:  BCF    FA6.6
07AA6:  BCF    FA6.7
07AA8:  BSF    FA6.2
07AAA:  MOVF   FF2,W
07AAC:  MOVWF  00
07AAE:  BCF    FF2.7
07AB0:  MOVLB  F
07AB2:  MOVLW  55
07AB4:  MOVWF  FA7
07AB6:  MOVLW  AA
07AB8:  MOVWF  FA7
07ABA:  BSF    FA6.1
07ABC:  BTFSC  FA6.1
07ABE:  BRA    7ABC
07AC0:  BCF    FA6.2
07AC2:  MOVF   00,W
07AC4:  IORWF  FF2,F
....................             delay_ms(20); 
07AC6:  MOVLW  14
07AC8:  MOVLB  5
07ACA:  MOVWF  xFF
07ACC:  MOVLB  0
07ACE:  CALL   154C
....................             write_eeprom(14,Tuv[2]); 
07AD2:  CLRF   FAA
07AD4:  MOVLW  0E
07AD6:  MOVWF  FA9
07AD8:  MOVFF  501,FA8
07ADC:  BCF    FA6.6
07ADE:  BCF    FA6.7
07AE0:  BSF    FA6.2
07AE2:  MOVF   FF2,W
07AE4:  MOVWF  00
07AE6:  BCF    FF2.7
07AE8:  MOVLB  F
07AEA:  MOVLW  55
07AEC:  MOVWF  FA7
07AEE:  MOVLW  AA
07AF0:  MOVWF  FA7
07AF2:  BSF    FA6.1
07AF4:  BTFSC  FA6.1
07AF6:  BRA    7AF4
07AF8:  BCF    FA6.2
07AFA:  MOVF   00,W
07AFC:  IORWF  FF2,F
....................             delay_ms(20); 
07AFE:  MOVLW  14
07B00:  MOVLB  5
07B02:  MOVWF  xFF
07B04:  MOVLB  0
07B06:  CALL   154C
....................             write_eeprom(15,Tuv[3]); 
07B0A:  CLRF   FAA
07B0C:  MOVLW  0F
07B0E:  MOVWF  FA9
07B10:  MOVFF  502,FA8
07B14:  BCF    FA6.6
07B16:  BCF    FA6.7
07B18:  BSF    FA6.2
07B1A:  MOVF   FF2,W
07B1C:  MOVWF  00
07B1E:  BCF    FF2.7
07B20:  MOVLB  F
07B22:  MOVLW  55
07B24:  MOVWF  FA7
07B26:  MOVLW  AA
07B28:  MOVWF  FA7
07B2A:  BSF    FA6.1
07B2C:  BTFSC  FA6.1
07B2E:  BRA    7B2C
07B30:  BCF    FA6.2
07B32:  MOVF   00,W
07B34:  IORWF  FF2,F
....................             delay_ms(20); 
07B36:  MOVLW  14
07B38:  MOVLB  5
07B3A:  MOVWF  xFF
07B3C:  MOVLB  0
07B3E:  CALL   154C
07B42:  MOVLB  4
....................          }                
....................       }else{ 
07B44:  BRA    7C8C
....................          LuzUV_off;tiempo_uv=0; 
07B46:  BCF    F8B.1
07B48:  BCF    F94.1
07B4A:  BCF    x2F.0
....................          glcd_rect(102, 30, 126, 44, YES, OFF); 
07B4C:  MOVLW  66
07B4E:  MOVLB  6
07B50:  MOVWF  x04
07B52:  MOVLW  1E
07B54:  MOVWF  x05
07B56:  MOVLW  7E
07B58:  MOVWF  x06
07B5A:  MOVLW  2C
07B5C:  MOVWF  x07
07B5E:  MOVLW  01
07B60:  MOVWF  x08
07B62:  CLRF   x09
07B64:  MOVLB  0
07B66:  CALL   4CF0
....................          if(guardauv==0){ 
07B6A:  MOVLB  4
07B6C:  BTFSC  x2F.1
07B6E:  BRA    7C8C
....................             guardauv=1; 
07B70:  BSF    x2F.1
....................             write_eeprom(31,minutos_uv); 
07B72:  CLRF   FAA
07B74:  MOVLW  1F
07B76:  MOVWF  FA9
07B78:  MOVFF  4E5,FA8
07B7C:  BCF    FA6.6
07B7E:  BCF    FA6.7
07B80:  BSF    FA6.2
07B82:  MOVF   FF2,W
07B84:  MOVWF  00
07B86:  BCF    FF2.7
07B88:  MOVLB  F
07B8A:  MOVLW  55
07B8C:  MOVWF  FA7
07B8E:  MOVLW  AA
07B90:  MOVWF  FA7
07B92:  BSF    FA6.1
07B94:  BTFSC  FA6.1
07B96:  BRA    7B94
07B98:  BCF    FA6.2
07B9A:  MOVF   00,W
07B9C:  IORWF  FF2,F
....................             delay_ms(20); 
07B9E:  MOVLW  14
07BA0:  MOVLB  5
07BA2:  MOVWF  xFF
07BA4:  MOVLB  0
07BA6:  CALL   154C
....................             write_eeprom(12,Tuv[0]); 
07BAA:  CLRF   FAA
07BAC:  MOVLW  0C
07BAE:  MOVWF  FA9
07BB0:  MOVFF  4FF,FA8
07BB4:  BCF    FA6.6
07BB6:  BCF    FA6.7
07BB8:  BSF    FA6.2
07BBA:  MOVF   FF2,W
07BBC:  MOVWF  00
07BBE:  BCF    FF2.7
07BC0:  MOVLB  F
07BC2:  MOVLW  55
07BC4:  MOVWF  FA7
07BC6:  MOVLW  AA
07BC8:  MOVWF  FA7
07BCA:  BSF    FA6.1
07BCC:  BTFSC  FA6.1
07BCE:  BRA    7BCC
07BD0:  BCF    FA6.2
07BD2:  MOVF   00,W
07BD4:  IORWF  FF2,F
....................             delay_ms(20); 
07BD6:  MOVLW  14
07BD8:  MOVLB  5
07BDA:  MOVWF  xFF
07BDC:  MOVLB  0
07BDE:  CALL   154C
....................             write_eeprom(13,Tuv[1]); 
07BE2:  CLRF   FAA
07BE4:  MOVLW  0D
07BE6:  MOVWF  FA9
07BE8:  MOVFF  500,FA8
07BEC:  BCF    FA6.6
07BEE:  BCF    FA6.7
07BF0:  BSF    FA6.2
07BF2:  MOVF   FF2,W
07BF4:  MOVWF  00
07BF6:  BCF    FF2.7
07BF8:  MOVLB  F
07BFA:  MOVLW  55
07BFC:  MOVWF  FA7
07BFE:  MOVLW  AA
07C00:  MOVWF  FA7
07C02:  BSF    FA6.1
07C04:  BTFSC  FA6.1
07C06:  BRA    7C04
07C08:  BCF    FA6.2
07C0A:  MOVF   00,W
07C0C:  IORWF  FF2,F
....................             delay_ms(20); 
07C0E:  MOVLW  14
07C10:  MOVLB  5
07C12:  MOVWF  xFF
07C14:  MOVLB  0
07C16:  CALL   154C
....................             write_eeprom(14,Tuv[2]); 
07C1A:  CLRF   FAA
07C1C:  MOVLW  0E
07C1E:  MOVWF  FA9
07C20:  MOVFF  501,FA8
07C24:  BCF    FA6.6
07C26:  BCF    FA6.7
07C28:  BSF    FA6.2
07C2A:  MOVF   FF2,W
07C2C:  MOVWF  00
07C2E:  BCF    FF2.7
07C30:  MOVLB  F
07C32:  MOVLW  55
07C34:  MOVWF  FA7
07C36:  MOVLW  AA
07C38:  MOVWF  FA7
07C3A:  BSF    FA6.1
07C3C:  BTFSC  FA6.1
07C3E:  BRA    7C3C
07C40:  BCF    FA6.2
07C42:  MOVF   00,W
07C44:  IORWF  FF2,F
....................             delay_ms(20); 
07C46:  MOVLW  14
07C48:  MOVLB  5
07C4A:  MOVWF  xFF
07C4C:  MOVLB  0
07C4E:  CALL   154C
....................             write_eeprom(15,Tuv[3]); 
07C52:  CLRF   FAA
07C54:  MOVLW  0F
07C56:  MOVWF  FA9
07C58:  MOVFF  502,FA8
07C5C:  BCF    FA6.6
07C5E:  BCF    FA6.7
07C60:  BSF    FA6.2
07C62:  MOVF   FF2,W
07C64:  MOVWF  00
07C66:  BCF    FF2.7
07C68:  MOVLB  F
07C6A:  MOVLW  55
07C6C:  MOVWF  FA7
07C6E:  MOVLW  AA
07C70:  MOVWF  FA7
07C72:  BSF    FA6.1
07C74:  BTFSC  FA6.1
07C76:  BRA    7C74
07C78:  BCF    FA6.2
07C7A:  MOVF   00,W
07C7C:  IORWF  FF2,F
....................             delay_ms(20); 
07C7E:  MOVLW  14
07C80:  MOVLB  5
07C82:  MOVWF  xFF
07C84:  MOVLB  0
07C86:  CALL   154C
07C8A:  MOVLB  4
....................          } 
....................       } 
....................        
....................       if(tiempocumplido){ 
07C8C:  BTFSS  x2F.2
07C8E:  BRA    7CF6
....................          tiempo_uv=0;flag_uv=0;glcd_rect(102, 30, 126, 44, YES, OFF); 
07C90:  BCF    x2F.0
07C92:  BCF    x2E.7
07C94:  MOVLW  66
07C96:  MOVLB  6
07C98:  MOVWF  x04
07C9A:  MOVLW  1E
07C9C:  MOVWF  x05
07C9E:  MOVLW  7E
07CA0:  MOVWF  x06
07CA2:  MOVLW  2C
07CA4:  MOVWF  x07
07CA6:  MOVLW  01
07CA8:  MOVWF  x08
07CAA:  CLRF   x09
07CAC:  MOVLB  0
07CAE:  CALL   4CF0
....................          Tempouv[0]=Tempouvp[0];Tempouv[1]=Tempouvp[1];Tempouv[2]=Tempouvp[2];Tempouv[3]=Tempouvp[3];tiempocumplido=0; 
07CB2:  MOVFF  503,507
07CB6:  MOVFF  504,508
07CBA:  MOVFF  505,509
07CBE:  MOVFF  506,50A
07CC2:  MOVLB  4
07CC4:  BCF    x2F.2
....................          for(i=0;i<3;i++){ 
07CC6:  MOVLB  5
07CC8:  CLRF   xDB
07CCA:  MOVF   xDB,W
07CCC:  SUBLW  02
07CCE:  BNC   7CF4
....................             Alarma_on; 
07CD0:  BSF    F8B.7
07CD2:  BCF    F94.7
....................             delay_ms(100); 
07CD4:  MOVLW  64
07CD6:  MOVWF  xFF
07CD8:  MOVLB  0
07CDA:  CALL   154C
....................             Alarma_off; 
07CDE:  BCF    F8B.7
07CE0:  BCF    F94.7
....................             delay_ms(100); 
07CE2:  MOVLW  64
07CE4:  MOVLB  5
07CE6:  MOVWF  xFF
07CE8:  MOVLB  0
07CEA:  CALL   154C
....................          } 
07CEE:  MOVLB  5
07CF0:  INCF   xDB,F
07CF2:  BRA    7CCA
07CF4:  MOVLB  4
....................       } 
....................              
....................       if(tright>=30){//Si oprime boton de Blower. 
07CF6:  MOVF   xF0,F
07CF8:  BNZ   7D00
07CFA:  MOVF   xEF,W
07CFC:  SUBLW  1D
07CFE:  BC    7D18
....................          if(Flanco3 == 0){ 
07D00:  BTFSC  x2D.3
07D02:  BRA    7D16
....................             Flanco3 = 1;delay_ms(1);flag_blower=!flag_blower; 
07D04:  BSF    x2D.3
07D06:  MOVLW  01
07D08:  MOVLB  5
07D0A:  MOVWF  xFF
07D0C:  MOVLB  0
07D0E:  CALL   154C
07D12:  MOVLB  4
07D14:  BTG    x2D.7
....................          } 
....................       }else{ 
07D16:  BRA    7D1A
....................          Flanco3 = 0; 
07D18:  BCF    x2D.3
....................       } 
....................        
....................       if(tleft>=30){//Si oprime boton de UV. 
07D1A:  MOVF   xF2,F
07D1C:  BNZ   7D24
07D1E:  MOVF   xF1,W
07D20:  SUBLW  1D
07D22:  BC    7D3C
....................          if(Flanco4 == 0){ 
07D24:  BTFSC  x2D.4
07D26:  BRA    7D3A
....................             Flanco4 = 1;delay_ms(1);flag_uv=!flag_uv; 
07D28:  BSF    x2D.4
07D2A:  MOVLW  01
07D2C:  MOVLB  5
07D2E:  MOVWF  xFF
07D30:  MOVLB  0
07D32:  CALL   154C
07D36:  MOVLB  4
07D38:  BTG    x2E.7
....................          } 
....................       }else{ 
07D3A:  BRA    7D3E
....................          Flanco4 = 0; 
07D3C:  BCF    x2D.4
....................       } 
....................              
....................       if(tdown>=30){//Si oprime boton de Luz Blanca. 
07D3E:  MOVF   xEE,F
07D40:  BNZ   7D48
07D42:  MOVF   xED,W
07D44:  SUBLW  1D
07D46:  BC    7D60
....................          if(Flanco5 == 0){ 
07D48:  BTFSC  x2D.5
07D4A:  BRA    7D5E
....................             Flanco5 = 1;delay_ms(1);flag_luz=!flag_luz; 
07D4C:  BSF    x2D.5
07D4E:  MOVLW  01
07D50:  MOVLB  5
07D52:  MOVWF  xFF
07D54:  MOVLB  0
07D56:  CALL   154C
07D5A:  MOVLB  4
07D5C:  BTG    x2E.1
....................          } 
....................       }else{ 
07D5E:  BRA    7D62
....................          Flanco5 = 0; 
07D60:  BCF    x2D.5
....................       } 
....................        
....................       if(tup>=30){//Si oprime boton de Toma.  
07D62:  MOVF   xEC,F
07D64:  BNZ   7D6C
07D66:  MOVF   xEB,W
07D68:  SUBLW  1D
07D6A:  BC    7D9E
....................          delay_ms(5);Menu=3;//glcd_fillScreen(OFF); 
07D6C:  MOVLW  05
07D6E:  MOVLB  5
07D70:  MOVWF  xFF
07D72:  MOVLB  0
07D74:  CALL   154C
07D78:  MOVLW  03
07D7A:  MOVLB  4
07D7C:  MOVWF  xCD
....................          glcd_init(ON);             //Inicializa la glcd 
07D7E:  MOVLW  01
07D80:  MOVLB  5
07D82:  MOVWF  xEB
07D84:  MOVLB  0
07D86:  CALL   173E
....................          glcd_fillScreen(OFF);      //Limpia la pantalla 
07D8A:  MOVLB  5
07D8C:  CLRF   xF3
07D8E:  MOVLB  0
07D90:  CALL   162C
....................          glcd_update();   
07D94:  CALL   1686
....................          LuzBlanca_off; 
07D98:  BCF    F8B.0
07D9A:  BCF    F94.0
07D9C:  MOVLB  4
....................       } 
....................              
....................     } 
.................... //_--------------------------------------------------------------------------------------------------------------------------------------------------------        
....................  
.................... //_-------------------------------------------------------------------------------------------------------------------------------------------------------- 
....................       if(Menu==3){ //Menu Principal. 
07D9E:  MOVF   xCD,W
07DA0:  SUBLW  03
07DA2:  BTFSS  FD8.2
07DA4:  BRA    808C
....................              
....................       strcpy(Menus.Letra,"Menu"); 
07DA6:  MOVLW  04
07DA8:  MOVWF  FEA
07DAA:  MOVLW  17
07DAC:  MOVWF  FE9
07DAE:  MOVFF  FF2,5EB
07DB2:  BCF    FF2.7
07DB4:  MOVLW  00
07DB6:  MOVLB  0
07DB8:  CALL   1070
07DBC:  TBLRD*-
07DBE:  TBLRD*+
07DC0:  MOVF   FF5,W
07DC2:  MOVWF  FEE
07DC4:  IORLW  00
07DC6:  BNZ   7DBE
07DC8:  MOVLB  5
07DCA:  BTFSC  xEB.7
07DCC:  BSF    FF2.7
....................       displayMenu(Menus.Letra,40,0,1,2); 
07DCE:  MOVLW  04
07DD0:  MOVWF  xF4
07DD2:  MOVLW  17
07DD4:  MOVWF  xF3
07DD6:  MOVLW  28
07DD8:  MOVWF  xF5
07DDA:  CLRF   xF6
07DDC:  MOVLW  01
07DDE:  MOVWF  xF7
07DE0:  MOVLW  02
07DE2:  MOVWF  xF8
07DE4:  MOVLB  0
07DE6:  CALL   4E88
....................        
....................       if(Opcion==1){ 
07DEA:  MOVLB  4
07DEC:  DECFSZ xCF,W
07DEE:  BRA    7E36
....................          strcpy(Menus.Letra,"Ajustes"); 
07DF0:  MOVLW  04
07DF2:  MOVWF  FEA
07DF4:  MOVLW  17
07DF6:  MOVWF  FE9
07DF8:  MOVFF  FF2,5EB
07DFC:  BCF    FF2.7
07DFE:  MOVLW  00
07E00:  MOVLB  0
07E02:  CALL   1094
07E06:  TBLRD*-
07E08:  TBLRD*+
07E0A:  MOVF   FF5,W
07E0C:  MOVWF  FEE
07E0E:  IORLW  00
07E10:  BNZ   7E08
07E12:  MOVLB  5
07E14:  BTFSC  xEB.7
07E16:  BSF    FF2.7
....................          displayMenu(Menus.Letra,0,19,1,1); 
07E18:  MOVLW  04
07E1A:  MOVWF  xF4
07E1C:  MOVLW  17
07E1E:  MOVWF  xF3
07E20:  CLRF   xF5
07E22:  MOVLW  13
07E24:  MOVWF  xF6
07E26:  MOVLW  01
07E28:  MOVWF  xF7
07E2A:  MOVWF  xF8
07E2C:  MOVLB  0
07E2E:  CALL   4E88
....................       }else{ 
07E32:  BRA    7E78
07E34:  MOVLB  4
....................          strcpy(Menus.Letra,"Ajustes"); 
07E36:  MOVLW  04
07E38:  MOVWF  FEA
07E3A:  MOVLW  17
07E3C:  MOVWF  FE9
07E3E:  MOVFF  FF2,5EB
07E42:  BCF    FF2.7
07E44:  MOVLW  00
07E46:  MOVLB  0
07E48:  CALL   1094
07E4C:  TBLRD*-
07E4E:  TBLRD*+
07E50:  MOVF   FF5,W
07E52:  MOVWF  FEE
07E54:  IORLW  00
07E56:  BNZ   7E4E
07E58:  MOVLB  5
07E5A:  BTFSC  xEB.7
07E5C:  BSF    FF2.7
....................          displayMenu(Menus.Letra,0,19,0,1); 
07E5E:  MOVLW  04
07E60:  MOVWF  xF4
07E62:  MOVLW  17
07E64:  MOVWF  xF3
07E66:  CLRF   xF5
07E68:  MOVLW  13
07E6A:  MOVWF  xF6
07E6C:  CLRF   xF7
07E6E:  MOVLW  01
07E70:  MOVWF  xF8
07E72:  MOVLB  0
07E74:  CALL   4E88
....................       } 
....................           
....................       if(Opcion==2){ 
07E78:  MOVLB  4
07E7A:  MOVF   xCF,W
07E7C:  SUBLW  02
07E7E:  BNZ   7EC6
....................          strcpy(Menus.Letra,"Cambio de Clave"); 
07E80:  MOVLW  04
07E82:  MOVWF  FEA
07E84:  MOVLW  17
07E86:  MOVWF  FE9
07E88:  MOVFF  FF2,5EB
07E8C:  BCF    FF2.7
07E8E:  MOVLW  00
07E90:  MOVLB  0
07E92:  CALL   10BA
07E96:  TBLRD*-
07E98:  TBLRD*+
07E9A:  MOVF   FF5,W
07E9C:  MOVWF  FEE
07E9E:  IORLW  00
07EA0:  BNZ   7E98
07EA2:  MOVLB  5
07EA4:  BTFSC  xEB.7
07EA6:  BSF    FF2.7
....................          displayMenu(Menus.Letra,0,35,1,1); 
07EA8:  MOVLW  04
07EAA:  MOVWF  xF4
07EAC:  MOVLW  17
07EAE:  MOVWF  xF3
07EB0:  CLRF   xF5
07EB2:  MOVLW  23
07EB4:  MOVWF  xF6
07EB6:  MOVLW  01
07EB8:  MOVWF  xF7
07EBA:  MOVWF  xF8
07EBC:  MOVLB  0
07EBE:  CALL   4E88
....................       }else{ 
07EC2:  BRA    7F08
07EC4:  MOVLB  4
....................          strcpy(Menus.Letra,"Cambio de Clave"); 
07EC6:  MOVLW  04
07EC8:  MOVWF  FEA
07ECA:  MOVLW  17
07ECC:  MOVWF  FE9
07ECE:  MOVFF  FF2,5EB
07ED2:  BCF    FF2.7
07ED4:  MOVLW  00
07ED6:  MOVLB  0
07ED8:  CALL   10BA
07EDC:  TBLRD*-
07EDE:  TBLRD*+
07EE0:  MOVF   FF5,W
07EE2:  MOVWF  FEE
07EE4:  IORLW  00
07EE6:  BNZ   7EDE
07EE8:  MOVLB  5
07EEA:  BTFSC  xEB.7
07EEC:  BSF    FF2.7
....................          displayMenu(Menus.Letra,0,35,0,1); 
07EEE:  MOVLW  04
07EF0:  MOVWF  xF4
07EF2:  MOVLW  17
07EF4:  MOVWF  xF3
07EF6:  CLRF   xF5
07EF8:  MOVLW  23
07EFA:  MOVWF  xF6
07EFC:  CLRF   xF7
07EFE:  MOVLW  01
07F00:  MOVWF  xF8
07F02:  MOVLB  0
07F04:  CALL   4E88
....................       } 
....................           
....................       if(Opcion==3){ 
07F08:  MOVLB  4
07F0A:  MOVF   xCF,W
07F0C:  SUBLW  03
07F0E:  BNZ   7F56
....................          strcpy(Menus.Letra,"Modo"); 
07F10:  MOVLW  04
07F12:  MOVWF  FEA
07F14:  MOVLW  17
07F16:  MOVWF  FE9
07F18:  MOVFF  FF2,5EB
07F1C:  BCF    FF2.7
07F1E:  MOVLW  00
07F20:  MOVLB  0
07F22:  CALL   10E8
07F26:  TBLRD*-
07F28:  TBLRD*+
07F2A:  MOVF   FF5,W
07F2C:  MOVWF  FEE
07F2E:  IORLW  00
07F30:  BNZ   7F28
07F32:  MOVLB  5
07F34:  BTFSC  xEB.7
07F36:  BSF    FF2.7
....................          displayMenu(Menus.Letra,0,51,1,1); 
07F38:  MOVLW  04
07F3A:  MOVWF  xF4
07F3C:  MOVLW  17
07F3E:  MOVWF  xF3
07F40:  CLRF   xF5
07F42:  MOVLW  33
07F44:  MOVWF  xF6
07F46:  MOVLW  01
07F48:  MOVWF  xF7
07F4A:  MOVWF  xF8
07F4C:  MOVLB  0
07F4E:  CALL   4E88
....................       }else{ 
07F52:  BRA    7F98
07F54:  MOVLB  4
....................          strcpy(Menus.Letra,"Modo"); 
07F56:  MOVLW  04
07F58:  MOVWF  FEA
07F5A:  MOVLW  17
07F5C:  MOVWF  FE9
07F5E:  MOVFF  FF2,5EB
07F62:  BCF    FF2.7
07F64:  MOVLW  00
07F66:  MOVLB  0
07F68:  CALL   10E8
07F6C:  TBLRD*-
07F6E:  TBLRD*+
07F70:  MOVF   FF5,W
07F72:  MOVWF  FEE
07F74:  IORLW  00
07F76:  BNZ   7F6E
07F78:  MOVLB  5
07F7A:  BTFSC  xEB.7
07F7C:  BSF    FF2.7
....................          displayMenu(Menus.Letra,0,51,0,1); 
07F7E:  MOVLW  04
07F80:  MOVWF  xF4
07F82:  MOVLW  17
07F84:  MOVWF  xF3
07F86:  CLRF   xF5
07F88:  MOVLW  33
07F8A:  MOVWF  xF6
07F8C:  CLRF   xF7
07F8E:  MOVLW  01
07F90:  MOVWF  xF8
07F92:  MOVLB  0
07F94:  CALL   4E88
....................       } 
....................       glcd_update();  
07F98:  CALL   1686
....................        
....................       if(w==0){ 
07F9C:  MOVLB  4
07F9E:  BTFSC  x2E.3
07FA0:  BRA    7FBC
....................          delay_ms(500);w=1; 
07FA2:  MOVLW  02
07FA4:  MOVLB  5
07FA6:  MOVWF  xEB
07FA8:  MOVLW  FA
07FAA:  MOVWF  xFF
07FAC:  MOVLB  0
07FAE:  CALL   154C
07FB2:  MOVLB  5
07FB4:  DECFSZ xEB,F
07FB6:  BRA    7FA8
07FB8:  MOVLB  4
07FBA:  BSF    x2E.3
....................       } 
....................           
....................       if(UP){//Si oprime hacia arriba         
07FBC:  BSF    F92.5
07FBE:  BTFSC  F80.5
07FC0:  BRA    7FDA
....................          if(Flanco == 0){ 
07FC2:  BTFSC  x2D.0
07FC4:  BRA    7FD8
....................             Flanco = 1;delay_ms(30);Opcion--; 
07FC6:  BSF    x2D.0
07FC8:  MOVLW  1E
07FCA:  MOVLB  5
07FCC:  MOVWF  xFF
07FCE:  MOVLB  0
07FD0:  CALL   154C
07FD4:  MOVLB  4
07FD6:  DECF   xCF,F
....................          } 
....................       }else{ 
07FD8:  BRA    7FDC
....................          Flanco = 0; 
07FDA:  BCF    x2D.0
....................       } 
....................              
....................       if(DOWN){//Si oprime hacia abajo 
07FDC:  BSF    F96.0
07FDE:  BTFSC  F84.0
07FE0:  BRA    7FFA
....................          if(Flanco2 == 0){ 
07FE2:  BTFSC  x2D.2
07FE4:  BRA    7FF8
....................             Flanco2 = 1;delay_ms(30);Opcion++; 
07FE6:  BSF    x2D.2
07FE8:  MOVLW  1E
07FEA:  MOVLB  5
07FEC:  MOVWF  xFF
07FEE:  MOVLB  0
07FF0:  CALL   154C
07FF4:  MOVLB  4
07FF6:  INCF   xCF,F
....................          } 
....................       }else{ 
07FF8:  BRA    7FFC
....................          Flanco2 = 0; 
07FFA:  BCF    x2D.2
....................       } 
....................              
....................       if(RIGHT){//Si oprime SET 
07FFC:  BSF    F96.1
07FFE:  BTFSC  F84.1
08000:  BRA    804A
....................          if(Flanco1 == 0){ 
08002:  BTFSC  x2D.1
08004:  BRA    8048
....................             Flanco1 = 1;delay_ms(500);Menu=Opcion+3;Opcion=1;glcd_fillscreen(OFF);unidad=1; 
08006:  BSF    x2D.1
08008:  MOVLW  02
0800A:  MOVLB  5
0800C:  MOVWF  xEB
0800E:  MOVLW  FA
08010:  MOVWF  xFF
08012:  MOVLB  0
08014:  CALL   154C
08018:  MOVLB  5
0801A:  DECFSZ xEB,F
0801C:  BRA    800E
0801E:  MOVLW  03
08020:  MOVLB  4
08022:  ADDWF  xCF,W
08024:  MOVWF  xCD
08026:  MOVLW  01
08028:  MOVWF  xCF
0802A:  MOVLB  5
0802C:  CLRF   xF3
0802E:  MOVLB  0
08030:  CALL   162C
08034:  MOVLW  01
08036:  MOVLB  4
08038:  MOVWF  xCE
....................             Contrasena[0]=0;Contrasena[1]=0;Contrasena[2]=0;Contrasena[3]=0;n=0; 
0803A:  MOVLB  5
0803C:  CLRF   x0F
0803E:  CLRF   x10
08040:  CLRF   x11
08042:  CLRF   x12
08044:  MOVLB  4
08046:  BCF    x2F.5
....................          } 
....................       }else{ 
08048:  BRA    804C
....................          Flanco1 = 0; 
0804A:  BCF    x2D.1
....................       } 
....................              
....................       if(LEFT){//Si oprime boton de Toma. 
0804C:  BSF    F96.2
0804E:  BTFSC  F84.2
08050:  BRA    807A
....................          delay_ms(700);Menu=2;glcd_fillscreen(OFF); 
08052:  MOVLW  04
08054:  MOVLB  5
08056:  MOVWF  xEB
08058:  MOVLW  AF
0805A:  MOVWF  xFF
0805C:  MOVLB  0
0805E:  CALL   154C
08062:  MOVLB  5
08064:  DECFSZ xEB,F
08066:  BRA    8058
08068:  MOVLW  02
0806A:  MOVLB  4
0806C:  MOVWF  xCD
0806E:  MOVLB  5
08070:  CLRF   xF3
08072:  MOVLB  0
08074:  CALL   162C
08078:  MOVLB  4
....................       } 
....................              
....................       if(Opcion>3) 
0807A:  MOVF   xCF,W
0807C:  SUBLW  03
0807E:  BC    8084
....................          Opcion=1; 
08080:  MOVLW  01
08082:  MOVWF  xCF
....................       if(Opcion<1) 
08084:  MOVF   xCF,F
08086:  BNZ   808C
....................          Opcion=3; 
08088:  MOVLW  03
0808A:  MOVWF  xCF
....................     } 
.................... //_--------------------------------------------------------------------------------------------------------------------------------------------------------        
....................  
.................... //_-------------------------------------------------------------------------------------------------------------------------------------------------------- 
....................       if(Menu==4){ //Menu de Ajustes. 
0808C:  MOVF   xCD,W
0808E:  SUBLW  04
08090:  BTFSS  FD8.2
08092:  BRA    82B2
....................        
....................       strcpy(Menus.Letra,"Ajustes"); 
08094:  MOVLW  04
08096:  MOVWF  FEA
08098:  MOVLW  17
0809A:  MOVWF  FE9
0809C:  MOVFF  FF2,5EB
080A0:  BCF    FF2.7
080A2:  MOVLW  00
080A4:  MOVLB  0
080A6:  CALL   1094
080AA:  TBLRD*-
080AC:  TBLRD*+
080AE:  MOVF   FF5,W
080B0:  MOVWF  FEE
080B2:  IORLW  00
080B4:  BNZ   80AC
080B6:  MOVLB  5
080B8:  BTFSC  xEB.7
080BA:  BSF    FF2.7
....................       displayMenu(Menus.Letra,0,0,1,2); 
080BC:  MOVLW  04
080BE:  MOVWF  xF4
080C0:  MOVLW  17
080C2:  MOVWF  xF3
080C4:  CLRF   xF5
080C6:  CLRF   xF6
080C8:  MOVLW  01
080CA:  MOVWF  xF7
080CC:  MOVLW  02
080CE:  MOVWF  xF8
080D0:  MOVLB  0
080D2:  CALL   4E88
....................        
....................       if(Opcion==1)    
080D6:  MOVLB  4
080D8:  DECFSZ xCF,W
080DA:  BRA    8122
....................          {strcpy(Menus.Letra,"Tiempo Purga"); 
080DC:  MOVLW  04
080DE:  MOVWF  FEA
080E0:  MOVLW  17
080E2:  MOVWF  FE9
080E4:  MOVFF  FF2,5EB
080E8:  BCF    FF2.7
080EA:  MOVLW  00
080EC:  MOVLB  0
080EE:  CALL   110C
080F2:  TBLRD*-
080F4:  TBLRD*+
080F6:  MOVF   FF5,W
080F8:  MOVWF  FEE
080FA:  IORLW  00
080FC:  BNZ   80F4
080FE:  MOVLB  5
08100:  BTFSC  xEB.7
08102:  BSF    FF2.7
....................          displayMenu(Menus.Letra,0,20,1,1);} 
08104:  MOVLW  04
08106:  MOVWF  xF4
08108:  MOVLW  17
0810A:  MOVWF  xF3
0810C:  CLRF   xF5
0810E:  MOVLW  14
08110:  MOVWF  xF6
08112:  MOVLW  01
08114:  MOVWF  xF7
08116:  MOVWF  xF8
08118:  MOVLB  0
0811A:  CALL   4E88
....................       else 
0811E:  BRA    8164
08120:  MOVLB  4
....................          {strcpy(Menus.Letra,"Tiempo Purga"); 
08122:  MOVLW  04
08124:  MOVWF  FEA
08126:  MOVLW  17
08128:  MOVWF  FE9
0812A:  MOVFF  FF2,5EB
0812E:  BCF    FF2.7
08130:  MOVLW  00
08132:  MOVLB  0
08134:  CALL   110C
08138:  TBLRD*-
0813A:  TBLRD*+
0813C:  MOVF   FF5,W
0813E:  MOVWF  FEE
08140:  IORLW  00
08142:  BNZ   813A
08144:  MOVLB  5
08146:  BTFSC  xEB.7
08148:  BSF    FF2.7
....................          displayMenu(Menus.Letra,0,20,0,1);}              
0814A:  MOVLW  04
0814C:  MOVWF  xF4
0814E:  MOVLW  17
08150:  MOVWF  xF3
08152:  CLRF   xF5
08154:  MOVLW  14
08156:  MOVWF  xF6
08158:  CLRF   xF7
0815A:  MOVLW  01
0815C:  MOVWF  xF8
0815E:  MOVLB  0
08160:  CALL   4E88
....................        
....................       if(Opcion==2)    
08164:  MOVLB  4
08166:  MOVF   xCF,W
08168:  SUBLW  02
0816A:  BNZ   81B2
....................          {strcpy(Menus.Letra,"Tempo UV"); 
0816C:  MOVLW  04
0816E:  MOVWF  FEA
08170:  MOVLW  17
08172:  MOVWF  FE9
08174:  MOVFF  FF2,5EB
08178:  BCF    FF2.7
0817A:  MOVLW  00
0817C:  MOVLB  0
0817E:  CALL   1138
08182:  TBLRD*-
08184:  TBLRD*+
08186:  MOVF   FF5,W
08188:  MOVWF  FEE
0818A:  IORLW  00
0818C:  BNZ   8184
0818E:  MOVLB  5
08190:  BTFSC  xEB.7
08192:  BSF    FF2.7
....................          displayMenu(Menus.Letra,0,35,1,1);} 
08194:  MOVLW  04
08196:  MOVWF  xF4
08198:  MOVLW  17
0819A:  MOVWF  xF3
0819C:  CLRF   xF5
0819E:  MOVLW  23
081A0:  MOVWF  xF6
081A2:  MOVLW  01
081A4:  MOVWF  xF7
081A6:  MOVWF  xF8
081A8:  MOVLB  0
081AA:  CALL   4E88
....................       else 
081AE:  BRA    81F4
081B0:  MOVLB  4
....................          {strcpy(Menus.Letra,"Tempo UV"); 
081B2:  MOVLW  04
081B4:  MOVWF  FEA
081B6:  MOVLW  17
081B8:  MOVWF  FE9
081BA:  MOVFF  FF2,5EB
081BE:  BCF    FF2.7
081C0:  MOVLW  00
081C2:  MOVLB  0
081C4:  CALL   1138
081C8:  TBLRD*-
081CA:  TBLRD*+
081CC:  MOVF   FF5,W
081CE:  MOVWF  FEE
081D0:  IORLW  00
081D2:  BNZ   81CA
081D4:  MOVLB  5
081D6:  BTFSC  xEB.7
081D8:  BSF    FF2.7
....................          displayMenu(Menus.Letra,0,35,0,1);}  
081DA:  MOVLW  04
081DC:  MOVWF  xF4
081DE:  MOVLW  17
081E0:  MOVWF  xF3
081E2:  CLRF   xF5
081E4:  MOVLW  23
081E6:  MOVWF  xF6
081E8:  CLRF   xF7
081EA:  MOVLW  01
081EC:  MOVWF  xF8
081EE:  MOVLB  0
081F0:  CALL   4E88
....................        
....................       if(UP)//Si oprime hacia arriba 
081F4:  BSF    F92.5
081F6:  BTFSC  F80.5
081F8:  BRA    8214
....................       {  if(Flanco == 0)  
081FA:  MOVLB  4
081FC:  BTFSC  x2D.0
081FE:  BRA    8212
....................             {Flanco = 1;delay_ms(30);Opcion--; 
08200:  BSF    x2D.0
08202:  MOVLW  1E
08204:  MOVLB  5
08206:  MOVWF  xFF
08208:  MOVLB  0
0820A:  CALL   154C
0820E:  MOVLB  4
08210:  DECF   xCF,F
....................             } 
....................       } 
....................          else 
08212:  BRA    8218
....................             {Flanco = 0;} 
08214:  MOVLB  4
08216:  BCF    x2D.0
....................              
....................       if(DOWN)//Si oprime hacia abajo 
08218:  BSF    F96.0
0821A:  BTFSC  F84.0
0821C:  BRA    8236
....................       {  if(Flanco2 == 0)  
0821E:  BTFSC  x2D.2
08220:  BRA    8234
....................             {Flanco2 = 1;delay_ms(30);Opcion++; 
08222:  BSF    x2D.2
08224:  MOVLW  1E
08226:  MOVLB  5
08228:  MOVWF  xFF
0822A:  MOVLB  0
0822C:  CALL   154C
08230:  MOVLB  4
08232:  INCF   xCF,F
....................             }      
....................       } 
....................          else 
08234:  BRA    8238
....................             {Flanco2 = 0;}   
08236:  BCF    x2D.2
....................              
....................       if(RIGHT)//Si oprime SET 
08238:  BSF    F96.1
0823A:  BTFSC  F84.1
0823C:  BRA    8270
....................       {  if(Flanco1 == 0)  
0823E:  BTFSC  x2D.1
08240:  BRA    826E
....................             {Flanco1 = 1;delay_ms(500);Menu=Opcion+10;glcd_fillScreen(OFF); 
08242:  BSF    x2D.1
08244:  MOVLW  02
08246:  MOVLB  5
08248:  MOVWF  xEB
0824A:  MOVLW  FA
0824C:  MOVWF  xFF
0824E:  MOVLB  0
08250:  CALL   154C
08254:  MOVLB  5
08256:  DECFSZ xEB,F
08258:  BRA    824A
0825A:  MOVLW  0A
0825C:  MOVLB  4
0825E:  ADDWF  xCF,W
08260:  MOVWF  xCD
08262:  MOVLB  5
08264:  CLRF   xF3
08266:  MOVLB  0
08268:  CALL   162C
0826C:  MOVLB  4
....................             } 
....................       } 
....................          else 
0826E:  BRA    8272
....................             {Flanco1 = 0;}   
08270:  BCF    x2D.1
....................              
....................       if(LEFT)//Si oprime boton de Toma. 
08272:  BSF    F96.2
08274:  BTFSC  F84.2
08276:  BRA    82A0
....................         {delay_ms(700);Menu=3;glcd_fillscreen(OFF);} 
08278:  MOVLW  04
0827A:  MOVLB  5
0827C:  MOVWF  xEB
0827E:  MOVLW  AF
08280:  MOVWF  xFF
08282:  MOVLB  0
08284:  CALL   154C
08288:  MOVLB  5
0828A:  DECFSZ xEB,F
0828C:  BRA    827E
0828E:  MOVLW  03
08290:  MOVLB  4
08292:  MOVWF  xCD
08294:  MOVLB  5
08296:  CLRF   xF3
08298:  MOVLB  0
0829A:  CALL   162C
0829E:  MOVLB  4
....................        
....................       if(Opcion>2) 
082A0:  MOVF   xCF,W
082A2:  SUBLW  02
082A4:  BC    82AA
....................       {Opcion=1;} 
082A6:  MOVLW  01
082A8:  MOVWF  xCF
....................       if(Opcion<1) 
082AA:  MOVF   xCF,F
082AC:  BNZ   82B2
....................       {Opcion=2;} 
082AE:  MOVLW  02
082B0:  MOVWF  xCF
....................      
....................     } 
.................... //_--------------------------------------------------------------------------------------------------------------------------------------------------------        
....................  
.................... //_-------------------------------------------------------------------------------------------------------------------------------------------------------- 
....................       if(Menu==6){ //Menu de Modo. 
082B2:  MOVF   xCD,W
082B4:  SUBLW  06
082B6:  BTFSS  FD8.2
082B8:  BRA    84E0
....................        
....................       strcpy(Menus.Letra,"Modo"); 
082BA:  MOVLW  04
082BC:  MOVWF  FEA
082BE:  MOVLW  17
082C0:  MOVWF  FE9
082C2:  MOVFF  FF2,5EB
082C6:  BCF    FF2.7
082C8:  MOVLW  00
082CA:  MOVLB  0
082CC:  CALL   10E8
082D0:  TBLRD*-
082D2:  TBLRD*+
082D4:  MOVF   FF5,W
082D6:  MOVWF  FEE
082D8:  IORLW  00
082DA:  BNZ   82D2
082DC:  MOVLB  5
082DE:  BTFSC  xEB.7
082E0:  BSF    FF2.7
....................       displayMenu(Menus.Letra,40,0,1,2); 
082E2:  MOVLW  04
082E4:  MOVWF  xF4
082E6:  MOVLW  17
082E8:  MOVWF  xF3
082EA:  MOVLW  28
082EC:  MOVWF  xF5
082EE:  CLRF   xF6
082F0:  MOVLW  01
082F2:  MOVWF  xF7
082F4:  MOVLW  02
082F6:  MOVWF  xF8
082F8:  MOVLB  0
082FA:  CALL   4E88
....................           
....................       if(Opcion==1)    
082FE:  MOVLB  4
08300:  DECFSZ xCF,W
08302:  BRA    834A
....................          {strcpy(Menus.Letra,"Mantenimiento"); 
08304:  MOVLW  04
08306:  MOVWF  FEA
08308:  MOVLW  17
0830A:  MOVWF  FE9
0830C:  MOVFF  FF2,5EB
08310:  BCF    FF2.7
08312:  MOVLW  00
08314:  MOVLB  0
08316:  CALL   1160
0831A:  TBLRD*-
0831C:  TBLRD*+
0831E:  MOVF   FF5,W
08320:  MOVWF  FEE
08322:  IORLW  00
08324:  BNZ   831C
08326:  MOVLB  5
08328:  BTFSC  xEB.7
0832A:  BSF    FF2.7
....................          displayMenu(Menus.Letra,0,19,1,1);} 
0832C:  MOVLW  04
0832E:  MOVWF  xF4
08330:  MOVLW  17
08332:  MOVWF  xF3
08334:  CLRF   xF5
08336:  MOVLW  13
08338:  MOVWF  xF6
0833A:  MOVLW  01
0833C:  MOVWF  xF7
0833E:  MOVWF  xF8
08340:  MOVLB  0
08342:  CALL   4E88
....................       else 
08346:  BRA    838C
08348:  MOVLB  4
....................          {strcpy(Menus.Letra,"Mantenimiento"); 
0834A:  MOVLW  04
0834C:  MOVWF  FEA
0834E:  MOVLW  17
08350:  MOVWF  FE9
08352:  MOVFF  FF2,5EB
08356:  BCF    FF2.7
08358:  MOVLW  00
0835A:  MOVLB  0
0835C:  CALL   1160
08360:  TBLRD*-
08362:  TBLRD*+
08364:  MOVF   FF5,W
08366:  MOVWF  FEE
08368:  IORLW  00
0836A:  BNZ   8362
0836C:  MOVLB  5
0836E:  BTFSC  xEB.7
08370:  BSF    FF2.7
....................          displayMenu(Menus.Letra,0,19,0,1);}    
08372:  MOVLW  04
08374:  MOVWF  xF4
08376:  MOVLW  17
08378:  MOVWF  xF3
0837A:  CLRF   xF5
0837C:  MOVLW  13
0837E:  MOVWF  xF6
08380:  CLRF   xF7
08382:  MOVLW  01
08384:  MOVWF  xF8
08386:  MOVLB  0
08388:  CALL   4E88
....................           
....................       if(Opcion==2)    
0838C:  MOVLB  4
0838E:  MOVF   xCF,W
08390:  SUBLW  02
08392:  BNZ   83DA
....................          {strcpy(Menus.Letra,"Servicio"); 
08394:  MOVLW  04
08396:  MOVWF  FEA
08398:  MOVLW  17
0839A:  MOVWF  FE9
0839C:  MOVFF  FF2,5EB
083A0:  BCF    FF2.7
083A2:  MOVLW  00
083A4:  MOVLB  0
083A6:  CALL   118C
083AA:  TBLRD*-
083AC:  TBLRD*+
083AE:  MOVF   FF5,W
083B0:  MOVWF  FEE
083B2:  IORLW  00
083B4:  BNZ   83AC
083B6:  MOVLB  5
083B8:  BTFSC  xEB.7
083BA:  BSF    FF2.7
....................          displayMenu(Menus.Letra,0,35,1,1);} 
083BC:  MOVLW  04
083BE:  MOVWF  xF4
083C0:  MOVLW  17
083C2:  MOVWF  xF3
083C4:  CLRF   xF5
083C6:  MOVLW  23
083C8:  MOVWF  xF6
083CA:  MOVLW  01
083CC:  MOVWF  xF7
083CE:  MOVWF  xF8
083D0:  MOVLB  0
083D2:  CALL   4E88
....................       else 
083D6:  BRA    841C
083D8:  MOVLB  4
....................          {strcpy(Menus.Letra,"Servicio"); 
083DA:  MOVLW  04
083DC:  MOVWF  FEA
083DE:  MOVLW  17
083E0:  MOVWF  FE9
083E2:  MOVFF  FF2,5EB
083E6:  BCF    FF2.7
083E8:  MOVLW  00
083EA:  MOVLB  0
083EC:  CALL   118C
083F0:  TBLRD*-
083F2:  TBLRD*+
083F4:  MOVF   FF5,W
083F6:  MOVWF  FEE
083F8:  IORLW  00
083FA:  BNZ   83F2
083FC:  MOVLB  5
083FE:  BTFSC  xEB.7
08400:  BSF    FF2.7
....................          displayMenu(Menus.Letra,0,35,0,1);} 
08402:  MOVLW  04
08404:  MOVWF  xF4
08406:  MOVLW  17
08408:  MOVWF  xF3
0840A:  CLRF   xF5
0840C:  MOVLW  23
0840E:  MOVWF  xF6
08410:  CLRF   xF7
08412:  MOVLW  01
08414:  MOVWF  xF8
08416:  MOVLB  0
08418:  CALL   4E88
....................           
....................       if(UP)//Si oprime hacia arriba 
0841C:  BSF    F92.5
0841E:  BTFSC  F80.5
08420:  BRA    843C
....................       {  if(Flanco == 0)  
08422:  MOVLB  4
08424:  BTFSC  x2D.0
08426:  BRA    843A
....................             {Flanco = 1;delay_ms(30);Opcion--; 
08428:  BSF    x2D.0
0842A:  MOVLW  1E
0842C:  MOVLB  5
0842E:  MOVWF  xFF
08430:  MOVLB  0
08432:  CALL   154C
08436:  MOVLB  4
08438:  DECF   xCF,F
....................             } 
....................       } 
....................          else 
0843A:  BRA    8440
....................             {Flanco = 0;} 
0843C:  MOVLB  4
0843E:  BCF    x2D.0
....................              
....................       if(DOWN)//Si oprime hacia abajo 
08440:  BSF    F96.0
08442:  BTFSC  F84.0
08444:  BRA    845E
....................       {  if(Flanco2 == 0)  
08446:  BTFSC  x2D.2
08448:  BRA    845C
....................             {Flanco2 = 1;delay_ms(30);Opcion++; 
0844A:  BSF    x2D.2
0844C:  MOVLW  1E
0844E:  MOVLB  5
08450:  MOVWF  xFF
08452:  MOVLB  0
08454:  CALL   154C
08458:  MOVLB  4
0845A:  INCF   xCF,F
....................             }      
....................       } 
....................          else 
0845C:  BRA    8460
....................             {Flanco2 = 0;}   
0845E:  BCF    x2D.2
....................              
....................       if(RIGHT)//Si oprime SET 
08460:  BSF    F96.1
08462:  BTFSC  F84.1
08464:  BRA    849E
....................       {  if(Flanco1 == 0)  
08466:  BTFSC  x2D.1
08468:  BRA    849C
....................             {Flanco1 = 1;delay_ms(500);Menu=Opcion+30;glcd_fillScreen(OFF);Opcion=1;unidad=1; 
0846A:  BSF    x2D.1
0846C:  MOVLW  02
0846E:  MOVLB  5
08470:  MOVWF  xEB
08472:  MOVLW  FA
08474:  MOVWF  xFF
08476:  MOVLB  0
08478:  CALL   154C
0847C:  MOVLB  5
0847E:  DECFSZ xEB,F
08480:  BRA    8472
08482:  MOVLW  1E
08484:  MOVLB  4
08486:  ADDWF  xCF,W
08488:  MOVWF  xCD
0848A:  MOVLB  5
0848C:  CLRF   xF3
0848E:  MOVLB  0
08490:  CALL   162C
08494:  MOVLW  01
08496:  MOVLB  4
08498:  MOVWF  xCF
0849A:  MOVWF  xCE
....................             } 
....................       } 
....................          else 
0849C:  BRA    84A0
....................             {Flanco1 = 0;}   
0849E:  BCF    x2D.1
....................              
....................       if(LEFT)//Si oprime boton de Toma. 
084A0:  BSF    F96.2
084A2:  BTFSC  F84.2
084A4:  BRA    84CE
....................         {delay_ms(700);Menu=3;glcd_fillscreen(OFF);} 
084A6:  MOVLW  04
084A8:  MOVLB  5
084AA:  MOVWF  xEB
084AC:  MOVLW  AF
084AE:  MOVWF  xFF
084B0:  MOVLB  0
084B2:  CALL   154C
084B6:  MOVLB  5
084B8:  DECFSZ xEB,F
084BA:  BRA    84AC
084BC:  MOVLW  03
084BE:  MOVLB  4
084C0:  MOVWF  xCD
084C2:  MOVLB  5
084C4:  CLRF   xF3
084C6:  MOVLB  0
084C8:  CALL   162C
084CC:  MOVLB  4
....................       if(Opcion>2) 
084CE:  MOVF   xCF,W
084D0:  SUBLW  02
084D2:  BC    84D8
....................       {Opcion=1;} 
084D4:  MOVLW  01
084D6:  MOVWF  xCF
....................       if(Opcion<1) 
084D8:  MOVF   xCF,F
084DA:  BNZ   84E0
....................       {Opcion=2;} 
084DC:  MOVLW  02
084DE:  MOVWF  xCF
....................      
....................     } 
.................... //_--------------------------------------------------------------------------------------------------------------------------------------------------------        
....................  
.................... //_-------------------------------------------------------------------------------------------------------------------------------------------------------- 
....................       if(Menu==11){ //Menu de Purga. 
084E0:  MOVF   xCD,W
084E2:  SUBLW  0B
084E4:  BTFSS  FD8.2
084E6:  BRA    88AA
....................        
....................       strcpy(Menus.Letra,"T. Purga"); 
084E8:  MOVLW  04
084EA:  MOVWF  FEA
084EC:  MOVLW  17
084EE:  MOVWF  FE9
084F0:  MOVFF  FF2,5EB
084F4:  BCF    FF2.7
084F6:  MOVLW  00
084F8:  MOVLB  0
084FA:  CALL   11B4
084FE:  TBLRD*-
08500:  TBLRD*+
08502:  MOVF   FF5,W
08504:  MOVWF  FEE
08506:  IORLW  00
08508:  BNZ   8500
0850A:  MOVLB  5
0850C:  BTFSC  xEB.7
0850E:  BSF    FF2.7
....................       displayMenu(Menus.Letra,10,0,1,2); 
08510:  MOVLW  04
08512:  MOVWF  xF4
08514:  MOVLW  17
08516:  MOVWF  xF3
08518:  MOVLW  0A
0851A:  MOVWF  xF5
0851C:  CLRF   xF6
0851E:  MOVLW  01
08520:  MOVWF  xF7
08522:  MOVLW  02
08524:  MOVWF  xF8
08526:  MOVLB  0
08528:  CALL   4E88
....................        
....................       if(unidad==4) 
0852C:  MOVLB  4
0852E:  MOVF   xCE,W
08530:  SUBLW  04
08532:  BNZ   8552
....................       {displayTiempo(Tpurgap[3],20,40,1,2);} 
08534:  MOVFF  4FA,5EB
08538:  MOVLW  14
0853A:  MOVLB  5
0853C:  MOVWF  xEC
0853E:  MOVLW  28
08540:  MOVWF  xED
08542:  MOVLW  01
08544:  MOVWF  xEE
08546:  MOVLW  02
08548:  MOVWF  xEF
0854A:  MOVLB  0
0854C:  CALL   5648
....................       else 
08550:  BRA    856C
....................       {displayTiempo(Tpurgap[3],20,40,0,2);} 
08552:  MOVFF  4FA,5EB
08556:  MOVLW  14
08558:  MOVLB  5
0855A:  MOVWF  xEC
0855C:  MOVLW  28
0855E:  MOVWF  xED
08560:  CLRF   xEE
08562:  MOVLW  02
08564:  MOVWF  xEF
08566:  MOVLB  0
08568:  CALL   5648
....................        
....................       if(unidad==3) 
0856C:  MOVLB  4
0856E:  MOVF   xCE,W
08570:  SUBLW  03
08572:  BNZ   8590
....................       {displayTiempo(Tpurgap[2],40,40,1,2);} 
08574:  MOVFF  4F9,5EB
08578:  MOVLW  28
0857A:  MOVLB  5
0857C:  MOVWF  xEC
0857E:  MOVWF  xED
08580:  MOVLW  01
08582:  MOVWF  xEE
08584:  MOVLW  02
08586:  MOVWF  xEF
08588:  MOVLB  0
0858A:  CALL   5648
....................       else 
0858E:  BRA    85A8
....................       {displayTiempo(Tpurgap[2],40,40,0,2);} 
08590:  MOVFF  4F9,5EB
08594:  MOVLW  28
08596:  MOVLB  5
08598:  MOVWF  xEC
0859A:  MOVWF  xED
0859C:  CLRF   xEE
0859E:  MOVLW  02
085A0:  MOVWF  xEF
085A2:  MOVLB  0
085A4:  CALL   5648
....................        
....................       if(unidad==2) 
085A8:  MOVLB  4
085AA:  MOVF   xCE,W
085AC:  SUBLW  02
085AE:  BNZ   85CE
....................       {displayTiempo(Tpurgap[1],70,40,1,2);} 
085B0:  MOVFF  4F8,5EB
085B4:  MOVLW  46
085B6:  MOVLB  5
085B8:  MOVWF  xEC
085BA:  MOVLW  28
085BC:  MOVWF  xED
085BE:  MOVLW  01
085C0:  MOVWF  xEE
085C2:  MOVLW  02
085C4:  MOVWF  xEF
085C6:  MOVLB  0
085C8:  CALL   5648
....................       else 
085CC:  BRA    85E8
....................       {displayTiempo(Tpurgap[1],70,40,0,2);} 
085CE:  MOVFF  4F8,5EB
085D2:  MOVLW  46
085D4:  MOVLB  5
085D6:  MOVWF  xEC
085D8:  MOVLW  28
085DA:  MOVWF  xED
085DC:  CLRF   xEE
085DE:  MOVLW  02
085E0:  MOVWF  xEF
085E2:  MOVLB  0
085E4:  CALL   5648
....................        
....................       if(unidad==1) 
085E8:  MOVLB  4
085EA:  DECFSZ xCE,W
085EC:  BRA    860C
....................       {displayTiempo(Tpurgap[0],90,40,1,2);} 
085EE:  MOVFF  4F7,5EB
085F2:  MOVLW  5A
085F4:  MOVLB  5
085F6:  MOVWF  xEC
085F8:  MOVLW  28
085FA:  MOVWF  xED
085FC:  MOVLW  01
085FE:  MOVWF  xEE
08600:  MOVLW  02
08602:  MOVWF  xEF
08604:  MOVLB  0
08606:  CALL   5648
....................       else 
0860A:  BRA    8626
....................       {displayTiempo(Tpurgap[0],90,40,0,2);} 
0860C:  MOVFF  4F7,5EB
08610:  MOVLW  5A
08612:  MOVLB  5
08614:  MOVWF  xEC
08616:  MOVLW  28
08618:  MOVWF  xED
0861A:  CLRF   xEE
0861C:  MOVLW  02
0861E:  MOVWF  xEF
08620:  MOVLB  0
08622:  CALL   5648
....................        
....................       glcd_text57(60, 42, Dos_puntos, 2, ON); 
08626:  MOVLW  3C
08628:  MOVLB  6
0862A:  MOVWF  x04
0862C:  MOVLW  2A
0862E:  MOVWF  x05
08630:  MOVLW  04
08632:  MOVWF  x07
08634:  MOVLW  51
08636:  MOVWF  x06
08638:  MOVLW  02
0863A:  MOVWF  x08
0863C:  MOVLW  01
0863E:  MOVWF  x09
08640:  MOVLB  0
08642:  CALL   18A2
....................           
....................          
....................       if(UP)//Si oprime hacia arriba 
08646:  BSF    F92.5
08648:  BTFSC  F80.5
0864A:  BRA    8676
....................       {  if(Flanco == 0)  
0864C:  MOVLB  4
0864E:  BTFSC  x2D.0
08650:  BRA    8674
....................             {Flanco = 1;delay_ms(30);Tpurgap[unidad-1]++; 
08652:  BSF    x2D.0
08654:  MOVLW  1E
08656:  MOVLB  5
08658:  MOVWF  xFF
0865A:  MOVLB  0
0865C:  CALL   154C
08660:  MOVLW  01
08662:  MOVLB  4
08664:  SUBWF  xCE,W
08666:  CLRF   03
08668:  ADDLW  F7
0866A:  MOVWF  FE9
0866C:  MOVLW  04
0866E:  ADDWFC 03,W
08670:  MOVWF  FEA
08672:  INCF   FEF,F
....................             } 
....................       } 
....................          else 
08674:  BRA    867A
....................             {Flanco = 0;} 
08676:  MOVLB  4
08678:  BCF    x2D.0
....................              
....................       if(DOWN)//Si oprime hacia abajo 
0867A:  BSF    F96.0
0867C:  BTFSC  F84.0
0867E:  BRA    86A8
....................       {  if(Flanco2 == 0)  
08680:  BTFSC  x2D.2
08682:  BRA    86A6
....................             {Flanco2 = 1;delay_ms(30);Tpurgap[unidad-1]--; 
08684:  BSF    x2D.2
08686:  MOVLW  1E
08688:  MOVLB  5
0868A:  MOVWF  xFF
0868C:  MOVLB  0
0868E:  CALL   154C
08692:  MOVLW  01
08694:  MOVLB  4
08696:  SUBWF  xCE,W
08698:  CLRF   03
0869A:  ADDLW  F7
0869C:  MOVWF  FE9
0869E:  MOVLW  04
086A0:  ADDWFC 03,W
086A2:  MOVWF  FEA
086A4:  DECF   FEF,F
....................             }      
....................       } 
....................          else 
086A6:  BRA    86AA
....................             {Flanco2 = 0;}   
086A8:  BCF    x2D.2
....................              
....................       if(RIGHT)//Si oprime SET 
086AA:  BSF    F96.1
086AC:  BTFSC  F84.1
086AE:  BRA    86C8
....................       {  if(Flanco1 == 0)  
086B0:  BTFSC  x2D.1
086B2:  BRA    86C6
....................             {Flanco1 = 1;delay_ms(30);unidad--; 
086B4:  BSF    x2D.1
086B6:  MOVLW  1E
086B8:  MOVLB  5
086BA:  MOVWF  xFF
086BC:  MOVLB  0
086BE:  CALL   154C
086C2:  MOVLB  4
086C4:  DECF   xCE,F
....................             } 
....................       } 
....................          else 
086C6:  BRA    86CA
....................             {Flanco1 = 0;}   
086C8:  BCF    x2D.1
....................              
....................       if(LEFT)//Si oprime boton de Toma. 
086CA:  BSF    F96.2
086CC:  BTFSC  F84.2
086CE:  BRA    87DE
....................       { 
....................          delay_ms(700);Menu=4;glcd_fillscreen(OFF);Opcion=1;unidad=1; 
086D0:  MOVLW  04
086D2:  MOVLB  5
086D4:  MOVWF  xEB
086D6:  MOVLW  AF
086D8:  MOVWF  xFF
086DA:  MOVLB  0
086DC:  CALL   154C
086E0:  MOVLB  5
086E2:  DECFSZ xEB,F
086E4:  BRA    86D6
086E6:  MOVLW  04
086E8:  MOVLB  4
086EA:  MOVWF  xCD
086EC:  MOVLB  5
086EE:  CLRF   xF3
086F0:  MOVLB  0
086F2:  CALL   162C
086F6:  MOVLW  01
086F8:  MOVLB  4
086FA:  MOVWF  xCF
086FC:  MOVWF  xCE
....................          write_eeprom(4,Tpurgap[0]); 
086FE:  CLRF   FAA
08700:  MOVLW  04
08702:  MOVWF  FA9
08704:  MOVFF  4F7,FA8
08708:  BCF    FA6.6
0870A:  BCF    FA6.7
0870C:  BSF    FA6.2
0870E:  MOVF   FF2,W
08710:  MOVWF  00
08712:  BCF    FF2.7
08714:  MOVLB  F
08716:  MOVLW  55
08718:  MOVWF  FA7
0871A:  MOVLW  AA
0871C:  MOVWF  FA7
0871E:  BSF    FA6.1
08720:  BTFSC  FA6.1
08722:  BRA    8720
08724:  BCF    FA6.2
08726:  MOVF   00,W
08728:  IORWF  FF2,F
....................          delay_ms(20); 
0872A:  MOVLW  14
0872C:  MOVLB  5
0872E:  MOVWF  xFF
08730:  MOVLB  0
08732:  CALL   154C
....................          write_eeprom(5,Tpurgap[1]); 
08736:  CLRF   FAA
08738:  MOVLW  05
0873A:  MOVWF  FA9
0873C:  MOVFF  4F8,FA8
08740:  BCF    FA6.6
08742:  BCF    FA6.7
08744:  BSF    FA6.2
08746:  MOVF   FF2,W
08748:  MOVWF  00
0874A:  BCF    FF2.7
0874C:  MOVLB  F
0874E:  MOVLW  55
08750:  MOVWF  FA7
08752:  MOVLW  AA
08754:  MOVWF  FA7
08756:  BSF    FA6.1
08758:  BTFSC  FA6.1
0875A:  BRA    8758
0875C:  BCF    FA6.2
0875E:  MOVF   00,W
08760:  IORWF  FF2,F
....................          delay_ms(20); 
08762:  MOVLW  14
08764:  MOVLB  5
08766:  MOVWF  xFF
08768:  MOVLB  0
0876A:  CALL   154C
....................          write_eeprom(6,Tpurgap[2]); 
0876E:  CLRF   FAA
08770:  MOVLW  06
08772:  MOVWF  FA9
08774:  MOVFF  4F9,FA8
08778:  BCF    FA6.6
0877A:  BCF    FA6.7
0877C:  BSF    FA6.2
0877E:  MOVF   FF2,W
08780:  MOVWF  00
08782:  BCF    FF2.7
08784:  MOVLB  F
08786:  MOVLW  55
08788:  MOVWF  FA7
0878A:  MOVLW  AA
0878C:  MOVWF  FA7
0878E:  BSF    FA6.1
08790:  BTFSC  FA6.1
08792:  BRA    8790
08794:  BCF    FA6.2
08796:  MOVF   00,W
08798:  IORWF  FF2,F
....................          delay_ms(20); 
0879A:  MOVLW  14
0879C:  MOVLB  5
0879E:  MOVWF  xFF
087A0:  MOVLB  0
087A2:  CALL   154C
....................          write_eeprom(7,Tpurgap[3]); 
087A6:  CLRF   FAA
087A8:  MOVLW  07
087AA:  MOVWF  FA9
087AC:  MOVFF  4FA,FA8
087B0:  BCF    FA6.6
087B2:  BCF    FA6.7
087B4:  BSF    FA6.2
087B6:  MOVF   FF2,W
087B8:  MOVWF  00
087BA:  BCF    FF2.7
087BC:  MOVLB  F
087BE:  MOVLW  55
087C0:  MOVWF  FA7
087C2:  MOVLW  AA
087C4:  MOVWF  FA7
087C6:  BSF    FA6.1
087C8:  BTFSC  FA6.1
087CA:  BRA    87C8
087CC:  BCF    FA6.2
087CE:  MOVF   00,W
087D0:  IORWF  FF2,F
....................          delay_ms(20); 
087D2:  MOVLW  14
087D4:  MOVLB  5
087D6:  MOVWF  xFF
087D8:  MOVLB  0
087DA:  CALL   154C
....................       } 
....................        
....................       for(i=0;i<4;i++) 
087DE:  MOVLB  5
087E0:  CLRF   xDB
087E2:  MOVF   xDB,W
087E4:  SUBLW  03
087E6:  BNC   883A
....................       { 
....................          if(Tpurgap[i]>9) 
087E8:  CLRF   03
087EA:  MOVF   xDB,W
087EC:  ADDLW  F7
087EE:  MOVWF  FE9
087F0:  MOVLW  04
087F2:  ADDWFC 03,W
087F4:  MOVWF  FEA
087F6:  BTFSC  FEF.7
087F8:  BRA    8810
087FA:  MOVF   FEF,W
087FC:  SUBLW  09
087FE:  BC    8810
....................          {Tpurgap[i]=0;} 
08800:  CLRF   03
08802:  MOVF   xDB,W
08804:  ADDLW  F7
08806:  MOVWF  FE9
08808:  MOVLW  04
0880A:  ADDWFC 03,W
0880C:  MOVWF  FEA
0880E:  CLRF   FEF
....................           
....................          if(Tpurgap[i]<0) 
08810:  CLRF   03
08812:  MOVF   xDB,W
08814:  ADDLW  F7
08816:  MOVWF  FE9
08818:  MOVLW  04
0881A:  ADDWFC 03,W
0881C:  MOVWF  FEA
0881E:  BTFSC  FEF.7
08820:  BRA    8824
08822:  BRA    8836
....................          {Tpurgap[i]=9;} 
08824:  CLRF   03
08826:  MOVF   xDB,W
08828:  ADDLW  F7
0882A:  MOVWF  FE9
0882C:  MOVLW  04
0882E:  ADDWFC 03,W
08830:  MOVWF  FEA
08832:  MOVLW  09
08834:  MOVWF  FEF
....................       }       
08836:  INCF   xDB,F
08838:  BRA    87E2
....................       for(i=1;i<4;i++) 
0883A:  MOVLW  01
0883C:  MOVWF  xDB
0883E:  MOVF   xDB,W
08840:  SUBLW  03
08842:  BNC   8898
....................       { 
....................          if(Tpurgap[i]>5) 
08844:  CLRF   03
08846:  MOVF   xDB,W
08848:  ADDLW  F7
0884A:  MOVWF  FE9
0884C:  MOVLW  04
0884E:  ADDWFC 03,W
08850:  MOVWF  FEA
08852:  BTFSC  FEF.7
08854:  BRA    886C
08856:  MOVF   FEF,W
08858:  SUBLW  05
0885A:  BC    886C
....................          {Tpurgap[i]=0;} 
0885C:  CLRF   03
0885E:  MOVF   xDB,W
08860:  ADDLW  F7
08862:  MOVWF  FE9
08864:  MOVLW  04
08866:  ADDWFC 03,W
08868:  MOVWF  FEA
0886A:  CLRF   FEF
....................           
....................          if(Tpurgap[i]<0) 
0886C:  CLRF   03
0886E:  MOVF   xDB,W
08870:  ADDLW  F7
08872:  MOVWF  FE9
08874:  MOVLW  04
08876:  ADDWFC 03,W
08878:  MOVWF  FEA
0887A:  BTFSC  FEF.7
0887C:  BRA    8880
0887E:  BRA    8892
....................          {Tpurgap[i]=5;} 
08880:  CLRF   03
08882:  MOVF   xDB,W
08884:  ADDLW  F7
08886:  MOVWF  FE9
08888:  MOVLW  04
0888A:  ADDWFC 03,W
0888C:  MOVWF  FEA
0888E:  MOVLW  05
08890:  MOVWF  FEF
....................         i++;  
08892:  INCF   xDB,F
....................       } 
08894:  INCF   xDB,F
08896:  BRA    883E
....................       if(unidad<1) 
08898:  MOVLB  4
0889A:  MOVF   xCE,F
0889C:  BNZ   88A2
....................       {unidad=4;} 
0889E:  MOVLW  04
088A0:  MOVWF  xCE
....................       if(Opcion<1) 
088A2:  MOVF   xCF,F
088A4:  BNZ   88AA
....................       {Opcion=4;} 
088A6:  MOVLW  04
088A8:  MOVWF  xCF
....................      
....................     } 
.................... //_--------------------------------------------------------------------------------------------------------------------------------------------------------        
....................  
.................... //_-------------------------------------------------------------------------------------------------------------------------------------------------------- 
....................       if(Menu==12){ //Menu de Tempo UV. 
088AA:  MOVF   xCD,W
088AC:  SUBLW  0C
088AE:  BTFSS  FD8.2
088B0:  BRA    8C84
....................        
....................       strcpy(Menus.Letra,"T. UV"); 
088B2:  MOVLW  04
088B4:  MOVWF  FEA
088B6:  MOVLW  17
088B8:  MOVWF  FE9
088BA:  MOVFF  FF2,5EB
088BE:  BCF    FF2.7
088C0:  MOVLW  00
088C2:  MOVLB  0
088C4:  CALL   11DC
088C8:  TBLRD*-
088CA:  TBLRD*+
088CC:  MOVF   FF5,W
088CE:  MOVWF  FEE
088D0:  IORLW  00
088D2:  BNZ   88CA
088D4:  MOVLB  5
088D6:  BTFSC  xEB.7
088D8:  BSF    FF2.7
....................       displayMenu(Menus.Letra,30,0,1,2); 
088DA:  MOVLW  04
088DC:  MOVWF  xF4
088DE:  MOVLW  17
088E0:  MOVWF  xF3
088E2:  MOVLW  1E
088E4:  MOVWF  xF5
088E6:  CLRF   xF6
088E8:  MOVLW  01
088EA:  MOVWF  xF7
088EC:  MOVLW  02
088EE:  MOVWF  xF8
088F0:  MOVLB  0
088F2:  CALL   4E88
....................        
....................       if(unidad==4) 
088F6:  MOVLB  4
088F8:  MOVF   xCE,W
088FA:  SUBLW  04
088FC:  BNZ   891C
....................       {displayTiempo(Tempouvp[3],20,40,1,2);} 
088FE:  MOVFF  506,5EB
08902:  MOVLW  14
08904:  MOVLB  5
08906:  MOVWF  xEC
08908:  MOVLW  28
0890A:  MOVWF  xED
0890C:  MOVLW  01
0890E:  MOVWF  xEE
08910:  MOVLW  02
08912:  MOVWF  xEF
08914:  MOVLB  0
08916:  CALL   5648
....................       else 
0891A:  BRA    8936
....................       {displayTiempo(Tempouvp[3],20,40,0,2);} 
0891C:  MOVFF  506,5EB
08920:  MOVLW  14
08922:  MOVLB  5
08924:  MOVWF  xEC
08926:  MOVLW  28
08928:  MOVWF  xED
0892A:  CLRF   xEE
0892C:  MOVLW  02
0892E:  MOVWF  xEF
08930:  MOVLB  0
08932:  CALL   5648
....................        
....................       if(unidad==3) 
08936:  MOVLB  4
08938:  MOVF   xCE,W
0893A:  SUBLW  03
0893C:  BNZ   895A
....................       {displayTiempo(Tempouvp[2],40,40,1,2);} 
0893E:  MOVFF  505,5EB
08942:  MOVLW  28
08944:  MOVLB  5
08946:  MOVWF  xEC
08948:  MOVWF  xED
0894A:  MOVLW  01
0894C:  MOVWF  xEE
0894E:  MOVLW  02
08950:  MOVWF  xEF
08952:  MOVLB  0
08954:  CALL   5648
....................       else 
08958:  BRA    8972
....................       {displayTiempo(Tempouvp[2],40,40,0,2);} 
0895A:  MOVFF  505,5EB
0895E:  MOVLW  28
08960:  MOVLB  5
08962:  MOVWF  xEC
08964:  MOVWF  xED
08966:  CLRF   xEE
08968:  MOVLW  02
0896A:  MOVWF  xEF
0896C:  MOVLB  0
0896E:  CALL   5648
....................        
....................       if(unidad==2) 
08972:  MOVLB  4
08974:  MOVF   xCE,W
08976:  SUBLW  02
08978:  BNZ   8998
....................       {displayTiempo(Tempouvp[1],70,40,1,2);} 
0897A:  MOVFF  504,5EB
0897E:  MOVLW  46
08980:  MOVLB  5
08982:  MOVWF  xEC
08984:  MOVLW  28
08986:  MOVWF  xED
08988:  MOVLW  01
0898A:  MOVWF  xEE
0898C:  MOVLW  02
0898E:  MOVWF  xEF
08990:  MOVLB  0
08992:  CALL   5648
....................       else 
08996:  BRA    89B2
....................       {displayTiempo(Tempouvp[1],70,40,0,2);} 
08998:  MOVFF  504,5EB
0899C:  MOVLW  46
0899E:  MOVLB  5
089A0:  MOVWF  xEC
089A2:  MOVLW  28
089A4:  MOVWF  xED
089A6:  CLRF   xEE
089A8:  MOVLW  02
089AA:  MOVWF  xEF
089AC:  MOVLB  0
089AE:  CALL   5648
....................        
....................       if(unidad==1) 
089B2:  MOVLB  4
089B4:  DECFSZ xCE,W
089B6:  BRA    89D6
....................       {displayTiempo(Tempouvp[0],90,40,1,2);} 
089B8:  MOVFF  503,5EB
089BC:  MOVLW  5A
089BE:  MOVLB  5
089C0:  MOVWF  xEC
089C2:  MOVLW  28
089C4:  MOVWF  xED
089C6:  MOVLW  01
089C8:  MOVWF  xEE
089CA:  MOVLW  02
089CC:  MOVWF  xEF
089CE:  MOVLB  0
089D0:  CALL   5648
....................       else 
089D4:  BRA    89F0
....................       {displayTiempo(Tempouvp[0],90,40,0,2);} 
089D6:  MOVFF  503,5EB
089DA:  MOVLW  5A
089DC:  MOVLB  5
089DE:  MOVWF  xEC
089E0:  MOVLW  28
089E2:  MOVWF  xED
089E4:  CLRF   xEE
089E6:  MOVLW  02
089E8:  MOVWF  xEF
089EA:  MOVLB  0
089EC:  CALL   5648
....................        
....................       glcd_text57(60, 42, Dos_puntos, 2, ON); 
089F0:  MOVLW  3C
089F2:  MOVLB  6
089F4:  MOVWF  x04
089F6:  MOVLW  2A
089F8:  MOVWF  x05
089FA:  MOVLW  04
089FC:  MOVWF  x07
089FE:  MOVLW  51
08A00:  MOVWF  x06
08A02:  MOVLW  02
08A04:  MOVWF  x08
08A06:  MOVLW  01
08A08:  MOVWF  x09
08A0A:  MOVLB  0
08A0C:  CALL   18A2
....................           
....................          
....................       if(UP)//Si oprime hacia arriba 
08A10:  BSF    F92.5
08A12:  BTFSC  F80.5
08A14:  BRA    8A40
....................       {  if(Flanco == 0)  
08A16:  MOVLB  4
08A18:  BTFSC  x2D.0
08A1A:  BRA    8A3E
....................             {Flanco = 1;delay_ms(30);Tempouvp[unidad-1]++; 
08A1C:  BSF    x2D.0
08A1E:  MOVLW  1E
08A20:  MOVLB  5
08A22:  MOVWF  xFF
08A24:  MOVLB  0
08A26:  CALL   154C
08A2A:  MOVLW  01
08A2C:  MOVLB  4
08A2E:  SUBWF  xCE,W
08A30:  CLRF   03
08A32:  ADDLW  03
08A34:  MOVWF  FE9
08A36:  MOVLW  05
08A38:  ADDWFC 03,W
08A3A:  MOVWF  FEA
08A3C:  INCF   FEF,F
....................             } 
....................       } 
....................          else 
08A3E:  BRA    8A44
....................             {Flanco = 0;} 
08A40:  MOVLB  4
08A42:  BCF    x2D.0
....................              
....................       if(DOWN )//Si oprime hacia abajo 
08A44:  BSF    F96.0
08A46:  BTFSC  F84.0
08A48:  BRA    8A72
....................       {  if(Flanco2 == 0)  
08A4A:  BTFSC  x2D.2
08A4C:  BRA    8A70
....................             {Flanco2 = 1;delay_ms(30);Tempouvp[unidad-1]--; 
08A4E:  BSF    x2D.2
08A50:  MOVLW  1E
08A52:  MOVLB  5
08A54:  MOVWF  xFF
08A56:  MOVLB  0
08A58:  CALL   154C
08A5C:  MOVLW  01
08A5E:  MOVLB  4
08A60:  SUBWF  xCE,W
08A62:  CLRF   03
08A64:  ADDLW  03
08A66:  MOVWF  FE9
08A68:  MOVLW  05
08A6A:  ADDWFC 03,W
08A6C:  MOVWF  FEA
08A6E:  DECF   FEF,F
....................             }      
....................       } 
....................          else 
08A70:  BRA    8A74
....................             {Flanco2 = 0;}   
08A72:  BCF    x2D.2
....................              
....................       if(RIGHT)//Si oprime SET 
08A74:  BSF    F96.1
08A76:  BTFSC  F84.1
08A78:  BRA    8A92
....................       {  if(Flanco1 == 0)  
08A7A:  BTFSC  x2D.1
08A7C:  BRA    8A90
....................             {Flanco1 = 1;delay_ms(30);unidad--; 
08A7E:  BSF    x2D.1
08A80:  MOVLW  1E
08A82:  MOVLB  5
08A84:  MOVWF  xFF
08A86:  MOVLB  0
08A88:  CALL   154C
08A8C:  MOVLB  4
08A8E:  DECF   xCE,F
....................             } 
....................       } 
....................          else 
08A90:  BRA    8A94
....................             {Flanco1 = 0;}   
08A92:  BCF    x2D.1
....................              
....................       if(LEFT)//Si oprime boton de Toma. 
08A94:  BSF    F96.2
08A96:  BTFSC  F84.2
08A98:  BRA    8BB6
....................       { 
....................          delay_ms(700);Menu=4;glcd_fillscreen(OFF);Opcion=1;unidad=1; 
08A9A:  MOVLW  04
08A9C:  MOVLB  5
08A9E:  MOVWF  xEB
08AA0:  MOVLW  AF
08AA2:  MOVWF  xFF
08AA4:  MOVLB  0
08AA6:  CALL   154C
08AAA:  MOVLB  5
08AAC:  DECFSZ xEB,F
08AAE:  BRA    8AA0
08AB0:  MOVLW  04
08AB2:  MOVLB  4
08AB4:  MOVWF  xCD
08AB6:  MOVLB  5
08AB8:  CLRF   xF3
08ABA:  MOVLB  0
08ABC:  CALL   162C
08AC0:  MOVLW  01
08AC2:  MOVLB  4
08AC4:  MOVWF  xCF
08AC6:  MOVWF  xCE
....................          write_eeprom(21,Tempouvp[0]); 
08AC8:  CLRF   FAA
08ACA:  MOVLW  15
08ACC:  MOVWF  FA9
08ACE:  MOVFF  503,FA8
08AD2:  BCF    FA6.6
08AD4:  BCF    FA6.7
08AD6:  BSF    FA6.2
08AD8:  MOVF   FF2,W
08ADA:  MOVWF  00
08ADC:  BCF    FF2.7
08ADE:  MOVLB  F
08AE0:  MOVLW  55
08AE2:  MOVWF  FA7
08AE4:  MOVLW  AA
08AE6:  MOVWF  FA7
08AE8:  BSF    FA6.1
08AEA:  BTFSC  FA6.1
08AEC:  BRA    8AEA
08AEE:  BCF    FA6.2
08AF0:  MOVF   00,W
08AF2:  IORWF  FF2,F
....................          delay_ms(20); 
08AF4:  MOVLW  14
08AF6:  MOVLB  5
08AF8:  MOVWF  xFF
08AFA:  MOVLB  0
08AFC:  CALL   154C
....................          write_eeprom(22,Tempouvp[1]); 
08B00:  CLRF   FAA
08B02:  MOVLW  16
08B04:  MOVWF  FA9
08B06:  MOVFF  504,FA8
08B0A:  BCF    FA6.6
08B0C:  BCF    FA6.7
08B0E:  BSF    FA6.2
08B10:  MOVF   FF2,W
08B12:  MOVWF  00
08B14:  BCF    FF2.7
08B16:  MOVLB  F
08B18:  MOVLW  55
08B1A:  MOVWF  FA7
08B1C:  MOVLW  AA
08B1E:  MOVWF  FA7
08B20:  BSF    FA6.1
08B22:  BTFSC  FA6.1
08B24:  BRA    8B22
08B26:  BCF    FA6.2
08B28:  MOVF   00,W
08B2A:  IORWF  FF2,F
....................          delay_ms(20); 
08B2C:  MOVLW  14
08B2E:  MOVLB  5
08B30:  MOVWF  xFF
08B32:  MOVLB  0
08B34:  CALL   154C
....................          write_eeprom(23,Tempouvp[2]); 
08B38:  CLRF   FAA
08B3A:  MOVLW  17
08B3C:  MOVWF  FA9
08B3E:  MOVFF  505,FA8
08B42:  BCF    FA6.6
08B44:  BCF    FA6.7
08B46:  BSF    FA6.2
08B48:  MOVF   FF2,W
08B4A:  MOVWF  00
08B4C:  BCF    FF2.7
08B4E:  MOVLB  F
08B50:  MOVLW  55
08B52:  MOVWF  FA7
08B54:  MOVLW  AA
08B56:  MOVWF  FA7
08B58:  BSF    FA6.1
08B5A:  BTFSC  FA6.1
08B5C:  BRA    8B5A
08B5E:  BCF    FA6.2
08B60:  MOVF   00,W
08B62:  IORWF  FF2,F
....................          delay_ms(20); 
08B64:  MOVLW  14
08B66:  MOVLB  5
08B68:  MOVWF  xFF
08B6A:  MOVLB  0
08B6C:  CALL   154C
....................          write_eeprom(24,Tempouvp[3]); 
08B70:  CLRF   FAA
08B72:  MOVLW  18
08B74:  MOVWF  FA9
08B76:  MOVFF  506,FA8
08B7A:  BCF    FA6.6
08B7C:  BCF    FA6.7
08B7E:  BSF    FA6.2
08B80:  MOVF   FF2,W
08B82:  MOVWF  00
08B84:  BCF    FF2.7
08B86:  MOVLB  F
08B88:  MOVLW  55
08B8A:  MOVWF  FA7
08B8C:  MOVLW  AA
08B8E:  MOVWF  FA7
08B90:  BSF    FA6.1
08B92:  BTFSC  FA6.1
08B94:  BRA    8B92
08B96:  BCF    FA6.2
08B98:  MOVF   00,W
08B9A:  IORWF  FF2,F
....................          delay_ms(20); 
08B9C:  MOVLW  14
08B9E:  MOVLB  5
08BA0:  MOVWF  xFF
08BA2:  MOVLB  0
08BA4:  CALL   154C
....................          Tempouv[0]=0;Tempouv[1]=0;Tempouv[2]=0;Tempouv[3]=0; 
08BA8:  MOVLB  5
08BAA:  CLRF   x07
08BAC:  CLRF   x08
08BAE:  CLRF   x09
08BB0:  CLRF   x0A
....................          tiempocumplido=1; 
08BB2:  MOVLB  4
08BB4:  BSF    x2F.2
....................       } 
....................              
....................       for(i=0;i<3;i++) 
08BB6:  MOVLB  5
08BB8:  CLRF   xDB
08BBA:  MOVF   xDB,W
08BBC:  SUBLW  02
08BBE:  BNC   8C14
....................       { 
....................          if(Tempouvp[i]>9) 
08BC0:  CLRF   03
08BC2:  MOVF   xDB,W
08BC4:  ADDLW  03
08BC6:  MOVWF  FE9
08BC8:  MOVLW  05
08BCA:  ADDWFC 03,W
08BCC:  MOVWF  FEA
08BCE:  BTFSC  FEF.7
08BD0:  BRA    8BE8
08BD2:  MOVF   FEF,W
08BD4:  SUBLW  09
08BD6:  BC    8BE8
....................          {Tempouvp[i]=0;} 
08BD8:  CLRF   03
08BDA:  MOVF   xDB,W
08BDC:  ADDLW  03
08BDE:  MOVWF  FE9
08BE0:  MOVLW  05
08BE2:  ADDWFC 03,W
08BE4:  MOVWF  FEA
08BE6:  CLRF   FEF
....................           
....................          if(Tempouvp[i]<0) 
08BE8:  CLRF   03
08BEA:  MOVF   xDB,W
08BEC:  ADDLW  03
08BEE:  MOVWF  FE9
08BF0:  MOVLW  05
08BF2:  ADDWFC 03,W
08BF4:  MOVWF  FEA
08BF6:  BTFSC  FEF.7
08BF8:  BRA    8BFC
08BFA:  BRA    8C0E
....................          {Tempouvp[i]=9;} 
08BFC:  CLRF   03
08BFE:  MOVF   xDB,W
08C00:  ADDLW  03
08C02:  MOVWF  FE9
08C04:  MOVLW  05
08C06:  ADDWFC 03,W
08C08:  MOVWF  FEA
08C0A:  MOVLW  09
08C0C:  MOVWF  FEF
....................          i++; 
08C0E:  INCF   xDB,F
....................       }       
08C10:  INCF   xDB,F
08C12:  BRA    8BBA
....................       for(i=1;i<4;i++) 
08C14:  MOVLW  01
08C16:  MOVWF  xDB
08C18:  MOVF   xDB,W
08C1A:  SUBLW  03
08C1C:  BNC   8C72
....................       { 
....................          if(Tempouvp[i]>5) 
08C1E:  CLRF   03
08C20:  MOVF   xDB,W
08C22:  ADDLW  03
08C24:  MOVWF  FE9
08C26:  MOVLW  05
08C28:  ADDWFC 03,W
08C2A:  MOVWF  FEA
08C2C:  BTFSC  FEF.7
08C2E:  BRA    8C46
08C30:  MOVF   FEF,W
08C32:  SUBLW  05
08C34:  BC    8C46
....................          {Tempouvp[i]=0;} 
08C36:  CLRF   03
08C38:  MOVF   xDB,W
08C3A:  ADDLW  03
08C3C:  MOVWF  FE9
08C3E:  MOVLW  05
08C40:  ADDWFC 03,W
08C42:  MOVWF  FEA
08C44:  CLRF   FEF
....................           
....................          if(Tempouvp[i]<0) 
08C46:  CLRF   03
08C48:  MOVF   xDB,W
08C4A:  ADDLW  03
08C4C:  MOVWF  FE9
08C4E:  MOVLW  05
08C50:  ADDWFC 03,W
08C52:  MOVWF  FEA
08C54:  BTFSC  FEF.7
08C56:  BRA    8C5A
08C58:  BRA    8C6C
....................          {Tempouvp[i]=5;} 
08C5A:  CLRF   03
08C5C:  MOVF   xDB,W
08C5E:  ADDLW  03
08C60:  MOVWF  FE9
08C62:  MOVLW  05
08C64:  ADDWFC 03,W
08C66:  MOVWF  FEA
08C68:  MOVLW  05
08C6A:  MOVWF  FEF
....................         i++;  
08C6C:  INCF   xDB,F
....................       }       
08C6E:  INCF   xDB,F
08C70:  BRA    8C18
....................       if(unidad<1) 
08C72:  MOVLB  4
08C74:  MOVF   xCE,F
08C76:  BNZ   8C7C
....................       {unidad=4;} 
08C78:  MOVLW  04
08C7A:  MOVWF  xCE
....................       if(Opcion<1) 
08C7C:  MOVF   xCF,F
08C7E:  BNZ   8C84
....................       {Opcion=4;} 
08C80:  MOVLW  04
08C82:  MOVWF  xCF
....................      
....................     } 
.................... //_--------------------------------------------------------------------------------------------------------------------------------------------------------        
....................  
.................... //_-------------------------------------------------------------------------------------------------------------------------------------------------------- 
....................       if(Menu==5){ //Menu de Clave. 
08C84:  MOVF   xCD,W
08C86:  SUBLW  05
08C88:  BNZ   8CE8
....................  
....................       PidePassword(3,5,211,Password[0],Password[1],Password[2],Password[3]); 
08C8A:  MOVLW  03
08C8C:  MOVLB  5
08C8E:  MOVWF  xEC
08C90:  MOVLW  05
08C92:  MOVWF  xED
08C94:  MOVLW  D3
08C96:  MOVWF  xEE
08C98:  MOVFF  513,5EF
08C9C:  MOVFF  514,5F0
08CA0:  MOVFF  515,5F1
08CA4:  MOVFF  516,5F2
08CA8:  MOVLB  0
08CAA:  CALL   4F64
....................              
....................       if(LEFT)//Si oprime boton de Toma. 
08CAE:  BSF    F96.2
08CB0:  BTFSC  F84.2
08CB2:  BRA    8CEA
....................       { 
....................          delay_ms(200); 
08CB4:  MOVLW  C8
08CB6:  MOVLB  5
08CB8:  MOVWF  xFF
08CBA:  MOVLB  0
08CBC:  CALL   154C
....................          if(unidad==1){ 
08CC0:  MOVLB  4
08CC2:  DECFSZ xCE,W
08CC4:  BRA    8CE8
....................             Menu=3;glcd_fillscreen(OFF);Opcion=1;unidad=1;Contrasena[0]=0;Contrasena[1]=0;Contrasena[2]=0;Contrasena[3]=0; 
08CC6:  MOVLW  03
08CC8:  MOVWF  xCD
08CCA:  MOVLB  5
08CCC:  CLRF   xF3
08CCE:  MOVLB  0
08CD0:  CALL   162C
08CD4:  MOVLW  01
08CD6:  MOVLB  4
08CD8:  MOVWF  xCF
08CDA:  MOVWF  xCE
08CDC:  MOVLB  5
08CDE:  CLRF   x0F
08CE0:  CLRF   x10
08CE2:  CLRF   x11
08CE4:  CLRF   x12
08CE6:  MOVLB  4
08CE8:  MOVLB  0
....................          } 
....................       }  
....................     } 
.................... //_--------------------------------------------------------------------------------------------------------------------------------------------------------        
....................  
.................... //_-------------------------------------------------------------------------------------------------------------------------------------------------------- 
....................       if(Menu==211){ //Menu de Cambio Clave. 
08CEA:  MOVLB  4
08CEC:  MOVF   xCD,W
08CEE:  SUBLW  D3
08CF0:  BTFSS  FD8.2
08CF2:  BRA    9192
....................        
....................       if(n==0) 
08CF4:  BTFSC  x2F.5
08CF6:  BRA    8D56
....................       { 
....................          displayContrasena(Contrasena[0],20,30,1);displayContrasena(Contrasena[1],40,30,0); 
08CF8:  MOVFF  50F,5F5
08CFC:  MOVLW  14
08CFE:  MOVLB  5
08D00:  MOVWF  xF6
08D02:  MOVLW  1E
08D04:  MOVWF  xF7
08D06:  MOVLW  01
08D08:  MOVWF  xF8
08D0A:  MOVLB  0
08D0C:  CALL   4DB4
08D10:  MOVFF  510,5F5
08D14:  MOVLW  28
08D16:  MOVLB  5
08D18:  MOVWF  xF6
08D1A:  MOVLW  1E
08D1C:  MOVWF  xF7
08D1E:  CLRF   xF8
08D20:  MOVLB  0
08D22:  CALL   4DB4
....................          displayContrasena(Contrasena[2],60,30,0);displayContrasena(Contrasena[0],80,30,0); 
08D26:  MOVFF  511,5F5
08D2A:  MOVLW  3C
08D2C:  MOVLB  5
08D2E:  MOVWF  xF6
08D30:  MOVLW  1E
08D32:  MOVWF  xF7
08D34:  CLRF   xF8
08D36:  MOVLB  0
08D38:  CALL   4DB4
08D3C:  MOVFF  50F,5F5
08D40:  MOVLW  50
08D42:  MOVLB  5
08D44:  MOVWF  xF6
08D46:  MOVLW  1E
08D48:  MOVWF  xF7
08D4A:  CLRF   xF8
08D4C:  MOVLB  0
08D4E:  CALL   4DB4
....................          n=1; 
08D52:  MOVLB  4
08D54:  BSF    x2F.5
....................       } 
....................       strcpy(Menus.Letra,"Clave Nueva"); 
08D56:  MOVLW  04
08D58:  MOVWF  FEA
08D5A:  MOVLW  17
08D5C:  MOVWF  FE9
08D5E:  MOVFF  FF2,5EB
08D62:  BCF    FF2.7
08D64:  MOVLW  00
08D66:  MOVLB  0
08D68:  CALL   1200
08D6C:  TBLRD*-
08D6E:  TBLRD*+
08D70:  MOVF   FF5,W
08D72:  MOVWF  FEE
08D74:  IORLW  00
08D76:  BNZ   8D6E
08D78:  MOVLB  5
08D7A:  BTFSC  xEB.7
08D7C:  BSF    FF2.7
....................       displayMenu(Menus.Letra,0,0,1,2); 
08D7E:  MOVLW  04
08D80:  MOVWF  xF4
08D82:  MOVLW  17
08D84:  MOVWF  xF3
08D86:  CLRF   xF5
08D88:  CLRF   xF6
08D8A:  MOVLW  01
08D8C:  MOVWF  xF7
08D8E:  MOVLW  02
08D90:  MOVWF  xF8
08D92:  MOVLB  0
08D94:  CALL   4E88
....................          
....................        
....................       if(UP)//Si oprime hacia arriba 
08D98:  BSF    F92.5
08D9A:  BTFSC  F80.5
08D9C:  BRA    8E76
....................       {  if(Flanco == 0)  
08D9E:  MOVLB  4
08DA0:  BTFSC  x2D.0
08DA2:  BRA    8E74
....................             {Flanco = 1;delay_ms(30); 
08DA4:  BSF    x2D.0
08DA6:  MOVLW  1E
08DA8:  MOVLB  5
08DAA:  MOVWF  xFF
08DAC:  MOVLB  0
08DAE:  CALL   154C
....................             for(i=1;i<=4;i++) 
08DB2:  MOVLW  01
08DB4:  MOVLB  5
08DB6:  MOVWF  xDB
08DB8:  MOVF   xDB,W
08DBA:  SUBLW  04
08DBC:  BNC   8E72
....................                { 
....................                   if(unidad==i) 
08DBE:  MOVF   xDB,W
08DC0:  MOVLB  4
08DC2:  SUBWF  xCE,W
08DC4:  BNZ   8E3A
....................                   {Contrasena[i-1]++; 
08DC6:  MOVLW  01
08DC8:  MOVLB  5
08DCA:  SUBWF  xDB,W
08DCC:  CLRF   03
08DCE:  ADDLW  0F
08DD0:  MOVWF  FE9
08DD2:  MOVLW  05
08DD4:  ADDWFC 03,W
08DD6:  MOVWF  FEA
08DD8:  INCF   FEF,F
....................                   if(Contrasena[i-1]>9) 
08DDA:  MOVLW  01
08DDC:  SUBWF  xDB,W
08DDE:  CLRF   03
08DE0:  ADDLW  0F
08DE2:  MOVWF  FE9
08DE4:  MOVLW  05
08DE6:  ADDWFC 03,W
08DE8:  MOVWF  FEA
08DEA:  BTFSC  FEF.7
08DEC:  BRA    8E06
08DEE:  MOVF   FEF,W
08DF0:  SUBLW  09
08DF2:  BC    8E06
....................                         {Contrasena[i-1]=0;} 
08DF4:  MOVLW  01
08DF6:  SUBWF  xDB,W
08DF8:  CLRF   03
08DFA:  ADDLW  0F
08DFC:  MOVWF  FE9
08DFE:  MOVLW  05
08E00:  ADDWFC 03,W
08E02:  MOVWF  FEA
08E04:  CLRF   FEF
....................                   displayContrasena(Contrasena[i-1],i*20,30,1);} 
08E06:  MOVLW  01
08E08:  SUBWF  xDB,W
08E0A:  CLRF   03
08E0C:  ADDLW  0F
08E0E:  MOVWF  FE9
08E10:  MOVLW  05
08E12:  ADDWFC 03,W
08E14:  MOVWF  FEA
08E16:  MOVFF  FEF,5EB
08E1A:  MOVF   xDB,W
08E1C:  MULLW  14
08E1E:  MOVFF  FF3,5EC
08E22:  MOVFF  5EB,5F5
08E26:  MOVFF  5EC,5F6
08E2A:  MOVLW  1E
08E2C:  MOVWF  xF7
08E2E:  MOVLW  01
08E30:  MOVWF  xF8
08E32:  MOVLB  0
08E34:  CALL   4DB4
....................                   else 
08E38:  BRA    8E6C
....................                   {displayContrasena(Contrasena[i-1],i*20,30,0);} 
08E3A:  MOVLW  01
08E3C:  MOVLB  5
08E3E:  SUBWF  xDB,W
08E40:  CLRF   03
08E42:  ADDLW  0F
08E44:  MOVWF  FE9
08E46:  MOVLW  05
08E48:  ADDWFC 03,W
08E4A:  MOVWF  FEA
08E4C:  MOVFF  FEF,5EB
08E50:  MOVF   xDB,W
08E52:  MULLW  14
08E54:  MOVFF  FF3,5EC
08E58:  MOVFF  5EB,5F5
08E5C:  MOVFF  5EC,5F6
08E60:  MOVLW  1E
08E62:  MOVWF  xF7
08E64:  CLRF   xF8
08E66:  MOVLB  0
08E68:  CALL   4DB4
....................                } 
08E6C:  MOVLB  5
08E6E:  INCF   xDB,F
08E70:  BRA    8DB8
08E72:  MOVLB  4
....................             } 
....................       } 
....................          else 
08E74:  BRA    8E7A
....................             {Flanco = 0;} 
08E76:  MOVLB  4
08E78:  BCF    x2D.0
....................              
....................       if(DOWN )//Si oprime hacia abajo 
08E7A:  BSF    F96.0
08E7C:  BTFSC  F84.0
08E7E:  BRA    8F54
....................       {  if(Flanco2 == 0)  
08E80:  BTFSC  x2D.2
08E82:  BRA    8F52
....................             {Flanco2 = 1;delay_ms(30); 
08E84:  BSF    x2D.2
08E86:  MOVLW  1E
08E88:  MOVLB  5
08E8A:  MOVWF  xFF
08E8C:  MOVLB  0
08E8E:  CALL   154C
....................                for(i=1;i<=4;i++) 
08E92:  MOVLW  01
08E94:  MOVLB  5
08E96:  MOVWF  xDB
08E98:  MOVF   xDB,W
08E9A:  SUBLW  04
08E9C:  BNC   8F50
....................                { 
....................                   if(unidad==i) 
08E9E:  MOVF   xDB,W
08EA0:  MOVLB  4
08EA2:  SUBWF  xCE,W
08EA4:  BNZ   8F18
....................                   {Contrasena[i-1]--;  
08EA6:  MOVLW  01
08EA8:  MOVLB  5
08EAA:  SUBWF  xDB,W
08EAC:  CLRF   03
08EAE:  ADDLW  0F
08EB0:  MOVWF  FE9
08EB2:  MOVLW  05
08EB4:  ADDWFC 03,W
08EB6:  MOVWF  FEA
08EB8:  DECF   FEF,F
....................                      if(Contrasena[i-1]<0) 
08EBA:  MOVLW  01
08EBC:  SUBWF  xDB,W
08EBE:  CLRF   03
08EC0:  ADDLW  0F
08EC2:  MOVWF  FE9
08EC4:  MOVLW  05
08EC6:  ADDWFC 03,W
08EC8:  MOVWF  FEA
08ECA:  BTFSC  FEF.7
08ECC:  BRA    8ED0
08ECE:  BRA    8EE4
....................                         {Contrasena[i-1]=9;} 
08ED0:  MOVLW  01
08ED2:  SUBWF  xDB,W
08ED4:  CLRF   03
08ED6:  ADDLW  0F
08ED8:  MOVWF  FE9
08EDA:  MOVLW  05
08EDC:  ADDWFC 03,W
08EDE:  MOVWF  FEA
08EE0:  MOVLW  09
08EE2:  MOVWF  FEF
....................                    displayContrasena(Contrasena[i-1],i*20,30,1);} 
08EE4:  MOVLW  01
08EE6:  SUBWF  xDB,W
08EE8:  CLRF   03
08EEA:  ADDLW  0F
08EEC:  MOVWF  FE9
08EEE:  MOVLW  05
08EF0:  ADDWFC 03,W
08EF2:  MOVWF  FEA
08EF4:  MOVFF  FEF,5EB
08EF8:  MOVF   xDB,W
08EFA:  MULLW  14
08EFC:  MOVFF  FF3,5EC
08F00:  MOVFF  5EB,5F5
08F04:  MOVFF  5EC,5F6
08F08:  MOVLW  1E
08F0A:  MOVWF  xF7
08F0C:  MOVLW  01
08F0E:  MOVWF  xF8
08F10:  MOVLB  0
08F12:  CALL   4DB4
....................                   else 
08F16:  BRA    8F4A
....................                   {displayContrasena(Contrasena[i-1],i*20,30,0);} 
08F18:  MOVLW  01
08F1A:  MOVLB  5
08F1C:  SUBWF  xDB,W
08F1E:  CLRF   03
08F20:  ADDLW  0F
08F22:  MOVWF  FE9
08F24:  MOVLW  05
08F26:  ADDWFC 03,W
08F28:  MOVWF  FEA
08F2A:  MOVFF  FEF,5EB
08F2E:  MOVF   xDB,W
08F30:  MULLW  14
08F32:  MOVFF  FF3,5EC
08F36:  MOVFF  5EB,5F5
08F3A:  MOVFF  5EC,5F6
08F3E:  MOVLW  1E
08F40:  MOVWF  xF7
08F42:  CLRF   xF8
08F44:  MOVLB  0
08F46:  CALL   4DB4
....................                }       
08F4A:  MOVLB  5
08F4C:  INCF   xDB,F
08F4E:  BRA    8E98
08F50:  MOVLB  4
....................             }      
....................       } 
....................          else 
08F52:  BRA    8F56
....................             {Flanco2 = 0;}   
08F54:  BCF    x2D.2
....................              
....................       if(RIGHT)//Si oprime SET 
08F56:  BSF    F96.1
08F58:  BTFSC  F84.1
08F5A:  BRA    8FF8
....................       {  if(Flanco1 == 0)  
08F5C:  BTFSC  x2D.1
08F5E:  BRA    8FF6
....................             {Flanco1 = 1;delay_ms(30);unidad++; 
08F60:  BSF    x2D.1
08F62:  MOVLW  1E
08F64:  MOVLB  5
08F66:  MOVWF  xFF
08F68:  MOVLB  0
08F6A:  CALL   154C
08F6E:  MOVLB  4
08F70:  INCF   xCE,F
....................                for(i=1;i<=4;i++) 
08F72:  MOVLW  01
08F74:  MOVLB  5
08F76:  MOVWF  xDB
08F78:  MOVF   xDB,W
08F7A:  SUBLW  04
08F7C:  BNC   8FF4
....................                { 
....................                   if(unidad==i) 
08F7E:  MOVF   xDB,W
08F80:  MOVLB  4
08F82:  SUBWF  xCE,W
08F84:  BNZ   8FBC
....................                   {displayContrasena(Contrasena[i-1],i*20,30,1);} 
08F86:  MOVLW  01
08F88:  MOVLB  5
08F8A:  SUBWF  xDB,W
08F8C:  CLRF   03
08F8E:  ADDLW  0F
08F90:  MOVWF  FE9
08F92:  MOVLW  05
08F94:  ADDWFC 03,W
08F96:  MOVWF  FEA
08F98:  MOVFF  FEF,5EB
08F9C:  MOVF   xDB,W
08F9E:  MULLW  14
08FA0:  MOVFF  FF3,5EC
08FA4:  MOVFF  5EB,5F5
08FA8:  MOVFF  5EC,5F6
08FAC:  MOVLW  1E
08FAE:  MOVWF  xF7
08FB0:  MOVLW  01
08FB2:  MOVWF  xF8
08FB4:  MOVLB  0
08FB6:  CALL   4DB4
....................                   else 
08FBA:  BRA    8FEE
....................                   {displayContrasena(Contrasena[i-1],i*20,30,0);} 
08FBC:  MOVLW  01
08FBE:  MOVLB  5
08FC0:  SUBWF  xDB,W
08FC2:  CLRF   03
08FC4:  ADDLW  0F
08FC6:  MOVWF  FE9
08FC8:  MOVLW  05
08FCA:  ADDWFC 03,W
08FCC:  MOVWF  FEA
08FCE:  MOVFF  FEF,5EB
08FD2:  MOVF   xDB,W
08FD4:  MULLW  14
08FD6:  MOVFF  FF3,5EC
08FDA:  MOVFF  5EB,5F5
08FDE:  MOVFF  5EC,5F6
08FE2:  MOVLW  1E
08FE4:  MOVWF  xF7
08FE6:  CLRF   xF8
08FE8:  MOVLB  0
08FEA:  CALL   4DB4
....................                } 
08FEE:  MOVLB  5
08FF0:  INCF   xDB,F
08FF2:  BRA    8F78
08FF4:  MOVLB  4
....................             } 
....................       } 
....................          else 
08FF6:  BRA    8FFA
....................             {Flanco1 = 0;}   
08FF8:  BCF    x2D.1
....................              
....................       if(LEFT)//Si oprime boton de Toma. 
08FFA:  BSF    F96.2
08FFC:  BTFSC  F84.2
08FFE:  BRA    903E
....................       { 
....................          
....................          delay_ms(700); 
09000:  MOVLW  04
09002:  MOVLB  5
09004:  MOVWF  xEB
09006:  MOVLW  AF
09008:  MOVWF  xFF
0900A:  MOVLB  0
0900C:  CALL   154C
09010:  MOVLB  5
09012:  DECFSZ xEB,F
09014:  BRA    9006
....................          if(unidad==1){ 
09016:  MOVLB  4
09018:  DECFSZ xCE,W
0901A:  BRA    903E
....................             Menu=3;glcd_fillscreen(OFF);Opcion=1;unidad=1;Contrasena[0]=0;Contrasena[1]=0;Contrasena[2]=0;Contrasena[3]=0; 
0901C:  MOVLW  03
0901E:  MOVWF  xCD
09020:  MOVLB  5
09022:  CLRF   xF3
09024:  MOVLB  0
09026:  CALL   162C
0902A:  MOVLW  01
0902C:  MOVLB  4
0902E:  MOVWF  xCF
09030:  MOVWF  xCE
09032:  MOVLB  5
09034:  CLRF   x0F
09036:  CLRF   x10
09038:  CLRF   x11
0903A:  CLRF   x12
0903C:  MOVLB  4
....................          } 
....................       } 
....................        
....................       if(unidad>4) 
0903E:  MOVF   xCE,W
09040:  SUBLW  04
09042:  BTFSC  FD8.0
09044:  BRA    9192
....................       { 
....................          Opcion=1;glcd_fillscreen(OFF);unidad=1;n=0; 
09046:  MOVLW  01
09048:  MOVWF  xCF
0904A:  MOVLB  5
0904C:  CLRF   xF3
0904E:  MOVLB  0
09050:  CALL   162C
09054:  MOVLW  01
09056:  MOVLB  4
09058:  MOVWF  xCE
0905A:  BCF    x2F.5
....................          Password[0]=Contrasena[0];Password[1]=Contrasena[1];Password[2]=Contrasena[2];Password[3]=Contrasena[3]; 
0905C:  MOVFF  50F,513
09060:  MOVFF  510,514
09064:  MOVFF  511,515
09068:  MOVFF  512,516
....................          write_eeprom(0,Password[0]); 
0906C:  CLRF   FAA
0906E:  CLRF   FA9
09070:  MOVFF  513,FA8
09074:  BCF    FA6.6
09076:  BCF    FA6.7
09078:  BSF    FA6.2
0907A:  MOVF   FF2,W
0907C:  MOVWF  00
0907E:  BCF    FF2.7
09080:  MOVLB  F
09082:  MOVLW  55
09084:  MOVWF  FA7
09086:  MOVLW  AA
09088:  MOVWF  FA7
0908A:  BSF    FA6.1
0908C:  BTFSC  FA6.1
0908E:  BRA    908C
09090:  BCF    FA6.2
09092:  MOVF   00,W
09094:  IORWF  FF2,F
....................          delay_ms(20); 
09096:  MOVLW  14
09098:  MOVLB  5
0909A:  MOVWF  xFF
0909C:  MOVLB  0
0909E:  CALL   154C
....................          write_eeprom(1,Password[1]); 
090A2:  CLRF   FAA
090A4:  MOVLW  01
090A6:  MOVWF  FA9
090A8:  MOVFF  514,FA8
090AC:  BCF    FA6.6
090AE:  BCF    FA6.7
090B0:  BSF    FA6.2
090B2:  MOVF   FF2,W
090B4:  MOVWF  00
090B6:  BCF    FF2.7
090B8:  MOVLB  F
090BA:  MOVLW  55
090BC:  MOVWF  FA7
090BE:  MOVLW  AA
090C0:  MOVWF  FA7
090C2:  BSF    FA6.1
090C4:  BTFSC  FA6.1
090C6:  BRA    90C4
090C8:  BCF    FA6.2
090CA:  MOVF   00,W
090CC:  IORWF  FF2,F
....................          delay_ms(20); 
090CE:  MOVLW  14
090D0:  MOVLB  5
090D2:  MOVWF  xFF
090D4:  MOVLB  0
090D6:  CALL   154C
....................          write_eeprom(2,Password[2]); 
090DA:  CLRF   FAA
090DC:  MOVLW  02
090DE:  MOVWF  FA9
090E0:  MOVFF  515,FA8
090E4:  BCF    FA6.6
090E6:  BCF    FA6.7
090E8:  BSF    FA6.2
090EA:  MOVF   FF2,W
090EC:  MOVWF  00
090EE:  BCF    FF2.7
090F0:  MOVLB  F
090F2:  MOVLW  55
090F4:  MOVWF  FA7
090F6:  MOVLW  AA
090F8:  MOVWF  FA7
090FA:  BSF    FA6.1
090FC:  BTFSC  FA6.1
090FE:  BRA    90FC
09100:  BCF    FA6.2
09102:  MOVF   00,W
09104:  IORWF  FF2,F
....................          delay_ms(20); 
09106:  MOVLW  14
09108:  MOVLB  5
0910A:  MOVWF  xFF
0910C:  MOVLB  0
0910E:  CALL   154C
....................          write_eeprom(3,Password[3]); 
09112:  CLRF   FAA
09114:  MOVLW  03
09116:  MOVWF  FA9
09118:  MOVFF  516,FA8
0911C:  BCF    FA6.6
0911E:  BCF    FA6.7
09120:  BSF    FA6.2
09122:  MOVF   FF2,W
09124:  MOVWF  00
09126:  BCF    FF2.7
09128:  MOVLB  F
0912A:  MOVLW  55
0912C:  MOVWF  FA7
0912E:  MOVLW  AA
09130:  MOVWF  FA7
09132:  BSF    FA6.1
09134:  BTFSC  FA6.1
09136:  BRA    9134
09138:  BCF    FA6.2
0913A:  MOVF   00,W
0913C:  IORWF  FF2,F
....................          delay_ms(20); 
0913E:  MOVLW  14
09140:  MOVLB  5
09142:  MOVWF  xFF
09144:  MOVLB  0
09146:  CALL   154C
....................          glcd_imagen(1);glcd_update();Menu=211;delay_ms(1000);glcd_fillScreen(OFF);Menu=3; 
0914A:  MOVLW  01
0914C:  MOVLB  5
0914E:  MOVWF  xEB
09150:  MOVLB  0
09152:  CALL   5DA8
09156:  CALL   1686
0915A:  MOVLW  D3
0915C:  MOVLB  4
0915E:  MOVWF  xCD
09160:  MOVLW  04
09162:  MOVLB  5
09164:  MOVWF  xEB
09166:  MOVLW  FA
09168:  MOVWF  xFF
0916A:  MOVLB  0
0916C:  CALL   154C
09170:  MOVLB  5
09172:  DECFSZ xEB,F
09174:  BRA    9166
09176:  CLRF   xF3
09178:  MOVLB  0
0917A:  CALL   162C
0917E:  MOVLW  03
09180:  MOVLB  4
09182:  MOVWF  xCD
....................          n=0; 
09184:  BCF    x2F.5
....................          Contrasena[0]=0;Contrasena[1]=0;Contrasena[2]=0;Contrasena[3]=0; 
09186:  MOVLB  5
09188:  CLRF   x0F
0918A:  CLRF   x10
0918C:  CLRF   x11
0918E:  CLRF   x12
09190:  MOVLB  4
....................       } 
....................      
....................     } 
.................... //_--------------------------------------------------------------------------------------------------------------------------------------------------------        
....................  
.................... //_-------------------------------------------------------------------------------------------------------------------------------------------------------- 
....................       if(Menu==31){ //Menu de Mantenimiento. 
09192:  MOVF   xCD,W
09194:  SUBLW  1F
09196:  BTFSS  FD8.2
09198:  BRA    95BC
....................        
....................          strcpy(Menus.Letra,"Manteniento"); 
0919A:  MOVLW  04
0919C:  MOVWF  FEA
0919E:  MOVLW  17
091A0:  MOVWF  FE9
091A2:  MOVFF  FF2,5EB
091A6:  BCF    FF2.7
091A8:  MOVLW  00
091AA:  MOVLB  0
091AC:  CALL   122A
091B0:  TBLRD*-
091B2:  TBLRD*+
091B4:  MOVF   FF5,W
091B6:  MOVWF  FEE
091B8:  IORLW  00
091BA:  BNZ   91B2
091BC:  MOVLB  5
091BE:  BTFSC  xEB.7
091C0:  BSF    FF2.7
....................          displayMenu(Menus.Letra,0,0,1,2); 
091C2:  MOVLW  04
091C4:  MOVWF  xF4
091C6:  MOVLW  17
091C8:  MOVWF  xF3
091CA:  CLRF   xF5
091CC:  CLRF   xF6
091CE:  MOVLW  01
091D0:  MOVWF  xF7
091D2:  MOVLW  02
091D4:  MOVWF  xF8
091D6:  MOVLB  0
091D8:  CALL   4E88
....................           
....................          strcpy(Menus.Letra,"Trabajo Filtro(h):"); 
091DC:  MOVLW  04
091DE:  MOVWF  FEA
091E0:  MOVLW  17
091E2:  MOVWF  FE9
091E4:  MOVFF  FF2,5EB
091E8:  BCF    FF2.7
091EA:  MOVLW  00
091EC:  CALL   1254
091F0:  TBLRD*-
091F2:  TBLRD*+
091F4:  MOVF   FF5,W
091F6:  MOVWF  FEE
091F8:  IORLW  00
091FA:  BNZ   91F2
091FC:  MOVLB  5
091FE:  BTFSC  xEB.7
09200:  BSF    FF2.7
....................          displayMenu(Menus.Letra,10,20,1,1); 
09202:  MOVLW  04
09204:  MOVWF  xF4
09206:  MOVLW  17
09208:  MOVWF  xF3
0920A:  MOVLW  0A
0920C:  MOVWF  xF5
0920E:  MOVLW  14
09210:  MOVWF  xF6
09212:  MOVLW  01
09214:  MOVWF  xF7
09216:  MOVWF  xF8
09218:  MOVLB  0
0921A:  CALL   4E88
....................          glcd_text57(0, 31, Vida_Filtro, 1, ON); 
0921E:  MOVLB  6
09220:  CLRF   x04
09222:  MOVLW  1F
09224:  MOVWF  x05
09226:  MOVLW  04
09228:  MOVWF  x07
0922A:  MOVLW  93
0922C:  MOVWF  x06
0922E:  MOVLW  01
09230:  MOVWF  x08
09232:  MOVWF  x09
09234:  MOVLB  0
09236:  CALL   18A2
....................          displayTiempo(Ttrabajo[3],60,30,0,1);displayTiempo(Ttrabajo[2],67,30,0,1);displayTiempo(Ttrabajo[1],74,30,0,1);displayTiempo(Ttrabajo[0],82,30,0,1); 
0923A:  MOVFF  50E,5EB
0923E:  MOVLW  3C
09240:  MOVLB  5
09242:  MOVWF  xEC
09244:  MOVLW  1E
09246:  MOVWF  xED
09248:  CLRF   xEE
0924A:  MOVLW  01
0924C:  MOVWF  xEF
0924E:  MOVLB  0
09250:  CALL   5648
09254:  MOVFF  50D,5EB
09258:  MOVLW  43
0925A:  MOVLB  5
0925C:  MOVWF  xEC
0925E:  MOVLW  1E
09260:  MOVWF  xED
09262:  CLRF   xEE
09264:  MOVLW  01
09266:  MOVWF  xEF
09268:  MOVLB  0
0926A:  CALL   5648
0926E:  MOVFF  50C,5EB
09272:  MOVLW  4A
09274:  MOVLB  5
09276:  MOVWF  xEC
09278:  MOVLW  1E
0927A:  MOVWF  xED
0927C:  CLRF   xEE
0927E:  MOVLW  01
09280:  MOVWF  xEF
09282:  MOVLB  0
09284:  CALL   5648
09288:  MOVFF  50B,5EB
0928C:  MOVLW  52
0928E:  MOVLB  5
09290:  MOVWF  xEC
09292:  MOVLW  1E
09294:  MOVWF  xED
09296:  CLRF   xEE
09298:  MOVLW  01
0929A:  MOVWF  xEF
0929C:  MOVLB  0
0929E:  CALL   5648
....................           
....................          strcpy(Menus.Letra,"Trabajo Luz UV(h):"); 
092A2:  MOVLW  04
092A4:  MOVWF  FEA
092A6:  MOVLW  17
092A8:  MOVWF  FE9
092AA:  MOVFF  FF2,5EB
092AE:  BCF    FF2.7
092B0:  MOVLW  00
092B2:  CALL   1286
092B6:  TBLRD*-
092B8:  TBLRD*+
092BA:  MOVF   FF5,W
092BC:  MOVWF  FEE
092BE:  IORLW  00
092C0:  BNZ   92B8
092C2:  MOVLB  5
092C4:  BTFSC  xEB.7
092C6:  BSF    FF2.7
....................          displayMenu(Menus.Letra,0,40,1,1); 
092C8:  MOVLW  04
092CA:  MOVWF  xF4
092CC:  MOVLW  17
092CE:  MOVWF  xF3
092D0:  CLRF   xF5
092D2:  MOVLW  28
092D4:  MOVWF  xF6
092D6:  MOVLW  01
092D8:  MOVWF  xF7
092DA:  MOVWF  xF8
092DC:  MOVLB  0
092DE:  CALL   4E88
....................          glcd_text57(0, 53, Vida_UV, 1, ON); 
092E2:  MOVLB  6
092E4:  CLRF   x04
092E6:  MOVLW  35
092E8:  MOVWF  x05
092EA:  MOVLW  04
092EC:  MOVWF  x07
092EE:  MOVLW  C5
092F0:  MOVWF  x06
092F2:  MOVLW  01
092F4:  MOVWF  x08
092F6:  MOVWF  x09
092F8:  MOVLB  0
092FA:  CALL   18A2
....................          displayTiempo(Tuv[3],60,52,0,1);displayTiempo(Tuv[2],67,52,0,1);displayTiempo(Tuv[1],74,52,0,1);displayTiempo(Tuv[0],82,52,0,1);                  
092FE:  MOVFF  502,5EB
09302:  MOVLW  3C
09304:  MOVLB  5
09306:  MOVWF  xEC
09308:  MOVLW  34
0930A:  MOVWF  xED
0930C:  CLRF   xEE
0930E:  MOVLW  01
09310:  MOVWF  xEF
09312:  MOVLB  0
09314:  CALL   5648
09318:  MOVFF  501,5EB
0931C:  MOVLW  43
0931E:  MOVLB  5
09320:  MOVWF  xEC
09322:  MOVLW  34
09324:  MOVWF  xED
09326:  CLRF   xEE
09328:  MOVLW  01
0932A:  MOVWF  xEF
0932C:  MOVLB  0
0932E:  CALL   5648
09332:  MOVFF  500,5EB
09336:  MOVLW  4A
09338:  MOVLB  5
0933A:  MOVWF  xEC
0933C:  MOVLW  34
0933E:  MOVWF  xED
09340:  CLRF   xEE
09342:  MOVLW  01
09344:  MOVWF  xEF
09346:  MOVLB  0
09348:  CALL   5648
0934C:  MOVFF  4FF,5EB
09350:  MOVLW  52
09352:  MOVLB  5
09354:  MOVWF  xEC
09356:  MOVLW  34
09358:  MOVWF  xED
0935A:  CLRF   xEE
0935C:  MOVLW  01
0935E:  MOVWF  xEF
09360:  MOVLB  0
09362:  CALL   5648
....................           
....................          LuzBlanca_on; 
09366:  BSF    F8B.0
09368:  BCF    F94.0
....................           
....................             if(UP && RIGHT) // Reinicia Tiempo de Luz UV 
0936A:  BSF    F92.5
0936C:  BTFSC  F80.5
0936E:  BRA    9482
09370:  BSF    F96.1
09372:  BTFSC  F84.1
09374:  BRA    9482
....................             { 
....................                   delay_ms(2000); 
09376:  MOVLW  08
09378:  MOVLB  5
0937A:  MOVWF  xEB
0937C:  MOVLW  FA
0937E:  MOVWF  xFF
09380:  MOVLB  0
09382:  CALL   154C
09386:  MOVLB  5
09388:  DECFSZ xEB,F
0938A:  BRA    937C
....................                   write_eeprom(12,0); 
0938C:  CLRF   FAA
0938E:  MOVLW  0C
09390:  MOVWF  FA9
09392:  CLRF   FA8
09394:  BCF    FA6.6
09396:  BCF    FA6.7
09398:  BSF    FA6.2
0939A:  MOVF   FF2,W
0939C:  MOVWF  00
0939E:  BCF    FF2.7
093A0:  MOVLB  F
093A2:  MOVLW  55
093A4:  MOVWF  FA7
093A6:  MOVLW  AA
093A8:  MOVWF  FA7
093AA:  BSF    FA6.1
093AC:  BTFSC  FA6.1
093AE:  BRA    93AC
093B0:  BCF    FA6.2
093B2:  MOVF   00,W
093B4:  IORWF  FF2,F
....................                   delay_ms(20); 
093B6:  MOVLW  14
093B8:  MOVLB  5
093BA:  MOVWF  xFF
093BC:  MOVLB  0
093BE:  CALL   154C
....................                   write_eeprom(13,0); 
093C2:  CLRF   FAA
093C4:  MOVLW  0D
093C6:  MOVWF  FA9
093C8:  CLRF   FA8
093CA:  BCF    FA6.6
093CC:  BCF    FA6.7
093CE:  BSF    FA6.2
093D0:  MOVF   FF2,W
093D2:  MOVWF  00
093D4:  BCF    FF2.7
093D6:  MOVLB  F
093D8:  MOVLW  55
093DA:  MOVWF  FA7
093DC:  MOVLW  AA
093DE:  MOVWF  FA7
093E0:  BSF    FA6.1
093E2:  BTFSC  FA6.1
093E4:  BRA    93E2
093E6:  BCF    FA6.2
093E8:  MOVF   00,W
093EA:  IORWF  FF2,F
....................                   delay_ms(20); 
093EC:  MOVLW  14
093EE:  MOVLB  5
093F0:  MOVWF  xFF
093F2:  MOVLB  0
093F4:  CALL   154C
....................                   write_eeprom(14,0); 
093F8:  CLRF   FAA
093FA:  MOVLW  0E
093FC:  MOVWF  FA9
093FE:  CLRF   FA8
09400:  BCF    FA6.6
09402:  BCF    FA6.7
09404:  BSF    FA6.2
09406:  MOVF   FF2,W
09408:  MOVWF  00
0940A:  BCF    FF2.7
0940C:  MOVLB  F
0940E:  MOVLW  55
09410:  MOVWF  FA7
09412:  MOVLW  AA
09414:  MOVWF  FA7
09416:  BSF    FA6.1
09418:  BTFSC  FA6.1
0941A:  BRA    9418
0941C:  BCF    FA6.2
0941E:  MOVF   00,W
09420:  IORWF  FF2,F
....................                   delay_ms(20); 
09422:  MOVLW  14
09424:  MOVLB  5
09426:  MOVWF  xFF
09428:  MOVLB  0
0942A:  CALL   154C
....................                   write_eeprom(15,0); 
0942E:  CLRF   FAA
09430:  MOVLW  0F
09432:  MOVWF  FA9
09434:  CLRF   FA8
09436:  BCF    FA6.6
09438:  BCF    FA6.7
0943A:  BSF    FA6.2
0943C:  MOVF   FF2,W
0943E:  MOVWF  00
09440:  BCF    FF2.7
09442:  MOVLB  F
09444:  MOVLW  55
09446:  MOVWF  FA7
09448:  MOVLW  AA
0944A:  MOVWF  FA7
0944C:  BSF    FA6.1
0944E:  BTFSC  FA6.1
09450:  BRA    944E
09452:  BCF    FA6.2
09454:  MOVF   00,W
09456:  IORWF  FF2,F
....................                   delay_ms(20); 
09458:  MOVLW  14
0945A:  MOVLB  5
0945C:  MOVWF  xFF
0945E:  MOVLB  0
09460:  CALL   154C
....................                   Tuv[3]=0;Tuv[2]=0;Tuv[1]=0;Tuv[0]=0; 
09464:  MOVLB  5
09466:  CLRF   x02
09468:  CLRF   x01
0946A:  CLRF   x00
0946C:  MOVLB  4
0946E:  CLRF   xFF
....................                   Menu=3;glcd_fillscreen(OFF);LuzBlanca_off; 
09470:  MOVLW  03
09472:  MOVWF  xCD
09474:  MOVLB  5
09476:  CLRF   xF3
09478:  MOVLB  0
0947A:  CALL   162C
0947E:  BCF    F8B.0
09480:  BCF    F94.0
....................                 
....................             } 
....................             if(DOWN && RIGHT) // Reinicia Tiempo de Trabajo 
09482:  BSF    F96.0
09484:  BTFSC  F84.0
09486:  BRA    959A
09488:  BSF    F96.1
0948A:  BTFSC  F84.1
0948C:  BRA    959A
....................             { 
....................                   delay_ms(2000); 
0948E:  MOVLW  08
09490:  MOVLB  5
09492:  MOVWF  xEB
09494:  MOVLW  FA
09496:  MOVWF  xFF
09498:  MOVLB  0
0949A:  CALL   154C
0949E:  MOVLB  5
094A0:  DECFSZ xEB,F
094A2:  BRA    9494
....................                   write_eeprom(16,0); 
094A4:  CLRF   FAA
094A6:  MOVLW  10
094A8:  MOVWF  FA9
094AA:  CLRF   FA8
094AC:  BCF    FA6.6
094AE:  BCF    FA6.7
094B0:  BSF    FA6.2
094B2:  MOVF   FF2,W
094B4:  MOVWF  00
094B6:  BCF    FF2.7
094B8:  MOVLB  F
094BA:  MOVLW  55
094BC:  MOVWF  FA7
094BE:  MOVLW  AA
094C0:  MOVWF  FA7
094C2:  BSF    FA6.1
094C4:  BTFSC  FA6.1
094C6:  BRA    94C4
094C8:  BCF    FA6.2
094CA:  MOVF   00,W
094CC:  IORWF  FF2,F
....................                   delay_ms(20); 
094CE:  MOVLW  14
094D0:  MOVLB  5
094D2:  MOVWF  xFF
094D4:  MOVLB  0
094D6:  CALL   154C
....................                   write_eeprom(17,0); 
094DA:  CLRF   FAA
094DC:  MOVLW  11
094DE:  MOVWF  FA9
094E0:  CLRF   FA8
094E2:  BCF    FA6.6
094E4:  BCF    FA6.7
094E6:  BSF    FA6.2
094E8:  MOVF   FF2,W
094EA:  MOVWF  00
094EC:  BCF    FF2.7
094EE:  MOVLB  F
094F0:  MOVLW  55
094F2:  MOVWF  FA7
094F4:  MOVLW  AA
094F6:  MOVWF  FA7
094F8:  BSF    FA6.1
094FA:  BTFSC  FA6.1
094FC:  BRA    94FA
094FE:  BCF    FA6.2
09500:  MOVF   00,W
09502:  IORWF  FF2,F
....................                   delay_ms(20); 
09504:  MOVLW  14
09506:  MOVLB  5
09508:  MOVWF  xFF
0950A:  MOVLB  0
0950C:  CALL   154C
....................                   write_eeprom(18,0); 
09510:  CLRF   FAA
09512:  MOVLW  12
09514:  MOVWF  FA9
09516:  CLRF   FA8
09518:  BCF    FA6.6
0951A:  BCF    FA6.7
0951C:  BSF    FA6.2
0951E:  MOVF   FF2,W
09520:  MOVWF  00
09522:  BCF    FF2.7
09524:  MOVLB  F
09526:  MOVLW  55
09528:  MOVWF  FA7
0952A:  MOVLW  AA
0952C:  MOVWF  FA7
0952E:  BSF    FA6.1
09530:  BTFSC  FA6.1
09532:  BRA    9530
09534:  BCF    FA6.2
09536:  MOVF   00,W
09538:  IORWF  FF2,F
....................                   delay_ms(20); 
0953A:  MOVLW  14
0953C:  MOVLB  5
0953E:  MOVWF  xFF
09540:  MOVLB  0
09542:  CALL   154C
....................                   write_eeprom(19,0); 
09546:  CLRF   FAA
09548:  MOVLW  13
0954A:  MOVWF  FA9
0954C:  CLRF   FA8
0954E:  BCF    FA6.6
09550:  BCF    FA6.7
09552:  BSF    FA6.2
09554:  MOVF   FF2,W
09556:  MOVWF  00
09558:  BCF    FF2.7
0955A:  MOVLB  F
0955C:  MOVLW  55
0955E:  MOVWF  FA7
09560:  MOVLW  AA
09562:  MOVWF  FA7
09564:  BSF    FA6.1
09566:  BTFSC  FA6.1
09568:  BRA    9566
0956A:  BCF    FA6.2
0956C:  MOVF   00,W
0956E:  IORWF  FF2,F
....................                   delay_ms(20); 
09570:  MOVLW  14
09572:  MOVLB  5
09574:  MOVWF  xFF
09576:  MOVLB  0
09578:  CALL   154C
....................                   Ttrabajo[3]=0;Ttrabajo[2]=0;Ttrabajo[1]=0;Ttrabajo[0]=0; 
0957C:  MOVLB  5
0957E:  CLRF   x0E
09580:  CLRF   x0D
09582:  CLRF   x0C
09584:  CLRF   x0B
....................                   Menu=3;glcd_fillscreen(OFF);LuzBlanca_off; 
09586:  MOVLW  03
09588:  MOVLB  4
0958A:  MOVWF  xCD
0958C:  MOVLB  5
0958E:  CLRF   xF3
09590:  MOVLB  0
09592:  CALL   162C
09596:  BCF    F8B.0
09598:  BCF    F94.0
....................             } 
....................              
....................             if(LEFT) 
0959A:  BSF    F96.2
0959C:  BTFSC  F84.2
0959E:  BRA    95BE
....................             { 
....................                Menu=6;glcd_fillscreen(OFF);LuzBlanca_off;Opcion=1;unidad=1; 
095A0:  MOVLW  06
095A2:  MOVLB  4
095A4:  MOVWF  xCD
095A6:  MOVLB  5
095A8:  CLRF   xF3
095AA:  MOVLB  0
095AC:  CALL   162C
095B0:  BCF    F8B.0
095B2:  BCF    F94.0
095B4:  MOVLW  01
095B6:  MOVLB  4
095B8:  MOVWF  xCF
095BA:  MOVWF  xCE
095BC:  MOVLB  0
....................             } 
....................     } 
.................... //_--------------------------------------------------------------------------------------------------------------------------------------------------------        
....................  
.................... //_-------------------------------------------------------------------------------------------------------------------------------------------------------- 
....................       if(Menu==32){ //Menu de Servicio 
095BE:  MOVLB  4
095C0:  MOVF   xCD,W
095C2:  SUBLW  20
095C4:  BTFSS  FD8.2
095C6:  BRA    98DE
....................        
....................       strcpy(Menus.Letra,"Servicio"); 
095C8:  MOVLW  04
095CA:  MOVWF  FEA
095CC:  MOVLW  17
095CE:  MOVWF  FE9
095D0:  MOVFF  FF2,5EB
095D4:  BCF    FF2.7
095D6:  MOVLW  00
095D8:  MOVLB  0
095DA:  CALL   118C
095DE:  TBLRD*-
095E0:  TBLRD*+
095E2:  MOVF   FF5,W
095E4:  MOVWF  FEE
095E6:  IORLW  00
095E8:  BNZ   95E0
095EA:  MOVLB  5
095EC:  BTFSC  xEB.7
095EE:  BSF    FF2.7
....................       displayMenu(Menus.Letra,10,0,1,2); 
095F0:  MOVLW  04
095F2:  MOVWF  xF4
095F4:  MOVLW  17
095F6:  MOVWF  xF3
095F8:  MOVLW  0A
095FA:  MOVWF  xF5
095FC:  CLRF   xF6
095FE:  MOVLW  01
09600:  MOVWF  xF7
09602:  MOVLW  02
09604:  MOVWF  xF8
09606:  MOVLB  0
09608:  CALL   4E88
....................        
....................       if(Opcion==1)    
0960C:  MOVLB  4
0960E:  DECFSZ xCF,W
09610:  BRA    9658
....................          {strcpy(Menus.Letra,"Sensor de Flujo"); 
09612:  MOVLW  04
09614:  MOVWF  FEA
09616:  MOVLW  17
09618:  MOVWF  FE9
0961A:  MOVFF  FF2,5EB
0961E:  BCF    FF2.7
09620:  MOVLW  00
09622:  MOVLB  0
09624:  CALL   12B8
09628:  TBLRD*-
0962A:  TBLRD*+
0962C:  MOVF   FF5,W
0962E:  MOVWF  FEE
09630:  IORLW  00
09632:  BNZ   962A
09634:  MOVLB  5
09636:  BTFSC  xEB.7
09638:  BSF    FF2.7
....................          displayMenu(Menus.Letra,0,18,1,1);} 
0963A:  MOVLW  04
0963C:  MOVWF  xF4
0963E:  MOVLW  17
09640:  MOVWF  xF3
09642:  CLRF   xF5
09644:  MOVLW  12
09646:  MOVWF  xF6
09648:  MOVLW  01
0964A:  MOVWF  xF7
0964C:  MOVWF  xF8
0964E:  MOVLB  0
09650:  CALL   4E88
....................       else 
09654:  BRA    969A
09656:  MOVLB  4
....................          {strcpy(Menus.Letra,"Sensor de Flujo"); 
09658:  MOVLW  04
0965A:  MOVWF  FEA
0965C:  MOVLW  17
0965E:  MOVWF  FE9
09660:  MOVFF  FF2,5EB
09664:  BCF    FF2.7
09666:  MOVLW  00
09668:  MOVLB  0
0966A:  CALL   12B8
0966E:  TBLRD*-
09670:  TBLRD*+
09672:  MOVF   FF5,W
09674:  MOVWF  FEE
09676:  IORLW  00
09678:  BNZ   9670
0967A:  MOVLB  5
0967C:  BTFSC  xEB.7
0967E:  BSF    FF2.7
....................          displayMenu(Menus.Letra,0,18,0,1);}  
09680:  MOVLW  04
09682:  MOVWF  xF4
09684:  MOVLW  17
09686:  MOVWF  xF3
09688:  CLRF   xF5
0968A:  MOVLW  12
0968C:  MOVWF  xF6
0968E:  CLRF   xF7
09690:  MOVLW  01
09692:  MOVWF  xF8
09694:  MOVLB  0
09696:  CALL   4E88
....................           
....................       if(Opcion==2)    
0969A:  MOVLB  4
0969C:  MOVF   xCF,W
0969E:  SUBLW  02
096A0:  BNZ   96E8
....................          {strcpy(Menus.Letra,"Sensor de Presion"); 
096A2:  MOVLW  04
096A4:  MOVWF  FEA
096A6:  MOVLW  17
096A8:  MOVWF  FE9
096AA:  MOVFF  FF2,5EB
096AE:  BCF    FF2.7
096B0:  MOVLW  00
096B2:  MOVLB  0
096B4:  CALL   12E6
096B8:  TBLRD*-
096BA:  TBLRD*+
096BC:  MOVF   FF5,W
096BE:  MOVWF  FEE
096C0:  IORLW  00
096C2:  BNZ   96BA
096C4:  MOVLB  5
096C6:  BTFSC  xEB.7
096C8:  BSF    FF2.7
....................          displayMenu(Menus.Letra,0,29,1,1);} 
096CA:  MOVLW  04
096CC:  MOVWF  xF4
096CE:  MOVLW  17
096D0:  MOVWF  xF3
096D2:  CLRF   xF5
096D4:  MOVLW  1D
096D6:  MOVWF  xF6
096D8:  MOVLW  01
096DA:  MOVWF  xF7
096DC:  MOVWF  xF8
096DE:  MOVLB  0
096E0:  CALL   4E88
....................       else 
096E4:  BRA    972A
096E6:  MOVLB  4
....................          {strcpy(Menus.Letra,"Sensor de Presion"); 
096E8:  MOVLW  04
096EA:  MOVWF  FEA
096EC:  MOVLW  17
096EE:  MOVWF  FE9
096F0:  MOVFF  FF2,5EB
096F4:  BCF    FF2.7
096F6:  MOVLW  00
096F8:  MOVLB  0
096FA:  CALL   12E6
096FE:  TBLRD*-
09700:  TBLRD*+
09702:  MOVF   FF5,W
09704:  MOVWF  FEE
09706:  IORLW  00
09708:  BNZ   9700
0970A:  MOVLB  5
0970C:  BTFSC  xEB.7
0970E:  BSF    FF2.7
....................          displayMenu(Menus.Letra,0,29,0,1);}   
09710:  MOVLW  04
09712:  MOVWF  xF4
09714:  MOVLW  17
09716:  MOVWF  xF3
09718:  CLRF   xF5
0971A:  MOVLW  1D
0971C:  MOVWF  xF6
0971E:  CLRF   xF7
09720:  MOVLW  01
09722:  MOVWF  xF8
09724:  MOVLB  0
09726:  CALL   4E88
....................        
....................       if(Opcion==3)    
0972A:  MOVLB  4
0972C:  MOVF   xCF,W
0972E:  SUBLW  03
09730:  BNZ   9778
....................          {strcpy(Menus.Letra,"Velocidad Ventilador"); 
09732:  MOVLW  04
09734:  MOVWF  FEA
09736:  MOVLW  17
09738:  MOVWF  FE9
0973A:  MOVFF  FF2,5EB
0973E:  BCF    FF2.7
09740:  MOVLW  00
09742:  MOVLB  0
09744:  CALL   1316
09748:  TBLRD*-
0974A:  TBLRD*+
0974C:  MOVF   FF5,W
0974E:  MOVWF  FEE
09750:  IORLW  00
09752:  BNZ   974A
09754:  MOVLB  5
09756:  BTFSC  xEB.7
09758:  BSF    FF2.7
....................          displayMenu(Menus.Letra,0,40,1,1);} 
0975A:  MOVLW  04
0975C:  MOVWF  xF4
0975E:  MOVLW  17
09760:  MOVWF  xF3
09762:  CLRF   xF5
09764:  MOVLW  28
09766:  MOVWF  xF6
09768:  MOVLW  01
0976A:  MOVWF  xF7
0976C:  MOVWF  xF8
0976E:  MOVLB  0
09770:  CALL   4E88
....................       else 
09774:  BRA    97BA
09776:  MOVLB  4
....................          {strcpy(Menus.Letra,"Velocidad Ventilador"); 
09778:  MOVLW  04
0977A:  MOVWF  FEA
0977C:  MOVLW  17
0977E:  MOVWF  FE9
09780:  MOVFF  FF2,5EB
09784:  BCF    FF2.7
09786:  MOVLW  00
09788:  MOVLB  0
0978A:  CALL   1316
0978E:  TBLRD*-
09790:  TBLRD*+
09792:  MOVF   FF5,W
09794:  MOVWF  FEE
09796:  IORLW  00
09798:  BNZ   9790
0979A:  MOVLB  5
0979C:  BTFSC  xEB.7
0979E:  BSF    FF2.7
....................          displayMenu(Menus.Letra,0,40,0,1);}  
097A0:  MOVLW  04
097A2:  MOVWF  xF4
097A4:  MOVLW  17
097A6:  MOVWF  xF3
097A8:  CLRF   xF5
097AA:  MOVLW  28
097AC:  MOVWF  xF6
097AE:  CLRF   xF7
097B0:  MOVLW  01
097B2:  MOVWF  xF8
097B4:  MOVLB  0
097B6:  CALL   4E88
....................        
....................          
....................       if(UP)//Si oprime hacia arriba 
097BA:  BSF    F92.5
097BC:  BTFSC  F80.5
097BE:  BRA    97DA
....................       {  if(Flanco == 0)  
097C0:  MOVLB  4
097C2:  BTFSC  x2D.0
097C4:  BRA    97D8
....................             {Flanco = 1;delay_ms(30);Opcion--; 
097C6:  BSF    x2D.0
097C8:  MOVLW  1E
097CA:  MOVLB  5
097CC:  MOVWF  xFF
097CE:  MOVLB  0
097D0:  CALL   154C
097D4:  MOVLB  4
097D6:  DECF   xCF,F
....................             } 
....................       } 
....................          else 
097D8:  BRA    97DE
....................             {Flanco = 0;} 
097DA:  MOVLB  4
097DC:  BCF    x2D.0
....................              
....................       if(DOWN)//Si oprime hacia abajo 
097DE:  BSF    F96.0
097E0:  BTFSC  F84.0
097E2:  BRA    97FC
....................       {  if(Flanco2 == 0)  
097E4:  BTFSC  x2D.2
097E6:  BRA    97FA
....................             {Flanco2 = 1;delay_ms(30);Opcion++; 
097E8:  BSF    x2D.2
097EA:  MOVLW  1E
097EC:  MOVLB  5
097EE:  MOVWF  xFF
097F0:  MOVLB  0
097F2:  CALL   154C
097F6:  MOVLB  4
097F8:  INCF   xCF,F
....................             }      
....................       } 
....................          else 
097FA:  BRA    97FE
....................             {Flanco2 = 0;}   
097FC:  BCF    x2D.2
....................              
....................       if(RIGHT)//Si oprime SET 
097FE:  BSF    F96.1
09800:  BTFSC  F84.1
09802:  BRA    9894
....................       {   
....................          delay_ms(20); 
09804:  MOVLW  14
09806:  MOVLB  5
09808:  MOVWF  xFF
0980A:  MOVLB  0
0980C:  CALL   154C
....................          if(RIGHT){ 
09810:  BSF    F96.1
09812:  BTFSC  F84.1
09814:  BRA    9896
....................             delay_ms(100); 
09816:  MOVLW  64
09818:  MOVLB  5
0981A:  MOVWF  xFF
0981C:  MOVLB  0
0981E:  CALL   154C
....................             glcd_fillScreen(OFF); 
09822:  MOVLB  5
09824:  CLRF   xF3
09826:  MOVLB  0
09828:  CALL   162C
....................             while(!PidePassword(6,32,Opcion+40,4,4,4,4)){ 
0982C:  MOVLW  28
0982E:  MOVLB  4
09830:  ADDWF  xCF,W
09832:  MOVLB  5
09834:  MOVWF  xEB
09836:  MOVLW  06
09838:  MOVWF  xEC
0983A:  MOVLW  20
0983C:  MOVWF  xED
0983E:  MOVFF  5EB,5EE
09842:  MOVLW  04
09844:  MOVWF  xEF
09846:  MOVWF  xF0
09848:  MOVWF  xF1
0984A:  MOVWF  xF2
0984C:  MOVLB  0
0984E:  CALL   4F64
09852:  MOVF   01,F
09854:  BNZ   9882
....................                PidePassword(6,32,Opcion+40,4,4,4,4);glcd_update(); 
09856:  MOVLW  28
09858:  MOVLB  4
0985A:  ADDWF  xCF,W
0985C:  MOVLB  5
0985E:  MOVWF  xEB
09860:  MOVLW  06
09862:  MOVWF  xEC
09864:  MOVLW  20
09866:  MOVWF  xED
09868:  MOVFF  5EB,5EE
0986C:  MOVLW  04
0986E:  MOVWF  xEF
09870:  MOVWF  xF0
09872:  MOVWF  xF1
09874:  MOVWF  xF2
09876:  MOVLB  0
09878:  CALL   4F64
0987C:  CALL   1686
....................             }             
09880:  BRA    982C
....................             glcd_fillScreen(OFF);Opcion=1;unidad=1; 
09882:  MOVLB  5
09884:  CLRF   xF3
09886:  MOVLB  0
09888:  CALL   162C
0988C:  MOVLW  01
0988E:  MOVLB  4
09890:  MOVWF  xCF
09892:  MOVWF  xCE
09894:  MOVLB  0
....................          } 
....................       } 
....................              
....................       if(LEFT)//Si oprime boton de Toma. 
09896:  BSF    F96.2
09898:  BTFSC  F84.2
0989A:  BRA    98CA
....................         {delay_ms(700);Menu=6;glcd_fillscreen(OFF);Opcion=1;unidad=1;} 
0989C:  MOVLW  04
0989E:  MOVLB  5
098A0:  MOVWF  xEB
098A2:  MOVLW  AF
098A4:  MOVWF  xFF
098A6:  MOVLB  0
098A8:  CALL   154C
098AC:  MOVLB  5
098AE:  DECFSZ xEB,F
098B0:  BRA    98A2
098B2:  MOVLW  06
098B4:  MOVLB  4
098B6:  MOVWF  xCD
098B8:  MOVLB  5
098BA:  CLRF   xF3
098BC:  MOVLB  0
098BE:  CALL   162C
098C2:  MOVLW  01
098C4:  MOVLB  4
098C6:  MOVWF  xCF
098C8:  MOVWF  xCE
....................          
....................       if(Opcion>3) 
098CA:  MOVLB  4
098CC:  MOVF   xCF,W
098CE:  SUBLW  03
098D0:  BC    98D6
....................       {Opcion=1;} 
098D2:  MOVLW  01
098D4:  MOVWF  xCF
....................       if(Opcion<1) 
098D6:  MOVF   xCF,F
098D8:  BNZ   98DE
....................       {Opcion=3;} 
098DA:  MOVLW  03
098DC:  MOVWF  xCF
....................     } 
.................... //_--------------------------------------------------------------------------------------------------------------------------------------------------------        
....................  
.................... //_-------------------------------------------------------------------------------------------------------------------------------------------------------- 
....................       if(Menu==41){ //Menu de Sensor de Flujo. 
098DE:  MOVF   xCD,W
098E0:  SUBLW  29
098E2:  BTFSS  FD8.2
098E4:  BRA    9EA8
....................        
....................       if(Ajuste1>10.0) 
098E6:  MOVLB  6
098E8:  CLRF   x1F
098EA:  CLRF   x1E
098EC:  MOVLW  20
098EE:  MOVWF  x1D
098F0:  MOVLW  82
098F2:  MOVWF  x1C
098F4:  MOVFF  542,623
098F8:  MOVFF  541,622
098FC:  MOVFF  540,621
09900:  MOVFF  53F,620
09904:  MOVLB  0
09906:  CALL   25D6
0990A:  BNC   9918
....................          Ajuste1=0.0; 
0990C:  MOVLB  5
0990E:  CLRF   x42
09910:  CLRF   x41
09912:  CLRF   x40
09914:  CLRF   x3F
09916:  MOVLB  0
....................        
....................       strcpy(Menus.Letra,"Sensor de Flujo"); 
09918:  MOVLW  04
0991A:  MOVWF  FEA
0991C:  MOVLW  17
0991E:  MOVWF  FE9
09920:  MOVFF  FF2,5EB
09924:  BCF    FF2.7
09926:  MOVLW  00
09928:  CALL   12B8
0992C:  TBLRD*-
0992E:  TBLRD*+
09930:  MOVF   FF5,W
09932:  MOVWF  FEE
09934:  IORLW  00
09936:  BNZ   992E
09938:  MOVLB  5
0993A:  BTFSC  xEB.7
0993C:  BSF    FF2.7
....................       displayMenu(Menus.Letra,10,0,1,1); 
0993E:  MOVLW  04
09940:  MOVWF  xF4
09942:  MOVLW  17
09944:  MOVWF  xF3
09946:  MOVLW  0A
09948:  MOVWF  xF5
0994A:  CLRF   xF6
0994C:  MOVLW  01
0994E:  MOVWF  xF7
09950:  MOVWF  xF8
09952:  MOVLB  0
09954:  CALL   4E88
....................        
....................       glcd_text57(0, 12, ZF, 1, ON); 
09958:  MOVLB  6
0995A:  CLRF   x04
0995C:  MOVLW  0C
0995E:  MOVWF  x05
09960:  MOVLW  04
09962:  MOVWF  x07
09964:  MOVLW  75
09966:  MOVWF  x06
09968:  MOVLW  01
0996A:  MOVWF  x08
0996C:  MOVWF  x09
0996E:  MOVLB  0
09970:  CALL   18A2
....................        
....................       glcd_text57(0, 20, ZA, 1, ON); 
09974:  MOVLB  6
09976:  CLRF   x04
09978:  MOVLW  14
0997A:  MOVWF  x05
0997C:  MOVLW  04
0997E:  MOVWF  x07
09980:  MOVLW  83
09982:  MOVWF  x06
09984:  MOVLW  01
09986:  MOVWF  x08
09988:  MOVWF  x09
0998A:  MOVLB  0
0998C:  CALL   18A2
....................        
....................       glcd_text57(0, 30, AJ, 1, ON);            
09990:  MOVLB  6
09992:  CLRF   x04
09994:  MOVLW  1E
09996:  MOVWF  x05
09998:  MOVLW  04
0999A:  MOVWF  x07
0999C:  MOVLW  8B
0999E:  MOVWF  x06
099A0:  MOVLW  01
099A2:  MOVWF  x08
099A4:  MOVWF  x09
099A6:  MOVLB  0
099A8:  CALL   18A2
....................        
....................       displayfloat(zero_actual,44,20,0,1); 
099AC:  MOVFF  5CA,5F2
099B0:  MOVFF  5C9,5F1
099B4:  MOVFF  5C8,5F0
099B8:  MOVFF  5C7,5EF
099BC:  MOVLW  2C
099BE:  MOVLB  5
099C0:  MOVWF  xF3
099C2:  MOVLW  14
099C4:  MOVWF  xF4
099C6:  CLRF   xF5
099C8:  MOVLW  01
099CA:  MOVWF  xF6
099CC:  MOVLB  0
099CE:  CALL   5FB2
....................       displayfloat(Ajuste1,44,30,0,1); 
099D2:  MOVFF  542,5F2
099D6:  MOVFF  541,5F1
099DA:  MOVFF  540,5F0
099DE:  MOVFF  53F,5EF
099E2:  MOVLW  2C
099E4:  MOVLB  5
099E6:  MOVWF  xF3
099E8:  MOVLW  1E
099EA:  MOVWF  xF4
099EC:  CLRF   xF5
099EE:  MOVLW  01
099F0:  MOVWF  xF6
099F2:  MOVLB  0
099F4:  CALL   5FB2
....................       displayfloat(Inflow_adc,0,40,0,1); 
099F8:  MOVFF  4DC,621
099FC:  MOVFF  4DB,620
09A00:  CALL   1A5A
09A04:  MOVFF  00,5EB
09A08:  MOVFF  01,5EC
09A0C:  MOVFF  02,5ED
09A10:  MOVFF  03,5EE
09A14:  MOVFF  03,5F2
09A18:  MOVFF  02,5F1
09A1C:  MOVFF  01,5F0
09A20:  MOVFF  00,5EF
09A24:  MOVLB  5
09A26:  CLRF   xF3
09A28:  MOVLW  28
09A2A:  MOVWF  xF4
09A2C:  CLRF   xF5
09A2E:  MOVLW  01
09A30:  MOVWF  xF6
09A32:  MOVLB  0
09A34:  CALL   5FB2
.................... //      displayfloat(Diferencia,0,50,0,1); 
....................        
....................       if(UP)//Si oprime hacia arriba 
09A38:  BSF    F92.5
09A3A:  BTFSC  F80.5
09A3C:  BRA    9A84
....................       {   
....................          delay_ms(30);Ajuste1+=0.01; 
09A3E:  MOVLW  1E
09A40:  MOVLB  5
09A42:  MOVWF  xFF
09A44:  MOVLB  0
09A46:  CALL   154C
09A4A:  BCF    FD8.1
09A4C:  MOVFF  542,623
09A50:  MOVFF  541,622
09A54:  MOVFF  540,621
09A58:  MOVFF  53F,620
09A5C:  MOVLW  0A
09A5E:  MOVLB  6
09A60:  MOVWF  x27
09A62:  MOVLW  D7
09A64:  MOVWF  x26
09A66:  MOVLW  23
09A68:  MOVWF  x25
09A6A:  MOVLW  78
09A6C:  MOVWF  x24
09A6E:  MOVLB  0
09A70:  CALL   1BEE
09A74:  MOVFF  03,542
09A78:  MOVFF  02,541
09A7C:  MOVFF  01,540
09A80:  MOVFF  00,53F
....................       } 
....................              
....................       if(DOWN)//Si oprime hacia abajo 
09A84:  BSF    F96.0
09A86:  BTFSC  F84.0
09A88:  BRA    9AD0
....................       {    
....................          delay_ms(30);Ajuste1-=0.01; 
09A8A:  MOVLW  1E
09A8C:  MOVLB  5
09A8E:  MOVWF  xFF
09A90:  MOVLB  0
09A92:  CALL   154C
09A96:  BSF    FD8.1
09A98:  MOVFF  542,623
09A9C:  MOVFF  541,622
09AA0:  MOVFF  540,621
09AA4:  MOVFF  53F,620
09AA8:  MOVLW  0A
09AAA:  MOVLB  6
09AAC:  MOVWF  x27
09AAE:  MOVLW  D7
09AB0:  MOVWF  x26
09AB2:  MOVLW  23
09AB4:  MOVWF  x25
09AB6:  MOVLW  78
09AB8:  MOVWF  x24
09ABA:  MOVLB  0
09ABC:  CALL   1BEE
09AC0:  MOVFF  03,542
09AC4:  MOVFF  02,541
09AC8:  MOVFF  01,540
09ACC:  MOVFF  00,53F
....................       } 
....................              
....................       if(RIGHT)//Si oprime SET 
09AD0:  BSF    F96.1
09AD2:  BTFSC  F84.1
09AD4:  BRA    9D42
....................       {   
....................          zero_actual=Inflow_adc; 
09AD6:  MOVFF  4DC,621
09ADA:  MOVFF  4DB,620
09ADE:  CALL   1A5A
09AE2:  MOVFF  03,5CA
09AE6:  MOVFF  02,5C9
09AEA:  MOVFF  01,5C8
09AEE:  MOVFF  00,5C7
....................          Diferencia=zero_fabrica-Inflow_adc; 
09AF2:  MOVFF  4DC,621
09AF6:  MOVFF  4DB,620
09AFA:  CALL   1A5A
09AFE:  BSF    FD8.1
09B00:  MOVFF  5C6,623
09B04:  MOVFF  5C5,622
09B08:  MOVFF  5C4,621
09B0C:  MOVFF  5C3,620
09B10:  MOVFF  03,627
09B14:  MOVFF  02,626
09B18:  MOVFF  01,625
09B1C:  MOVFF  00,624
09B20:  CALL   1BEE
09B24:  MOVFF  03,526
09B28:  MOVFF  02,525
09B2C:  MOVFF  01,524
09B30:  MOVFF  00,523
....................              
....................          if(Diferencia>=0) 
09B34:  MOVLB  6
09B36:  CLRF   x1F
09B38:  CLRF   x1E
09B3A:  CLRF   x1D
09B3C:  CLRF   x1C
09B3E:  MOVFF  526,623
09B42:  MOVFF  525,622
09B46:  MOVFF  524,621
09B4A:  MOVFF  523,620
09B4E:  MOVLB  0
09B50:  CALL   25D6
09B54:  BC    9B58
09B56:  BNZ   9B96
....................          { 
....................             negativo=10;write_eeprom(50,negativo);delay_ms(20); 
09B58:  MOVLW  0A
09B5A:  MOVLB  4
09B5C:  MOVWF  xD0
09B5E:  CLRF   FAA
09B60:  MOVLW  32
09B62:  MOVWF  FA9
09B64:  MOVFF  4D0,FA8
09B68:  BCF    FA6.6
09B6A:  BCF    FA6.7
09B6C:  BSF    FA6.2
09B6E:  MOVF   FF2,W
09B70:  MOVWF  00
09B72:  BCF    FF2.7
09B74:  MOVLB  F
09B76:  MOVLW  55
09B78:  MOVWF  FA7
09B7A:  MOVLW  AA
09B7C:  MOVWF  FA7
09B7E:  BSF    FA6.1
09B80:  BTFSC  FA6.1
09B82:  BRA    9B80
09B84:  BCF    FA6.2
09B86:  MOVF   00,W
09B88:  IORWF  FF2,F
09B8A:  MOVLW  14
09B8C:  MOVLB  5
09B8E:  MOVWF  xFF
09B90:  MOVLB  0
09B92:  CALL   154C
....................          } 
....................          if(Diferencia<0) 
09B96:  MOVFF  526,61F
09B9A:  MOVFF  525,61E
09B9E:  MOVFF  524,61D
09BA2:  MOVFF  523,61C
09BA6:  MOVLB  6
09BA8:  CLRF   x23
09BAA:  CLRF   x22
09BAC:  CLRF   x21
09BAE:  CLRF   x20
09BB0:  MOVLB  0
09BB2:  CALL   25D6
09BB6:  BNC   9BF6
....................          { 
....................             negativo=20;write_eeprom(50,negativo);delay_ms(20); 
09BB8:  MOVLW  14
09BBA:  MOVLB  4
09BBC:  MOVWF  xD0
09BBE:  CLRF   FAA
09BC0:  MOVLW  32
09BC2:  MOVWF  FA9
09BC4:  MOVFF  4D0,FA8
09BC8:  BCF    FA6.6
09BCA:  BCF    FA6.7
09BCC:  BSF    FA6.2
09BCE:  MOVF   FF2,W
09BD0:  MOVWF  00
09BD2:  BCF    FF2.7
09BD4:  MOVLB  F
09BD6:  MOVLW  55
09BD8:  MOVWF  FA7
09BDA:  MOVLW  AA
09BDC:  MOVWF  FA7
09BDE:  BSF    FA6.1
09BE0:  BTFSC  FA6.1
09BE2:  BRA    9BE0
09BE4:  BCF    FA6.2
09BE6:  MOVF   00,W
09BE8:  IORWF  FF2,F
09BEA:  MOVLW  14
09BEC:  MOVLB  5
09BEE:  MOVWF  xFF
09BF0:  MOVLB  0
09BF2:  CALL   154C
....................          } 
....................          Diferencia=abs(Diferencia); 
09BF6:  MOVFF  523,00
09BFA:  MOVFF  524,01
09BFE:  MOVFF  525,02
09C02:  MOVFF  526,03
09C06:  BCF    01.7
09C08:  MOVFF  526,526
09C0C:  MOVFF  525,525
09C10:  MOVFF  01,524
09C14:  MOVFF  523,523
....................          Temporal1=(int16)Diferencia; 
09C18:  MOVFF  526,61F
09C1C:  MOVFF  525,61E
09C20:  MOVFF  524,61D
09C24:  MOVFF  523,61C
09C28:  CALL   3040
09C2C:  MOVFF  02,4E0
09C30:  MOVFF  01,4DF
....................          write_eeprom(60,make8(Temporal1,0)); 
09C34:  MOVFF  4DF,5EB
09C38:  CLRF   FAA
09C3A:  MOVLW  3C
09C3C:  MOVWF  FA9
09C3E:  MOVFF  5EB,FA8
09C42:  BCF    FA6.6
09C44:  BCF    FA6.7
09C46:  BSF    FA6.2
09C48:  MOVF   FF2,W
09C4A:  MOVWF  00
09C4C:  BCF    FF2.7
09C4E:  MOVLB  F
09C50:  MOVLW  55
09C52:  MOVWF  FA7
09C54:  MOVLW  AA
09C56:  MOVWF  FA7
09C58:  BSF    FA6.1
09C5A:  BTFSC  FA6.1
09C5C:  BRA    9C5A
09C5E:  BCF    FA6.2
09C60:  MOVF   00,W
09C62:  IORWF  FF2,F
....................          delay_ms(20); 
09C64:  MOVLW  14
09C66:  MOVLB  5
09C68:  MOVWF  xFF
09C6A:  MOVLB  0
09C6C:  CALL   154C
....................          write_eeprom(61,make8(Temporal1,1));//Guardar valor de Setpoint en eeprom 
09C70:  MOVFF  4E0,5EB
09C74:  CLRF   FAA
09C76:  MOVLW  3D
09C78:  MOVWF  FA9
09C7A:  MOVFF  5EB,FA8
09C7E:  BCF    FA6.6
09C80:  BCF    FA6.7
09C82:  BSF    FA6.2
09C84:  MOVF   FF2,W
09C86:  MOVWF  00
09C88:  BCF    FF2.7
09C8A:  MOVLB  F
09C8C:  MOVLW  55
09C8E:  MOVWF  FA7
09C90:  MOVLW  AA
09C92:  MOVWF  FA7
09C94:  BSF    FA6.1
09C96:  BTFSC  FA6.1
09C98:  BRA    9C96
09C9A:  BCF    FA6.2
09C9C:  MOVF   00,W
09C9E:  IORWF  FF2,F
....................          delay_ms(20); 
09CA0:  MOVLW  14
09CA2:  MOVLB  5
09CA4:  MOVWF  xFF
09CA6:  MOVLB  0
09CA8:  CALL   154C
....................  
....................          Temporal1=(int16)zero_actual; 
09CAC:  MOVFF  5CA,61F
09CB0:  MOVFF  5C9,61E
09CB4:  MOVFF  5C8,61D
09CB8:  MOVFF  5C7,61C
09CBC:  CALL   3040
09CC0:  MOVFF  02,4E0
09CC4:  MOVFF  01,4DF
....................          write_eeprom(29,make8(Temporal1,0)); 
09CC8:  MOVFF  4DF,5EB
09CCC:  CLRF   FAA
09CCE:  MOVLW  1D
09CD0:  MOVWF  FA9
09CD2:  MOVFF  5EB,FA8
09CD6:  BCF    FA6.6
09CD8:  BCF    FA6.7
09CDA:  BSF    FA6.2
09CDC:  MOVF   FF2,W
09CDE:  MOVWF  00
09CE0:  BCF    FF2.7
09CE2:  MOVLB  F
09CE4:  MOVLW  55
09CE6:  MOVWF  FA7
09CE8:  MOVLW  AA
09CEA:  MOVWF  FA7
09CEC:  BSF    FA6.1
09CEE:  BTFSC  FA6.1
09CF0:  BRA    9CEE
09CF2:  BCF    FA6.2
09CF4:  MOVF   00,W
09CF6:  IORWF  FF2,F
....................          delay_ms(20); 
09CF8:  MOVLW  14
09CFA:  MOVLB  5
09CFC:  MOVWF  xFF
09CFE:  MOVLB  0
09D00:  CALL   154C
....................          write_eeprom(30,make8(Temporal1,1));//Guardar valor de Setpoint en eeprom 
09D04:  MOVFF  4E0,5EB
09D08:  CLRF   FAA
09D0A:  MOVLW  1E
09D0C:  MOVWF  FA9
09D0E:  MOVFF  5EB,FA8
09D12:  BCF    FA6.6
09D14:  BCF    FA6.7
09D16:  BSF    FA6.2
09D18:  MOVF   FF2,W
09D1A:  MOVWF  00
09D1C:  BCF    FF2.7
09D1E:  MOVLB  F
09D20:  MOVLW  55
09D22:  MOVWF  FA7
09D24:  MOVLW  AA
09D26:  MOVWF  FA7
09D28:  BSF    FA6.1
09D2A:  BTFSC  FA6.1
09D2C:  BRA    9D2A
09D2E:  BCF    FA6.2
09D30:  MOVF   00,W
09D32:  IORWF  FF2,F
....................          delay_ms(20); 
09D34:  MOVLW  14
09D36:  MOVLB  5
09D38:  MOVWF  xFF
09D3A:  MOVLB  0
09D3C:  CALL   154C
....................       } 
....................          else 
09D40:  BRA    9D48
....................             {Flanco1 = 0;}   
09D42:  MOVLB  4
09D44:  BCF    x2D.1
09D46:  MOVLB  0
....................              
....................       if(LEFT)//Si oprime boton de Toma. 
09D48:  BSF    F96.2
09D4A:  BTFSC  F84.2
09D4C:  BRA    9EA6
....................       { 
....................          delay_ms(700);Menu=32;glcd_fillscreen(OFF);Opcion=1;unidad=1; 
09D4E:  MOVLW  04
09D50:  MOVLB  5
09D52:  MOVWF  xEB
09D54:  MOVLW  AF
09D56:  MOVWF  xFF
09D58:  MOVLB  0
09D5A:  CALL   154C
09D5E:  MOVLB  5
09D60:  DECFSZ xEB,F
09D62:  BRA    9D54
09D64:  MOVLW  20
09D66:  MOVLB  4
09D68:  MOVWF  xCD
09D6A:  MOVLB  5
09D6C:  CLRF   xF3
09D6E:  MOVLB  0
09D70:  CALL   162C
09D74:  MOVLW  01
09D76:  MOVLB  4
09D78:  MOVWF  xCF
09D7A:  MOVWF  xCE
....................          Temporal=Ajuste1; 
09D7C:  MOVFF  542,54A
09D80:  MOVFF  541,549
09D84:  MOVFF  540,548
09D88:  MOVFF  53F,547
....................          Entero=(int)Ajuste1; 
09D8C:  MOVFF  542,61F
09D90:  MOVFF  541,61E
09D94:  MOVFF  540,61D
09D98:  MOVFF  53F,61C
09D9C:  MOVLB  0
09D9E:  CALL   3040
09DA2:  MOVFF  01,4D8
....................          Temporal=Temporal-Entero; 
09DA6:  MOVLB  6
09DA8:  CLRF   x21
09DAA:  MOVFF  4D8,620
09DAE:  MOVLB  0
09DB0:  CALL   1A5A
09DB4:  BSF    FD8.1
09DB6:  MOVFF  54A,623
09DBA:  MOVFF  549,622
09DBE:  MOVFF  548,621
09DC2:  MOVFF  547,620
09DC6:  MOVFF  03,627
09DCA:  MOVFF  02,626
09DCE:  MOVFF  01,625
09DD2:  MOVFF  00,624
09DD6:  CALL   1BEE
09DDA:  MOVFF  03,54A
09DDE:  MOVFF  02,549
09DE2:  MOVFF  01,548
09DE6:  MOVFF  00,547
....................          Temporal2=Temporal*10.0; 
09DEA:  MOVFF  54A,61F
09DEE:  MOVFF  549,61E
09DF2:  MOVFF  548,61D
09DF6:  MOVFF  547,61C
09DFA:  MOVLB  6
09DFC:  CLRF   x23
09DFE:  CLRF   x22
09E00:  MOVLW  20
09E02:  MOVWF  x21
09E04:  MOVLW  82
09E06:  MOVWF  x20
09E08:  MOVLB  0
09E0A:  CALL   307C
09E0E:  MOVFF  03,54E
09E12:  MOVFF  02,54D
09E16:  MOVFF  01,54C
09E1A:  MOVFF  00,54B
....................          Decimal1=(int8)Temporal2; 
09E1E:  MOVFF  54E,61F
09E22:  MOVFF  54D,61E
09E26:  MOVFF  54C,61D
09E2A:  MOVFF  54B,61C
09E2E:  CALL   3040
09E32:  MOVFF  01,4D9
....................          write_eeprom(25,Entero); 
09E36:  CLRF   FAA
09E38:  MOVLW  19
09E3A:  MOVWF  FA9
09E3C:  MOVFF  4D8,FA8
09E40:  BCF    FA6.6
09E42:  BCF    FA6.7
09E44:  BSF    FA6.2
09E46:  MOVF   FF2,W
09E48:  MOVWF  00
09E4A:  BCF    FF2.7
09E4C:  MOVLB  F
09E4E:  MOVLW  55
09E50:  MOVWF  FA7
09E52:  MOVLW  AA
09E54:  MOVWF  FA7
09E56:  BSF    FA6.1
09E58:  BTFSC  FA6.1
09E5A:  BRA    9E58
09E5C:  BCF    FA6.2
09E5E:  MOVF   00,W
09E60:  IORWF  FF2,F
....................          delay_ms(20); 
09E62:  MOVLW  14
09E64:  MOVLB  5
09E66:  MOVWF  xFF
09E68:  MOVLB  0
09E6A:  CALL   154C
....................          write_eeprom(26,Decimal1); 
09E6E:  CLRF   FAA
09E70:  MOVLW  1A
09E72:  MOVWF  FA9
09E74:  MOVFF  4D9,FA8
09E78:  BCF    FA6.6
09E7A:  BCF    FA6.7
09E7C:  BSF    FA6.2
09E7E:  MOVF   FF2,W
09E80:  MOVWF  00
09E82:  BCF    FF2.7
09E84:  MOVLB  F
09E86:  MOVLW  55
09E88:  MOVWF  FA7
09E8A:  MOVLW  AA
09E8C:  MOVWF  FA7
09E8E:  BSF    FA6.1
09E90:  BTFSC  FA6.1
09E92:  BRA    9E90
09E94:  BCF    FA6.2
09E96:  MOVF   00,W
09E98:  IORWF  FF2,F
....................          delay_ms(20); 
09E9A:  MOVLW  14
09E9C:  MOVLB  5
09E9E:  MOVWF  xFF
09EA0:  MOVLB  0
09EA2:  CALL   154C
09EA6:  MOVLB  4
....................       } 
....................     } 
.................... //_--------------------------------------------------------------------------------------------------------------------------------------------------------        
....................  
.................... //_-------------------------------------------------------------------------------------------------------------------------------------------------------- 
....................       if(Menu==42){ //Menu de Sensor de Presin. 
09EA8:  MOVF   xCD,W
09EAA:  SUBLW  2A
09EAC:  BTFSS  FD8.2
09EAE:  BRA    A2DC
....................        
....................       if(Ajuste2>10.0) 
09EB0:  MOVLB  6
09EB2:  CLRF   x1F
09EB4:  CLRF   x1E
09EB6:  MOVLW  20
09EB8:  MOVWF  x1D
09EBA:  MOVLW  82
09EBC:  MOVWF  x1C
09EBE:  MOVFF  546,623
09EC2:  MOVFF  545,622
09EC6:  MOVFF  544,621
09ECA:  MOVFF  543,620
09ECE:  MOVLB  0
09ED0:  CALL   25D6
09ED4:  BNC   9EE2
....................          Ajuste2=0.0; 
09ED6:  MOVLB  5
09ED8:  CLRF   x46
09EDA:  CLRF   x45
09EDC:  CLRF   x44
09EDE:  CLRF   x43
09EE0:  MOVLB  0
....................        
....................       strcpy(Menus.Letra,"Sensor de Presion"); 
09EE2:  MOVLW  04
09EE4:  MOVWF  FEA
09EE6:  MOVLW  17
09EE8:  MOVWF  FE9
09EEA:  MOVFF  FF2,5EB
09EEE:  BCF    FF2.7
09EF0:  MOVLW  00
09EF2:  CALL   12E6
09EF6:  TBLRD*-
09EF8:  TBLRD*+
09EFA:  MOVF   FF5,W
09EFC:  MOVWF  FEE
09EFE:  IORLW  00
09F00:  BNZ   9EF8
09F02:  MOVLB  5
09F04:  BTFSC  xEB.7
09F06:  BSF    FF2.7
....................       displayMenu(Menus.Letra,10,0,1,1); 
09F08:  MOVLW  04
09F0A:  MOVWF  xF4
09F0C:  MOVLW  17
09F0E:  MOVWF  xF3
09F10:  MOVLW  0A
09F12:  MOVWF  xF5
09F14:  CLRF   xF6
09F16:  MOVLW  01
09F18:  MOVWF  xF7
09F1A:  MOVWF  xF8
09F1C:  MOVLB  0
09F1E:  CALL   4E88
....................        
....................       glcd_text57(0, 12, ZFP, 1, ON); 
09F22:  MOVLB  6
09F24:  CLRF   x04
09F26:  MOVLW  0C
09F28:  MOVWF  x05
09F2A:  MOVLW  04
09F2C:  MOVWF  x07
09F2E:  MOVLW  9B
09F30:  MOVWF  x06
09F32:  MOVLW  01
09F34:  MOVWF  x08
09F36:  MOVWF  x09
09F38:  MOVLB  0
09F3A:  CALL   18A2
....................        
....................       glcd_text57(0, 20, ZA, 1, ON); 
09F3E:  MOVLB  6
09F40:  CLRF   x04
09F42:  MOVLW  14
09F44:  MOVWF  x05
09F46:  MOVLW  04
09F48:  MOVWF  x07
09F4A:  MOVLW  83
09F4C:  MOVWF  x06
09F4E:  MOVLW  01
09F50:  MOVWF  x08
09F52:  MOVWF  x09
09F54:  MOVLB  0
09F56:  CALL   18A2
....................        
....................       glcd_text57(0, 30, AJ, 1, ON);            
09F5A:  MOVLB  6
09F5C:  CLRF   x04
09F5E:  MOVLW  1E
09F60:  MOVWF  x05
09F62:  MOVLW  04
09F64:  MOVWF  x07
09F66:  MOVLW  8B
09F68:  MOVWF  x06
09F6A:  MOVLW  01
09F6C:  MOVWF  x08
09F6E:  MOVWF  x09
09F70:  MOVLB  0
09F72:  CALL   18A2
....................        
....................       displayfloat(G,44,20,0,1); 
09F76:  MOVFF  5D6,5F2
09F7A:  MOVFF  5D5,5F1
09F7E:  MOVFF  5D4,5F0
09F82:  MOVFF  5D3,5EF
09F86:  MOVLW  2C
09F88:  MOVLB  5
09F8A:  MOVWF  xF3
09F8C:  MOVLW  14
09F8E:  MOVWF  xF4
09F90:  CLRF   xF5
09F92:  MOVLW  01
09F94:  MOVWF  xF6
09F96:  MOVLB  0
09F98:  CALL   5FB2
....................       displayfloat(Ajuste2,44,30,0,1); 
09F9C:  MOVFF  546,5F2
09FA0:  MOVFF  545,5F1
09FA4:  MOVFF  544,5F0
09FA8:  MOVFF  543,5EF
09FAC:  MOVLW  2C
09FAE:  MOVLB  5
09FB0:  MOVWF  xF3
09FB2:  MOVLW  1E
09FB4:  MOVWF  xF4
09FB6:  CLRF   xF5
09FB8:  MOVLW  01
09FBA:  MOVWF  xF6
09FBC:  MOVLB  0
09FBE:  CALL   5FB2
....................       displayfloat(Filtro_DownFlow_adc,0,40,0,1); 
09FC2:  MOVFF  4DE,621
09FC6:  MOVFF  4DD,620
09FCA:  CALL   1A5A
09FCE:  MOVFF  00,5EB
09FD2:  MOVFF  01,5EC
09FD6:  MOVFF  02,5ED
09FDA:  MOVFF  03,5EE
09FDE:  MOVFF  03,5F2
09FE2:  MOVFF  02,5F1
09FE6:  MOVFF  01,5F0
09FEA:  MOVFF  00,5EF
09FEE:  MOVLB  5
09FF0:  CLRF   xF3
09FF2:  MOVLW  28
09FF4:  MOVWF  xF4
09FF6:  CLRF   xF5
09FF8:  MOVLW  01
09FFA:  MOVWF  xF6
09FFC:  MOVLB  0
09FFE:  CALL   5FB2
....................       displayfloat(Filtro_DownFlow,0,50,0,1); 
0A002:  MOVFF  522,5F2
0A006:  MOVFF  521,5F1
0A00A:  MOVFF  520,5F0
0A00E:  MOVFF  51F,5EF
0A012:  MOVLB  5
0A014:  CLRF   xF3
0A016:  MOVLW  32
0A018:  MOVWF  xF4
0A01A:  CLRF   xF5
0A01C:  MOVLW  01
0A01E:  MOVWF  xF6
0A020:  MOVLB  0
0A022:  CALL   5FB2
....................        
....................       if(UP)//Si oprime hacia arriba 
0A026:  BSF    F92.5
0A028:  BTFSC  F80.5
0A02A:  BRA    A072
....................       {   
....................          delay_ms(30);Ajuste2+=0.01; 
0A02C:  MOVLW  1E
0A02E:  MOVLB  5
0A030:  MOVWF  xFF
0A032:  MOVLB  0
0A034:  CALL   154C
0A038:  BCF    FD8.1
0A03A:  MOVFF  546,623
0A03E:  MOVFF  545,622
0A042:  MOVFF  544,621
0A046:  MOVFF  543,620
0A04A:  MOVLW  0A
0A04C:  MOVLB  6
0A04E:  MOVWF  x27
0A050:  MOVLW  D7
0A052:  MOVWF  x26
0A054:  MOVLW  23
0A056:  MOVWF  x25
0A058:  MOVLW  78
0A05A:  MOVWF  x24
0A05C:  MOVLB  0
0A05E:  CALL   1BEE
0A062:  MOVFF  03,546
0A066:  MOVFF  02,545
0A06A:  MOVFF  01,544
0A06E:  MOVFF  00,543
....................       } 
....................              
....................       if(DOWN)//Si oprime hacia abajo 
0A072:  BSF    F96.0
0A074:  BTFSC  F84.0
0A076:  BRA    A0BE
....................       {   
....................          delay_ms(30);Ajuste2-=0.01; 
0A078:  MOVLW  1E
0A07A:  MOVLB  5
0A07C:  MOVWF  xFF
0A07E:  MOVLB  0
0A080:  CALL   154C
0A084:  BSF    FD8.1
0A086:  MOVFF  546,623
0A08A:  MOVFF  545,622
0A08E:  MOVFF  544,621
0A092:  MOVFF  543,620
0A096:  MOVLW  0A
0A098:  MOVLB  6
0A09A:  MOVWF  x27
0A09C:  MOVLW  D7
0A09E:  MOVWF  x26
0A0A0:  MOVLW  23
0A0A2:  MOVWF  x25
0A0A4:  MOVLW  78
0A0A6:  MOVWF  x24
0A0A8:  MOVLB  0
0A0AA:  CALL   1BEE
0A0AE:  MOVFF  03,546
0A0B2:  MOVFF  02,545
0A0B6:  MOVFF  01,544
0A0BA:  MOVFF  00,543
....................       } 
....................              
....................       if(RIGHT)//Si oprime SET 
0A0BE:  BSF    F96.1
0A0C0:  BTFSC  F84.1
0A0C2:  BRA    A176
....................       {            
....................          G=Filtro_Downflow_adc; 
0A0C4:  MOVFF  4DE,621
0A0C8:  MOVFF  4DD,620
0A0CC:  CALL   1A5A
0A0D0:  MOVFF  03,5D6
0A0D4:  MOVFF  02,5D5
0A0D8:  MOVFF  01,5D4
0A0DC:  MOVFF  00,5D3
....................          G16=(int16)G; 
0A0E0:  MOVFF  5D6,61F
0A0E4:  MOVFF  5D5,61E
0A0E8:  MOVFF  5D4,61D
0A0EC:  MOVFF  5D3,61C
0A0F0:  CALL   3040
0A0F4:  MOVFF  02,4EA
0A0F8:  MOVFF  01,4E9
....................          G_l=G16; G_h=(G16>>8); 
0A0FC:  MOVFF  4E9,4D1
0A100:  MOVFF  4EA,4D2
....................              
....................          write_eeprom(62,G_l); 
0A104:  CLRF   FAA
0A106:  MOVLW  3E
0A108:  MOVWF  FA9
0A10A:  MOVFF  4D1,FA8
0A10E:  BCF    FA6.6
0A110:  BCF    FA6.7
0A112:  BSF    FA6.2
0A114:  MOVF   FF2,W
0A116:  MOVWF  00
0A118:  BCF    FF2.7
0A11A:  MOVLB  F
0A11C:  MOVLW  55
0A11E:  MOVWF  FA7
0A120:  MOVLW  AA
0A122:  MOVWF  FA7
0A124:  BSF    FA6.1
0A126:  BTFSC  FA6.1
0A128:  BRA    A126
0A12A:  BCF    FA6.2
0A12C:  MOVF   00,W
0A12E:  IORWF  FF2,F
....................          delay_ms(20); 
0A130:  MOVLW  14
0A132:  MOVLB  5
0A134:  MOVWF  xFF
0A136:  MOVLB  0
0A138:  CALL   154C
....................          write_eeprom(63,G_h);//Guardar valor de Setpoint en eeprom 
0A13C:  CLRF   FAA
0A13E:  MOVLW  3F
0A140:  MOVWF  FA9
0A142:  MOVFF  4D2,FA8
0A146:  BCF    FA6.6
0A148:  BCF    FA6.7
0A14A:  BSF    FA6.2
0A14C:  MOVF   FF2,W
0A14E:  MOVWF  00
0A150:  BCF    FF2.7
0A152:  MOVLB  F
0A154:  MOVLW  55
0A156:  MOVWF  FA7
0A158:  MOVLW  AA
0A15A:  MOVWF  FA7
0A15C:  BSF    FA6.1
0A15E:  BTFSC  FA6.1
0A160:  BRA    A15E
0A162:  BCF    FA6.2
0A164:  MOVF   00,W
0A166:  IORWF  FF2,F
....................          delay_ms(20); 
0A168:  MOVLW  14
0A16A:  MOVLB  5
0A16C:  MOVWF  xFF
0A16E:  MOVLB  0
0A170:  CALL   154C
....................       } 
....................          else 
0A174:  BRA    A17C
....................             {Flanco1 = 0;}   
0A176:  MOVLB  4
0A178:  BCF    x2D.1
0A17A:  MOVLB  0
....................              
....................       if(LEFT)//Si oprime boton de Toma. 
0A17C:  BSF    F96.2
0A17E:  BTFSC  F84.2
0A180:  BRA    A2DA
....................       {                   
....................          delay_ms(700);Menu=32;glcd_fillscreen(OFF);Opcion=1;unidad=1; 
0A182:  MOVLW  04
0A184:  MOVLB  5
0A186:  MOVWF  xEB
0A188:  MOVLW  AF
0A18A:  MOVWF  xFF
0A18C:  MOVLB  0
0A18E:  CALL   154C
0A192:  MOVLB  5
0A194:  DECFSZ xEB,F
0A196:  BRA    A188
0A198:  MOVLW  20
0A19A:  MOVLB  4
0A19C:  MOVWF  xCD
0A19E:  MOVLB  5
0A1A0:  CLRF   xF3
0A1A2:  MOVLB  0
0A1A4:  CALL   162C
0A1A8:  MOVLW  01
0A1AA:  MOVLB  4
0A1AC:  MOVWF  xCF
0A1AE:  MOVWF  xCE
....................          Temporal=Ajuste2; 
0A1B0:  MOVFF  546,54A
0A1B4:  MOVFF  545,549
0A1B8:  MOVFF  544,548
0A1BC:  MOVFF  543,547
....................          Entero=(int)Ajuste2; 
0A1C0:  MOVFF  546,61F
0A1C4:  MOVFF  545,61E
0A1C8:  MOVFF  544,61D
0A1CC:  MOVFF  543,61C
0A1D0:  MOVLB  0
0A1D2:  CALL   3040
0A1D6:  MOVFF  01,4D8
....................          Temporal=Temporal-Entero; 
0A1DA:  MOVLB  6
0A1DC:  CLRF   x21
0A1DE:  MOVFF  4D8,620
0A1E2:  MOVLB  0
0A1E4:  CALL   1A5A
0A1E8:  BSF    FD8.1
0A1EA:  MOVFF  54A,623
0A1EE:  MOVFF  549,622
0A1F2:  MOVFF  548,621
0A1F6:  MOVFF  547,620
0A1FA:  MOVFF  03,627
0A1FE:  MOVFF  02,626
0A202:  MOVFF  01,625
0A206:  MOVFF  00,624
0A20A:  CALL   1BEE
0A20E:  MOVFF  03,54A
0A212:  MOVFF  02,549
0A216:  MOVFF  01,548
0A21A:  MOVFF  00,547
....................          Temporal2=Temporal*10.0; 
0A21E:  MOVFF  54A,61F
0A222:  MOVFF  549,61E
0A226:  MOVFF  548,61D
0A22A:  MOVFF  547,61C
0A22E:  MOVLB  6
0A230:  CLRF   x23
0A232:  CLRF   x22
0A234:  MOVLW  20
0A236:  MOVWF  x21
0A238:  MOVLW  82
0A23A:  MOVWF  x20
0A23C:  MOVLB  0
0A23E:  CALL   307C
0A242:  MOVFF  03,54E
0A246:  MOVFF  02,54D
0A24A:  MOVFF  01,54C
0A24E:  MOVFF  00,54B
....................          Decimal1=(int8)Temporal2; 
0A252:  MOVFF  54E,61F
0A256:  MOVFF  54D,61E
0A25A:  MOVFF  54C,61D
0A25E:  MOVFF  54B,61C
0A262:  CALL   3040
0A266:  MOVFF  01,4D9
....................          write_eeprom(27,Entero); 
0A26A:  CLRF   FAA
0A26C:  MOVLW  1B
0A26E:  MOVWF  FA9
0A270:  MOVFF  4D8,FA8
0A274:  BCF    FA6.6
0A276:  BCF    FA6.7
0A278:  BSF    FA6.2
0A27A:  MOVF   FF2,W
0A27C:  MOVWF  00
0A27E:  BCF    FF2.7
0A280:  MOVLB  F
0A282:  MOVLW  55
0A284:  MOVWF  FA7
0A286:  MOVLW  AA
0A288:  MOVWF  FA7
0A28A:  BSF    FA6.1
0A28C:  BTFSC  FA6.1
0A28E:  BRA    A28C
0A290:  BCF    FA6.2
0A292:  MOVF   00,W
0A294:  IORWF  FF2,F
....................          delay_ms(20); 
0A296:  MOVLW  14
0A298:  MOVLB  5
0A29A:  MOVWF  xFF
0A29C:  MOVLB  0
0A29E:  CALL   154C
....................          write_eeprom(28,Decimal1); 
0A2A2:  CLRF   FAA
0A2A4:  MOVLW  1C
0A2A6:  MOVWF  FA9
0A2A8:  MOVFF  4D9,FA8
0A2AC:  BCF    FA6.6
0A2AE:  BCF    FA6.7
0A2B0:  BSF    FA6.2
0A2B2:  MOVF   FF2,W
0A2B4:  MOVWF  00
0A2B6:  BCF    FF2.7
0A2B8:  MOVLB  F
0A2BA:  MOVLW  55
0A2BC:  MOVWF  FA7
0A2BE:  MOVLW  AA
0A2C0:  MOVWF  FA7
0A2C2:  BSF    FA6.1
0A2C4:  BTFSC  FA6.1
0A2C6:  BRA    A2C4
0A2C8:  BCF    FA6.2
0A2CA:  MOVF   00,W
0A2CC:  IORWF  FF2,F
....................          delay_ms(20); 
0A2CE:  MOVLW  14
0A2D0:  MOVLB  5
0A2D2:  MOVWF  xFF
0A2D4:  MOVLB  0
0A2D6:  CALL   154C
0A2DA:  MOVLB  4
....................       } 
....................     } 
.................... //_--------------------------------------------------------------------------------------------------------------------------------------------------------        
....................  
.................... //_-------------------------------------------------------------------------------------------------------------------------------------------------------- 
....................       if(Menu==43){ //Menu de Velocidad de Motor 
0A2DC:  MOVF   xCD,W
0A2DE:  SUBLW  2B
0A2E0:  BTFSS  FD8.2
0A2E2:  BRA    A4AE
....................        
....................       if(VelMotor>6)VelMotor=6; 
0A2E4:  MOVLB  5
0A2E6:  MOVF   xE2,W
0A2E8:  SUBLW  06
0A2EA:  BC    A2F0
0A2EC:  MOVLW  06
0A2EE:  MOVWF  xE2
....................        
....................       strcpy(Menus.Letra,"Seleccion Vel"); 
0A2F0:  MOVLW  04
0A2F2:  MOVWF  FEA
0A2F4:  MOVLW  17
0A2F6:  MOVWF  FE9
0A2F8:  MOVFF  FF2,5EB
0A2FC:  BCF    FF2.7
0A2FE:  MOVLW  00
0A300:  MOVLB  0
0A302:  CALL   134A
0A306:  TBLRD*-
0A308:  TBLRD*+
0A30A:  MOVF   FF5,W
0A30C:  MOVWF  FEE
0A30E:  IORLW  00
0A310:  BNZ   A308
0A312:  MOVLB  5
0A314:  BTFSC  xEB.7
0A316:  BSF    FF2.7
....................       displayMenu(Menus.Letra,10,0,1,1); 
0A318:  MOVLW  04
0A31A:  MOVWF  xF4
0A31C:  MOVLW  17
0A31E:  MOVWF  xF3
0A320:  MOVLW  0A
0A322:  MOVWF  xF5
0A324:  CLRF   xF6
0A326:  MOVLW  01
0A328:  MOVWF  xF7
0A32A:  MOVWF  xF8
0A32C:  MOVLB  0
0A32E:  CALL   4E88
....................        
....................       displayTiempo(VelMotor,50,40,1,2); 
0A332:  MOVFF  5E2,5EB
0A336:  MOVLW  32
0A338:  MOVLB  5
0A33A:  MOVWF  xEC
0A33C:  MOVLW  28
0A33E:  MOVWF  xED
0A340:  MOVLW  01
0A342:  MOVWF  xEE
0A344:  MOVLW  02
0A346:  MOVWF  xEF
0A348:  MOVLB  0
0A34A:  CALL   5648
....................        
....................       if(UP && VelMotor<6)//Si oprime hacia arriba 
0A34E:  BSF    F92.5
0A350:  BTFSC  F80.5
0A352:  BRA    A372
0A354:  MOVLB  5
0A356:  MOVF   xE2,W
0A358:  SUBLW  05
0A35A:  BTFSC  FD8.0
0A35C:  BRA    A362
0A35E:  MOVLB  0
0A360:  BRA    A372
....................       {   
....................          delay_ms(200);VelMotor++; 
0A362:  MOVLW  C8
0A364:  MOVWF  xFF
0A366:  MOVLB  0
0A368:  CALL   154C
0A36C:  MOVLB  5
0A36E:  INCF   xE2,F
0A370:  MOVLB  0
....................       } 
....................              
....................       if(DOWN && VelMotor>0)//Si oprime hacia abajo 
0A372:  BSF    F96.0
0A374:  BTFSC  F84.0
0A376:  BRA    A394
0A378:  MOVLB  5
0A37A:  MOVF   xE2,F
0A37C:  BTFSS  FD8.2
0A37E:  BRA    A384
0A380:  MOVLB  0
0A382:  BRA    A394
....................       {   
....................          delay_ms(200);VelMotor--; 
0A384:  MOVLW  C8
0A386:  MOVWF  xFF
0A388:  MOVLB  0
0A38A:  CALL   154C
0A38E:  MOVLB  5
0A390:  DECF   xE2,F
0A392:  MOVLB  0
....................       } 
....................              
....................       if(RIGHT)//Si oprime SET 
0A394:  BSF    F96.1
0A396:  BTFSC  F84.1
0A398:  BRA    A3A2
....................       {            
....................          VelocidadMotor(VelMotor); 
0A39A:  MOVFF  5E2,5EB
0A39E:  CALL   1574
....................       }  
....................              
....................       if(LEFT)//Si oprime boton de Toma. 
0A3A2:  BSF    F96.2
0A3A4:  BTFSC  F84.2
0A3A6:  BRA    A4B0
....................       {                   
....................          delay_ms(100);glcd_fillscreen(OFF);Opcion=1;unidad=1; 
0A3A8:  MOVLW  64
0A3AA:  MOVLB  5
0A3AC:  MOVWF  xFF
0A3AE:  MOVLB  0
0A3B0:  CALL   154C
0A3B4:  MOVLB  5
0A3B6:  CLRF   xF3
0A3B8:  MOVLB  0
0A3BA:  CALL   162C
0A3BE:  MOVLW  01
0A3C0:  MOVLB  4
0A3C2:  MOVWF  xCF
0A3C4:  MOVWF  xCE
....................          write_eeprom(32,VelMotor);//Guardar valor de Setpoint en eeprom 
0A3C6:  CLRF   FAA
0A3C8:  MOVLW  20
0A3CA:  MOVWF  FA9
0A3CC:  MOVFF  5E2,FA8
0A3D0:  BCF    FA6.6
0A3D2:  BCF    FA6.7
0A3D4:  BSF    FA6.2
0A3D6:  MOVF   FF2,W
0A3D8:  MOVWF  00
0A3DA:  BCF    FF2.7
0A3DC:  MOVLB  F
0A3DE:  MOVLW  55
0A3E0:  MOVWF  FA7
0A3E2:  MOVLW  AA
0A3E4:  MOVWF  FA7
0A3E6:  BSF    FA6.1
0A3E8:  BTFSC  FA6.1
0A3EA:  BRA    A3E8
0A3EC:  BCF    FA6.2
0A3EE:  MOVF   00,W
0A3F0:  IORWF  FF2,F
....................          delay_ms(20); 
0A3F2:  MOVLW  14
0A3F4:  MOVLB  5
0A3F6:  MOVWF  xFF
0A3F8:  MOVLB  0
0A3FA:  CALL   154C
....................          glcd_fillScreen(OFF); 
0A3FE:  MOVLB  5
0A400:  CLRF   xF3
0A402:  MOVLB  0
0A404:  CALL   162C
....................          strcpy(Menus.Letra,"Velocidad"); 
0A408:  MOVLW  04
0A40A:  MOVWF  FEA
0A40C:  MOVLW  17
0A40E:  MOVWF  FE9
0A410:  MOVFF  FF2,5EB
0A414:  BCF    FF2.7
0A416:  MOVLW  00
0A418:  CALL   1376
0A41C:  TBLRD*-
0A41E:  TBLRD*+
0A420:  MOVF   FF5,W
0A422:  MOVWF  FEE
0A424:  IORLW  00
0A426:  BNZ   A41E
0A428:  MOVLB  5
0A42A:  BTFSC  xEB.7
0A42C:  BSF    FF2.7
....................          displayMenu(Menus.Letra,0,0,0,2); 
0A42E:  MOVLW  04
0A430:  MOVWF  xF4
0A432:  MOVLW  17
0A434:  MOVWF  xF3
0A436:  CLRF   xF5
0A438:  CLRF   xF6
0A43A:  CLRF   xF7
0A43C:  MOVLW  02
0A43E:  MOVWF  xF8
0A440:  MOVLB  0
0A442:  CALL   4E88
....................          strcpy(Menus.Letra,"Guardada"); 
0A446:  MOVLW  04
0A448:  MOVWF  FEA
0A44A:  MOVLW  17
0A44C:  MOVWF  FE9
0A44E:  MOVFF  FF2,5EB
0A452:  BCF    FF2.7
0A454:  MOVLW  00
0A456:  CALL   139E
0A45A:  TBLRD*-
0A45C:  TBLRD*+
0A45E:  MOVF   FF5,W
0A460:  MOVWF  FEE
0A462:  IORLW  00
0A464:  BNZ   A45C
0A466:  MOVLB  5
0A468:  BTFSC  xEB.7
0A46A:  BSF    FF2.7
....................          displayMenu(Menus.Letra,0,30,0,2); 
0A46C:  MOVLW  04
0A46E:  MOVWF  xF4
0A470:  MOVLW  17
0A472:  MOVWF  xF3
0A474:  CLRF   xF5
0A476:  MOVLW  1E
0A478:  MOVWF  xF6
0A47A:  CLRF   xF7
0A47C:  MOVLW  02
0A47E:  MOVWF  xF8
0A480:  MOVLB  0
0A482:  CALL   4E88
....................          glcd_update(); 
0A486:  CALL   1686
....................          delay_ms(1000); 
0A48A:  MOVLW  04
0A48C:  MOVLB  5
0A48E:  MOVWF  xEB
0A490:  MOVLW  FA
0A492:  MOVWF  xFF
0A494:  MOVLB  0
0A496:  CALL   154C
0A49A:  MOVLB  5
0A49C:  DECFSZ xEB,F
0A49E:  BRA    A490
....................          glcd_fillScreen(OFF); 
0A4A0:  CLRF   xF3
0A4A2:  MOVLB  0
0A4A4:  CALL   162C
....................          Menu=32; 
0A4A8:  MOVLW  20
0A4AA:  MOVLB  4
0A4AC:  MOVWF  xCD
0A4AE:  MOVLB  0
....................       } 
....................     } 
.................... //_--------------------------------------------------------------------------------------------------------------------------------------------------------        
....................  
....................    if(tiemporeset>=60) 
0A4B0:  MOVLB  4
0A4B2:  MOVF   xD3,W
0A4B4:  SUBLW  3B
0A4B6:  BC    A4CE
....................    { 
....................       if(Menu!=200){ 
0A4B8:  MOVF   xCD,W
0A4BA:  SUBLW  C8
0A4BC:  BZ    A4CE
....................          glcd_init(ON); 
0A4BE:  MOVLW  01
0A4C0:  MOVLB  5
0A4C2:  MOVWF  xEB
0A4C4:  MOVLB  0
0A4C6:  CALL   173E
....................          tiemporeset=0; 
0A4CA:  MOVLB  4
0A4CC:  CLRF   xD3
....................       } 
....................    }  
.................... } 
0A4CE:  MOVLB  0
0A4D0:  GOTO   66EE
....................  
.................... } 
....................  
0A4D4:  SLEEP 

Configuration Fuses:
   Word  1: 0200   HS NOIESO NOFCMEN
   Word  2: 1E1F   BROWNOUT NOWDT BORV20 NOPUT WDT32768
   Word  3: 0000   NOPBADEN NOLPT1OSC NOMCLR
   Word  4: 00B0   NOSTVREN NODEBUG NOLVP NOXINST BBSIZ4K
   Word  5: C03F   NOPROTECT NOCPD NOCPB
   Word  6: E03F   NOWRT NOWRTD NOWRTC NOWRTB
   Word  7: 403F   NOEBTR NOEBTRB
