CCS PCH C Compiler, Version 4.104, 5967               25-feb.-20 08:04

               Filename: D:\Laboratorio\Cabina de PCR\2020\CPCR60 GLCD Avantika  #0045880XX OP202047\Firmware\Maestro_v2.lst

               ROM used: 42298 bytes (43%)
                         Largest free fragment is 32768
               RAM used: 1511 (45%) at main() level
                         1582 (48%) worst case
               Stack:    8 worst case (6 in main + 2 for interrupts)

*
00000:  GOTO   60C6
*
00008:  MOVWF  04
0000A:  MOVFF  FD8,05
0000E:  MOVFF  FE0,06
00012:  MOVLB  0
00014:  MOVFF  FE9,0C
00018:  MOVFF  FEA,07
0001C:  MOVFF  FE1,08
00020:  MOVFF  FE2,09
00024:  MOVFF  FD9,0A
00028:  MOVFF  FDA,0B
0002C:  MOVFF  FF3,12
00030:  MOVFF  FF4,13
00034:  MOVFF  FFA,14
00038:  MOVFF  FFB,15
0003C:  MOVFF  00,0E
00040:  MOVFF  01,0F
00044:  MOVFF  02,10
00048:  MOVFF  03,11
0004C:  BTFSS  FF2.4
0004E:  GOTO   0058
00052:  BTFSC  FF2.1
00054:  GOTO   13E6
00058:  MOVFF  0E,00
0005C:  MOVFF  0F,01
00060:  MOVFF  10,02
00064:  MOVFF  11,03
00068:  MOVFF  0C,FE9
0006C:  MOVFF  07,FEA
00070:  BSF    07.7
00072:  MOVFF  08,FE1
00076:  MOVFF  09,FE2
0007A:  MOVFF  0A,FD9
0007E:  MOVFF  0B,FDA
00082:  MOVFF  12,FF3
00086:  MOVFF  13,FF4
0008A:  MOVFF  14,FFA
0008E:  MOVFF  15,FFB
00092:  MOVF   04,W
00094:  MOVFF  06,FE0
00098:  MOVFF  05,FD8
0009C:  RETFIE 0
.................... //Programa para Cabina de Bioseguridad 
....................  
.................... #include <18F4685.h> 
.................... //////// Standard Header file for the PIC18F4685 device //////////////// 
.................... #device PIC18F4685 
.................... #list 
....................  
.................... #device adc=10 
.................... #fuses HS,NOWDT,NOPROTECT,NOLVP,NODEBUG,NOSTVREN,NOPUT,NOCPD,NOWRT,NOIESO,NOFCMEN,NOPBADEN,NOWRTC,NOWRTB,NOEBTR,NOEBTRB,NOCPB,NOXINST,NOLPT1OSC,NOMCLR 
.................... #use delay(clock=20000000) 
*
013C6:  MOVLW  03
013C8:  MOVLB  6
013CA:  SUBWF  x2D,F
013CC:  BNC   13E2
013CE:  MOVLW  06
013D0:  MOVWF  FEA
013D2:  MOVLW  2D
013D4:  MOVWF  FE9
013D6:  MOVF   FEF,W
013D8:  BZ    13E2
013DA:  BRA    13DE
013DC:  BRA    13DE
013DE:  DECFSZ FEF,F
013E0:  BRA    13DC
013E2:  MOVLB  0
013E4:  RETLW  00
*
01500:  MOVLW  05
01502:  MOVWF  FEA
01504:  MOVLW  F7
01506:  MOVWF  FE9
01508:  MOVF   FEF,W
0150A:  BZ    1526
0150C:  MOVLW  06
0150E:  MOVWF  01
01510:  CLRF   00
01512:  DECFSZ 00,F
01514:  BRA    1512
01516:  DECFSZ 01,F
01518:  BRA    1510
0151A:  MOVLW  7B
0151C:  MOVWF  00
0151E:  DECFSZ 00,F
01520:  BRA    151E
01522:  DECFSZ FEF,F
01524:  BRA    150C
01526:  RETLW  00
.................... #include <MATH.h> 
.................... //////////////////////////////////////////////////////////////////////////// 
.................... ////        (C) Copyright 1996,2008 Custom Computer Services            //// 
.................... //// This source code may only be used by licensed users of the CCS C   //// 
.................... //// compiler.  This source code may only be distributed to other       //// 
.................... //// licensed users of the CCS C compiler.  No other use, reproduction  //// 
.................... //// or distribution is permitted without written permission.           //// 
.................... //// Derivative programs created using this software in object code     //// 
.................... //// form are not restricted in any way.                                //// 
.................... //////////////////////////////////////////////////////////////////////////// 
.................... ////                                                                    //// 
.................... //// History:                                                           //// 
.................... ////  * 9/20/2001 :  Improvments are made to sin/cos code.              //// 
.................... ////                 The code now is small, much faster,                //// 
.................... ////                 and more accurate.                                 //// 
.................... ////  * 2/21/2007 :  Compiler handles & operator differently and does 
.................... ////                 not return generic (int8 *) so type cast is done   //// 
.................... ////                                                                    //// 
.................... //////////////////////////////////////////////////////////////////////////// 
....................  
.................... #ifndef MATH_H 
.................... #define MATH_H 
....................  
.................... #ifdef PI 
.................... #undef  PI 
.................... #endif 
.................... #define PI     3.1415926535897932 
....................  
....................  
.................... #define SQRT2  1.4142135623730950 
....................  
.................... //float const ps[4] = {5.9304945, 21.125224, 8.9403076, 0.29730279}; 
.................... //float const qs[4] = {1.0000000, 15.035723, 17.764134, 2.4934718}; 
....................  
.................... ///////////////////////////// Round Functions ////////////////////////////// 
....................  
.................... float32 CEIL_FLOOR(float32 x, unsigned int8 n) 
.................... { 
....................    float32 y, res; 
....................    unsigned int16 l; 
....................    int1 s; 
....................  
....................    s = 0; 
*
0313A:  MOVLB  6
0313C:  BCF    x13.0
....................    y = x; 
0313E:  MOVFF  607,60C
03142:  MOVFF  606,60B
03146:  MOVFF  605,60A
0314A:  MOVFF  604,609
....................  
....................    if (x < 0) 
0314E:  MOVFF  607,617
03152:  MOVFF  606,616
03156:  MOVFF  605,615
0315A:  MOVFF  604,614
0315E:  CLRF   x1B
03160:  CLRF   x1A
03162:  CLRF   x19
03164:  CLRF   x18
03166:  MOVLB  0
03168:  CALL   25C4
0316C:  BNC   3178
....................    { 
....................       s = 1; 
0316E:  MOVLB  6
03170:  BSF    x13.0
....................       y = -y; 
03172:  MOVF   x0A,W
03174:  XORLW  80
03176:  MOVWF  x0A
....................    } 
....................  
....................    if (y <= 32768.0) 
03178:  MOVFF  60C,617
0317C:  MOVFF  60B,616
03180:  MOVFF  60A,615
03184:  MOVFF  609,614
03188:  MOVLB  6
0318A:  CLRF   x1B
0318C:  CLRF   x1A
0318E:  CLRF   x19
03190:  MOVLW  8E
03192:  MOVWF  x18
03194:  MOVLB  0
03196:  CALL   25C4
0319A:  BC    319E
0319C:  BNZ   31CE
....................   res = (float32)(unsigned int16)y; 
0319E:  MOVFF  60C,617
031A2:  MOVFF  60B,616
031A6:  MOVFF  60A,615
031AA:  MOVFF  609,614
031AE:  RCALL  3008
031B0:  MOVFF  02,619
031B4:  MOVFF  01,618
031B8:  CALL   1A2C
031BC:  MOVFF  03,610
031C0:  MOVFF  02,60F
031C4:  MOVFF  01,60E
031C8:  MOVFF  00,60D
....................  
....................  else if (y < 10000000.0) 
031CC:  BRA    336C
031CE:  MOVFF  60C,617
031D2:  MOVFF  60B,616
031D6:  MOVFF  60A,615
031DA:  MOVFF  609,614
031DE:  MOVLW  80
031E0:  MOVLB  6
031E2:  MOVWF  x1B
031E4:  MOVLW  96
031E6:  MOVWF  x1A
031E8:  MOVLW  18
031EA:  MOVWF  x19
031EC:  MOVLW  96
031EE:  MOVWF  x18
031F0:  MOVLB  0
031F2:  CALL   25C4
031F6:  BTFSS  FD8.0
031F8:  BRA    335C
....................    { 
....................   l = (unsigned int16)(y/32768.0); 
031FA:  MOVFF  60C,617
031FE:  MOVFF  60B,616
03202:  MOVFF  60A,615
03206:  MOVFF  609,614
0320A:  MOVLB  6
0320C:  CLRF   x1B
0320E:  CLRF   x1A
03210:  CLRF   x19
03212:  MOVLW  8E
03214:  MOVWF  x18
03216:  MOVLB  0
03218:  CALL   1A62
0321C:  MOVFF  03,617
03220:  MOVFF  02,616
03224:  MOVFF  01,615
03228:  MOVFF  00,614
0322C:  RCALL  3008
0322E:  MOVFF  02,612
03232:  MOVFF  01,611
....................       y = 32768.0*(y/32768.0 - (float32)l); 
03236:  MOVFF  60C,617
0323A:  MOVFF  60B,616
0323E:  MOVFF  60A,615
03242:  MOVFF  609,614
03246:  MOVLB  6
03248:  CLRF   x1B
0324A:  CLRF   x1A
0324C:  CLRF   x19
0324E:  MOVLW  8E
03250:  MOVWF  x18
03252:  MOVLB  0
03254:  CALL   1A62
03258:  MOVFF  00,614
0325C:  MOVFF  01,615
03260:  MOVFF  02,616
03264:  MOVFF  03,617
03268:  MOVFF  612,619
0326C:  MOVFF  611,618
03270:  CALL   1A2C
03274:  BSF    FD8.1
03276:  MOVFF  617,61B
0327A:  MOVFF  616,61A
0327E:  MOVFF  615,619
03282:  MOVFF  614,618
03286:  MOVFF  03,61F
0328A:  MOVFF  02,61E
0328E:  MOVFF  01,61D
03292:  MOVFF  00,61C
03296:  CALL   1BC0
0329A:  MOVLB  6
0329C:  CLRF   x17
0329E:  CLRF   x16
032A0:  CLRF   x15
032A2:  MOVLW  8E
032A4:  MOVWF  x14
032A6:  MOVFF  03,61B
032AA:  MOVFF  02,61A
032AE:  MOVFF  01,619
032B2:  MOVFF  00,618
032B6:  MOVLB  0
032B8:  RCALL  3044
032BA:  MOVFF  03,60C
032BE:  MOVFF  02,60B
032C2:  MOVFF  01,60A
032C6:  MOVFF  00,609
....................   res = 32768.0*(float32)l; 
032CA:  MOVFF  612,619
032CE:  MOVFF  611,618
032D2:  CALL   1A2C
032D6:  MOVLB  6
032D8:  CLRF   x17
032DA:  CLRF   x16
032DC:  CLRF   x15
032DE:  MOVLW  8E
032E0:  MOVWF  x14
032E2:  MOVFF  03,61B
032E6:  MOVFF  02,61A
032EA:  MOVFF  01,619
032EE:  MOVFF  00,618
032F2:  MOVLB  0
032F4:  RCALL  3044
032F6:  MOVFF  03,610
032FA:  MOVFF  02,60F
032FE:  MOVFF  01,60E
03302:  MOVFF  00,60D
....................   res += (float32)(unsigned int16)y; 
03306:  MOVFF  60C,617
0330A:  MOVFF  60B,616
0330E:  MOVFF  60A,615
03312:  MOVFF  609,614
03316:  RCALL  3008
03318:  MOVFF  02,619
0331C:  MOVFF  01,618
03320:  CALL   1A2C
03324:  BCF    FD8.1
03326:  MOVFF  610,61B
0332A:  MOVFF  60F,61A
0332E:  MOVFF  60E,619
03332:  MOVFF  60D,618
03336:  MOVFF  03,61F
0333A:  MOVFF  02,61E
0333E:  MOVFF  01,61D
03342:  MOVFF  00,61C
03346:  CALL   1BC0
0334A:  MOVFF  03,610
0334E:  MOVFF  02,60F
03352:  MOVFF  01,60E
03356:  MOVFF  00,60D
....................  } 
....................  
....................  else 
0335A:  BRA    336C
....................   res = y; 
0335C:  MOVFF  60C,610
03360:  MOVFF  60B,60F
03364:  MOVFF  60A,60E
03368:  MOVFF  609,60D
....................  
....................  y = y - (float32)(unsigned int16)y; 
0336C:  MOVFF  60C,617
03370:  MOVFF  60B,616
03374:  MOVFF  60A,615
03378:  MOVFF  609,614
0337C:  RCALL  3008
0337E:  MOVFF  02,619
03382:  MOVFF  01,618
03386:  CALL   1A2C
0338A:  BSF    FD8.1
0338C:  MOVFF  60C,61B
03390:  MOVFF  60B,61A
03394:  MOVFF  60A,619
03398:  MOVFF  609,618
0339C:  MOVFF  03,61F
033A0:  MOVFF  02,61E
033A4:  MOVFF  01,61D
033A8:  MOVFF  00,61C
033AC:  CALL   1BC0
033B0:  MOVFF  03,60C
033B4:  MOVFF  02,60B
033B8:  MOVFF  01,60A
033BC:  MOVFF  00,609
....................  
....................  if (s) 
033C0:  MOVLB  6
033C2:  BTFSS  x13.0
033C4:  BRA    33CC
....................   res = -res; 
033C6:  MOVF   x0E,W
033C8:  XORLW  80
033CA:  MOVWF  x0E
....................  
....................  if (y != 0) 
033CC:  MOVFF  60C,617
033D0:  MOVFF  60B,616
033D4:  MOVFF  60A,615
033D8:  MOVFF  609,614
033DC:  CLRF   x1B
033DE:  CLRF   x1A
033E0:  CLRF   x19
033E2:  CLRF   x18
033E4:  MOVLB  0
033E6:  CALL   25C4
033EA:  BZ    3464
....................  { 
....................   if (s == 1 && n == 0) 
033EC:  MOVLB  6
033EE:  BTFSS  x13.0
033F0:  BRA    342A
033F2:  MOVF   x08,F
033F4:  BNZ   342A
....................    res -= 1.0; 
033F6:  BSF    FD8.1
033F8:  MOVFF  610,61B
033FC:  MOVFF  60F,61A
03400:  MOVFF  60E,619
03404:  MOVFF  60D,618
03408:  CLRF   x1F
0340A:  CLRF   x1E
0340C:  CLRF   x1D
0340E:  MOVLW  7F
03410:  MOVWF  x1C
03412:  MOVLB  0
03414:  CALL   1BC0
03418:  MOVFF  03,610
0341C:  MOVFF  02,60F
03420:  MOVFF  01,60E
03424:  MOVFF  00,60D
03428:  MOVLB  6
....................  
....................   if (s == 0 && n == 1) 
0342A:  BTFSC  x13.0
0342C:  BRA    3466
0342E:  DECFSZ x08,W
03430:  BRA    3466
....................    res += 1.0; 
03432:  BCF    FD8.1
03434:  MOVFF  610,61B
03438:  MOVFF  60F,61A
0343C:  MOVFF  60E,619
03440:  MOVFF  60D,618
03444:  CLRF   x1F
03446:  CLRF   x1E
03448:  CLRF   x1D
0344A:  MOVLW  7F
0344C:  MOVWF  x1C
0344E:  MOVLB  0
03450:  CALL   1BC0
03454:  MOVFF  03,610
03458:  MOVFF  02,60F
0345C:  MOVFF  01,60E
03460:  MOVFF  00,60D
03464:  MOVLB  6
....................  } 
....................  if (x == 0) 
03466:  MOVFF  607,617
0346A:  MOVFF  606,616
0346E:  MOVFF  605,615
03472:  MOVFF  604,614
03476:  CLRF   x1B
03478:  CLRF   x1A
0347A:  CLRF   x19
0347C:  CLRF   x18
0347E:  MOVLB  0
03480:  CALL   25C4
03484:  BNZ   3492
....................     res = 0; 
03486:  MOVLB  6
03488:  CLRF   x10
0348A:  CLRF   x0F
0348C:  CLRF   x0E
0348E:  CLRF   x0D
03490:  MOVLB  0
....................  
....................  return (res); 
03492:  MOVFF  60D,00
03496:  MOVFF  60E,01
0349A:  MOVFF  60F,02
0349E:  MOVFF  610,03
.................... } 
034A2:  RETLW  00
....................  
.................... // Overloaded Functions to take care for new Data types in PCD 
.................... // Overloaded function CEIL_FLOOR() for data type - Float48 
.................... #if defined(__PCD__) 
.................... float48 CEIL_FLOOR(float48 x, unsigned int8 n) 
.................... { 
....................    float48 y, res; 
....................    unsigned int16 l; 
....................    int1 s; 
....................  
....................    s = 0; 
....................    y = x; 
....................  
....................    if (x < 0) 
....................    { 
....................       s = 1; 
....................       y = -y; 
....................    } 
....................  
....................    if (y <= 32768.0) 
....................   res = (float48)(unsigned int16)y; 
....................  
....................  else if (y < 10000000.0) 
....................    { 
....................   l = (unsigned int16)(y/32768.0); 
....................       y = 32768.0*(y/32768.0 - (float48)l); 
....................   res = 32768.0*(float32)l; 
....................   res += (float48)(unsigned int16)y; 
....................  } 
....................  
....................  else 
....................   res = y; 
....................  
....................  y = y - (float48)(unsigned int16)y; 
....................  
....................  if (s) 
....................   res = -res; 
....................  
....................  if (y != 0) 
....................  { 
....................   if (s == 1 && n == 0) 
....................    res -= 1.0; 
....................  
....................   if (s == 0 && n == 1) 
....................    res += 1.0; 
....................  } 
....................  if (x == 0) 
....................     res = 0; 
....................  
....................  return (res); 
.................... } 
....................  
....................  
.................... // Overloaded function CEIL_FLOOR() for data type - Float64 
.................... float64 CEIL_FLOOR(float64 x, unsigned int8 n) 
.................... { 
....................    float64 y, res; 
....................    unsigned int16 l; 
....................    int1 s; 
....................  
....................    s = 0; 
....................    y = x; 
....................  
....................    if (x < 0) 
....................    { 
....................       s = 1; 
....................       y = -y; 
....................    } 
....................  
....................    if (y <= 32768.0) 
....................   res = (float64)(unsigned int16)y; 
....................  
....................  else if (y < 10000000.0) 
....................    { 
....................   l = (unsigned int16)(y/32768.0); 
....................       y = 32768.0*(y/32768.0 - (float64)l); 
....................   res = 32768.0*(float64)l; 
....................   res += (float64)(unsigned int16)y; 
....................  } 
....................  
....................  else 
....................   res = y; 
....................  
....................  y = y - (float64)(unsigned int16)y; 
....................  
....................  if (s) 
....................   res = -res; 
....................  
....................  if (y != 0) 
....................  { 
....................   if (s == 1 && n == 0) 
....................    res -= 1.0; 
....................  
....................   if (s == 0 && n == 1) 
....................    res += 1.0; 
....................  } 
....................  if (x == 0) 
....................     res = 0; 
....................  
....................  return (res); 
.................... } 
.................... #endif 
....................  
.................... //////////////////////////////////////////////////////////////////////////// 
.................... //   float floor(float x) 
.................... //////////////////////////////////////////////////////////////////////////// 
.................... // Description : rounds down the number x. 
.................... // Date : N/A 
.................... // 
.................... float32 floor(float32 x) 
.................... { 
....................    return CEIL_FLOOR(x, 0); 
*
034C2:  MOVFF  603,607
034C6:  MOVFF  602,606
034CA:  MOVFF  601,605
034CE:  MOVFF  600,604
034D2:  MOVLB  6
034D4:  CLRF   x08
034D6:  MOVLB  0
034D8:  RCALL  313A
.................... } 
034DA:  GOTO   35E6 (RETURN)
.................... // Following 2 functions are overloaded functions of floor() for PCD 
.................... // Overloaded function floor() for data type - Float48 
.................... #if defined(__PCD__) 
.................... float48 floor(float48 x) 
.................... { 
....................    return CEIL_FLOOR(x, 0); 
.................... } 
....................  
.................... // Overloaded function floor() for data type - Float64 
.................... float64 floor(float64 x) 
.................... { 
....................    return CEIL_FLOOR(x, 0); 
.................... } 
.................... #endif 
....................  
....................  
.................... //////////////////////////////////////////////////////////////////////////// 
.................... //   float ceil(float x) 
.................... //////////////////////////////////////////////////////////////////////////// 
.................... // Description : rounds up the number x. 
.................... // Date : N/A 
.................... // 
.................... float32 ceil(float32 x) 
.................... { 
....................    return CEIL_FLOOR(x, 1); 
*
034A4:  MOVFF  603,607
034A8:  MOVFF  602,606
034AC:  MOVFF  601,605
034B0:  MOVFF  600,604
034B4:  MOVLW  01
034B6:  MOVLB  6
034B8:  MOVWF  x08
034BA:  MOVLB  0
034BC:  RCALL  313A
.................... } 
034BE:  GOTO   359E (RETURN)
.................... // Following 2 functions are overloaded functions of ceil() for PCD 
.................... // Overloaded function ceil() for data type - Float48 
.................... #if defined(__PCD__) 
.................... float48 ceil(float48 x) 
.................... { 
....................    return CEIL_FLOOR(x, 1); 
.................... } 
....................  
.................... // Overloaded function ceil() for data type - Float64 
.................... float64 ceil(float64 x) 
.................... { 
....................    return CEIL_FLOOR(x, 1); 
.................... } 
.................... #endif 
....................  
....................  //////////////////////////////////////////////////////////////////////////// 
.................... //   float fabs(float x) 
.................... //////////////////////////////////////////////////////////////////////////// 
.................... // Description : Computes the absolute value of floating point number x 
.................... // Returns : returns the absolute value of x 
.................... // Date : N/A 
.................... // 
.................... #define fabs abs 
....................  
.................... //////////////////////////////////////////////////////////////////////////// 
.................... //   float fmod(float x) 
.................... //////////////////////////////////////////////////////////////////////////// 
.................... // Description : Computes the floating point remainder of x/y 
.................... // Returns : returns the value of x= i*y, for some integer i such that, if y 
.................... // is non zero, the result has the same isgn of x na dmagnitude less than the 
.................... // magnitude of y. If y is zero then a domain error occurs. 
.................... // Date : N/A 
.................... // 
....................  
.................... float fmod(float32 x,float32 y) 
.................... { 
....................    float32 i; 
....................    if (y!=0.0) 
*
034DE:  MOVFF  5F7,617
034E2:  MOVFF  5F6,616
034E6:  MOVFF  5F5,615
034EA:  MOVFF  5F4,614
034EE:  MOVLB  6
034F0:  CLRF   x1B
034F2:  CLRF   x1A
034F4:  CLRF   x19
034F6:  CLRF   x18
034F8:  MOVLB  0
034FA:  CALL   25C4
034FE:  BTFSC  FD8.2
03500:  BRA    3642
....................    { 
....................       i=(x/y < 0.0)? ceil(x/y): floor(x/y); 
03502:  MOVFF  5F3,617
03506:  MOVFF  5F2,616
0350A:  MOVFF  5F1,615
0350E:  MOVFF  5F0,614
03512:  MOVFF  5F7,61B
03516:  MOVFF  5F6,61A
0351A:  MOVFF  5F5,619
0351E:  MOVFF  5F4,618
03522:  CALL   1A62
03526:  MOVFF  00,5FC
0352A:  MOVFF  01,5FD
0352E:  MOVFF  02,5FE
03532:  MOVFF  03,5FF
03536:  MOVFF  03,617
0353A:  MOVFF  02,616
0353E:  MOVFF  01,615
03542:  MOVFF  00,614
03546:  MOVLB  6
03548:  CLRF   x1B
0354A:  CLRF   x1A
0354C:  CLRF   x19
0354E:  CLRF   x18
03550:  MOVLB  0
03552:  CALL   25C4
03556:  BNC   35A0
03558:  MOVFF  5F3,617
0355C:  MOVFF  5F2,616
03560:  MOVFF  5F1,615
03564:  MOVFF  5F0,614
03568:  MOVFF  5F7,61B
0356C:  MOVFF  5F6,61A
03570:  MOVFF  5F5,619
03574:  MOVFF  5F4,618
03578:  CALL   1A62
0357C:  MOVFF  00,5FC
03580:  MOVFF  01,5FD
03584:  MOVFF  02,5FE
03588:  MOVFF  03,5FF
0358C:  MOVFF  03,603
03590:  MOVFF  02,602
03594:  MOVFF  01,601
03598:  MOVFF  00,600
0359C:  BRA    34A4
0359E:  BRA    35E6
035A0:  MOVFF  5F3,617
035A4:  MOVFF  5F2,616
035A8:  MOVFF  5F1,615
035AC:  MOVFF  5F0,614
035B0:  MOVFF  5F7,61B
035B4:  MOVFF  5F6,61A
035B8:  MOVFF  5F5,619
035BC:  MOVFF  5F4,618
035C0:  CALL   1A62
035C4:  MOVFF  00,5FC
035C8:  MOVFF  01,5FD
035CC:  MOVFF  02,5FE
035D0:  MOVFF  03,5FF
035D4:  MOVFF  03,603
035D8:  MOVFF  02,602
035DC:  MOVFF  01,601
035E0:  MOVFF  00,600
035E4:  BRA    34C2
035E6:  MOVFF  03,5FB
035EA:  MOVFF  02,5FA
035EE:  MOVFF  01,5F9
035F2:  MOVFF  00,5F8
....................       return(x-(i*y)); 
035F6:  MOVFF  5FB,617
035FA:  MOVFF  5FA,616
035FE:  MOVFF  5F9,615
03602:  MOVFF  5F8,614
03606:  MOVFF  5F7,61B
0360A:  MOVFF  5F6,61A
0360E:  MOVFF  5F5,619
03612:  MOVFF  5F4,618
03616:  RCALL  3044
03618:  BSF    FD8.1
0361A:  MOVFF  5F3,61B
0361E:  MOVFF  5F2,61A
03622:  MOVFF  5F1,619
03626:  MOVFF  5F0,618
0362A:  MOVFF  03,61F
0362E:  MOVFF  02,61E
03632:  MOVFF  01,61D
03636:  MOVFF  00,61C
0363A:  CALL   1BC0
0363E:  BRA    3642
....................    } 
....................    else 
03640:  BRA    3642
....................    { 
....................    #ifdef _ERRNO 
....................    { 
....................       errno=EDOM; 
....................    } 
....................    #endif 
....................    } 
.................... } 
03642:  RETLW  00
.................... //Overloaded function for fmod() for PCD 
.................... // Overloaded function fmod() for data type - Float48 
.................... #if defined(__PCD__) 
.................... float48 fmod(float48 x,float48 y) 
.................... { 
....................    float48 i; 
....................    if (y!=0.0) 
....................    { 
....................       i=(x/y < 0.0)? ceil(x/y): floor(x/y); 
....................       return(x-(i*y)); 
....................    } 
....................    else 
....................    { 
....................    #ifdef _ERRNO 
....................    { 
....................       errno=EDOM; 
....................    } 
....................    #endif 
....................    } 
.................... } 
.................... // Overloaded function fmod() for data type - Float64 
.................... float64 fmod(float64 x,float64 y) 
.................... { 
....................    float64 i; 
....................    if (y!=0.0) 
....................    { 
....................       i=(x/y < 0.0)? ceil(x/y): floor(x/y); 
....................       return(x-(i*y)); 
....................    } 
....................    else 
....................    { 
....................    #ifdef _ERRNO 
....................    { 
....................       errno=EDOM; 
....................    } 
....................    #endif 
....................    } 
.................... } 
.................... #endif 
.................... //////////////////// Exponential and logarithmic functions //////////////////// 
.................... //////////////////////////////////////////////////////////////////////////// 
.................... //   float exp(float x) 
.................... //////////////////////////////////////////////////////////////////////////// 
.................... // Description : returns the value (e^x) 
.................... // Date : N/A 
.................... // 
.................... #define LN2 0.6931471805599453 
....................  
.................... float const pe[6] = {0.000207455774, 0.00127100575, 0.00965065093, 
....................                      0.0554965651,  0.240227138,  0.693147172}; 
....................  
....................  
.................... float32 exp(float32 x) 
.................... { 
....................    float32 y, res, r; 
....................    #if defined(__PCD__) 
....................    int8 data1; 
....................    #endif 
....................    signed int8 n; 
....................    int1 s; 
....................    #ifdef _ERRNO 
....................    if(x > 88.722838) 
....................    { 
....................       errno=ERANGE; 
....................       return(0); 
....................    } 
....................    #endif 
....................    n = (signed int16)(x/LN2); 
*
03B6E:  MOVFF  5F7,617
03B72:  MOVFF  5F6,616
03B76:  MOVFF  5F5,615
03B7A:  MOVFF  5F4,614
03B7E:  MOVLW  18
03B80:  MOVLB  6
03B82:  MOVWF  x1B
03B84:  MOVLW  72
03B86:  MOVWF  x1A
03B88:  MOVLW  31
03B8A:  MOVWF  x19
03B8C:  MOVLW  7E
03B8E:  MOVWF  x18
03B90:  MOVLB  0
03B92:  CALL   1A62
03B96:  MOVFF  03,617
03B9A:  MOVFF  02,616
03B9E:  MOVFF  01,615
03BA2:  MOVFF  00,614
03BA6:  CALL   3008
03BAA:  MOVFF  01,604
....................    s = 0; 
03BAE:  MOVLB  6
03BB0:  BCF    x05.0
....................    y = x; 
03BB2:  MOVFF  5F7,5FB
03BB6:  MOVFF  5F6,5FA
03BBA:  MOVFF  5F5,5F9
03BBE:  MOVFF  5F4,5F8
....................  
....................    if (x < 0) 
03BC2:  MOVFF  5F7,617
03BC6:  MOVFF  5F6,616
03BCA:  MOVFF  5F5,615
03BCE:  MOVFF  5F4,614
03BD2:  CLRF   x1B
03BD4:  CLRF   x1A
03BD6:  CLRF   x19
03BD8:  CLRF   x18
03BDA:  MOVLB  0
03BDC:  CALL   25C4
03BE0:  BNC   3BF0
....................    { 
....................       s = 1; 
03BE2:  MOVLB  6
03BE4:  BSF    x05.0
....................       n = -n; 
03BE6:  NEGF   x04
....................       y = -y; 
03BE8:  MOVLB  5
03BEA:  MOVF   xF9,W
03BEC:  XORLW  80
03BEE:  MOVWF  xF9
....................    } 
....................  
....................    res = 0.0; 
03BF0:  MOVLB  5
03BF2:  CLRF   xFF
03BF4:  CLRF   xFE
03BF6:  CLRF   xFD
03BF8:  CLRF   xFC
.................... #if !defined(__PCD__) 
....................    *((unsigned int8 *)(&res)) = n + 0x7F; 
03BFA:  MOVLW  05
03BFC:  MOVLB  6
03BFE:  MOVWF  x07
03C00:  MOVLW  FC
03C02:  MOVWF  FE9
03C04:  MOVFF  607,FEA
03C08:  MOVLW  7F
03C0A:  ADDWF  x04,W
03C0C:  MOVWF  FEF
.................... #endif 
....................  
.................... #if defined(__PCD__)  // Takes care of IEEE format for PCD 
....................    data1 = n+0x7F; 
....................    if(bit_test(data1,0)) 
....................    bit_set(*(((unsigned int8 *)(&res)+2)),7); 
....................    rotate_right(&data1,1); 
....................    bit_clear(data1,7); 
....................    *(((unsigned int8 *)(&res)+3)) = data1; 
.................... #endif 
....................  
....................    y = y/LN2 - (float32)n; 
03C0E:  MOVFF  5FB,617
03C12:  MOVFF  5FA,616
03C16:  MOVFF  5F9,615
03C1A:  MOVFF  5F8,614
03C1E:  MOVLW  18
03C20:  MOVWF  x1B
03C22:  MOVLW  72
03C24:  MOVWF  x1A
03C26:  MOVLW  31
03C28:  MOVWF  x19
03C2A:  MOVLW  7E
03C2C:  MOVWF  x18
03C2E:  MOVLB  0
03C30:  CALL   1A62
03C34:  MOVFF  00,606
03C38:  MOVFF  01,607
03C3C:  MOVFF  02,608
03C40:  MOVFF  03,609
03C44:  MOVLB  6
03C46:  CLRF   x0B
03C48:  MOVFF  604,60A
03C4C:  BTFSC  x0A.7
03C4E:  DECF   x0B,F
03C50:  MOVLB  0
03C52:  RCALL  3644
03C54:  BSF    FD8.1
03C56:  MOVFF  609,61B
03C5A:  MOVFF  608,61A
03C5E:  MOVFF  607,619
03C62:  MOVFF  606,618
03C66:  MOVFF  03,61F
03C6A:  MOVFF  02,61E
03C6E:  MOVFF  01,61D
03C72:  MOVFF  00,61C
03C76:  CALL   1BC0
03C7A:  MOVFF  03,5FB
03C7E:  MOVFF  02,5FA
03C82:  MOVFF  01,5F9
03C86:  MOVFF  00,5F8
....................  
....................    r = pe[0]*y + pe[1]; 
03C8A:  MOVLW  7C
03C8C:  MOVLB  6
03C8E:  MOVWF  x17
03C90:  MOVLW  88
03C92:  MOVWF  x16
03C94:  MOVLW  59
03C96:  MOVWF  x15
03C98:  MOVLW  72
03C9A:  MOVWF  x14
03C9C:  MOVFF  5FB,61B
03CA0:  MOVFF  5FA,61A
03CA4:  MOVFF  5F9,619
03CA8:  MOVFF  5F8,618
03CAC:  MOVLB  0
03CAE:  CALL   3044
03CB2:  MOVFF  00,606
03CB6:  MOVFF  01,607
03CBA:  MOVFF  02,608
03CBE:  MOVFF  03,609
03CC2:  BCF    FD8.1
03CC4:  MOVFF  03,61B
03CC8:  MOVFF  02,61A
03CCC:  MOVFF  01,619
03CD0:  MOVFF  00,618
03CD4:  MOVLW  E0
03CD6:  MOVLB  6
03CD8:  MOVWF  x1F
03CDA:  MOVLW  97
03CDC:  MOVWF  x1E
03CDE:  MOVLW  26
03CE0:  MOVWF  x1D
03CE2:  MOVLW  75
03CE4:  MOVWF  x1C
03CE6:  MOVLB  0
03CE8:  CALL   1BC0
03CEC:  MOVFF  03,603
03CF0:  MOVFF  02,602
03CF4:  MOVFF  01,601
03CF8:  MOVFF  00,600
....................    r = r*y + pe[2]; 
03CFC:  MOVFF  603,617
03D00:  MOVFF  602,616
03D04:  MOVFF  601,615
03D08:  MOVFF  600,614
03D0C:  MOVFF  5FB,61B
03D10:  MOVFF  5FA,61A
03D14:  MOVFF  5F9,619
03D18:  MOVFF  5F8,618
03D1C:  CALL   3044
03D20:  MOVFF  00,606
03D24:  MOVFF  01,607
03D28:  MOVFF  02,608
03D2C:  MOVFF  03,609
03D30:  BCF    FD8.1
03D32:  MOVFF  03,61B
03D36:  MOVFF  02,61A
03D3A:  MOVFF  01,619
03D3E:  MOVFF  00,618
03D42:  MOVLW  C4
03D44:  MOVLB  6
03D46:  MOVWF  x1F
03D48:  MOVLW  1D
03D4A:  MOVWF  x1E
03D4C:  MOVLW  1E
03D4E:  MOVWF  x1D
03D50:  MOVLW  78
03D52:  MOVWF  x1C
03D54:  MOVLB  0
03D56:  CALL   1BC0
03D5A:  MOVFF  03,603
03D5E:  MOVFF  02,602
03D62:  MOVFF  01,601
03D66:  MOVFF  00,600
....................    r = r*y + pe[3]; 
03D6A:  MOVFF  603,617
03D6E:  MOVFF  602,616
03D72:  MOVFF  601,615
03D76:  MOVFF  600,614
03D7A:  MOVFF  5FB,61B
03D7E:  MOVFF  5FA,61A
03D82:  MOVFF  5F9,619
03D86:  MOVFF  5F8,618
03D8A:  CALL   3044
03D8E:  MOVFF  00,606
03D92:  MOVFF  01,607
03D96:  MOVFF  02,608
03D9A:  MOVFF  03,609
03D9E:  BCF    FD8.1
03DA0:  MOVFF  03,61B
03DA4:  MOVFF  02,61A
03DA8:  MOVFF  01,619
03DAC:  MOVFF  00,618
03DB0:  MOVLW  5E
03DB2:  MOVLB  6
03DB4:  MOVWF  x1F
03DB6:  MOVLW  50
03DB8:  MOVWF  x1E
03DBA:  MOVLW  63
03DBC:  MOVWF  x1D
03DBE:  MOVLW  7A
03DC0:  MOVWF  x1C
03DC2:  MOVLB  0
03DC4:  CALL   1BC0
03DC8:  MOVFF  03,603
03DCC:  MOVFF  02,602
03DD0:  MOVFF  01,601
03DD4:  MOVFF  00,600
....................    r = r*y + pe[4]; 
03DD8:  MOVFF  603,617
03DDC:  MOVFF  602,616
03DE0:  MOVFF  601,615
03DE4:  MOVFF  600,614
03DE8:  MOVFF  5FB,61B
03DEC:  MOVFF  5FA,61A
03DF0:  MOVFF  5F9,619
03DF4:  MOVFF  5F8,618
03DF8:  CALL   3044
03DFC:  MOVFF  00,606
03E00:  MOVFF  01,607
03E04:  MOVFF  02,608
03E08:  MOVFF  03,609
03E0C:  BCF    FD8.1
03E0E:  MOVFF  03,61B
03E12:  MOVFF  02,61A
03E16:  MOVFF  01,619
03E1A:  MOVFF  00,618
03E1E:  MOVLW  1A
03E20:  MOVLB  6
03E22:  MOVWF  x1F
03E24:  MOVLW  FE
03E26:  MOVWF  x1E
03E28:  MOVLW  75
03E2A:  MOVWF  x1D
03E2C:  MOVLW  7C
03E2E:  MOVWF  x1C
03E30:  MOVLB  0
03E32:  CALL   1BC0
03E36:  MOVFF  03,603
03E3A:  MOVFF  02,602
03E3E:  MOVFF  01,601
03E42:  MOVFF  00,600
....................    r = r*y + pe[5]; 
03E46:  MOVFF  603,617
03E4A:  MOVFF  602,616
03E4E:  MOVFF  601,615
03E52:  MOVFF  600,614
03E56:  MOVFF  5FB,61B
03E5A:  MOVFF  5FA,61A
03E5E:  MOVFF  5F9,619
03E62:  MOVFF  5F8,618
03E66:  CALL   3044
03E6A:  MOVFF  00,606
03E6E:  MOVFF  01,607
03E72:  MOVFF  02,608
03E76:  MOVFF  03,609
03E7A:  BCF    FD8.1
03E7C:  MOVFF  03,61B
03E80:  MOVFF  02,61A
03E84:  MOVFF  01,619
03E88:  MOVFF  00,618
03E8C:  MOVLW  18
03E8E:  MOVLB  6
03E90:  MOVWF  x1F
03E92:  MOVLW  72
03E94:  MOVWF  x1E
03E96:  MOVLW  31
03E98:  MOVWF  x1D
03E9A:  MOVLW  7E
03E9C:  MOVWF  x1C
03E9E:  MOVLB  0
03EA0:  CALL   1BC0
03EA4:  MOVFF  03,603
03EA8:  MOVFF  02,602
03EAC:  MOVFF  01,601
03EB0:  MOVFF  00,600
....................  
....................    res = res*(1.0 + y*r); 
03EB4:  MOVFF  5FB,617
03EB8:  MOVFF  5FA,616
03EBC:  MOVFF  5F9,615
03EC0:  MOVFF  5F8,614
03EC4:  MOVFF  603,61B
03EC8:  MOVFF  602,61A
03ECC:  MOVFF  601,619
03ED0:  MOVFF  600,618
03ED4:  CALL   3044
03ED8:  BCF    FD8.1
03EDA:  MOVLB  6
03EDC:  CLRF   x1B
03EDE:  CLRF   x1A
03EE0:  CLRF   x19
03EE2:  MOVLW  7F
03EE4:  MOVWF  x18
03EE6:  MOVFF  03,61F
03EEA:  MOVFF  02,61E
03EEE:  MOVFF  01,61D
03EF2:  MOVFF  00,61C
03EF6:  MOVLB  0
03EF8:  CALL   1BC0
03EFC:  MOVFF  5FF,617
03F00:  MOVFF  5FE,616
03F04:  MOVFF  5FD,615
03F08:  MOVFF  5FC,614
03F0C:  MOVFF  03,61B
03F10:  MOVFF  02,61A
03F14:  MOVFF  01,619
03F18:  MOVFF  00,618
03F1C:  CALL   3044
03F20:  MOVFF  03,5FF
03F24:  MOVFF  02,5FE
03F28:  MOVFF  01,5FD
03F2C:  MOVFF  00,5FC
....................  
....................    if (s) 
03F30:  MOVLB  6
03F32:  BTFSS  x05.0
03F34:  BRA    3F68
....................       res = 1.0/res; 
03F36:  CLRF   x17
03F38:  CLRF   x16
03F3A:  CLRF   x15
03F3C:  MOVLW  7F
03F3E:  MOVWF  x14
03F40:  MOVFF  5FF,61B
03F44:  MOVFF  5FE,61A
03F48:  MOVFF  5FD,619
03F4C:  MOVFF  5FC,618
03F50:  MOVLB  0
03F52:  CALL   1A62
03F56:  MOVFF  03,5FF
03F5A:  MOVFF  02,5FE
03F5E:  MOVFF  01,5FD
03F62:  MOVFF  00,5FC
03F66:  MOVLB  6
....................    return(res); 
03F68:  MOVFF  5FC,00
03F6C:  MOVFF  5FD,01
03F70:  MOVFF  5FE,02
03F74:  MOVFF  5FF,03
.................... } 
03F78:  MOVLB  0
03F7A:  RETLW  00
....................  
....................  
.................... //Overloaded function for exp() for PCD 
.................... // Overloaded function exp() for data type - Float48 
.................... #if defined(__PCD__) 
.................... float48 exp(float48 x) 
.................... { 
....................    float48 y, res, r; 
....................    int8 data1; 
....................    signed int8 n; 
....................    int1 s; 
....................    #ifdef _ERRNO 
....................    if(x > 88.722838) 
....................    { 
....................       errno=ERANGE; 
....................       return(0); 
....................    } 
....................    #endif 
....................    n = (signed int16)(x/LN2); 
....................    s = 0; 
....................    y = x; 
....................  
....................    if (x < 0) 
....................    { 
....................       s = 1; 
....................       n = -n; 
....................       y = -y; 
....................    } 
....................  
....................    res = 0.0; 
....................  
....................    data1 = n+0x7F; 
....................    if(bit_test(data1,0)) 
....................    bit_set(*(((unsigned int8 *)(&res)+4)),7); 
....................    rotate_right(&data1,1); 
....................    bit_clear(data1,7); 
....................    *(((unsigned int8 *)(&res)+5)) = data1; 
....................  
....................    y = y/LN2 - (float48)n; 
....................  
....................    r = pe[0]*y + pe[1]; 
....................    r = r*y + pe[2]; 
....................    r = r*y + pe[3]; 
....................    r = r*y + pe[4]; 
....................    r = r*y + pe[5]; 
....................  
....................    res = res*(1.0 + y*r); 
....................  
....................    if (s) 
....................       res = 1.0/res; 
....................    return(res); 
.................... } 
....................  
.................... // Overloaded function exp() for data type - Float64 
.................... float64 exp(float64 x) 
.................... { 
....................    float64 y, res, r; 
....................    unsigned int16 data1, data2; 
....................    unsigned int16 *p; 
....................    signed int16 n; 
....................    int1 s; 
....................    #ifdef _ERRNO 
....................    if(x > 709.7827128) 
....................    { 
....................       errno=ERANGE; 
....................       return(0); 
....................    } 
....................    #endif 
....................    n = (signed int16)(x/LN2); 
....................    s = 0; 
....................    y = x; 
....................  
....................    if (x < 0) 
....................    { 
....................       s = 1; 
....................       n = -n; 
....................       y = -y; 
....................    } 
....................  
....................    res = 0.0; 
....................  
.................... #if !defined(__PCD__) 
....................    *((unsigned int16 *)(&res)) = n + 0x7F; 
.................... #endif 
....................    p= (((unsigned int16 *)(&res))+3); 
....................    data1 = *p; 
....................    data2 = *p;    
....................    data1 = n + 0x3FF; 
....................    data1 = data1 <<4; 
....................    if(bit_test(data2,15)) 
....................    bit_set(data1,15); 
....................    data2 = data2 & 0x000F; 
....................    data1 ^= data2; 
....................  
....................    *(((unsigned int16 *)(&res)+3)) = data1; 
....................  
....................  
....................    y = y/LN2 - (float64)n; 
....................  
....................    r = pe[0]*y + pe[1]; 
....................    r = r*y + pe[2]; 
....................    r = r*y + pe[3]; 
....................    r = r*y + pe[4]; 
....................    r = r*y + pe[5]; 
....................  
....................    res = res*(1.0 + y*r); 
....................  
....................    if (s) 
....................       res = 1.0/res; 
....................    return(res); 
.................... } 
....................  
.................... #ENDIF 
....................  
....................  
.................... /************************************************************/ 
....................  
.................... float32 const pl[4] = {0.45145214, -9.0558803, 26.940971, -19.860189}; 
.................... float32 const ql[4] = {1.0000000,  -8.1354259, 16.780517, -9.9300943}; 
....................  
.................... //////////////////////////////////////////////////////////////////////////// 
.................... //   float log(float x) 
.................... //////////////////////////////////////////////////////////////////////////// 
.................... // Description : returns the the natural log of x 
.................... // Date : N/A 
.................... // 
.................... float32 log(float32 x) 
.................... { 
....................    float32 y, res, r, y2; 
....................    #if defined(__PCD__) 
....................    unsigned int8  data1,data2; 
....................    #endif 
....................    signed int8 n; 
....................    #ifdef _ERRNO 
....................    if(x <0) 
....................    { 
....................       errno=EDOM; 
....................    } 
....................    if(x ==0) 
....................    { 
....................       errno=ERANGE; 
....................       return(0); 
....................    } 
....................    #endif 
....................    y = x; 
*
03694:  MOVFF  5F7,5FB
03698:  MOVFF  5F6,5FA
0369C:  MOVFF  5F5,5F9
036A0:  MOVFF  5F4,5F8
....................  
....................    if (y != 1.0) 
036A4:  MOVFF  5FB,617
036A8:  MOVFF  5FA,616
036AC:  MOVFF  5F9,615
036B0:  MOVFF  5F8,614
036B4:  MOVLB  6
036B6:  CLRF   x1B
036B8:  CLRF   x1A
036BA:  CLRF   x19
036BC:  MOVLW  7F
036BE:  MOVWF  x18
036C0:  MOVLB  0
036C2:  CALL   25C4
036C6:  BTFSC  FD8.2
036C8:  BRA    3B50
....................    { 
.................... #if !defined(__PCD__) 
....................     *((unsigned int8 *)(&y)) = 0x7E;  
036CA:  MOVLW  05
036CC:  MOVLB  6
036CE:  MOVWF  x0A
036D0:  MOVLW  F8
036D2:  MOVWF  FE9
036D4:  MOVFF  60A,FEA
036D8:  MOVLW  7E
036DA:  MOVWF  FEF
.................... #endif 
....................  
.................... #if defined(__PCD__) // Takes care of IEEE format 
....................    data2 = *(((unsigned int8 *)(&y))+3); 
....................    *(((unsigned int8 *)(&y))+3) = 0x3F; 
....................    data1 = *(((unsigned int8 *)(&y))+2); 
....................    bit_clear(data1,7); 
....................    *(((unsigned int8 *)(&y))+2) = data1; 
....................    if(bit_test(data2,7)) 
....................    bit_set(*(((unsigned int8 *)(&y))+3),7); 
.................... #endif 
....................  
....................       y = (y - 1.0)/(y + 1.0); 
036DC:  BSF    FD8.1
036DE:  MOVFF  5FB,61B
036E2:  MOVFF  5FA,61A
036E6:  MOVFF  5F9,619
036EA:  MOVFF  5F8,618
036EE:  CLRF   x1F
036F0:  CLRF   x1E
036F2:  CLRF   x1D
036F4:  MOVLW  7F
036F6:  MOVWF  x1C
036F8:  MOVLB  0
036FA:  CALL   1BC0
036FE:  MOVFF  00,609
03702:  MOVFF  01,60A
03706:  MOVFF  02,60B
0370A:  MOVFF  03,60C
0370E:  BCF    FD8.1
03710:  MOVFF  5FB,61B
03714:  MOVFF  5FA,61A
03718:  MOVFF  5F9,619
0371C:  MOVFF  5F8,618
03720:  MOVLB  6
03722:  CLRF   x1F
03724:  CLRF   x1E
03726:  CLRF   x1D
03728:  MOVLW  7F
0372A:  MOVWF  x1C
0372C:  MOVLB  0
0372E:  CALL   1BC0
03732:  MOVFF  60C,617
03736:  MOVFF  60B,616
0373A:  MOVFF  60A,615
0373E:  MOVFF  609,614
03742:  MOVFF  03,61B
03746:  MOVFF  02,61A
0374A:  MOVFF  01,619
0374E:  MOVFF  00,618
03752:  CALL   1A62
03756:  MOVFF  03,5FB
0375A:  MOVFF  02,5FA
0375E:  MOVFF  01,5F9
03762:  MOVFF  00,5F8
....................  
....................       y2=y*y; 
03766:  MOVFF  5FB,617
0376A:  MOVFF  5FA,616
0376E:  MOVFF  5F9,615
03772:  MOVFF  5F8,614
03776:  MOVFF  5FB,61B
0377A:  MOVFF  5FA,61A
0377E:  MOVFF  5F9,619
03782:  MOVFF  5F8,618
03786:  RCALL  3044
03788:  MOVFF  03,607
0378C:  MOVFF  02,606
03790:  MOVFF  01,605
03794:  MOVFF  00,604
....................  
....................       res = pl[0]*y2 + pl[1]; 
03798:  MOVLW  BC
0379A:  MOVLB  6
0379C:  MOVWF  x17
0379E:  MOVLW  24
037A0:  MOVWF  x16
037A2:  MOVLW  67
037A4:  MOVWF  x15
037A6:  MOVLW  7D
037A8:  MOVWF  x14
037AA:  MOVFF  607,61B
037AE:  MOVFF  606,61A
037B2:  MOVFF  605,619
037B6:  MOVFF  604,618
037BA:  MOVLB  0
037BC:  RCALL  3044
037BE:  MOVFF  00,609
037C2:  MOVFF  01,60A
037C6:  MOVFF  02,60B
037CA:  MOVFF  03,60C
037CE:  BCF    FD8.1
037D0:  MOVFF  03,61B
037D4:  MOVFF  02,61A
037D8:  MOVFF  01,619
037DC:  MOVFF  00,618
037E0:  MOVLW  E3
037E2:  MOVLB  6
037E4:  MOVWF  x1F
037E6:  MOVLW  E4
037E8:  MOVWF  x1E
037EA:  MOVLW  90
037EC:  MOVWF  x1D
037EE:  MOVLW  82
037F0:  MOVWF  x1C
037F2:  MOVLB  0
037F4:  CALL   1BC0
037F8:  MOVFF  03,5FF
037FC:  MOVFF  02,5FE
03800:  MOVFF  01,5FD
03804:  MOVFF  00,5FC
....................       res = res*y2 + pl[2]; 
03808:  MOVFF  5FF,617
0380C:  MOVFF  5FE,616
03810:  MOVFF  5FD,615
03814:  MOVFF  5FC,614
03818:  MOVFF  607,61B
0381C:  MOVFF  606,61A
03820:  MOVFF  605,619
03824:  MOVFF  604,618
03828:  RCALL  3044
0382A:  MOVFF  00,609
0382E:  MOVFF  01,60A
03832:  MOVFF  02,60B
03836:  MOVFF  03,60C
0383A:  BCF    FD8.1
0383C:  MOVFF  03,61B
03840:  MOVFF  02,61A
03844:  MOVFF  01,619
03848:  MOVFF  00,618
0384C:  MOVLW  1C
0384E:  MOVLB  6
03850:  MOVWF  x1F
03852:  MOVLW  87
03854:  MOVWF  x1E
03856:  MOVLW  57
03858:  MOVWF  x1D
0385A:  MOVLW  83
0385C:  MOVWF  x1C
0385E:  MOVLB  0
03860:  CALL   1BC0
03864:  MOVFF  03,5FF
03868:  MOVFF  02,5FE
0386C:  MOVFF  01,5FD
03870:  MOVFF  00,5FC
....................       res = res*y2 + pl[3]; 
03874:  MOVFF  5FF,617
03878:  MOVFF  5FE,616
0387C:  MOVFF  5FD,615
03880:  MOVFF  5FC,614
03884:  MOVFF  607,61B
03888:  MOVFF  606,61A
0388C:  MOVFF  605,619
03890:  MOVFF  604,618
03894:  CALL   3044
03898:  MOVFF  00,609
0389C:  MOVFF  01,60A
038A0:  MOVFF  02,60B
038A4:  MOVFF  03,60C
038A8:  BCF    FD8.1
038AA:  MOVFF  03,61B
038AE:  MOVFF  02,61A
038B2:  MOVFF  01,619
038B6:  MOVFF  00,618
038BA:  MOVLW  AB
038BC:  MOVLB  6
038BE:  MOVWF  x1F
038C0:  MOVLW  E1
038C2:  MOVWF  x1E
038C4:  MOVLW  9E
038C6:  MOVWF  x1D
038C8:  MOVLW  83
038CA:  MOVWF  x1C
038CC:  MOVLB  0
038CE:  CALL   1BC0
038D2:  MOVFF  03,5FF
038D6:  MOVFF  02,5FE
038DA:  MOVFF  01,5FD
038DE:  MOVFF  00,5FC
....................  
....................       r = ql[0]*y2 + ql[1]; 
038E2:  MOVLB  6
038E4:  CLRF   x17
038E6:  CLRF   x16
038E8:  CLRF   x15
038EA:  MOVLW  7F
038EC:  MOVWF  x14
038EE:  MOVFF  607,61B
038F2:  MOVFF  606,61A
038F6:  MOVFF  605,619
038FA:  MOVFF  604,618
038FE:  MOVLB  0
03900:  CALL   3044
03904:  MOVFF  00,609
03908:  MOVFF  01,60A
0390C:  MOVFF  02,60B
03910:  MOVFF  03,60C
03914:  BCF    FD8.1
03916:  MOVFF  03,61B
0391A:  MOVFF  02,61A
0391E:  MOVFF  01,619
03922:  MOVFF  00,618
03926:  MOVLW  B4
03928:  MOVLB  6
0392A:  MOVWF  x1F
0392C:  MOVLW  2A
0392E:  MOVWF  x1E
03930:  MOVLW  82
03932:  MOVWF  x1D
03934:  MOVWF  x1C
03936:  MOVLB  0
03938:  CALL   1BC0
0393C:  MOVFF  03,603
03940:  MOVFF  02,602
03944:  MOVFF  01,601
03948:  MOVFF  00,600
....................       r = r*y2 + ql[2]; 
0394C:  MOVFF  603,617
03950:  MOVFF  602,616
03954:  MOVFF  601,615
03958:  MOVFF  600,614
0395C:  MOVFF  607,61B
03960:  MOVFF  606,61A
03964:  MOVFF  605,619
03968:  MOVFF  604,618
0396C:  CALL   3044
03970:  MOVFF  00,609
03974:  MOVFF  01,60A
03978:  MOVFF  02,60B
0397C:  MOVFF  03,60C
03980:  BCF    FD8.1
03982:  MOVFF  03,61B
03986:  MOVFF  02,61A
0398A:  MOVFF  01,619
0398E:  MOVFF  00,618
03992:  MOVLW  80
03994:  MOVLB  6
03996:  MOVWF  x1F
03998:  MOVLW  3E
0399A:  MOVWF  x1E
0399C:  MOVLW  06
0399E:  MOVWF  x1D
039A0:  MOVLW  83
039A2:  MOVWF  x1C
039A4:  MOVLB  0
039A6:  CALL   1BC0
039AA:  MOVFF  03,603
039AE:  MOVFF  02,602
039B2:  MOVFF  01,601
039B6:  MOVFF  00,600
....................       r = r*y2 + ql[3]; 
039BA:  MOVFF  603,617
039BE:  MOVFF  602,616
039C2:  MOVFF  601,615
039C6:  MOVFF  600,614
039CA:  MOVFF  607,61B
039CE:  MOVFF  606,61A
039D2:  MOVFF  605,619
039D6:  MOVFF  604,618
039DA:  CALL   3044
039DE:  MOVFF  00,609
039E2:  MOVFF  01,60A
039E6:  MOVFF  02,60B
039EA:  MOVFF  03,60C
039EE:  BCF    FD8.1
039F0:  MOVFF  03,61B
039F4:  MOVFF  02,61A
039F8:  MOVFF  01,619
039FC:  MOVFF  00,618
03A00:  MOVLW  AB
03A02:  MOVLB  6
03A04:  MOVWF  x1F
03A06:  MOVLW  E1
03A08:  MOVWF  x1E
03A0A:  MOVLW  9E
03A0C:  MOVWF  x1D
03A0E:  MOVLW  82
03A10:  MOVWF  x1C
03A12:  MOVLB  0
03A14:  CALL   1BC0
03A18:  MOVFF  03,603
03A1C:  MOVFF  02,602
03A20:  MOVFF  01,601
03A24:  MOVFF  00,600
....................  
....................       res = y*res/r; 
03A28:  MOVFF  5FB,617
03A2C:  MOVFF  5FA,616
03A30:  MOVFF  5F9,615
03A34:  MOVFF  5F8,614
03A38:  MOVFF  5FF,61B
03A3C:  MOVFF  5FE,61A
03A40:  MOVFF  5FD,619
03A44:  MOVFF  5FC,618
03A48:  CALL   3044
03A4C:  MOVFF  00,609
03A50:  MOVFF  01,60A
03A54:  MOVFF  02,60B
03A58:  MOVFF  03,60C
03A5C:  MOVFF  03,617
03A60:  MOVFF  02,616
03A64:  MOVFF  01,615
03A68:  MOVFF  00,614
03A6C:  MOVFF  603,61B
03A70:  MOVFF  602,61A
03A74:  MOVFF  601,619
03A78:  MOVFF  600,618
03A7C:  CALL   1A62
03A80:  MOVFF  03,5FF
03A84:  MOVFF  02,5FE
03A88:  MOVFF  01,5FD
03A8C:  MOVFF  00,5FC
.................... #if !defined(__PCD__) 
....................       n = *((unsigned int8 *)(&x)) - 0x7E; 
03A90:  MOVLW  05
03A92:  MOVLB  6
03A94:  MOVWF  x0A
03A96:  MOVLW  F4
03A98:  MOVWF  FE9
03A9A:  MOVFF  60A,FEA
03A9E:  MOVLW  7E
03AA0:  SUBWF  FEF,W
03AA2:  MOVWF  x08
.................... #endif 
.................... #if defined(__PCD__)  
....................     data1 = *(((unsigned int8 *)(&x)+3)); 
....................     rotate_left(&data1,1); 
....................     data2 = *(((unsigned int8 *)(&x)+2)); 
....................     if(bit_test (data2,7)) 
....................       bit_set(data1,0); 
....................     n = data1 - 0x7E; 
.................... #endif 
....................  
....................       if (n<0)  
03AA4:  BTFSC  x08.7
03AA6:  BRA    3AAA
03AA8:  BRA    3AD2
....................          r = -(float32)-n; 
03AAA:  MOVLW  00
03AAC:  BSF    FD8.0
03AAE:  SUBFWB x08,W
03AB0:  CLRF   x0B
03AB2:  MOVWF  x0A
03AB4:  BTFSC  x0A.7
03AB6:  DECF   x0B,F
03AB8:  MOVLB  0
03ABA:  RCALL  3644
03ABC:  MOVFF  00,600
03AC0:  MOVF   01,W
03AC2:  XORLW  80
03AC4:  MOVLB  6
03AC6:  MOVWF  x01
03AC8:  MOVFF  02,602
03ACC:  MOVFF  03,603
....................       else 
03AD0:  BRA    3AF2
....................          r = (float32)n; 
03AD2:  CLRF   x0B
03AD4:  MOVFF  608,60A
03AD8:  BTFSC  x0A.7
03ADA:  DECF   x0B,F
03ADC:  MOVLB  0
03ADE:  RCALL  3644
03AE0:  MOVFF  03,603
03AE4:  MOVFF  02,602
03AE8:  MOVFF  01,601
03AEC:  MOVFF  00,600
03AF0:  MOVLB  6
....................  
....................       res += r*LN2; 
03AF2:  MOVFF  603,617
03AF6:  MOVFF  602,616
03AFA:  MOVFF  601,615
03AFE:  MOVFF  600,614
03B02:  MOVLW  18
03B04:  MOVWF  x1B
03B06:  MOVLW  72
03B08:  MOVWF  x1A
03B0A:  MOVLW  31
03B0C:  MOVWF  x19
03B0E:  MOVLW  7E
03B10:  MOVWF  x18
03B12:  MOVLB  0
03B14:  CALL   3044
03B18:  BCF    FD8.1
03B1A:  MOVFF  5FF,61B
03B1E:  MOVFF  5FE,61A
03B22:  MOVFF  5FD,619
03B26:  MOVFF  5FC,618
03B2A:  MOVFF  03,61F
03B2E:  MOVFF  02,61E
03B32:  MOVFF  01,61D
03B36:  MOVFF  00,61C
03B3A:  CALL   1BC0
03B3E:  MOVFF  03,5FF
03B42:  MOVFF  02,5FE
03B46:  MOVFF  01,5FD
03B4A:  MOVFF  00,5FC
....................    } 
....................  
....................    else 
03B4E:  BRA    3B5C
....................       res = 0.0; 
03B50:  MOVLB  5
03B52:  CLRF   xFF
03B54:  CLRF   xFE
03B56:  CLRF   xFD
03B58:  CLRF   xFC
03B5A:  MOVLB  0
....................  
....................    return(res); 
03B5C:  MOVFF  5FC,00
03B60:  MOVFF  5FD,01
03B64:  MOVFF  5FE,02
03B68:  MOVFF  5FF,03
.................... } 
03B6C:  RETLW  00
....................  
.................... //Overloaded function for log() for PCD 
.................... // Overloaded function log() for data type - Float48 
.................... #if defined(__PCD__) 
.................... float48 log(float48 x) 
.................... { 
....................    float48 y, res, r, y2; 
....................    unsigned int8  data1,data2; 
....................    signed int8 n; 
....................    #ifdef _ERRNO 
....................    if(x <0) 
....................    { 
....................       errno=EDOM; 
....................    } 
....................    if(x ==0) 
....................    { 
....................       errno=ERANGE; 
....................       return(0); 
....................    } 
....................    #endif 
....................    y = x; 
....................  
....................    if (y != 1.0) 
....................    { 
....................     
....................    #if !defined(__PCD__) 
....................        *((unsigned int8 *)(&y)) = 0x7E;  
....................    #endif 
....................       data2 = *(((unsigned int8 *)(&y))+5); 
....................       *(((unsigned int8 *)(&y))+5) = 0x3F; 
....................       data1 = *(((unsigned int8 *)(&y))+4); 
....................       bit_clear(data1,7); 
....................       *(((unsigned int8 *)(&y))+4) = data1; 
....................    
....................       if(bit_test(data2,7)) 
....................          bit_set(*(((unsigned int8 *)(&y))+4),7); 
....................       y = (y - 1.0)/(y + 1.0); 
....................  
....................       y2=y*y; 
....................  
....................       res = pl[0]*y2 + pl[1]; 
....................       res = res*y2 + pl[2]; 
....................       res = res*y2 + pl[3]; 
....................  
....................       r = ql[0]*y2 + ql[1]; 
....................       r = r*y2 + ql[2]; 
....................       r = r*y2 + ql[3]; 
....................  
....................       res = y*res/r; 
....................  
....................     data1 = *(((unsigned int8 *)(&x)+5)); 
....................     rotate_left(&data1,1); 
....................     data2 = *(((unsigned int8 *)(&x)+4)); 
....................     if(bit_test (data2,7)) 
....................        bit_set(data1,0); 
....................       
....................     n = data1 - 0x7E; 
....................  
....................       if (n<0) 
....................          r = -(float48)-n; 
....................       else 
....................          r = (float48)n; 
....................  
....................       res += r*LN2; 
....................    } 
....................  
....................    else 
....................       res = 0.0; 
....................  
....................    return(res); 
.................... } 
....................  
.................... // Overloaded function log() for data type - Float48 
.................... #if defined(__PCD__) 
.................... float32 const pl_64[4] = {0.45145214, -9.0558803, 26.940971, -19.860189}; 
.................... float32 const ql_64[4] = {1.0000000,  -8.1354259, 16.780517, -9.9300943}; 
.................... #endif 
.................... float64 log(float64 x) 
.................... { 
....................    float64 y, res, r, y2; 
....................    unsigned int16  data1,data2; 
....................    unsigned int16 *p; 
....................    signed int16 n; 
....................    #ifdef _ERRNO 
....................    if(x <0) 
....................    { 
....................       errno=EDOM; 
....................    } 
....................    if(x ==0) 
....................    { 
....................       errno=ERANGE; 
....................       return(0); 
....................    } 
....................    #endif 
....................    y = x; 
....................  
....................    if (y != 1.0) 
....................    { 
....................    #if !defined(__PCD__) 
....................        *((unsigned int8 *)(&y)) = 0x7E;  
....................    #endif 
....................       p= (((unsigned int16 *)(&y))+3); 
....................       data1 = *p; 
....................       data2 = *p; 
....................       data1 = 0x3FE; 
....................       data1 = data1 <<4; 
....................       if(bit_test (data2,15)) 
....................       bit_set(data1,15); 
....................       data2 = data2 & 0x000F; 
....................       data1 ^=data2; 
....................  
....................       *p = data1; 
....................  
....................       y = (y - 1.0)/(y + 1.0); 
....................  
....................       y2=y*y; 
....................  
....................       res = pl_64[0]*y2 + pl_64[1]; 
....................       res = res*y2 + pl_64[2]; 
....................       res = res*y2 + pl_64[3]; 
....................  
....................       r = ql_64[0]*y2 + ql_64[1]; 
....................       r = r*y2 + ql_64[2]; 
....................       r = r*y2 + ql_64[3]; 
....................  
....................       res = y*res/r; 
....................   
....................       p= (((unsigned int16 *)(&x))+3); 
....................       data1 = *p; 
....................       bit_clear(data1,15); 
....................       data1 = data1 >>4;     
....................       n = data1 - 0x3FE; 
....................  
....................  
....................       if (n<0) 
....................          r = -(float64)-n; 
....................       else 
....................          r = (float64)n; 
....................  
....................       res += r*LN2; 
....................    } 
....................  
....................    else 
....................       res = 0.0; 
....................  
....................    return(res); 
.................... } 
.................... #endif 
....................  
....................  
.................... #define LN10 2.3025850929940456 
....................  
.................... //////////////////////////////////////////////////////////////////////////// 
.................... //   float log10(float x) 
.................... //////////////////////////////////////////////////////////////////////////// 
.................... // Description : returns the the log base 10 of x 
.................... // Date : N/A 
.................... // 
.................... float32 log10(float32 x) 
.................... { 
....................    float32 r; 
....................  
....................    r = log(x); 
....................    r = r/LN10; 
....................    return(r); 
.................... } 
....................  
.................... //Overloaded functions for log10() for PCD 
.................... // Overloaded function log10() for data type - Float48 
.................... #if defined(__PCD__) 
.................... float48 log10(float48 x) 
.................... { 
....................    float48 r; 
....................  
....................    r = log(x); 
....................    r = r/LN10; 
....................    return(r); 
.................... } 
....................  
.................... // Overloaded function log10() for data type - Float64 
.................... float64 log10(float64 x) 
.................... { 
....................    float64 r; 
....................  
....................    r = log(x); 
....................    r = r/LN10; 
....................    return(r); 
.................... } 
.................... #endif 
.................... //////////////////////////////////////////////////////////////////////////// 
.................... //   float modf(float x) 
.................... //////////////////////////////////////////////////////////////////////////// 
.................... // Description :breaks the argument value int integral and fractional parts, 
.................... // ach of which have the same sign as the argument.  It stores the integral part 
.................... // as a float in the object pointed to by the iptr 
.................... // Returns : returns the signed fractional part of value. 
.................... // Date : N/A 
.................... // 
....................  
.................... float32 modf(float32 value,float32 *iptr) 
.................... { 
....................    *iptr=(value < 0.0)? ceil(value): floor(value); 
....................    return(value - *iptr); 
.................... } 
.................... //Overloaded functions for modf() for PCD 
.................... // Overloaded function modf() for data type - Float48 
.................... #if defined(__PCD__) 
.................... float48 modf(float48 value,float48 *iptr) 
.................... { 
....................    *iptr=(value < 0.0)? ceil(value): floor(value); 
....................    return(value - *iptr); 
.................... } 
.................... // Overloaded function modf() for data type - Float64 
.................... float64 modf(float64 value,float64 *iptr) 
.................... { 
....................    *iptr=(value < 0.0)? ceil(value): floor(value); 
....................    return(value - *iptr); 
.................... } 
.................... #endif 
....................  
.................... //////////////////////////////////////////////////////////////////////////// 
.................... //   float pwr(float x,float y) 
.................... //////////////////////////////////////////////////////////////////////////// 
.................... // Description : returns the value (x^y) 
.................... // Date : N/A 
.................... // Note : 0 is returned when the function will generate an imaginary number 
.................... // 
.................... float32 pwr(float32 x,float32 y) 
.................... { 
....................    if(0 > x && fmod(y, 1) == 0) { 
....................       if(fmod(y, 2) == 0) { 
....................          return (exp(log(-x) * y)); 
....................       } else { 
....................          return (-exp(log(-x) * y)); 
....................       } 
....................    } else if(0 > x && fmod(y, 1) != 0) { 
....................       return 0; 
....................    } else { 
....................       if(x != 0 || 0 >= y) { 
....................          return (exp(log(x) * y)); 
....................       } 
....................    } 
.................... } 
.................... //Overloaded functions for pwr() for PCD 
.................... // Overloaded function pwr() for data type - Float48 
.................... #if defined(__PCD__) 
.................... float48 pwr(float48 x,float48 y) 
.................... { 
....................    if(0 > x && fmod(y, 1) == 0) { 
....................       if(fmod(y, 2) == 0) { 
....................          return (exp(log(-x) * y)); 
....................       } else { 
....................          return (-exp(log(-x) * y)); 
....................       } 
....................    } else if(0 > x && fmod(y, 1) != 0) { 
....................       return 0; 
....................    } else { 
....................       if(x != 0 || 0 >= y) { 
....................          return (exp(log(x) * y)); 
....................       } 
....................    } 
.................... } 
.................... // Overloaded function pwr() for data type - Float64 
.................... float64 pwr(float64 x,float64 y) 
.................... { 
....................    if(0 > x && fmod(y, 1) == 0) { 
....................       if(fmod(y, 2) == 0) { 
....................          return (exp(log(-x) * y)); 
....................       } else { 
....................          return (-exp(log(-x) * y)); 
....................       } 
....................    } else if(0 > x && fmod(y, 1) != 0) { 
....................       return 0; 
....................    } else { 
....................       if(x != 0 || 0 >= y) { 
....................          return (exp(log(x) * y)); 
....................       } 
....................    } 
.................... } 
.................... #endif 
....................  
.................... //////////////////// Power functions //////////////////// 
....................  
.................... //////////////////////////////////////////////////////////////////////////// 
.................... //   float pow(float x,float y) 
.................... //////////////////////////////////////////////////////////////////////////// 
.................... // Description : returns the value (x^y) 
.................... // Date : N/A 
.................... // Note : 0 is returned when the function will generate an imaginary number 
.................... // 
.................... float32 pow(float32 x,float32 y) 
.................... { 
....................    if(0 > x && fmod(y, 1) == 0) { 
*
03F7C:  MOVFF  5EB,617
03F80:  MOVFF  5EA,616
03F84:  MOVFF  5E9,615
03F88:  MOVFF  5E8,614
03F8C:  MOVLB  6
03F8E:  CLRF   x1B
03F90:  CLRF   x1A
03F92:  CLRF   x19
03F94:  CLRF   x18
03F96:  MOVLB  0
03F98:  CALL   25C4
03F9C:  BTFSS  FD8.0
03F9E:  BRA    4152
03FA0:  MOVFF  5EF,5F3
03FA4:  MOVFF  5EE,5F2
03FA8:  MOVFF  5ED,5F1
03FAC:  MOVFF  5EC,5F0
03FB0:  MOVLB  5
03FB2:  CLRF   xF7
03FB4:  CLRF   xF6
03FB6:  CLRF   xF5
03FB8:  MOVLW  7F
03FBA:  MOVWF  xF4
03FBC:  MOVLB  0
03FBE:  CALL   34DE
03FC2:  MOVFF  00,5F0
03FC6:  MOVFF  01,5F1
03FCA:  MOVFF  02,5F2
03FCE:  MOVFF  03,5F3
03FD2:  MOVFF  03,617
03FD6:  MOVFF  02,616
03FDA:  MOVFF  01,615
03FDE:  MOVFF  00,614
03FE2:  MOVLB  6
03FE4:  CLRF   x1B
03FE6:  CLRF   x1A
03FE8:  CLRF   x19
03FEA:  CLRF   x18
03FEC:  MOVLB  0
03FEE:  CALL   25C4
03FF2:  BTFSS  FD8.2
03FF4:  BRA    4152
....................       if(fmod(y, 2) == 0) { 
03FF6:  MOVFF  5EF,5F3
03FFA:  MOVFF  5EE,5F2
03FFE:  MOVFF  5ED,5F1
04002:  MOVFF  5EC,5F0
04006:  MOVLB  5
04008:  CLRF   xF7
0400A:  CLRF   xF6
0400C:  CLRF   xF5
0400E:  MOVLW  80
04010:  MOVWF  xF4
04012:  MOVLB  0
04014:  CALL   34DE
04018:  MOVFF  00,5F0
0401C:  MOVFF  01,5F1
04020:  MOVFF  02,5F2
04024:  MOVFF  03,5F3
04028:  MOVFF  03,617
0402C:  MOVFF  02,616
04030:  MOVFF  01,615
04034:  MOVFF  00,614
04038:  MOVLB  6
0403A:  CLRF   x1B
0403C:  CLRF   x1A
0403E:  CLRF   x19
04040:  CLRF   x18
04042:  MOVLB  0
04044:  CALL   25C4
04048:  BNZ   40CC
....................          return (exp(log(-x) * y)); 
0404A:  MOVFF  5E8,5F0
0404E:  MOVLB  5
04050:  MOVF   xE9,W
04052:  XORLW  80
04054:  MOVWF  xF1
04056:  MOVFF  5EA,5F2
0405A:  MOVFF  5EB,5F3
0405E:  MOVFF  5EB,5F7
04062:  MOVFF  5EA,5F6
04066:  MOVWF  xF5
04068:  MOVFF  5E8,5F4
0406C:  MOVLB  0
0406E:  CALL   3694
04072:  MOVFF  00,5F0
04076:  MOVFF  01,5F1
0407A:  MOVFF  02,5F2
0407E:  MOVFF  03,5F3
04082:  MOVFF  03,617
04086:  MOVFF  02,616
0408A:  MOVFF  01,615
0408E:  MOVFF  00,614
04092:  MOVFF  5EF,61B
04096:  MOVFF  5EE,61A
0409A:  MOVFF  5ED,619
0409E:  MOVFF  5EC,618
040A2:  CALL   3044
040A6:  MOVFF  00,5F0
040AA:  MOVFF  01,5F1
040AE:  MOVFF  02,5F2
040B2:  MOVFF  03,5F3
040B6:  MOVFF  03,5F7
040BA:  MOVFF  02,5F6
040BE:  MOVFF  01,5F5
040C2:  MOVFF  00,5F4
040C6:  RCALL  3B6E
040C8:  BRA    4286
....................       } else { 
040CA:  BRA    4150
....................          return (-exp(log(-x) * y)); 
040CC:  MOVFF  5E8,5F0
040D0:  MOVLB  5
040D2:  MOVF   xE9,W
040D4:  XORLW  80
040D6:  MOVWF  xF1
040D8:  MOVFF  5EA,5F2
040DC:  MOVFF  5EB,5F3
040E0:  MOVFF  5EB,5F7
040E4:  MOVFF  5EA,5F6
040E8:  MOVWF  xF5
040EA:  MOVFF  5E8,5F4
040EE:  MOVLB  0
040F0:  CALL   3694
040F4:  MOVFF  00,5F0
040F8:  MOVFF  01,5F1
040FC:  MOVFF  02,5F2
04100:  MOVFF  03,5F3
04104:  MOVFF  03,617
04108:  MOVFF  02,616
0410C:  MOVFF  01,615
04110:  MOVFF  00,614
04114:  MOVFF  5EF,61B
04118:  MOVFF  5EE,61A
0411C:  MOVFF  5ED,619
04120:  MOVFF  5EC,618
04124:  CALL   3044
04128:  MOVFF  00,5F0
0412C:  MOVFF  01,5F1
04130:  MOVFF  02,5F2
04134:  MOVFF  03,5F3
04138:  MOVFF  03,5F7
0413C:  MOVFF  02,5F6
04140:  MOVFF  01,5F5
04144:  MOVFF  00,5F4
04148:  RCALL  3B6E
0414A:  MOVLW  80
0414C:  XORWF  01,F
0414E:  BRA    4286
....................       } 
....................    } else if(0 > x && fmod(y, 1) != 0) { 
04150:  BRA    4286
04152:  MOVFF  5EB,617
04156:  MOVFF  5EA,616
0415A:  MOVFF  5E9,615
0415E:  MOVFF  5E8,614
04162:  MOVLB  6
04164:  CLRF   x1B
04166:  CLRF   x1A
04168:  CLRF   x19
0416A:  CLRF   x18
0416C:  MOVLB  0
0416E:  CALL   25C4
04172:  BNC   41D4
04174:  MOVFF  5EF,5F3
04178:  MOVFF  5EE,5F2
0417C:  MOVFF  5ED,5F1
04180:  MOVFF  5EC,5F0
04184:  MOVLB  5
04186:  CLRF   xF7
04188:  CLRF   xF6
0418A:  CLRF   xF5
0418C:  MOVLW  7F
0418E:  MOVWF  xF4
04190:  MOVLB  0
04192:  CALL   34DE
04196:  MOVFF  00,5F0
0419A:  MOVFF  01,5F1
0419E:  MOVFF  02,5F2
041A2:  MOVFF  03,5F3
041A6:  MOVFF  03,617
041AA:  MOVFF  02,616
041AE:  MOVFF  01,615
041B2:  MOVFF  00,614
041B6:  MOVLB  6
041B8:  CLRF   x1B
041BA:  CLRF   x1A
041BC:  CLRF   x19
041BE:  CLRF   x18
041C0:  MOVLB  0
041C2:  CALL   25C4
041C6:  BZ    41D4
....................       return 0; 
041C8:  CLRF   00
041CA:  CLRF   01
041CC:  CLRF   02
041CE:  CLRF   03
041D0:  BRA    4286
....................    } else { 
041D2:  BRA    4286
....................       if(x != 0 || 0 >= y) { 
041D4:  MOVFF  5EB,617
041D8:  MOVFF  5EA,616
041DC:  MOVFF  5E9,615
041E0:  MOVFF  5E8,614
041E4:  MOVLB  6
041E6:  CLRF   x1B
041E8:  CLRF   x1A
041EA:  CLRF   x19
041EC:  CLRF   x18
041EE:  MOVLB  0
041F0:  CALL   25C4
041F4:  BNZ   421A
041F6:  MOVFF  5EF,617
041FA:  MOVFF  5EE,616
041FE:  MOVFF  5ED,615
04202:  MOVFF  5EC,614
04206:  MOVLB  6
04208:  CLRF   x1B
0420A:  CLRF   x1A
0420C:  CLRF   x19
0420E:  CLRF   x18
04210:  MOVLB  0
04212:  CALL   25C4
04216:  BC    421A
04218:  BNZ   4286
....................          return (exp(log(x) * y)); 
0421A:  MOVFF  5EB,5F7
0421E:  MOVFF  5EA,5F6
04222:  MOVFF  5E9,5F5
04226:  MOVFF  5E8,5F4
0422A:  CALL   3694
0422E:  MOVFF  00,5F0
04232:  MOVFF  01,5F1
04236:  MOVFF  02,5F2
0423A:  MOVFF  03,5F3
0423E:  MOVFF  03,617
04242:  MOVFF  02,616
04246:  MOVFF  01,615
0424A:  MOVFF  00,614
0424E:  MOVFF  5EF,61B
04252:  MOVFF  5EE,61A
04256:  MOVFF  5ED,619
0425A:  MOVFF  5EC,618
0425E:  CALL   3044
04262:  MOVFF  00,5F0
04266:  MOVFF  01,5F1
0426A:  MOVFF  02,5F2
0426E:  MOVFF  03,5F3
04272:  MOVFF  03,5F7
04276:  MOVFF  02,5F6
0427A:  MOVFF  01,5F5
0427E:  MOVFF  00,5F4
04282:  RCALL  3B6E
04284:  BRA    4286
....................       } 
....................    } 
.................... } 
04286:  RETLW  00
.................... //Overloaded functions for pow() for PCD 
.................... // Overloaded function for pow() data type - Float48 
.................... #if defined(__PCD__) 
.................... float48 pow(float48 x,float48 y) 
.................... { 
....................    if(0 > x && fmod(y, 1) == 0) { 
....................       if(fmod(y, 2) == 0) { 
....................          return (exp(log(-x) * y)); 
....................       } else { 
....................          return (-exp(log(-x) * y)); 
....................       } 
....................    } else if(0 > x && fmod(y, 1) != 0) { 
....................       return 0; 
....................    } else { 
....................       if(x != 0 || 0 >= y) { 
....................          return (exp(log(x) * y)); 
....................       } 
....................    } 
.................... } 
....................  
.................... // Overloaded function pow() for data type - Float64 
.................... float64 pow(float64 x,float64 y) 
.................... { 
....................    if(0 > x && fmod(y, 1) == 0) { 
....................       if(fmod(y, 2) == 0) { 
....................          return (exp(log(-x) * y)); 
....................       } else { 
....................          return (-exp(log(-x) * y)); 
....................       } 
....................    } else if(0 > x && fmod(y, 1) != 0) { 
....................       return 0; 
....................    } else { 
....................       if(x != 0 || 0 >= y) { 
....................          return (exp(log(x) * y)); 
....................       } 
....................    } 
.................... } 
.................... #endif 
....................  
.................... //////////////////////////////////////////////////////////////////////////// 
.................... //   float sqrt(float x) 
.................... //////////////////////////////////////////////////////////////////////////// 
.................... // Description : returns the square root of x 
.................... // Date : N/A 
.................... // 
.................... float32 sqrt(float32 x) 
.................... { 
....................    float32 y, res; 
....................    #if defined(__PCD__) 
....................    unsigned int16 data1,data2; 
....................    #endif 
....................    BYTE *p; 
....................  
....................    #ifdef _ERRNO 
....................    if(x < 0) 
....................    { 
....................       errno=EDOM; 
....................    } 
....................    #endif 
....................  
....................    if( x<=0.0) 
....................       return(0.0); 
....................  
....................    y=x; 
....................     
....................    #if !defined(__PCD__) 
....................     p=&y; 
....................    (*p)=(BYTE)((((unsigned int16)(*p)) + 127) >> 1); 
....................    #endif 
....................     
....................    #if defined(__PCD__) 
....................     p = (((unsigned int8 *)(&y))+3); 
....................     data1 = *(((unsigned int8 *)(&y))+3); 
....................     data2 = *(((unsigned int8 *)(&y))+2); 
....................     rotate_left(&data1,1);     
....................     if(bit_test(data2,7))     
....................     bit_set(data1,0);     
....................     data1 = ((data1+127) >>1); 
....................     bit_clear(data2,7); 
....................     if(bit_test(data1,0)) 
....................     bit_set(data2,7); 
....................     data1 = data1 >>1; 
....................     *(((unsigned int8 *)(&y))+3) = data1; 
....................     *(((unsigned int8 *)(&y))+2) = data2; 
....................      
....................   #endif 
....................  
....................    do { 
....................       res=y; 
....................       y+=(x/y); 
....................  
....................       #if !defined(__PCD__) 
....................      (*p)--; 
....................    #endif 
....................     
....................    #if defined(__PCD__) 
....................     data1 = *(((unsigned int8 *)(&y))+3); 
....................     data2 = *(((unsigned int8 *)(&y))+2); 
....................     rotate_left(&data1,1); 
....................     if(bit_test(data2,7)) 
....................     bit_set(data1,0);     
....................     data1--; 
....................     bit_clear(data2,7); 
....................     if(bit_test(data1,0)) 
....................     bit_set(data2,7); 
....................     data1 = data1 >>1; 
....................     *(((unsigned int8 *)(&y))+3) = data1; 
....................     *(((unsigned int8 *)(&y))+2) = data2; 
....................      
....................   #endif 
....................    } while(res != y); 
....................  
....................    return(res); 
.................... } 
.................... //Overloaded functions for sqrt() for PCD 
.................... // Overloaded function sqrt() for data type - Float48 
.................... #if defined(__PCD__) 
.................... float48 sqrt(float48 x) 
.................... { 
....................    float48 y, res; 
....................    unsigned int16 data1,data2; 
....................    BYTE *p; 
....................  
....................    #ifdef _ERRNO 
....................    if(x < 0) 
....................    { 
....................       errno=EDOM; 
....................    } 
....................    #endif 
....................  
....................    if( x<=0.0) 
....................       return(0.0); 
....................  
....................    y=x; 
....................     
....................    #if !defined(__PCD__) 
....................     p=&y; 
....................    (*p)=(BYTE)((((unsigned int16)(*p)) + 127) >> 1); 
....................    #endif 
....................     
....................    #if defined(__PCD__) 
....................     p = (((unsigned int8 *)(&y))+5); 
....................     data1 = *(((unsigned int8 *)(&y))+5); 
....................     data2 = *(((unsigned int8 *)(&y))+4); 
....................     rotate_left(&data1,1); 
....................     if(bit_test(data2,7)) 
....................     bit_set(data1,0);     
....................     data1 = ((data1+127) >>1); 
....................     bit_clear(data2,7); 
....................     if(bit_test(data1,0)) 
....................     bit_set(data2,7); 
....................     data1 = data1 >>1; 
....................     *(((unsigned int8 *)(&y))+5) = data1; 
....................     *(((unsigned int8 *)(&y))+4) = data2; 
....................      
....................   #endif 
....................  
....................    do { 
....................       res=y; 
....................       y+=(x/y); 
....................  
....................       #if !defined(__PCD__) 
....................      (*p)--; 
....................    #endif 
....................     
....................     data1 = *(((unsigned int8 *)(&y))+5); 
....................     data2 = *(((unsigned int8 *)(&y))+4); 
....................     rotate_left(&data1,1); 
....................     if(bit_test(data2,7)) 
....................     bit_set(data1,0);     
....................     data1--; 
....................     bit_clear(data2,7); 
....................     if(bit_test(data1,0)) 
....................     bit_set(data2,7); 
....................     data1 = data1 >>1; 
....................     *(((unsigned int8 *)(&y))+5) = data1; 
....................     *(((unsigned int8 *)(&y))+4) = data2; 
....................      
....................    } while(res != y); 
....................  
....................    return(res); 
.................... } 
....................  
.................... // Overloaded function sqrt() for data type - Float64 
.................... float64 sqrt(float64 x) 
.................... { 
....................    float64 y, res; 
....................    unsigned int16 *p; 
....................    unsigned int16 temp1,temp2; 
....................  
....................    #ifdef _ERRNO 
....................    if(x < 0) 
....................    { 
....................       errno=EDOM; 
....................    } 
....................    #endif 
....................  
....................    if( x<=0.0) 
....................       return(0.0); 
....................  
....................    y=x; 
....................    p= (((unsigned int16 *)(&y))+3); 
....................    temp1 = *p; 
....................    temp2 = *p; 
....................    bit_clear(temp1,15); 
....................    temp1 = (temp1>>4)+1023; 
....................    temp1 = temp1 >> 1; 
....................    temp1 = (temp1<<4) & 0xFFF0; 
....................    if(bit_test(temp2,15)) 
....................    bit_set(temp1,15); 
....................    temp2 = temp2 & 0x000F; 
....................    temp1 ^= temp2; 
....................     
....................    (*p) = temp1; 
....................     
....................    do { 
....................       res=y; 
....................       y+=(x/y); 
....................      temp1 = *p; 
....................      temp2 = *p; 
....................      bit_clear(temp1,15); 
....................      temp1 = (temp1>>4); 
....................      temp1--; 
....................      temp1 = (temp1<<4) & 0xFFF0; 
....................      if(bit_test(temp2,15)) 
....................      bit_set(temp1,15); 
....................      temp2 = temp2 & 0x000F; 
....................      temp1 ^= temp2; 
....................      (*p) = temp1; 
....................  
....................    } while(res != y); 
....................  
....................    return(res); 
.................... } 
.................... #endif 
....................  
.................... ////////////////////////////// Trig Functions ////////////////////////////// 
.................... #ifdef PI_DIV_BY_TWO 
.................... #undef PI_DIV_BY_TWO 
.................... #endif 
.................... #define PI_DIV_BY_TWO   1.5707963267948966 
.................... #ifdef TWOBYPI 
.................... #undef TWOBYPI 
.................... #define TWOBYPI          0.6366197723675813 
.................... #endif 
.................... //////////////////////////////////////////////////////////////////////////// 
.................... //   float cos(float x) 
.................... //////////////////////////////////////////////////////////////////////////// 
.................... // Description : returns the cosine value of the angle x, which is in radian 
.................... // Date : 9/20/2001 
.................... // 
.................... float32 cos(float32 x) 
.................... { 
....................    float32 y, t, t2 = 1.0; 
....................    unsigned int8 quad, i; 
....................    float32 frac; 
....................    float32 p[6] = {                    //by the series definition for cosine 
....................       -0.5,                            // sum ( ( (-1)^n * x^2n )/(2n)! ) 
....................        0.04166666666667, 
....................       -0.00138888888889, 
....................        0.00002480158730, 
....................       -0.00000027557319, 
....................        0.00000000208767, 
....................       //-0.00000000001147, 
....................       // 0.00000000000005 
....................    }; 
....................  
....................    if (x < 0) x = -x;                  // absolute value of input 
....................  
....................    quad = (unsigned int8)(x / PI_DIV_BY_TWO);    // quadrant 
....................    frac = (x / PI_DIV_BY_TWO) - quad;  // fractional part of input 
....................    quad = quad % 4;                    // quadrant (0 to 3) 
....................  
....................    if (quad == 0 || quad == 2) 
....................       t = frac * PI_DIV_BY_TWO; 
....................    else if (quad == 1) 
....................       t = (1-frac) * PI_DIV_BY_TWO; 
....................    else // should be 3 
....................       t = (frac-1) * PI_DIV_BY_TWO; 
....................  
....................    y = 1.0; 
....................    t = t * t; 
....................    for (i = 0; i <= 5; i++) 
....................    { 
....................       t2 = t2 * t; 
....................       y = y + p[i] * t2; 
....................    } 
....................  
....................    if (quad == 2 || quad == 1) 
....................       y = -y;  // correct sign 
....................  
....................    return (y); 
.................... } 
....................  
....................  
.................... //Overloaded functions for cos() for PCD 
.................... // Overloaded function cos() for data type - Float48 
.................... #if defined(__PCD__) 
.................... float48 cos(float48 x) 
.................... { 
....................    float48 y, t, t2 = 1.0; 
....................    unsigned int8 quad, i; 
....................    float48 frac; 
....................    float48 p[6] = {                    //by the series definition for cosine 
....................       -0.5,                            // sum ( ( (-1)^n * x^2n )/(2n)! ) 
....................        0.04166666666667, 
....................       -0.00138888888889, 
....................        0.00002480158730, 
....................       -0.00000027557319, 
....................        0.00000000208767, 
....................       //-0.00000000001147, 
....................       // 0.00000000000005 
....................    }; 
....................  
....................    if (x < 0) x = -x;                  // absolute value of input 
....................  
....................    quad = (unsigned int8)(x / PI_DIV_BY_TWO);    // quadrant 
....................    frac = (x / PI_DIV_BY_TWO) - quad;  // fractional part of input 
....................    quad = quad % 4;                    // quadrant (0 to 3) 
....................  
....................    if (quad == 0 || quad == 2) 
....................       t = frac * PI_DIV_BY_TWO; 
....................    else if (quad == 1) 
....................       t = (1-frac) * PI_DIV_BY_TWO; 
....................    else // should be 3 
....................       t = (frac-1) * PI_DIV_BY_TWO; 
....................  
....................    y = 0.999999999781; 
....................    t = t * t; 
....................    for (i = 0; i <= 5; i++) 
....................    { 
....................       t2 = t2 * t; 
....................       y = y + p[i] * t2; 
....................    } 
....................  
....................    if (quad == 2 || quad == 1) 
....................       y = -y;  // correct sign 
....................  
....................    return (y); 
.................... } 
....................  
.................... // Overloaded function cos() for data type - Float48 
.................... float64 cos(float64 x) 
.................... { 
....................    float64 y, t, t2 = 1.0; 
....................    unsigned int8 quad, i; 
....................    float64 frac; 
....................    float64 p[6] = {                    //by the series definition for cosine 
....................       -0.5,                            // sum ( ( (-1)^n * x^2n )/(2n)! ) 
....................        0.04166666666667, 
....................       -0.00138888888889, 
....................        0.00002480158730, 
....................       -0.00000027557319, 
....................        0.00000000208767, 
....................       //-0.00000000001147, 
....................       // 0.00000000000005 
....................    }; 
....................  
....................    if (x < 0) x = -x;                  // absolute value of input 
....................  
....................    quad = (unsigned int8)(x / PI_DIV_BY_TWO);    // quadrant 
....................    frac = (x / PI_DIV_BY_TWO) - quad;  // fractional part of input 
....................    quad = quad % 4;                    // quadrant (0 to 3) 
....................  
....................    if (quad == 0 || quad == 2) 
....................       t = frac * PI_DIV_BY_TWO; 
....................    else if (quad == 1) 
....................       t = (1-frac) * PI_DIV_BY_TWO; 
....................    else // should be 3 
....................       t = (frac-1) * PI_DIV_BY_TWO; 
....................  
....................    y = 0.999999999781; 
....................    t = t * t; 
....................    for (i = 0; i <= 5; i++) 
....................    { 
....................       t2 = t2 * t; 
....................       y = y + p[i] * t2; 
....................    } 
....................  
....................    if (quad == 2 || quad == 1) 
....................       y = -y;  // correct sign 
....................  
....................    return (y); 
.................... } 
....................  
.................... #endif 
....................  
.................... //////////////////////////////////////////////////////////////////////////// 
.................... //   float sin(float x) 
.................... //////////////////////////////////////////////////////////////////////////// 
.................... // Description : returns the sine value of the angle x, which is in radian 
.................... // Date : 9/20/2001 
.................... // 
.................... float32 sin(float32 x) 
.................... { 
....................    return cos(x - PI_DIV_BY_TWO); 
.................... } 
....................  
.................... //Overloaded functions for sin() for PCD 
.................... // Overloaded function sin() for data type - Float48 
.................... #if defined(__PCD__) 
.................... float48 sin(float48 x) 
.................... { 
....................    return cos(x - PI_DIV_BY_TWO); 
.................... } 
....................  
.................... // Overloaded function sin() for data type - Float48 
.................... float64 sin(float64 x) 
.................... { 
....................    return cos(x - PI_DIV_BY_TWO); 
.................... } 
.................... #endif 
....................  
.................... //////////////////////////////////////////////////////////////////////////// 
.................... //   float tan(float x) 
.................... //////////////////////////////////////////////////////////////////////////// 
.................... // Description : returns the tangent value of the angle x, which is in radian 
.................... // Date : 9/20/2001 
.................... // 
.................... float32 tan(float32 x) 
.................... { 
....................    float32 c, s; 
....................  
....................    c = cos(x); 
....................    if (c == 0.0) 
....................       return (1.0e+36); 
....................  
....................    s = sin(x); 
....................    return(s/c); 
.................... } 
.................... //Overloaded functions for tan() for PCD 
.................... // Overloaded function tan() for data type - Float48 
.................... #if defined(__PCD__) 
.................... float48 tan(float48 x) 
.................... { 
....................    float48 c, s; 
....................  
....................    c = cos(x); 
....................    if (c == 0.0) 
....................       return (1.0e+36); 
....................  
....................    s = sin(x); 
....................    return(s/c); 
.................... } 
....................  
.................... // Overloaded function tan() for data type - Float48 
.................... float64 tan(float64 x) 
.................... { 
....................    float64 c, s; 
....................  
....................    c = cos(x); 
....................    if (c == 0.0) 
....................       return (1.0e+36); 
....................  
....................    s = sin(x); 
....................    return(s/c); 
.................... } 
.................... #endif 
....................  
.................... float32 const pas[3] = {0.49559947, -4.6145309, 5.6036290}; 
.................... float32 const qas[3] = {1.0000000,  -5.5484666, 5.6036290}; 
....................  
.................... float32 ASIN_COS(float32 x, unsigned int8 n) 
.................... { 
....................    float32 y, res, r, y2; 
....................    int1 s; 
....................    #ifdef _ERRNO 
....................    if(x <-1 || x > 1) 
....................    { 
....................       errno=EDOM; 
....................    } 
....................    #endif 
....................    s = 0; 
....................    y = x; 
....................  
....................    if (x < 0) 
....................    { 
....................       s = 1; 
....................       y = -y; 
....................    } 
....................  
....................    if (y > 0.5) 
....................    { 
....................       y = sqrt((1.0 - y)/2.0); 
....................       n += 2; 
....................    } 
....................  
....................    y2=y*y; 
....................  
....................    res = pas[0]*y2 + pas[1]; 
....................    res = res*y2 + pas[2]; 
....................  
....................    r = qas[0]*y2 + qas[1]; 
....................    r = r*y2 + qas[2]; 
....................  
....................    res = y*res/r; 
....................  
....................    if (n & 2)     // |x| > 0.5 
....................       res = PI_DIV_BY_TWO - 2.0*res; 
....................    if (s) 
....................       res = -res; 
....................    if (n & 1)           // take arccos 
....................       res = PI_DIV_BY_TWO - res; 
....................  
....................    return(res); 
.................... } 
....................  
.................... //Overloaded functions for ASIN_COS() for PCD 
.................... // Overloaded function ASIN_COS() for data type - Float48 
.................... #if defined(__PCD__) 
.................... float48 ASIN_COS(float48 x, unsigned int8 n) 
.................... { 
....................    float48 y, res, r, y2; 
....................    int1 s; 
....................    #ifdef _ERRNO 
....................    if(x <-1 || x > 1) 
....................    { 
....................       errno=EDOM; 
....................    } 
....................    #endif 
....................    s = 0; 
....................    y = x; 
....................  
....................    if (x < 0) 
....................    { 
....................       s = 1; 
....................       y = -y; 
....................    } 
....................  
....................    if (y > 0.5) 
....................    { 
....................       y = sqrt((1.0 - y)/2.0); 
....................       n += 2; 
....................    } 
....................  
....................    y2=y*y; 
....................  
....................    res = pas[0]*y2 + pas[1]; 
....................    res = res*y2 + pas[2]; 
....................  
....................    r = qas[0]*y2 + qas[1]; 
....................    r = r*y2 + qas[2]; 
....................  
....................    res = y*res/r; 
....................  
....................    if (n & 2)     // |x| > 0.5 
....................       res = PI_DIV_BY_TWO - 2.0*res; 
....................    if (s) 
....................       res = -res; 
....................    if (n & 1)           // take arccos 
....................       res = PI_DIV_BY_TWO - res; 
....................  
....................    return(res); 
.................... } 
....................  
.................... // Overloaded function ASIN_COS() for data type - Float64 
.................... float64 ASIN_COS(float64 x, unsigned int8 n) 
.................... { 
....................    float64 y, res, r, y2; 
....................    int1 s; 
....................    #ifdef _ERRNO 
....................    if(x <-1 || x > 1) 
....................    { 
....................       errno=EDOM; 
....................    } 
....................    #endif 
....................    s = 0; 
....................    y = x; 
....................  
....................    if (x < 0) 
....................    { 
....................       s = 1; 
....................       y = -y; 
....................    } 
....................  
....................    if (y > 0.5) 
....................    { 
....................       y = sqrt((1.0 - y)/2.0); 
....................       n += 2; 
....................    } 
....................  
....................    y2=y*y; 
....................  
....................    res = pas[0]*y2 + pas[1]; 
....................    res = res*y2 + pas[2]; 
....................  
....................    r = qas[0]*y2 + qas[1]; 
....................    r = r*y2 + qas[2]; 
....................  
....................    res = y*res/r; 
....................  
....................    if (n & 2)     // |x| > 0.5 
....................       res = PI_DIV_BY_TWO - 2.0*res; 
....................    if (s) 
....................       res = -res; 
....................    if (n & 1)           // take arccos 
....................       res = PI_DIV_BY_TWO - res; 
....................  
....................    return(res); 
.................... } 
.................... #endif 
....................  
.................... //////////////////////////////////////////////////////////////////////////// 
.................... //   float asin(float x) 
.................... //////////////////////////////////////////////////////////////////////////// 
.................... // Description : returns the arcsine value of the value x. 
.................... // Date : N/A 
.................... // 
.................... float32 asin(float32 x) 
.................... { 
....................    float32 r; 
....................  
....................    r = ASIN_COS(x, 0); 
....................    return(r); 
.................... } 
.................... //Overloaded functions for asin() for PCD 
.................... // Overloaded function asin() for data type - Float48 
.................... #if defined(__PCD__) 
.................... float48 asin(float48 x) 
.................... { 
....................    float48 r; 
....................  
....................    r = ASIN_COS(x, 0); 
....................    return(r); 
.................... } 
....................  
.................... // Overloaded function asin() for data type - Float64 
.................... float64 asin(float64 x) 
.................... { 
....................    float64 r; 
....................  
....................    r = ASIN_COS(x, 0); 
....................    return(r); 
.................... } 
.................... #endif 
....................  
.................... //////////////////////////////////////////////////////////////////////////// 
.................... //   float acos(float x) 
.................... //////////////////////////////////////////////////////////////////////////// 
.................... // Description : returns the arccosine value of the value x. 
.................... // Date : N/A 
.................... // 
.................... float32 acos(float32 x) 
.................... { 
....................    float32 r; 
....................  
....................    r = ASIN_COS(x, 1); 
....................    return(r); 
.................... } 
.................... //Overloaded functions for acos() for PCD 
.................... // Overloaded function acos() for data type - Float48 
.................... #if defined(__PCD__) 
.................... float48 acos(float48 x) 
.................... { 
....................    float48 r; 
....................  
....................    r = ASIN_COS(x, 1); 
....................    return(r); 
.................... } 
....................  
.................... // Overloaded function acos() for data type - Float64 
.................... float64 acos(float64 x) 
.................... { 
....................    float64 r; 
....................  
....................    r = ASIN_COS(x, 1); 
....................    return(r); 
.................... } 
.................... #endif 
....................  
.................... float32 const pat[4] = {0.17630401, 5.6710795, 22.376096, 19.818457}; 
.................... float32 const qat[4] = {1.0000000,  11.368190, 28.982246, 19.818457}; 
....................  
.................... //////////////////////////////////////////////////////////////////////////// 
.................... //   float atan(float x) 
.................... //////////////////////////////////////////////////////////////////////////// 
.................... // Description : returns the arctangent value of the value x. 
.................... // Date : N/A 
.................... // 
.................... float32 atan(float32 x) 
.................... { 
....................    float32 y, res, r; 
....................    int1 s, flag; 
....................  
....................    s = 0; 
....................    flag = 0; 
....................    y = x; 
....................  
....................    if (x < 0) 
....................    { 
....................       s = 1; 
....................       y = -y; 
....................    } 
....................  
....................    if (y > 1.0) 
....................    { 
....................       y = 1.0/y; 
....................       flag = 1; 
....................    } 
....................  
....................    res = pat[0]*y*y + pat[1]; 
....................    res = res*y*y + pat[2]; 
....................    res = res*y*y + pat[3]; 
....................  
....................    r = qat[0]*y*y + qat[1]; 
....................    r = r*y*y + qat[2]; 
....................    r = r*y*y + qat[3]; 
....................  
....................    res = y*res/r; 
....................  
....................  
....................    if (flag)                              // for |x| > 1 
....................       res = PI_DIV_BY_TWO - res; 
....................    if (s) 
....................       res = -res; 
....................  
....................    return(res); 
.................... } 
.................... //Overloaded functions for atan() for PCD 
.................... // Overloaded function atan() for data type - Float48 
.................... #if defined(__PCD__) 
.................... float48 atan(float48 x) 
.................... { 
....................    float48 y, res, r; 
....................    int1 s, flag; 
....................  
....................    s = 0; 
....................    flag = 0; 
....................    y = x; 
....................  
....................    if (x < 0) 
....................    { 
....................       s = 1; 
....................       y = -y; 
....................    } 
....................  
....................    if (y > 1.0) 
....................    { 
....................       y = 1.0/y; 
....................       flag = 1; 
....................    } 
....................  
....................    res = pat[0]*y*y + pat[1]; 
....................    res = res*y*y + pat[2]; 
....................    res = res*y*y + pat[3]; 
....................  
....................    r = qat[0]*y*y + qat[1]; 
....................    r = r*y*y + qat[2]; 
....................    r = r*y*y + qat[3]; 
....................  
....................    res = y*res/r; 
....................  
....................  
....................    if (flag)                              // for |x| > 1 
....................       res = PI_DIV_BY_TWO - res; 
....................    if (s) 
....................       res = -res; 
....................  
....................    return(res); 
.................... } 
....................  
.................... // Overloaded function atan() for data type - Float64 
.................... float64 atan(float64 x) 
.................... { 
....................    float64 y, res, r; 
....................    int1 s, flag; 
....................  
....................    s = 0; 
....................    flag = 0; 
....................    y = x; 
....................  
....................    if (x < 0) 
....................    { 
....................       s = 1; 
....................       y = -y; 
....................    } 
....................  
....................    if (y > 1.0) 
....................    { 
....................       y = 1.0/y; 
....................       flag = 1; 
....................    } 
....................  
....................    res = pat[0]*y*y + pat[1]; 
....................    res = res*y*y + pat[2]; 
....................    res = res*y*y + pat[3]; 
....................  
....................    r = qat[0]*y*y + qat[1]; 
....................    r = r*y*y + qat[2]; 
....................    r = r*y*y + qat[3]; 
....................  
....................    res = y*res/r; 
....................  
....................  
....................    if (flag)                              // for |x| > 1 
....................       res = PI_DIV_BY_TWO - res; 
....................    if (s) 
....................       res = -res; 
....................  
....................    return(res); 
.................... } 
.................... #endif 
....................  
.................... ///////////////////////////////////////////////////////////////////////////// 
.................... //   float atan2(float y, float x) 
.................... ///////////////////////////////////////////////////////////////////////////// 
.................... // Description :computes the principal value of arc tangent of y/x, using the 
.................... // signs of both the arguments to determine the quadrant of the return value 
.................... // Returns : returns the arc tangent of y/x. 
.................... // Date : N/A 
.................... // 
....................  
.................... float32 atan2(float32 y,float32 x) 
.................... { 
....................    float32 z; 
....................    int1 sign; 
....................    unsigned int8 quad; 
....................    sign=0; 
....................    quad=0; //quadrant 
....................    quad=((y<=0.0)?((x<=0.0)?3:4):((x<0.0)?2:1)); 
....................    if(y<0.0) 
....................    { 
....................       sign=1; 
....................       y=-y; 
....................    } 
....................    if(x<0.0) 
....................    { 
....................       x=-x; 
....................    } 
....................    if (x==0.0) 
....................    { 
....................       if(y==0.0) 
....................       { 
....................       #ifdef _ERRNO 
....................       { 
....................          errno=EDOM; 
....................       } 
....................       #endif 
....................       } 
....................       else 
....................       { 
....................          if(sign) 
....................          { 
....................          return (-(PI_DIV_BY_TWO)); 
....................          } 
....................          else 
....................          { 
....................          return (PI_DIV_BY_TWO); 
....................          } 
....................       } 
....................    } 
....................    else 
....................    { 
....................       z=y/x; 
....................       switch(quad) 
....................       { 
....................          case 1: 
....................          { 
....................             return atan(z); 
....................             break; 
....................          } 
....................          case 2: 
....................          { 
.................... //            return (atan(z)+PI_DIV_BY_TWO);  //2L3122 
....................             return (PI-atan(z)); 
....................             break; 
....................          } 
....................          case 3: 
....................          { 
....................             return (atan(z)-PI); 
....................             break; 
....................          } 
....................          case 4: 
....................          { 
....................             return (-atan(z)); 
....................             break; 
....................          } 
....................       } 
....................    } 
.................... } 
....................  
.................... //Overloaded functions for atan2() for PCD 
.................... // Overloaded function atan2() for data type - Float48 
.................... #if defined(__PCD__) 
.................... float48 atan2(float48 y,float48 x) 
.................... { 
....................    float48 z; 
....................    int1 sign; 
....................    unsigned int8 quad; 
....................    sign=0; 
....................    quad=0; //quadrant 
....................    quad=((y<=0.0)?((x<=0.0)?3:4):((x<0.0)?2:1)); 
....................    if(y<0.0) 
....................    { 
....................       sign=1; 
....................       y=-y; 
....................    } 
....................    if(x<0.0) 
....................    { 
....................       x=-x; 
....................    } 
....................    if (x==0.0) 
....................    { 
....................       if(y==0.0) 
....................       { 
....................       #ifdef _ERRNO 
....................       { 
....................          errno=EDOM; 
....................       } 
....................       #endif 
....................       } 
....................       else 
....................       { 
....................          if(sign) 
....................          { 
....................          return (-(PI_DIV_BY_TWO)); 
....................          } 
....................          else 
....................          { 
....................          return (PI_DIV_BY_TWO); 
....................          } 
....................       } 
....................    } 
....................    else 
....................    { 
....................       z=y/x; 
....................       switch(quad) 
....................       { 
....................          case 1: 
....................          { 
....................             return atan(z); 
....................             break; 
....................          } 
....................          case 2: 
....................          { 
.................... //            return (atan(z)+PI_DIV_BY_TWO);  //2L3122 
....................             return (PI-atan(z)); 
....................             break; 
....................          } 
....................          case 3: 
....................          { 
....................             return (atan(z)-PI); 
....................             break; 
....................          } 
....................          case 4: 
....................          { 
....................             return (-atan(z)); 
....................             break; 
....................          } 
....................       } 
....................    } 
.................... } 
....................  
.................... // Overloaded function atan2() for data type - Float64 
.................... float64 atan2(float64 y,float64 x) 
.................... { 
....................    float64 z; 
....................    int1 sign; 
....................    unsigned int8 quad; 
....................    sign=0; 
....................    quad=0; //quadrant 
....................    quad=((y<=0.0)?((x<=0.0)?3:4):((x<0.0)?2:1)); 
....................    if(y<0.0) 
....................    { 
....................       sign=1; 
....................       y=-y; 
....................    } 
....................    if(x<0.0) 
....................    { 
....................       x=-x; 
....................    } 
....................    if (x==0.0) 
....................    { 
....................       if(y==0.0) 
....................       { 
....................       #ifdef _ERRNO 
....................       { 
....................          errno=EDOM; 
....................       } 
....................       #endif 
....................       } 
....................       else 
....................       { 
....................          if(sign) 
....................          { 
....................          return (-(PI_DIV_BY_TWO)); 
....................          } 
....................          else 
....................          { 
....................          return (PI_DIV_BY_TWO); 
....................          } 
....................       } 
....................    } 
....................    else 
....................    { 
....................       z=y/x; 
....................       switch(quad) 
....................       { 
....................          case 1: 
....................          { 
....................             return atan(z); 
....................             break; 
....................          } 
....................          case 2: 
....................          { 
.................... //            return (atan(z)+PI_DIV_BY_TWO);  //2L3122 
....................             return (PI-atan(z)); 
....................             break; 
....................          } 
....................          case 3: 
....................          { 
....................             return (atan(z)-PI); 
....................             break; 
....................          } 
....................          case 4: 
....................          { 
....................             return (-atan(z)); 
....................             break; 
....................          } 
....................       } 
....................    } 
.................... } 
.................... #endif 
....................  
.................... //////////////////// Hyperbolic functions //////////////////// 
....................  
.................... //////////////////////////////////////////////////////////////////////////// 
.................... //   float cosh(float x) 
.................... //////////////////////////////////////////////////////////////////////////// 
.................... // Description : Computes the hyperbolic cosine value of x 
.................... // Returns : returns the hyperbolic cosine value of x 
.................... // Date : N/A 
.................... // 
....................  
.................... float32 cosh(float32 x) 
.................... { 
....................    return ((exp(x)+exp(-x))/2); 
.................... } 
.................... //Overloaded functions for cosh() for PCD 
.................... // Overloaded function cosh() for data type - Float48 
.................... #if defined(__PCD__) 
.................... float48 cosh(float48 x) 
.................... { 
....................    return ((exp(x)+exp(-x))/2); 
.................... } 
....................  
.................... // Overloaded function cosh() for data type - Float64 
.................... float64 cosh(float64 x) 
.................... { 
....................    return ((exp(x)+exp(-x))/2); 
.................... } 
.................... #endif 
....................  
.................... //////////////////////////////////////////////////////////////////////////// 
.................... //   float sinh(float x) 
.................... //////////////////////////////////////////////////////////////////////////// 
.................... // Description : Computes the hyperbolic sine value of x 
.................... // Returns : returns the hyperbolic sine value of x 
.................... // Date : N/A 
.................... // 
....................  
.................... float32 sinh(float32 x) 
.................... { 
....................  
....................    return ((exp(x) - exp(-x))/2); 
.................... } 
.................... //Overloaded functions for sinh() for PCD 
.................... // Overloaded function sinh() for data type - Float48 
.................... #if defined(__PCD__) 
.................... float48 sinh(float48 x) 
.................... { 
....................  
....................    return ((exp(x) - exp(-x))/2); 
.................... } 
....................  
.................... // Overloaded function sinh() for data type - Float48 
.................... float64 sinh(float64 x) 
.................... { 
....................  
....................    return ((exp(x) - exp(-x))/2); 
.................... } 
.................... #endif 
....................  
.................... //////////////////////////////////////////////////////////////////////////// 
.................... //   float tanh(float x) 
.................... //////////////////////////////////////////////////////////////////////////// 
.................... // Description : Computes the hyperbolic tangent value of x 
.................... // Returns : returns the hyperbolic tangent value of x 
.................... // Date : N/A 
.................... // 
....................  
.................... float32 tanh(float32 x) 
.................... { 
....................    return(sinh(x)/cosh(x)); 
.................... } 
.................... //Overloaded functions for tanh() for PCD 
.................... // Overloaded function tanh() for data type - Float48 
.................... #if defined(__PCD__) 
.................... float48 tanh(float48 x) 
.................... { 
....................    return(sinh(x)/cosh(x)); 
.................... } 
....................  
.................... // Overloaded function tanh() for data type - Float64 
.................... float64 tanh(float64 x) 
.................... { 
....................    return(sinh(x)/cosh(x)); 
.................... } 
.................... #endif 
....................  
.................... //////////////////////////////////////////////////////////////////////////// 
.................... //   float frexp(float x, signed int *exp) 
.................... //////////////////////////////////////////////////////////////////////////// 
.................... // Description : breaks a floating point number into a normalized fraction and an integral 
.................... // power of 2. It stores the integer in the signed int object pointed to by exp. 
.................... // Returns : returns the value x, such that x is a double with magnitude in the interval 
.................... // [1/2,1) or zero, and value equals x times 2 raised to the power *exp.If value is zero, 
.................... // both parts of the result are zero. 
.................... // Date : N/A 
.................... // 
....................  
.................... #define LOG2 .30102999566398119521 
.................... float32 frexp(float32 x, signed int8 *exp) 
.................... { 
....................    float32 res; 
....................    int1 sign = 0; 
....................    if(x == 0.0) 
....................    { 
....................       *exp=0; 
....................       return (0.0); 
....................    } 
....................    if(x < 0.0) 
....................    { 
....................      x=-x; 
....................      sign=1; 
....................    } 
....................    if (x > 1.0) 
....................    { 
....................       *exp=(ceil(log10(x)/LOG2)); 
....................       res=x/(pow(2, *exp)); 
....................       if (res == 1) 
....................       { 
....................          *exp=*exp+1; 
....................           res=.5; 
....................       } 
....................    } 
....................    else 
....................    { 
....................       if(x < 0.5) 
....................       { 
....................          *exp=-1; 
....................          res=x*2; 
....................       } 
....................       else 
....................       { 
....................          *exp=0; 
....................           res=x; 
....................       } 
....................    } 
....................    if(sign) 
....................    { 
....................       res=-res; 
....................    } 
....................    return res; 
.................... } 
....................  
.................... //Overloaded functions for frexp() for PCD 
.................... // Overloaded function frexp() for data type - Float48 
.................... #if defined(__PCD__) 
.................... float48 frexp(float48 x, signed int8 *exp) 
.................... { 
....................    float48 res; 
....................    int1 sign = 0; 
....................    if(x == 0.0) 
....................    { 
....................       *exp=0; 
....................       return (0.0); 
....................    } 
....................    if(x < 0.0) 
....................    { 
....................      x=-x; 
....................      sign=1; 
....................    } 
....................    if (x > 1.0) 
....................    { 
....................       *exp=(ceil(log10(x)/LOG2)); 
....................       res=x/(pow(2, *exp)); 
....................       if (res == 1) 
....................       { 
....................          *exp=*exp+1; 
....................           res=.5; 
....................       } 
....................    } 
....................    else 
....................    { 
....................       if(x < 0.5) 
....................       { 
....................          *exp=-1; 
....................          res=x*2; 
....................       } 
....................       else 
....................       { 
....................          *exp=0; 
....................           res=x; 
....................       } 
....................    } 
....................    if(sign) 
....................    { 
....................       res=-res; 
....................    } 
....................    return res; 
.................... } 
....................  
.................... // Overloaded function frexp() for data type - Float64 
.................... float64 frexp(float64 x, signed int8 *exp) 
.................... { 
....................    float64 res; 
....................    int1 sign = 0; 
....................    if(x == 0.0) 
....................    { 
....................       *exp=0; 
....................       return (0.0); 
....................    } 
....................    if(x < 0.0) 
....................    { 
....................      x=-x; 
....................      sign=1; 
....................    } 
....................    if (x > 1.0) 
....................    { 
....................       *exp=(ceil(log10(x)/LOG2)); 
....................       res=x/(pow(2, *exp)); 
....................       if (res == 1) 
....................       { 
....................          *exp=*exp+1; 
....................           res=.5; 
....................       } 
....................    } 
....................    else 
....................    { 
....................       if(x < 0.5) 
....................       { 
....................          *exp=-1; 
....................          res=x*2; 
....................       } 
....................       else 
....................       { 
....................          *exp=0; 
....................           res=x; 
....................       } 
....................    } 
....................    if(sign) 
....................    { 
....................       res=-res; 
....................    } 
....................    return res; 
.................... } 
.................... #endif 
....................  
.................... ////////////////////////////////////////////////////////////////////////////// 
.................... //   float ldexp(float x, signed int *exp) 
.................... ////////////////////////////////////////////////////////////////////////////// 
.................... // Description : multiplies a floating point number by an integral power of 2. 
.................... // Returns : returns the value of x times 2 raised to the power exp. 
.................... // Date : N/A 
.................... // 
....................  
.................... float32 ldexp(float32 value, signed int8 exp) 
.................... { 
....................    return (value * pow(2,exp)); 
.................... } 
.................... //Overloaded functions for ldexp() for PCD 
.................... // Overloaded function ldexp() for data type - Float48 
....................  
.................... #if defined(__PCD__) 
.................... float48 ldexp(float48 value, signed int8 exp) 
.................... { 
....................    return (value * pow(2,exp)); 
.................... } 
.................... // Overloaded function ldexp() for data type - Float64 
.................... float64 ldexp(float64 value, signed int8 exp) 
.................... { 
....................    return (value * pow(2,exp)); 
.................... } 
.................... #endif 
....................  
.................... #endif 
....................  
.................... #include "HDM64GS12.c" 
.................... ///////////////////////////////////////////////////////////////////////// 
.................... ////                           HDM64GS12.c                           //// 
.................... ////                                                                 //// 
.................... //// This file contains drivers for using a Hantronix HDM64GS12 with //// 
.................... //// a KS0108 display controller. The HDM64GS12 is 128 by 64 pixels. //// 
.................... //// The driver treats the upper left pixel as (0,0).                //// 
.................... ////                                                                 //// 
.................... //// Use #define FAST_GLCD if the target chip has at least 1k of RAM //// 
.................... //// to decrease the time it takes to update the display.            //// 
.................... //// glcd_update() must then be called to update the display after   //// 
.................... //// changing the pixel information.                                 //// 
.................... //// See ex_glcd.c for suggested usage.                              //// 
.................... //// See KS0108.c for controlling a single 64 by 64 display          //// 
.................... ///////////////////////////////////////////////////////////////////////// 
.................... ////                                                                 //// 
.................... //// LCD Pin connections:                                            //// 
.................... //// (These can be changed as needed in the following defines).      //// 
.................... ////  * 1: VSS is connected to GND                                   //// 
.................... ////  * 2: VDD is connected to +5V                                   //// 
.................... ////  * 3: V0  - LCD operating voltage (Constrast adjustment)        //// 
.................... ////  * 4: D/I - Data or Instruction is connected to B2              //// 
.................... ////  * 5: R/W - Read or Write is connected to B4                    //// 
.................... ////  * 6: Enable is connected to B5                                 //// 
.................... ////  *7-14: Data Bus 0 to 7 is connected to port d                  //// 
.................... ////  *15: Chip Select 1 is connected to B0                          //// 
.................... ////  *16: Chip Select 2 is connected to B1                          //// 
.................... ////  *17: Reset is connected to C0                                  //// 
.................... ////  *18: Negative voltage is also connected to the 20k Ohm POT     //// 
.................... ////  *19: Positive voltage for LED backlight is connected to +5V    //// 
.................... ////  *20: Negavtive voltage for LED backlight is connected to GND   //// 
.................... ////                                                                 //// 
.................... ///////////////////////////////////////////////////////////////////////// 
.................... ////                                                                 //// 
.................... ////  glcd_init(mode)                                                //// 
.................... ////     * Must be called before any other function.                 //// 
.................... ////       - mode can be ON or OFF to turn the LCD on or off         //// 
.................... ////                                                                 //// 
.................... ////  glcd_pixel(x,y,color)                                          //// 
.................... ////     * Sets the pixel to the given color.                        //// 
.................... ////       - color can be ON or OFF                                  //// 
.................... ////                                                                 //// 
.................... ////  glcd_fillScreen(color)                                         //// 
.................... ////     * Fills the entire LCD with the given color.                //// 
.................... ////       - color can be ON or OFF                                  //// 
.................... ////                                                                 //// 
.................... ////  glcd_update()                                                  //// 
.................... ////     * Write the display data stored in RAM to the LCD           //// 
.................... ////     * Only available if FAST_GLCD is defined                    //// 
.................... ////                                                                 //// 
.................... ///////////////////////////////////////////////////////////////////////// 
.................... ////        (C) Copyright 1996, 2004 Custom Computer Services        //// 
.................... //// This source code may only be used by licensed users of the CCS  //// 
.................... //// C compiler.  This source code may only be distributed to other  //// 
.................... //// licensed users of the CCS C compiler.  No other use,            //// 
.................... //// reproduction or distribution is permitted without written       //// 
.................... //// permission.  Derivative programs created using this software    //// 
.................... //// in object code form are not restricted in any way.              //// 
.................... ///////////////////////////////////////////////////////////////////////// 
....................  
....................  
....................  
.................... #ifndef HDM64GS12 
.................... #define HDM64GS12 
....................  
.................... #ifndef FAST_GLCD 
.................... #define FAST_GLCD 
....................  
.................... #ifndef GLCD_WIDTH 
.................... #define GLCD_WIDTH   128 
.................... #endif 
....................  
.................... #ifndef GLCD_CS1 
.................... #define GLCD_CS1     PIN_B2   // Chip Selection 1 
.................... #endif 
....................  
.................... #ifndef GLCD_CS2 
.................... #define GLCD_CS2     PIN_B3   // Chip Selection 2 
.................... #endif 
....................  
.................... #ifndef GLCD_DI 
.................... #define GLCD_DI      PIN_B5   // Data or Instruction input 
.................... #endif 
....................  
.................... #ifndef GLCD_RW 
.................... #define GLCD_RW      PIN_B6   // Read/Write 
.................... #endif 
....................  
.................... #ifndef GLCD_E 
.................... #define GLCD_E       PIN_B7   // Enable 
.................... #endif 
....................  
.................... #ifndef GLCD_RST 
.................... #define GLCD_RST     PIN_B4   // Reset 
.................... #endif 
....................  
.................... #define GLCD_LEFT    0 
.................... #define GLCD_RIGHT   1 
....................  
.................... #ifndef ON 
.................... #define ON           1 
.................... #endif 
....................  
.................... #ifndef OFF 
.................... #define OFF          0 
.................... #endif 
....................  
.................... ///////////////////////////////////////////////////////////////////////// 
.................... // Function Prototypes 
.................... ///////////////////////////////////////////////////////////////////////// 
.................... void glcd_init(int1 mode); 
.................... void glcd_pixel(int8 x, int8 y, int1 color); 
.................... void glcd_fillScreen(int1 color); 
.................... void glcd_writeByte(int1 side, BYTE data); 
.................... BYTE glcd_readByte(int1 side); 
.................... void glcd_update(); 
.................... ///////////////////////////////////////////////////////////////////////// 
....................  
.................... #ifdef FAST_GLCD 
.................... struct 
.................... { 
....................    int8 left[512]; 
....................    int8 right[512]; 
.................... } displayData; 
.................... #endif 
....................  
....................  
.................... // Purpose:       Initialize the LCD. 
.................... //                Call before using any other LCD function. 
.................... // Inputs:        OFF - Turns the LCD off 
.................... //                ON  - Turns the LCD on 
.................... void glcd_init(int1 mode) 
.................... { 
....................    // Initialze some pins 
....................    output_high(GLCD_RST); 
*
016F2:  BCF    F93.4
016F4:  BSF    F8A.4
....................    output_low(GLCD_E); 
016F6:  BCF    F93.7
016F8:  BCF    F8A.7
....................    output_low(GLCD_CS1); 
016FA:  BCF    F93.2
016FC:  BCF    F8A.2
....................    output_low(GLCD_CS2); 
016FE:  BCF    F93.3
01700:  BCF    F8A.3
....................  
....................    output_low(GLCD_DI);                 // Set for instruction 
01702:  BCF    F93.5
01704:  BCF    F8A.5
....................    glcd_writeByte(GLCD_LEFT,  0xC0);    // Specify first RAM line at the top 
01706:  MOVLB  5
01708:  CLRF   xF2
0170A:  MOVLW  C0
0170C:  MOVWF  xF3
0170E:  MOVLB  0
01710:  RCALL  15AA
....................    glcd_writeByte(GLCD_RIGHT, 0xC0);    //   of the screen 
01712:  MOVLW  01
01714:  MOVLB  5
01716:  MOVWF  xF2
01718:  MOVLW  C0
0171A:  MOVWF  xF3
0171C:  MOVLB  0
0171E:  RCALL  15AA
....................    glcd_writeByte(GLCD_LEFT,  0x40);    // Set the column address to 0 
01720:  MOVLB  5
01722:  CLRF   xF2
01724:  MOVLW  40
01726:  MOVWF  xF3
01728:  MOVLB  0
0172A:  RCALL  15AA
....................    glcd_writeByte(GLCD_RIGHT, 0x40); 
0172C:  MOVLW  01
0172E:  MOVLB  5
01730:  MOVWF  xF2
01732:  MOVLW  40
01734:  MOVWF  xF3
01736:  MOVLB  0
01738:  RCALL  15AA
....................    glcd_writeByte(GLCD_LEFT,  0xB8);    // Set the page address to 0 
0173A:  MOVLB  5
0173C:  CLRF   xF2
0173E:  MOVLW  B8
01740:  MOVWF  xF3
01742:  MOVLB  0
01744:  RCALL  15AA
....................    glcd_writeByte(GLCD_RIGHT, 0xB8); 
01746:  MOVLW  01
01748:  MOVLB  5
0174A:  MOVWF  xF2
0174C:  MOVLW  B8
0174E:  MOVWF  xF3
01750:  MOVLB  0
01752:  RCALL  15AA
....................  
....................    if(mode == ON) 
01754:  MOVLB  5
01756:  DECFSZ xE3,W
01758:  BRA    1776
....................    { 
....................       glcd_writeByte(GLCD_LEFT,  0x3F); // Turn the display on 
0175A:  CLRF   xF2
0175C:  MOVLW  3F
0175E:  MOVWF  xF3
01760:  MOVLB  0
01762:  RCALL  15AA
....................       glcd_writeByte(GLCD_RIGHT, 0x3F); 
01764:  MOVLW  01
01766:  MOVLB  5
01768:  MOVWF  xF2
0176A:  MOVLW  3F
0176C:  MOVWF  xF3
0176E:  MOVLB  0
01770:  RCALL  15AA
....................    } 
....................    else 
01772:  BRA    178E
01774:  MOVLB  5
....................    { 
....................       glcd_writeByte(GLCD_LEFT,  0x3E); // Turn the display off 
01776:  CLRF   xF2
01778:  MOVLW  3E
0177A:  MOVWF  xF3
0177C:  MOVLB  0
0177E:  RCALL  15AA
....................       glcd_writeByte(GLCD_RIGHT, 0x3E); 
01780:  MOVLW  01
01782:  MOVLB  5
01784:  MOVWF  xF2
01786:  MOVLW  3E
01788:  MOVWF  xF3
0178A:  MOVLB  0
0178C:  RCALL  15AA
....................    } 
....................  
....................    glcd_fillScreen(OFF);                // Clear the display 
0178E:  MOVLB  5
01790:  CLRF   xEB
01792:  MOVLB  0
01794:  RCALL  15E0
....................  
....................    #ifdef FAST_GLCD 
....................    glcd_update(); 
01796:  RCALL  163A
....................    #endif 
.................... } 
01798:  RETLW  00
....................  
....................  
.................... // Purpose:    Update the LCD with data from the display arrays 
.................... #ifdef FAST_GLCD 
.................... void glcd_update() 
.................... { 
....................    int8 i, j; 
....................    int8 *p1, *p2; 
....................  
....................    p1 = displayData.left; 
*
0163A:  MOVLB  5
0163C:  CLRF   xEE
0163E:  MOVLW  17
01640:  MOVWF  xED
....................    p2 = displayData.right; 
01642:  MOVLW  02
01644:  MOVWF  xF0
01646:  MOVLW  17
01648:  MOVWF  xEF
....................  
....................    // Loop through the vertical pages 
....................    for(i = 0; i < 8; ++i) 
0164A:  CLRF   xEB
0164C:  MOVF   xEB,W
0164E:  SUBLW  07
01650:  BNC   16EE
....................    { 
....................       output_low(GLCD_DI);                      // Set for instruction 
01652:  BCF    F93.5
01654:  BCF    F8A.5
....................       glcd_writeByte(GLCD_LEFT, 0x40);          // Set horizontal address to 0 
01656:  CLRF   xF2
01658:  MOVLW  40
0165A:  MOVWF  xF3
0165C:  MOVLB  0
0165E:  RCALL  15AA
....................       glcd_writeByte(GLCD_RIGHT, 0x40); 
01660:  MOVLW  01
01662:  MOVLB  5
01664:  MOVWF  xF2
01666:  MOVLW  40
01668:  MOVWF  xF3
0166A:  MOVLB  0
0166C:  RCALL  15AA
....................       glcd_writeByte(GLCD_LEFT, i | 0xB8);      // Set page address 
0166E:  MOVLB  5
01670:  MOVF   xEB,W
01672:  IORLW  B8
01674:  MOVWF  xF1
01676:  CLRF   xF2
01678:  MOVWF  xF3
0167A:  MOVLB  0
0167C:  RCALL  15AA
....................       glcd_writeByte(GLCD_RIGHT, i | 0xB8); 
0167E:  MOVLB  5
01680:  MOVF   xEB,W
01682:  IORLW  B8
01684:  MOVWF  xF1
01686:  MOVLW  01
01688:  MOVWF  xF2
0168A:  MOVFF  5F1,5F3
0168E:  MOVLB  0
01690:  RCALL  15AA
....................       output_high(GLCD_DI);                     // Set for data 
01692:  BCF    F93.5
01694:  BSF    F8A.5
....................  
....................       // Loop through the horizontal sections 
....................       for(j = 0; j < 64; ++j) 
01696:  MOVLB  5
01698:  CLRF   xEC
0169A:  MOVF   xEC,W
0169C:  SUBLW  3F
0169E:  BNC   16EA
....................       { 
....................          glcd_writeByte(GLCD_LEFT, *p1++);      // Turn pixels on or off 
016A0:  MOVFF  5EE,03
016A4:  MOVF   xED,W
016A6:  INCF   xED,F
016A8:  BTFSC  FD8.2
016AA:  INCF   xEE,F
016AC:  MOVWF  FE9
016AE:  MOVFF  03,FEA
016B2:  MOVFF  FEF,5F1
016B6:  CLRF   xF2
016B8:  MOVFF  5F1,5F3
016BC:  MOVLB  0
016BE:  RCALL  15AA
....................          glcd_writeByte(GLCD_RIGHT, *p2++);     // Turn pixels on or off 
016C0:  MOVLB  5
016C2:  MOVFF  5F0,03
016C6:  MOVF   xEF,W
016C8:  INCF   xEF,F
016CA:  BTFSC  FD8.2
016CC:  INCF   xF0,F
016CE:  MOVWF  FE9
016D0:  MOVFF  03,FEA
016D4:  MOVFF  FEF,5F1
016D8:  MOVLW  01
016DA:  MOVWF  xF2
016DC:  MOVFF  5F1,5F3
016E0:  MOVLB  0
016E2:  RCALL  15AA
....................       } 
016E4:  MOVLB  5
016E6:  INCF   xEC,F
016E8:  BRA    169A
....................    } 
016EA:  INCF   xEB,F
016EC:  BRA    164C
.................... } 
016EE:  MOVLB  0
016F0:  RETLW  00
.................... #endif 
....................  
....................  
.................... // Purpose:    Turn a pixel on a graphic LCD on or off 
.................... // Inputs:     1) x - the x coordinate of the pixel 
.................... //             2) y - the y coordinate of the pixel 
.................... //             3) color - ON or OFF 
.................... void glcd_pixel(int8 x, int8 y, int1 color) 
.................... #ifdef FAST_GLCD 
.................... { 
....................    int8* p; 
....................    int16 temp; 
....................    temp =  y/8; 
*
0179A:  MOVLB  6
0179C:  CLRF   x1D
0179E:  RRCF   x18,W
017A0:  MOVWF  x1C
017A2:  RRCF   x1C,F
017A4:  RRCF   x1C,F
017A6:  MOVLW  1F
017A8:  ANDWF  x1C,F
....................    temp *= 64; 
017AA:  RLCF   x1C,F
017AC:  RLCF   x1D,F
017AE:  RLCF   x1C,F
017B0:  RLCF   x1D,F
017B2:  RLCF   x1C,F
017B4:  RLCF   x1D,F
017B6:  RLCF   x1C,F
017B8:  RLCF   x1D,F
017BA:  RLCF   x1C,F
017BC:  RLCF   x1D,F
017BE:  RLCF   x1C,F
017C0:  RLCF   x1D,F
017C2:  MOVLW  C0
017C4:  ANDWF  x1C,F
....................    temp += x; 
017C6:  MOVF   x17,W
017C8:  ADDWF  x1C,F
017CA:  MOVLW  00
017CC:  ADDWFC x1D,F
....................  
....................    if(x > 63) 
017CE:  MOVF   x17,W
017D0:  SUBLW  3F
017D2:  BC    17EE
....................    { 
....................       p = displayData.right + temp - 64; 
017D4:  MOVLW  17
017D6:  ADDWF  x1C,W
017D8:  MOVWF  x1E
017DA:  MOVLW  02
017DC:  ADDWFC x1D,W
017DE:  MOVWF  x1F
017E0:  MOVLW  40
017E2:  SUBWF  x1E,W
017E4:  MOVWF  x1A
017E6:  MOVLW  00
017E8:  SUBWFB x1F,W
017EA:  MOVWF  x1B
....................    } 
....................    else 
017EC:  BRA    17FA
....................    { 
....................       p = displayData.left + temp; 
017EE:  MOVLW  17
017F0:  ADDWF  x1C,W
017F2:  MOVWF  x1A
017F4:  MOVLW  00
017F6:  ADDWFC x1D,W
017F8:  MOVWF  x1B
....................    } 
....................  
....................    if(color) 
017FA:  MOVF   x19,F
017FC:  BZ    1828
....................    { 
....................       bit_set(*p, y%8); 
017FE:  MOVFF  61B,03
01802:  MOVFF  61A,FE9
01806:  MOVFF  61B,FEA
0180A:  MOVF   x18,W
0180C:  ANDLW  07
0180E:  MOVWF  x1E
01810:  MOVLW  01
01812:  MOVWF  00
01814:  MOVF   x1E,W
01816:  MOVWF  01
01818:  BZ    1822
0181A:  BCF    FD8.0
0181C:  RLCF   00,F
0181E:  DECFSZ 01,F
01820:  BRA    181A
01822:  MOVF   00,W
01824:  IORWF  FEF,F
....................    } 
....................    else 
01826:  BRA    1852
....................    { 
....................       bit_clear(*p, y%8); 
01828:  MOVFF  61B,03
0182C:  MOVFF  61A,FE9
01830:  MOVFF  61B,FEA
01834:  MOVF   x18,W
01836:  ANDLW  07
01838:  MOVWF  x1E
0183A:  MOVLW  01
0183C:  MOVWF  00
0183E:  MOVF   x1E,W
01840:  MOVWF  01
01842:  BZ    184C
01844:  BCF    FD8.0
01846:  RLCF   00,F
01848:  DECFSZ 01,F
0184A:  BRA    1844
0184C:  MOVF   00,W
0184E:  XORLW  FF
01850:  ANDWF  FEF,F
....................    } 
.................... } 
01852:  MOVLB  0
01854:  RETLW  00
.................... #else 
.................... { 
....................    BYTE data; 
....................    int1 side = GLCD_LEFT;  // Stores which chip to use on the LCD 
....................  
....................    if(x > 63)              // Check for first or second display area 
....................    { 
....................       x -= 64; 
....................       side = GLCD_RIGHT; 
....................    } 
....................  
....................    output_low(GLCD_DI);                         // Set for instruction 
....................    bit_clear(x,7);                              // Clear the MSB. Part of an instruction code 
....................    bit_set(x,6);                                // Set bit 6. Also part of an instruction code 
....................    glcd_writeByte(side, x);                     // Set the horizontal address 
....................    glcd_writeByte(side, (y/8 & 0xBF) | 0xB8);   // Set the vertical page address 
....................    output_high(GLCD_DI);                        // Set for data 
....................    glcd_readByte(side);                         // Need two reads to get data 
....................    data = glcd_readByte(side);                  //  at new address 
....................  
....................    if(color == ON) 
....................       bit_set(data, y%8);        // Turn the pixel on 
....................    else                          // or 
....................       bit_clear(data, y%8);      // turn the pixel off 
....................  
....................    output_low(GLCD_DI);          // Set for instruction 
....................    glcd_writeByte(side, x);      // Set the horizontal address 
....................    output_high(GLCD_DI);         // Set for data 
....................    glcd_writeByte(side, data);   // Write the pixel data 
.................... } 
.................... #endif 
....................  
....................  
.................... // Purpose:    Fill the LCD screen with the passed in color 
.................... // Inputs:     ON  - turn all the pixels on 
.................... //             OFF - turn all the pixels off 
.................... void glcd_fillScreen(int1 color) 
.................... #ifdef FAST_GLCD 
.................... { 
....................    int8  data; 
....................    int8  *p1, *p2; 
....................    int16 i; 
....................  
....................    p1 = displayData.left; 
*
015E0:  MOVLB  5
015E2:  CLRF   xEE
015E4:  MOVLW  17
015E6:  MOVWF  xED
....................    p2 = displayData.right; 
015E8:  MOVLW  02
015EA:  MOVWF  xF0
015EC:  MOVLW  17
015EE:  MOVWF  xEF
....................    data = 0xFF * color; 
015F0:  MOVF   xEB,W
015F2:  MULLW  FF
015F4:  MOVFF  FF3,5EC
....................  
....................    for(i=0; i<512; ++i) 
015F8:  CLRF   xF2
015FA:  CLRF   xF1
015FC:  MOVF   xF2,W
015FE:  SUBLW  01
01600:  BNC   1636
....................    { 
....................       *p1++ = data; 
01602:  MOVFF  5EE,03
01606:  MOVF   xED,W
01608:  INCF   xED,F
0160A:  BTFSC  FD8.2
0160C:  INCF   xEE,F
0160E:  MOVWF  FE9
01610:  MOVFF  03,FEA
01614:  MOVFF  5EC,FEF
....................       *p2++ = data; 
01618:  MOVFF  5F0,03
0161C:  MOVF   xEF,W
0161E:  INCF   xEF,F
01620:  BTFSC  FD8.2
01622:  INCF   xF0,F
01624:  MOVWF  FE9
01626:  MOVFF  03,FEA
0162A:  MOVFF  5EC,FEF
....................    } 
0162E:  INCF   xF1,F
01630:  BTFSC  FD8.2
01632:  INCF   xF2,F
01634:  BRA    15FC
.................... } 
01636:  MOVLB  0
01638:  RETLW  00
.................... #else 
.................... { 
....................    int8 i, j; 
....................  
....................    // Loop through the vertical pages 
....................    for(i = 0; i < 8; ++i) 
....................    { 
....................       output_low(GLCD_DI);                      // Set for instruction 
....................       glcd_writeByte(GLCD_LEFT, 0b01000000);    // Set horizontal address to 0 
....................       glcd_writeByte(GLCD_RIGHT, 0b01000000); 
....................       glcd_writeByte(GLCD_LEFT, i | 0b10111000);// Set page address 
....................       glcd_writeByte(GLCD_RIGHT, i | 0b10111000); 
....................       output_high(GLCD_DI);                     // Set for data 
....................  
....................       // Loop through the horizontal sections 
....................       for(j = 0; j < 64; ++j) 
....................       { 
....................          glcd_writeByte(GLCD_LEFT, 0xFF*color);  // Turn pixels on or off 
....................          glcd_writeByte(GLCD_RIGHT, 0xFF*color); // Turn pixels on or off 
....................       } 
....................    } 
.................... } 
.................... #endif 
....................  
....................  
.................... // Purpose:    Write a byte of data to the specified chip 
.................... // Inputs:     1) chipSelect - which chip to write the data to 
.................... //             2) data - the byte of data to write 
.................... void glcd_writeByte(int1 side, BYTE data) 
.................... { 
....................    if(side)                   // Choose which side to write to 
*
015AA:  MOVLB  5
015AC:  MOVF   xF2,F
015AE:  BZ    15B6
....................       output_high(GLCD_CS2); 
015B0:  BCF    F93.3
015B2:  BSF    F8A.3
....................    else 
015B4:  BRA    15BA
....................       output_high(GLCD_CS1); 
015B6:  BCF    F93.2
015B8:  BSF    F8A.2
....................  
....................    output_low(GLCD_RW);       // Set for writing 
015BA:  BCF    F93.6
015BC:  BCF    F8A.6
....................    output_d(data);            // Put the data on the port 
015BE:  CLRF   F95
015C0:  MOVFF  5F3,F8C
....................    delay_cycles(1); 
015C4:  NOP   
....................    output_high(GLCD_E);       // Pulse the enable pin 
015C6:  BCF    F93.7
015C8:  BSF    F8A.7
....................    delay_cycles(5); 
015CA:  BRA    15CC
015CC:  BRA    15CE
015CE:  NOP   
....................    output_low(GLCD_E); 
015D0:  BCF    F93.7
015D2:  BCF    F8A.7
....................  
....................    output_low(GLCD_CS1);      // Reset the chip select lines 
015D4:  BCF    F93.2
015D6:  BCF    F8A.2
....................    output_low(GLCD_CS2); 
015D8:  BCF    F93.3
015DA:  BCF    F8A.3
.................... } 
015DC:  MOVLB  0
015DE:  RETLW  00
....................  
....................  
.................... // Purpose:    Reads a byte of data from the specified chip 
.................... // Ouputs:     A byte of data read from the chip 
.................... BYTE glcd_readByte(int1 side) 
.................... { 
....................    BYTE data;                 // Stores the data read from the LCD 
....................  
....................    set_tris_d(0xFF);          // Set port d to input 
....................    output_high(GLCD_RW);      // Set for reading 
....................  
....................    if(side)                   // Choose which side to write to 
....................       output_high(GLCD_CS2); 
....................    else 
....................       output_high(GLCD_CS1); 
....................  
....................    delay_cycles(1); 
....................    output_high(GLCD_E);       // Pulse the enable pin 
....................    delay_cycles(4); 
....................    data = input_d();          // Get the data from the display's output register 
....................    output_low(GLCD_E); 
....................  
....................    output_low(GLCD_CS1);      // Reset the chip select lines 
....................    output_low(GLCD_CS2); 
....................    return data;               // Return the read data 
.................... } 
....................  
.................... #endif 
....................  
.................... #include "GRAPHICS.c" 
.................... ///////////////////////////////////////////////////////////////////////// 
.................... ////                          graphics.c                             //// 
.................... ////                                                                 //// 
.................... ////   This file contains functions to draw lines, rectangles, bars, //// 
.................... ////   circles and text to a display. A function which draws a       //// 
.................... ////   single pixel must be defined before calling the functions in  //// 
.................... ////   this file. Call it glcd_pixel(x, y, color) where x is the     //// 
.................... ////   horizontal coordinate, y is the vertical coordinate, and      //// 
.................... ////   color is 1 bit to turn the pixel on or off.                   //// 
.................... ////                                                                 //// 
.................... ////   * Note: (0, 0) is treated as the upper left corner            //// 
.................... ////                                                                 //// 
.................... ///////////////////////////////////////////////////////////////////////// 
.................... ////                                                                 //// 
.................... ////  glcd_line(x1, y1, x2, y2, color)                               //// 
.................... ////     * Draws a line from the first point to the second point     //// 
.................... ////       with the given color                                      //// 
.................... ////       - color can be ON or OFF                                  //// 
.................... ////                                                                 //// 
.................... ////  glcd_rect(x1, y1, x2, y2, fill, color)                         //// 
.................... ////     * Draws a rectangle with one corner at point (x1,y1) and    //// 
.................... ////       the other corner at point (x2,y2)                         //// 
.................... ////       - fill can be YES or NO                                   //// 
.................... ////       - color can be ON or OFF                                  //// 
.................... ////                                                                 //// 
.................... ////  glcd_bar(x1, y1, x2, y2, width, color)                         //// 
.................... ////     * Draws a bar (wide line) from the first point to the       //// 
.................... ////       second point                                              //// 
.................... ////       - width is the number of pixels wide                      //// 
.................... ////       - color is ON or OFF                                      //// 
.................... ////                                                                 //// 
.................... ////  glcd_circle(x, y, radius, fill, color)                         //// 
.................... ////     * Draws a circle with center at (x,y)                       //// 
.................... ////       - fill can be YES or NO                                   //// 
.................... ////       - color can be ON or OFF                                  //// 
.................... ////                                                                 //// 
.................... ////  glcd_text57(x, y, textptr, size, color)                        //// 
.................... ////     * Write the null terminated text pointed to by textptr with //// 
.................... ////       the upper left coordinate of the first character at (x,y) //// 
.................... ////       Characters are 5 pixels wide and 7 pixels tall            //// 
.................... ////       - size is an integer that scales the size of the text     //// 
.................... ////       - color is ON or OFF                                      //// 
.................... ////     * Note - This function wraps characters to the next line    //// 
.................... ////              use #define GLCD_WIDTH to specify a display width  //// 
.................... ////                                                                 //// 
.................... ///////////////////////////////////////////////////////////////////////// 
.................... ////        (C) Copyright 1996, 2004 Custom Computer Services        //// 
.................... //// This source code may only be used by licensed users of the CCS  //// 
.................... //// C compiler.  This source code may only be distributed to other  //// 
.................... //// licensed users of the CCS C compiler.  No other use,            //// 
.................... //// reproduction or distribution is permitted without written       //// 
.................... //// permission.  Derivative programs created using this software    //// 
.................... //// in object code form are not restricted in any way.              //// 
.................... ///////////////////////////////////////////////////////////////////////// 
....................  
....................  
.................... ///////////////////////////////////////////////////////////////////////// 
.................... #ifndef GRAPHICS_DRAWING_FUNCTIONS 
.................... #define GRAPHICS_DRAWING_FUNCTIONS 
.................... ///////////////////////////////////////////////////////////////////////// 
....................  
....................  
.................... ///////////////////////////////////////////////////////////////////////// 
.................... #ifndef ON 
.................... #define ON  1 
.................... #endif 
....................  
.................... #ifndef OFF 
.................... #define OFF 0 
.................... #endif 
....................  
.................... #ifndef YES 
.................... #define YES 1 
.................... #endif 
....................  
.................... #ifndef NO 
.................... #define NO  0 
.................... #endif 
.................... ///////////////////////////////////////////////////////////////////////// 
....................  
....................  
.................... ///////////////////////////////////////////////////////////////////////// 
.................... //// Defines a 5x7 font 
.................... ///////////////////////////////////////////////////////////////////////// 
.................... const int8 FONT[51][5] ={0x00, 0x00, 0x00, 0x00, 0x00, // SPACE 
....................                          0x00, 0x00, 0x5F, 0x00, 0x00, // ! 
....................                          0x00, 0x03, 0x00, 0x03, 0x00, // " 
....................                          0x14, 0x3E, 0x14, 0x3E, 0x14, // # 
....................                          0x24, 0x2A, 0x7F, 0x2A, 0x12, // $ 
....................                          0x43, 0x33, 0x08, 0x66, 0x61, // % 
....................                          0x36, 0x49, 0x55, 0x22, 0x50, // & 
....................                          0x00, 0x05, 0x03, 0x00, 0x00, // ' 
....................                          0x00, 0x1C, 0x22, 0x41, 0x00, // ( 
....................                          0x00, 0x41, 0x22, 0x1C, 0x00, // ) 
....................                          0x14, 0x08, 0x3E, 0x08, 0x14, // * 
....................                          0x08, 0x08, 0x3E, 0x08, 0x08, // + 
....................                          0x00, 0x50, 0x30, 0x00, 0x00, // , 
....................                          0x08, 0x08, 0x08, 0x08, 0x08, // - 
....................                          0x00, 0x60, 0x60, 0x00, 0x00, // . 
....................                          0x20, 0x10, 0x08, 0x04, 0x02, // / 
....................                          0x3E, 0x51, 0x49, 0x45, 0x3E, // 0 
....................                          0x00, 0x04, 0x02, 0x7F, 0x00, // 1 
....................                          0x42, 0x61, 0x51, 0x49, 0x46, // 2 
....................                          0x22, 0x41, 0x49, 0x49, 0x36, // 3 
....................                          0x18, 0x14, 0x12, 0x7F, 0x10, // 4 
....................                          0x27, 0x45, 0x45, 0x45, 0x39, // 5 
....................                          0x3E, 0x49, 0x49, 0x49, 0x32, // 6 
....................                          0x01, 0x01, 0x71, 0x09, 0x07, // 7 
....................                          0x36, 0x49, 0x49, 0x49, 0x36, // 8 
....................                          0x26, 0x49, 0x49, 0x49, 0x3E, // 9 
....................                          0x00, 0x36, 0x36, 0x00, 0x00, // : 
....................                          0x00, 0x56, 0x36, 0x00, 0x00, // ; 
....................                          0x08, 0x14, 0x22, 0x41, 0x00, // < 
....................                          0x14, 0x14, 0x14, 0x14, 0x14, // = 
....................                          0x00, 0x41, 0x22, 0x14, 0x08, // > 
....................                          0x02, 0x01, 0x51, 0x09, 0x06, // ? 
....................                          0x3E, 0x41, 0x59, 0x55, 0x5E, // @ 
....................                          0x7E, 0x09, 0x09, 0x09, 0x7E, // A 
....................                          0x7F, 0x49, 0x49, 0x49, 0x36, // B 
....................                          0x3E, 0x41, 0x41, 0x41, 0x22, // C 
....................                          0x7F, 0x41, 0x41, 0x41, 0x3E, // D 
....................                          0x7F, 0x49, 0x49, 0x49, 0x41, // E 
....................                          0x7F, 0x09, 0x09, 0x09, 0x01, // F 
....................                          0x3E, 0x41, 0x41, 0x49, 0x3A, // G 
....................                          0x7F, 0x08, 0x08, 0x08, 0x7F, // H 
....................                          0x00, 0x41, 0x7F, 0x41, 0x00, // I 
....................                          0x30, 0x40, 0x40, 0x40, 0x3F, // J 
....................                          0x7F, 0x08, 0x14, 0x22, 0x41, // K 
....................                          0x7F, 0x40, 0x40, 0x40, 0x40, // L 
....................                          0x7F, 0x02, 0x0C, 0x02, 0x7F, // M 
....................                          0x7F, 0x02, 0x04, 0x08, 0x7F, // N 
....................                          0x3E, 0x41, 0x41, 0x41, 0x3E, // O 
....................                          0x7F, 0x09, 0x09, 0x09, 0x06, // P 
....................                          0x1E, 0x21, 0x21, 0x21, 0x5E, // Q 
....................                          0x7F, 0x09, 0x09, 0x09, 0x76};// R 
....................  
.................... const int8 FONT2[44][5]={0x26, 0x49, 0x49, 0x49, 0x32, // S 
....................                          0x01, 0x01, 0x7F, 0x01, 0x01, // T 
....................                          0x3F, 0x40, 0x40, 0x40, 0x3F, // U 
....................                          0x1F, 0x20, 0x40, 0x20, 0x1F, // V 
....................                          0x7F, 0x20, 0x10, 0x20, 0x7F, // W 
....................                          0x41, 0x22, 0x1C, 0x22, 0x41, // X 
....................                          0x07, 0x08, 0x70, 0x08, 0x07, // Y 
....................                          0x61, 0x51, 0x49, 0x45, 0x43, // Z 
....................                          0x00, 0x7F, 0x41, 0x00, 0x00, // [ 
....................                          0x02, 0x04, 0x08, 0x10, 0x20, // \ 
....................                          0x00, 0x00, 0x41, 0x7F, 0x00, // ] 
....................                          0x04, 0x02, 0x01, 0x02, 0x04, // ^ 
....................                          0x40, 0x40, 0x40, 0x40, 0x40, // _ 
....................                          0x00, 0x01, 0x02, 0x04, 0x00, // ` 
....................                          0x20, 0x54, 0x54, 0x54, 0x78, // a 
....................                          0x7F, 0x44, 0x44, 0x44, 0x38, // b 
....................                          0x38, 0x44, 0x44, 0x44, 0x44, // c 
....................                          0x38, 0x44, 0x44, 0x44, 0x7F, // d 
....................                          0x38, 0x54, 0x54, 0x54, 0x18, // e 
....................                          0x04, 0x04, 0x7E, 0x05, 0x05, // f 
....................                          0x08, 0x54, 0x54, 0x54, 0x3C, // g 
....................                          0x7F, 0x08, 0x04, 0x04, 0x78, // h 
....................                          0x00, 0x44, 0x7D, 0x40, 0x00, // i 
....................                          0x20, 0x40, 0x44, 0x3D, 0x00, // j 
....................                          0x7F, 0x10, 0x28, 0x44, 0x00, // k 
....................                          0x00, 0x41, 0x7F, 0x40, 0x00, // l 
....................                          0x7C, 0x04, 0x78, 0x04, 0x78, // m 
....................                          0x7C, 0x08, 0x04, 0x04, 0x78, // n 
....................                          0x38, 0x44, 0x44, 0x44, 0x38, // o 
....................                          0x7C, 0x14, 0x14, 0x14, 0x08, // p 
....................                          0x08, 0x14, 0x14, 0x14, 0x7C, // q 
....................                          0x00, 0x7C, 0x08, 0x04, 0x04, // r 
....................                          0x48, 0x54, 0x54, 0x54, 0x20, // s 
....................                          0x04, 0x04, 0x3F, 0x44, 0x44, // t 
....................                          0x3C, 0x40, 0x40, 0x20, 0x7C, // u 
....................                          0x1C, 0x20, 0x40, 0x20, 0x1C, // v 
....................                          0x3C, 0x40, 0x30, 0x40, 0x3C, // w 
....................                          0x44, 0x28, 0x10, 0x28, 0x44, // x 
....................                          0x0C, 0x50, 0x50, 0x50, 0x3C, // y 
....................                          0x44, 0x64, 0x54, 0x4C, 0x44, // z 
....................                          0x00, 0x08, 0x36, 0x41, 0x41, // { 
....................                          0x00, 0x00, 0x7F, 0x00, 0x00, // | 
....................                          0x41, 0x41, 0x36, 0x08, 0x00, // } 
....................                          0x02, 0x01, 0x02, 0x04, 0x02};// ~ 
.................... ///////////////////////////////////////////////////////////////////////// 
....................  
....................  
.................... ///////////////////////////////////////////////////////////////////////// 
.................... // Purpose:       Draw a line on a graphic LCD using Bresenham's 
.................... //                line drawing algorithm 
.................... // Inputs:        (x1, y1) - the start coordinate 
.................... //                (x2, y2) - the end coordinate 
.................... //                color - ON or OFF 
.................... // Dependencies:  glcd_pixel() 
.................... ///////////////////////////////////////////////////////////////////////// 
.................... #ifdef LARGE_LCD 
.................... void glcd_line(int16 x1, int16 y1, int16 x2, int16 y2, int1 color) 
.................... #else 
.................... void glcd_line(int8 x1, int8 y1, int8 x2, int8 y2, int1 color) 
.................... #endif 
.................... { 
*
04B68:  MOVLW  01
04B6A:  MOVLB  6
04B6C:  MOVWF  x10
04B6E:  MOVWF  x11
04B70:  CLRF   x16
....................    int16        dy, dx; 
....................    signed int8  addx=1, addy=1; 
....................    signed int16 P, diff; 
....................  
....................    #ifdef LARGE_LCD 
....................    int16 i=0; 
....................    dx = abs((signed int16)(x2 - x1)); 
....................    dy = abs((signed int16)(y2 - y1)); 
....................    #else 
....................    int8 i=0; 
....................    dx = abs((signed int8)(x2 - x1)); 
04B72:  MOVF   x07,W
04B74:  SUBWF  x09,W
04B76:  MOVWF  x17
04B78:  MOVF   x17,W
04B7A:  BTFSS  x17.7
04B7C:  BRA    4B84
04B7E:  MOVLW  00
04B80:  BSF    FD8.0
04B82:  SUBFWB x17,W
04B84:  CLRF   03
04B86:  MOVWF  x0E
04B88:  MOVFF  03,60F
....................    dy = abs((signed int8)(y2 - y1)); 
04B8C:  MOVF   x08,W
04B8E:  SUBWF  x0A,W
04B90:  MOVWF  x17
04B92:  MOVF   x17,W
04B94:  BTFSS  x17.7
04B96:  BRA    4B9E
04B98:  MOVLW  00
04B9A:  BSF    FD8.0
04B9C:  SUBFWB x17,W
04B9E:  CLRF   03
04BA0:  MOVWF  x0C
04BA2:  MOVFF  03,60D
....................    #endif 
....................  
....................    if(x1 > x2) 
04BA6:  MOVF   x07,W
04BA8:  SUBWF  x09,W
04BAA:  BC    4BB0
....................       addx = -1; 
04BAC:  MOVLW  FF
04BAE:  MOVWF  x10
....................    if(y1 > y2) 
04BB0:  MOVF   x08,W
04BB2:  SUBWF  x0A,W
04BB4:  BC    4BBA
....................       addy = -1; 
04BB6:  MOVLW  FF
04BB8:  MOVWF  x11
....................  
....................    if(dx >= dy) 
04BBA:  MOVF   x0D,W
04BBC:  SUBWF  x0F,W
04BBE:  BNC   4C38
04BC0:  BNZ   4BC8
04BC2:  MOVF   x0C,W
04BC4:  SUBWF  x0E,W
04BC6:  BNC   4C38
....................    { 
....................       dy *= 2; 
04BC8:  BCF    FD8.0
04BCA:  RLCF   x0C,F
04BCC:  RLCF   x0D,F
....................       P = dy - dx; 
04BCE:  MOVF   x0E,W
04BD0:  SUBWF  x0C,W
04BD2:  MOVWF  00
04BD4:  MOVF   x0F,W
04BD6:  SUBWFB x0D,W
04BD8:  MOVFF  00,612
04BDC:  MOVWF  x13
....................       diff = P - dx; 
04BDE:  MOVF   x0E,W
04BE0:  SUBWF  x12,W
04BE2:  MOVWF  x14
04BE4:  MOVF   x0F,W
04BE6:  SUBWFB x13,W
04BE8:  MOVWF  x15
....................  
....................       for(; i<=dx; ++i) 
04BEA:  MOVF   x0F,F
04BEC:  BNZ   4BF4
04BEE:  MOVF   x16,W
04BF0:  SUBWF  x0E,W
04BF2:  BNC   4C36
....................       { 
....................          glcd_pixel(x1, y1, color); 
04BF4:  MOVFF  607,617
04BF8:  MOVFF  608,618
04BFC:  MOVFF  60B,619
04C00:  MOVLB  0
04C02:  CALL   179A
....................  
....................          if(P < 0) 
04C06:  MOVLB  6
04C08:  BTFSC  x13.7
04C0A:  BRA    4C0E
04C0C:  BRA    4C1E
....................          { 
....................             P  += dy; 
04C0E:  MOVF   x0C,W
04C10:  ADDWF  x12,F
04C12:  MOVF   x0D,W
04C14:  ADDWFC x13,F
....................             x1 += addx; 
04C16:  MOVF   x10,W
04C18:  ADDWF  x07,W
04C1A:  MOVWF  x07
....................          } 
....................          else 
04C1C:  BRA    4C32
....................          { 
....................             P  += diff; 
04C1E:  MOVF   x14,W
04C20:  ADDWF  x12,F
04C22:  MOVF   x15,W
04C24:  ADDWFC x13,F
....................             x1 += addx; 
04C26:  MOVF   x10,W
04C28:  ADDWF  x07,W
04C2A:  MOVWF  x07
....................             y1 += addy; 
04C2C:  MOVF   x11,W
04C2E:  ADDWF  x08,W
04C30:  MOVWF  x08
....................          } 
....................       } 
04C32:  INCF   x16,F
04C34:  BRA    4BEA
....................    } 
....................    else 
04C36:  BRA    4CA6
....................    { 
....................       dx *= 2; 
04C38:  BCF    FD8.0
04C3A:  RLCF   x0E,F
04C3C:  RLCF   x0F,F
....................       P = dx - dy; 
04C3E:  MOVF   x0C,W
04C40:  SUBWF  x0E,W
04C42:  MOVWF  00
04C44:  MOVF   x0D,W
04C46:  SUBWFB x0F,W
04C48:  MOVFF  00,612
04C4C:  MOVWF  x13
....................       diff = P - dy; 
04C4E:  MOVF   x0C,W
04C50:  SUBWF  x12,W
04C52:  MOVWF  x14
04C54:  MOVF   x0D,W
04C56:  SUBWFB x13,W
04C58:  MOVWF  x15
....................  
....................       for(; i<=dy; ++i) 
04C5A:  MOVF   x0D,F
04C5C:  BNZ   4C64
04C5E:  MOVF   x16,W
04C60:  SUBWF  x0C,W
04C62:  BNC   4CA6
....................       { 
....................          glcd_pixel(x1, y1, color); 
04C64:  MOVFF  607,617
04C68:  MOVFF  608,618
04C6C:  MOVFF  60B,619
04C70:  MOVLB  0
04C72:  CALL   179A
....................  
....................          if(P < 0) 
04C76:  MOVLB  6
04C78:  BTFSC  x13.7
04C7A:  BRA    4C7E
04C7C:  BRA    4C8E
....................          { 
....................             P  += dx; 
04C7E:  MOVF   x0E,W
04C80:  ADDWF  x12,F
04C82:  MOVF   x0F,W
04C84:  ADDWFC x13,F
....................             y1 += addy; 
04C86:  MOVF   x11,W
04C88:  ADDWF  x08,W
04C8A:  MOVWF  x08
....................          } 
....................          else 
04C8C:  BRA    4CA2
....................          { 
....................             P  += diff; 
04C8E:  MOVF   x14,W
04C90:  ADDWF  x12,F
04C92:  MOVF   x15,W
04C94:  ADDWFC x13,F
....................             x1 += addx; 
04C96:  MOVF   x10,W
04C98:  ADDWF  x07,W
04C9A:  MOVWF  x07
....................             y1 += addy; 
04C9C:  MOVF   x11,W
04C9E:  ADDWF  x08,W
04CA0:  MOVWF  x08
....................          } 
....................       } 
04CA2:  INCF   x16,F
04CA4:  BRA    4C5A
....................    } 
.................... } 
04CA6:  MOVLB  0
04CA8:  RETLW  00
....................  
....................  
.................... ///////////////////////////////////////////////////////////////////////// 
.................... // Purpose:       Draw a rectangle on a graphic LCD 
.................... // Inputs:        (x1, y1) - the start coordinate 
.................... //                (x2, y2) - the end coordinate 
.................... //                fill  - YES or NO 
.................... //                color - ON or OFF 
.................... // Dependencies:  glcd_pixel(), glcd_line() 
.................... ///////////////////////////////////////////////////////////////////////// 
.................... #ifdef LARGE_LCD 
.................... void glcd_rect(int16 x1, int16 y1, int16 x2, int16 y2, int1 fill, int1 color) 
.................... #else 
.................... void glcd_rect(int8 x1, int8 y1, int8 x2, int8 y2, int1 fill, int1 color) 
.................... #endif 
.................... { 
....................    if(fill) 
04CAA:  MOVLB  6
04CAC:  MOVF   x00,F
04CAE:  BZ    4D12
....................    { 
....................       #ifdef LARGE_LCD 
....................       int16 i, xmin, xmax, ymin, ymax; 
....................       #else 
....................       int8  i, xmin, xmax, ymin, ymax; 
....................       #endif 
....................  
....................       if(x1 < x2)                            //  Find x min and max 
04CB0:  MOVLB  5
04CB2:  MOVF   xFE,W
04CB4:  SUBWF  xFC,W
04CB6:  BC    4CC2
....................       { 
....................          xmin = x1; 
04CB8:  MOVFF  5FC,603
....................          xmax = x2; 
04CBC:  MOVFF  5FE,604
....................       } 
....................       else 
04CC0:  BRA    4CCA
....................       { 
....................          xmin = x2; 
04CC2:  MOVFF  5FE,603
....................          xmax = x1; 
04CC6:  MOVFF  5FC,604
....................       } 
....................  
....................       if(y1 < y2)                            // Find the y min and max 
04CCA:  MOVF   xFF,W
04CCC:  SUBWF  xFD,W
04CCE:  BC    4CDA
....................       { 
....................          ymin = y1; 
04CD0:  MOVFF  5FD,605
....................          ymax = y2; 
04CD4:  MOVFF  5FF,606
....................       } 
....................       else 
04CD8:  BRA    4CE2
....................       { 
....................          ymin = y2; 
04CDA:  MOVFF  5FF,605
....................          ymax = y1; 
04CDE:  MOVFF  5FD,606
....................       } 
....................  
....................       for(; xmin <= xmax; ++xmin) 
04CE2:  MOVLB  6
04CE4:  MOVF   x03,W
04CE6:  SUBWF  x04,W
04CE8:  BNC   4D10
....................       { 
....................          for(i=ymin; i<=ymax; ++i) 
04CEA:  MOVFF  605,602
04CEE:  MOVF   x02,W
04CF0:  SUBWF  x06,W
04CF2:  BNC   4D0C
....................          { 
....................             glcd_pixel(xmin, i, color); 
04CF4:  MOVFF  603,617
04CF8:  MOVFF  602,618
04CFC:  MOVFF  601,619
04D00:  MOVLB  0
04D02:  CALL   179A
....................          } 
04D06:  MOVLB  6
04D08:  INCF   x02,F
04D0A:  BRA    4CEE
....................       } 
04D0C:  INCF   x03,F
04D0E:  BRA    4CE4
....................    } 
....................    else 
04D10:  BRA    4D6E
....................    { 
....................       glcd_line(x1, y1, x2, y1, color);      // Draw the 4 sides 
04D12:  MOVFF  5FC,607
04D16:  MOVFF  5FD,608
04D1A:  MOVFF  5FE,609
04D1E:  MOVFF  5FD,60A
04D22:  MOVFF  601,60B
04D26:  MOVLB  0
04D28:  RCALL  4B68
....................       glcd_line(x1, y2, x2, y2, color); 
04D2A:  MOVFF  5FC,607
04D2E:  MOVFF  5FF,608
04D32:  MOVFF  5FE,609
04D36:  MOVFF  5FF,60A
04D3A:  MOVFF  601,60B
04D3E:  RCALL  4B68
....................       glcd_line(x1, y1, x1, y2, color); 
04D40:  MOVFF  5FC,607
04D44:  MOVFF  5FD,608
04D48:  MOVFF  5FC,609
04D4C:  MOVFF  5FF,60A
04D50:  MOVFF  601,60B
04D54:  RCALL  4B68
....................       glcd_line(x2, y1, x2, y2, color); 
04D56:  MOVFF  5FE,607
04D5A:  MOVFF  5FD,608
04D5E:  MOVFF  5FE,609
04D62:  MOVFF  5FF,60A
04D66:  MOVFF  601,60B
04D6A:  RCALL  4B68
04D6C:  MOVLB  6
....................    } 
.................... } 
04D6E:  MOVLB  0
04D70:  RETLW  00
....................  
.................... ///////////////////////////////////////////////////////////////////////// 
.................... // Purpose:       Draw a bar (wide line) on a graphic LCD 
.................... // Inputs:        (x1, y1) - the start coordinate 
.................... //                (x2, y2) - the end coordinate 
.................... //                width  - The number of pixels wide 
.................... //                color - ON or OFF 
.................... ///////////////////////////////////////////////////////////////////////// 
.................... #ifdef LARGE_LCD 
.................... void glcd_bar(int16 x1, int16 y1, int16 x2, int16 y2, int8 width, int1 color) 
.................... #else 
.................... void glcd_bar(int8 x1, int8 y1, int8 x2, int8 y2, int8 width, int1 color) 
.................... #endif 
.................... { 
....................    int8         half_width; 
....................    signed int16 dy, dx; 
....................    signed int8  addx=1, addy=1, j; 
....................    signed int16 P, diff, c1, c2; 
....................  
....................    #ifdef LARGE_LCD 
....................    int16 i=0; 
....................    dx = abs((signed int16)(x2 - x1)); 
....................    dy = abs((signed int16)(y2 - y1)); 
....................    #else 
....................    int8 i=0; 
....................    dx = abs((signed int8)(x2 - x1)); 
....................    dy = abs((signed int8)(y2 - y1)); 
....................    #endif 
....................  
....................    half_width = width/2; 
....................    c1 = -(dx*x1 + dy*y1); 
....................    c2 = -(dx*x2 + dy*y2); 
....................  
....................    if(x1 > x2) 
....................    { 
....................       signed int16 temp; 
....................       temp = c1; 
....................       c1 = c2; 
....................       c2 = temp; 
....................       addx = -1; 
....................    } 
....................    if(y1 > y2) 
....................    { 
....................       signed int16 temp; 
....................       temp = c1; 
....................       c1 = c2; 
....................       c2 = temp; 
....................       addy = -1; 
....................    } 
....................  
....................    if(dx >= dy) 
....................    { 
....................       P = 2*dy - dx; 
....................       diff = P - dx; 
....................  
....................       for(i=0; i<=dx; ++i) 
....................       { 
....................          for(j=-half_width; j<half_width+width%2; ++j) 
....................          { 
....................             #ifdef LARGE_LCD 
....................             int16 temp; 
....................             #else 
....................             int8 temp; 
....................             #endif 
....................  
....................             temp = dx*x1+dy*(y1+j);    // Use more RAM to increase speed 
....................             if(temp+c1 >= 0 && temp+c2 <=0) 
....................                glcd_pixel(x1, y1+j, color); 
....................          } 
....................          if(P < 0) 
....................          { 
....................             P  += 2*dy; 
....................             x1 += addx; 
....................          } 
....................          else 
....................          { 
....................             P  += diff; 
....................             x1 += addx; 
....................             y1 += addy; 
....................          } 
....................       } 
....................    } 
....................    else 
....................    { 
....................       P = 2*dx - dy; 
....................       diff = P - dy; 
....................  
....................       for(i=0; i<=dy; ++i) 
....................       { 
....................          if(P < 0) 
....................          { 
....................             P  += 2*dx; 
....................             y1 += addy; 
....................          } 
....................          else 
....................          { 
....................             P  += diff; 
....................             x1 += addx; 
....................             y1 += addy; 
....................          } 
....................          for(j=-half_width; j<half_width+width%2; ++j) 
....................          { 
....................             #ifdef LARGE_LCD 
....................             int16 temp; 
....................             #else 
....................             int8 temp; 
....................             #endif 
....................  
....................             temp = dx*x1+dy*(y1+j);    // Use more RAM to increase speed 
....................             if(temp+c1 >= 0 && temp+c2 <=0) 
....................                glcd_pixel(x1+j, y1, color); 
....................          } 
....................       } 
....................    } 
.................... } 
....................  
....................  
.................... ///////////////////////////////////////////////////////////////////////// 
.................... // Purpose:       Draw a circle on a graphic LCD 
.................... // Inputs:        (x,y) - the center of the circle 
.................... //                radius - the radius of the circle 
.................... //                fill - YES or NO 
.................... //                color - ON or OFF 
.................... ///////////////////////////////////////////////////////////////////////// 
.................... #ifdef LARGE_LCD 
.................... void glcd_circle(int16 x, int16 y, int16 radius, int1 fill, int1 color) 
.................... #else 
.................... void glcd_circle(int8 x, int8 y, int8 radius, int1 fill, int1 color) 
.................... #endif 
.................... { 
....................    #ifdef LARGE_LCD 
....................    signed int16 a, b, P; 
....................    #else 
....................    signed int8  a, b, P; 
....................    #endif 
....................  
....................    a = 0; 
*
059A8:  MOVLB  5
059AA:  CLRF   xFF
....................    b = radius; 
059AC:  MOVFF  5FC,600
....................    P = 1 - radius; 
059B0:  MOVLW  01
059B2:  BSF    FD8.0
059B4:  SUBFWB xFC,W
059B6:  MOVLB  6
059B8:  MOVWF  x01
....................  
....................    do 
....................    { 
....................       if(fill) 
059BA:  MOVLB  5
059BC:  MOVF   xFD,F
059BE:  BTFSC  FD8.2
059C0:  BRA    5AC8
....................       { 
....................          glcd_line(x-a, y+b, x+a, y+b, color); 
059C2:  MOVF   xFF,W
059C4:  SUBWF  xFA,W
059C6:  MOVLB  6
059C8:  MOVWF  x02
059CA:  MOVF   x00,W
059CC:  MOVLB  5
059CE:  ADDWF  xFB,W
059D0:  MOVLB  6
059D2:  MOVWF  x03
059D4:  MOVLB  5
059D6:  MOVF   xFF,W
059D8:  ADDWF  xFA,W
059DA:  MOVLB  6
059DC:  MOVWF  x04
059DE:  MOVF   x00,W
059E0:  MOVLB  5
059E2:  ADDWF  xFB,W
059E4:  MOVLB  6
059E6:  MOVWF  x05
059E8:  MOVFF  602,607
059EC:  MOVFF  603,608
059F0:  MOVFF  604,609
059F4:  MOVWF  x0A
059F6:  MOVFF  5FE,60B
059FA:  MOVLB  0
059FC:  CALL   4B68
....................          glcd_line(x-a, y-b, x+a, y-b, color); 
05A00:  MOVLB  5
05A02:  MOVF   xFF,W
05A04:  SUBWF  xFA,W
05A06:  MOVLB  6
05A08:  MOVWF  x02
05A0A:  MOVF   x00,W
05A0C:  MOVLB  5
05A0E:  SUBWF  xFB,W
05A10:  MOVLB  6
05A12:  MOVWF  x03
05A14:  MOVLB  5
05A16:  MOVF   xFF,W
05A18:  ADDWF  xFA,W
05A1A:  MOVLB  6
05A1C:  MOVWF  x04
05A1E:  MOVF   x00,W
05A20:  MOVLB  5
05A22:  SUBWF  xFB,W
05A24:  MOVLB  6
05A26:  MOVWF  x05
05A28:  MOVFF  602,607
05A2C:  MOVFF  603,608
05A30:  MOVFF  604,609
05A34:  MOVWF  x0A
05A36:  MOVFF  5FE,60B
05A3A:  MOVLB  0
05A3C:  CALL   4B68
....................          glcd_line(x-b, y+a, x+b, y+a, color); 
05A40:  MOVLB  6
05A42:  MOVF   x00,W
05A44:  MOVLB  5
05A46:  SUBWF  xFA,W
05A48:  MOVLB  6
05A4A:  MOVWF  x02
05A4C:  MOVLB  5
05A4E:  MOVF   xFF,W
05A50:  ADDWF  xFB,W
05A52:  MOVLB  6
05A54:  MOVWF  x03
05A56:  MOVF   x00,W
05A58:  MOVLB  5
05A5A:  ADDWF  xFA,W
05A5C:  MOVLB  6
05A5E:  MOVWF  x04
05A60:  MOVLB  5
05A62:  MOVF   xFF,W
05A64:  ADDWF  xFB,W
05A66:  MOVLB  6
05A68:  MOVWF  x05
05A6A:  MOVFF  602,607
05A6E:  MOVFF  603,608
05A72:  MOVFF  604,609
05A76:  MOVWF  x0A
05A78:  MOVFF  5FE,60B
05A7C:  MOVLB  0
05A7E:  CALL   4B68
....................          glcd_line(x-b, y-a, x+b, y-a, color); 
05A82:  MOVLB  6
05A84:  MOVF   x00,W
05A86:  MOVLB  5
05A88:  SUBWF  xFA,W
05A8A:  MOVLB  6
05A8C:  MOVWF  x02
05A8E:  MOVLB  5
05A90:  MOVF   xFF,W
05A92:  SUBWF  xFB,W
05A94:  MOVLB  6
05A96:  MOVWF  x03
05A98:  MOVF   x00,W
05A9A:  MOVLB  5
05A9C:  ADDWF  xFA,W
05A9E:  MOVLB  6
05AA0:  MOVWF  x04
05AA2:  MOVLB  5
05AA4:  MOVF   xFF,W
05AA6:  SUBWF  xFB,W
05AA8:  MOVLB  6
05AAA:  MOVWF  x05
05AAC:  MOVFF  602,607
05AB0:  MOVFF  603,608
05AB4:  MOVFF  604,609
05AB8:  MOVWF  x0A
05ABA:  MOVFF  5FE,60B
05ABE:  MOVLB  0
05AC0:  CALL   4B68
....................       } 
....................       else 
05AC4:  BRA    5BEA
05AC6:  MOVLB  5
....................       { 
....................          glcd_pixel(a+x, b+y, color); 
05AC8:  MOVF   xFA,W
05ACA:  ADDWF  xFF,W
05ACC:  MOVLB  6
05ACE:  MOVWF  x02
05AD0:  MOVLB  5
05AD2:  MOVF   xFB,W
05AD4:  MOVLB  6
05AD6:  ADDWF  x00,W
05AD8:  MOVWF  x03
05ADA:  MOVFF  602,617
05ADE:  MOVWF  x18
05AE0:  MOVFF  5FE,619
05AE4:  MOVLB  0
05AE6:  CALL   179A
....................          glcd_pixel(b+x, a+y, color); 
05AEA:  MOVLB  5
05AEC:  MOVF   xFA,W
05AEE:  MOVLB  6
05AF0:  ADDWF  x00,W
05AF2:  MOVWF  x02
05AF4:  MOVLB  5
05AF6:  MOVF   xFB,W
05AF8:  ADDWF  xFF,W
05AFA:  MOVLB  6
05AFC:  MOVWF  x03
05AFE:  MOVFF  602,617
05B02:  MOVWF  x18
05B04:  MOVFF  5FE,619
05B08:  MOVLB  0
05B0A:  CALL   179A
....................          glcd_pixel(x-a, b+y, color); 
05B0E:  MOVLB  5
05B10:  MOVF   xFF,W
05B12:  SUBWF  xFA,W
05B14:  MOVLB  6
05B16:  MOVWF  x02
05B18:  MOVLB  5
05B1A:  MOVF   xFB,W
05B1C:  MOVLB  6
05B1E:  ADDWF  x00,W
05B20:  MOVWF  x03
05B22:  MOVFF  602,617
05B26:  MOVWF  x18
05B28:  MOVFF  5FE,619
05B2C:  MOVLB  0
05B2E:  CALL   179A
....................          glcd_pixel(x-b, a+y, color); 
05B32:  MOVLB  6
05B34:  MOVF   x00,W
05B36:  MOVLB  5
05B38:  SUBWF  xFA,W
05B3A:  MOVLB  6
05B3C:  MOVWF  x02
05B3E:  MOVLB  5
05B40:  MOVF   xFB,W
05B42:  ADDWF  xFF,W
05B44:  MOVLB  6
05B46:  MOVWF  x03
05B48:  MOVFF  602,617
05B4C:  MOVWF  x18
05B4E:  MOVFF  5FE,619
05B52:  MOVLB  0
05B54:  CALL   179A
....................          glcd_pixel(b+x, y-a, color); 
05B58:  MOVLB  5
05B5A:  MOVF   xFA,W
05B5C:  MOVLB  6
05B5E:  ADDWF  x00,W
05B60:  MOVWF  x02
05B62:  MOVLB  5
05B64:  MOVF   xFF,W
05B66:  SUBWF  xFB,W
05B68:  MOVLB  6
05B6A:  MOVWF  x03
05B6C:  MOVFF  602,617
05B70:  MOVWF  x18
05B72:  MOVFF  5FE,619
05B76:  MOVLB  0
05B78:  CALL   179A
....................          glcd_pixel(a+x, y-b, color); 
05B7C:  MOVLB  5
05B7E:  MOVF   xFA,W
05B80:  ADDWF  xFF,W
05B82:  MOVLB  6
05B84:  MOVWF  x02
05B86:  MOVF   x00,W
05B88:  MOVLB  5
05B8A:  SUBWF  xFB,W
05B8C:  MOVLB  6
05B8E:  MOVWF  x03
05B90:  MOVFF  602,617
05B94:  MOVWF  x18
05B96:  MOVFF  5FE,619
05B9A:  MOVLB  0
05B9C:  CALL   179A
....................          glcd_pixel(x-a, y-b, color); 
05BA0:  MOVLB  5
05BA2:  MOVF   xFF,W
05BA4:  SUBWF  xFA,W
05BA6:  MOVLB  6
05BA8:  MOVWF  x02
05BAA:  MOVF   x00,W
05BAC:  MOVLB  5
05BAE:  SUBWF  xFB,W
05BB0:  MOVLB  6
05BB2:  MOVWF  x03
05BB4:  MOVFF  602,617
05BB8:  MOVWF  x18
05BBA:  MOVFF  5FE,619
05BBE:  MOVLB  0
05BC0:  CALL   179A
....................          glcd_pixel(x-b, y-a, color); 
05BC4:  MOVLB  6
05BC6:  MOVF   x00,W
05BC8:  MOVLB  5
05BCA:  SUBWF  xFA,W
05BCC:  MOVLB  6
05BCE:  MOVWF  x02
05BD0:  MOVLB  5
05BD2:  MOVF   xFF,W
05BD4:  SUBWF  xFB,W
05BD6:  MOVLB  6
05BD8:  MOVWF  x03
05BDA:  MOVFF  602,617
05BDE:  MOVWF  x18
05BE0:  MOVFF  5FE,619
05BE4:  MOVLB  0
05BE6:  CALL   179A
....................       } 
....................  
....................       if(P < 0) 
05BEA:  MOVLB  6
05BEC:  BTFSC  x01.7
05BEE:  BRA    5BF2
05BF0:  BRA    5C12
....................          P += 3 + 2 * a++; 
05BF2:  MOVLB  5
05BF4:  MOVF   xFF,W
05BF6:  INCF   xFF,F
05BF8:  MOVLB  6
05BFA:  MOVWF  x02
05BFC:  MOVLW  02
05BFE:  MOVWF  x03
05C00:  MOVFF  602,604
05C04:  MOVLB  0
05C06:  RCALL  595A
05C08:  MOVF   01,W
05C0A:  ADDLW  03
05C0C:  MOVLB  6
05C0E:  ADDWF  x01,F
....................       else 
05C10:  BRA    5C38
....................          P += 5 + 2 * (a++ - b--); 
05C12:  MOVLB  5
05C14:  MOVF   xFF,W
05C16:  INCF   xFF,F
05C18:  MOVLB  6
05C1A:  MOVWF  x02
05C1C:  MOVF   x00,W
05C1E:  DECF   x00,F
05C20:  SUBWF  x02,W
05C22:  MOVWF  x02
05C24:  MOVLW  02
05C26:  MOVWF  x03
05C28:  MOVFF  602,604
05C2C:  MOVLB  0
05C2E:  RCALL  595A
05C30:  MOVF   01,W
05C32:  ADDLW  05
05C34:  MOVLB  6
05C36:  ADDWF  x01,F
....................     } while(a <= b); 
05C38:  MOVLB  5
05C3A:  MOVF   xFF,W
05C3C:  XORLW  80
05C3E:  MOVWF  00
05C40:  MOVLB  6
05C42:  MOVF   x00,W
05C44:  XORLW  80
05C46:  SUBWF  00,W
05C48:  BTFSC  FD8.2
05C4A:  BRA    59BA
05C4C:  BTFSS  FD8.0
05C4E:  BRA    59BA
.................... } 
05C50:  MOVLB  0
05C52:  RETLW  00
....................  
....................  
.................... ///////////////////////////////////////////////////////////////////////// 
.................... // Purpose:       Write text on a graphic LCD 
.................... // Inputs:        (x,y) - The upper left coordinate of the first letter 
.................... //                textptr - A pointer to an array of text to display 
.................... //                size - The size of the text: 1 = 5x7, 2 = 10x14, ... 
.................... //                color - ON or OFF 
.................... ///////////////////////////////////////////////////////////////////////// 
.................... #ifdef LARGE_LCD 
.................... void glcd_text57(int16 x, int16 y, char* textptr, int8 size, int1 color) 
.................... #else 
.................... void glcd_text57(int8 x, int8 y, char* textptr, int8 size, int1 color) 
.................... #endif 
.................... { 
....................    int8 j, k, l, m;                       // Loop counters 
....................    int8 pixelData[5];                     // Stores character data 
....................  
....................    for(; *textptr != '\0'; ++textptr, ++x)// Loop through the passed string 
*
01856:  MOVFF  5FF,03
0185A:  MOVLB  5
0185C:  MOVFF  5FE,FE9
01860:  MOVFF  5FF,FEA
01864:  MOVF   FEF,F
01866:  BTFSC  FD8.2
01868:  BRA    1A28
....................    { 
....................       if(*textptr < 'S') // Checks if the letter is in the first font array 
0186A:  MOVFF  5FF,03
0186E:  MOVFF  5FE,FE9
01872:  MOVFF  5FF,FEA
01876:  MOVF   FEF,W
01878:  SUBLW  52
0187A:  BNC   18CC
....................          memcpy(pixelData, FONT[*textptr - ' '], 5); 
0187C:  MOVFF  5FF,03
01880:  MOVFF  5FE,FE9
01884:  MOVFF  5FF,FEA
01888:  MOVLW  20
0188A:  SUBWF  FEF,W
0188C:  MULLW  05
0188E:  MOVF   FF3,W
01890:  CLRF   03
01892:  MOVLB  6
01894:  MOVWF  x0B
01896:  MOVLW  06
01898:  MOVWF  FEA
0189A:  MOVWF  FE9
0189C:  CLRF   x0F
0189E:  MOVFF  60B,60E
018A2:  MOVFF  FF2,60C
018A6:  BCF    FF2.7
018A8:  MOVLW  05
018AA:  MOVWF  01
018AC:  CLRF   FF7
018AE:  MOVF   x0B,W
018B0:  MOVLB  0
018B2:  CALL   009E
018B6:  TBLRD*-
018B8:  TBLRD*+
018BA:  MOVFF  FF5,FEE
018BE:  DECFSZ 01,F
018C0:  BRA    18B8
018C2:  MOVLB  6
018C4:  BTFSC  x0C.7
018C6:  BSF    FF2.7
....................       else if(*textptr <= '~') // Check if the letter is in the second font array 
018C8:  BRA    1938
018CA:  MOVLB  5
018CC:  MOVFF  5FF,03
018D0:  MOVFF  5FE,FE9
018D4:  MOVFF  5FF,FEA
018D8:  MOVF   FEF,W
018DA:  SUBLW  7E
018DC:  BNC   192C
....................          memcpy(pixelData, FONT2[*textptr - 'S'], 5); 
018DE:  MOVFF  5FF,03
018E2:  MOVFF  5FE,FE9
018E6:  MOVFF  5FF,FEA
018EA:  MOVLW  53
018EC:  SUBWF  FEF,W
018EE:  MULLW  05
018F0:  MOVF   FF3,W
018F2:  CLRF   03
018F4:  MOVLB  6
018F6:  MOVWF  x0B
018F8:  MOVLW  06
018FA:  MOVWF  FEA
018FC:  MOVWF  FE9
018FE:  CLRF   x0F
01900:  MOVFF  60B,60E
01904:  MOVFF  FF2,60C
01908:  BCF    FF2.7
0190A:  MOVLW  05
0190C:  MOVWF  01
0190E:  CLRF   FF7
01910:  MOVF   x0B,W
01912:  MOVLB  0
01914:  CALL   01BC
01918:  TBLRD*-
0191A:  TBLRD*+
0191C:  MOVFF  FF5,FEE
01920:  DECFSZ 01,F
01922:  BRA    191A
01924:  MOVLB  6
01926:  BTFSC  x0C.7
01928:  BSF    FF2.7
....................       else 
0192A:  BRA    1938
....................          memcpy(pixelData, FONT[0], 5);   // Default to space 
0192C:  MOVLB  6
0192E:  CLRF   x06
01930:  CLRF   x07
01932:  CLRF   x08
01934:  CLRF   x09
01936:  CLRF   x0A
....................  
....................       // Handles newline and carriage returns 
....................       switch(*textptr) 
....................       { 
01938:  MOVFF  5FF,03
0193C:  MOVLB  5
0193E:  MOVF   xFE,W
01940:  MOVWF  FE9
01942:  MOVFF  03,FEA
01946:  MOVF   FEF,W
01948:  XORLW  0A
0194A:  MOVLB  0
0194C:  BZ    1954
0194E:  XORLW  07
01950:  BZ    1966
01952:  BRA    196C
....................          case '\n': 
....................             y += 7*size + 1; 
01954:  MOVLB  6
01956:  MOVF   x00,W
01958:  MULLW  07
0195A:  MOVF   FF3,W
0195C:  ADDLW  01
0195E:  MOVLB  5
01960:  ADDWF  xFD,F
....................             continue; 
01962:  BRA    1A1A
01964:  MOVLB  0
....................          case '\r': 
....................             x = 0; 
01966:  MOVLB  5
01968:  CLRF   xFC
....................             continue; 
0196A:  BRA    1A1A
....................       } 
....................  
....................       if(x+5*size >= GLCD_WIDTH)          // Performs character wrapping 
0196C:  MOVLB  6
0196E:  MOVF   x00,W
01970:  MULLW  05
01972:  MOVF   FF3,W
01974:  MOVLB  5
01976:  ADDWF  xFC,W
01978:  SUBLW  7F
0197A:  BC    198C
....................       { 
....................          x = 0;                           // Set x at far left position 
0197C:  CLRF   xFC
....................          y += 7*size + 1;                 // Set y at next position down 
0197E:  MOVLB  6
01980:  MOVF   x00,W
01982:  MULLW  07
01984:  MOVF   FF3,W
01986:  ADDLW  01
01988:  MOVLB  5
0198A:  ADDWF  xFD,F
....................       } 
....................       for(j=0; j<5; ++j, x+=size)         // Loop through character byte data 
0198C:  MOVLB  6
0198E:  CLRF   x02
01990:  MOVF   x02,W
01992:  SUBLW  04
01994:  BNC   1A18
....................       { 
....................          for(k=0; k < 7; ++k)             // Loop through the vertical pixels 
01996:  CLRF   x03
01998:  MOVF   x03,W
0199A:  SUBLW  06
0199C:  BNC   1A0C
....................          { 
....................             if(bit_test(pixelData[j], k)) // Check if the pixel should be set 
0199E:  CLRF   03
019A0:  MOVF   x02,W
019A2:  ADDLW  06
019A4:  MOVWF  FE9
019A6:  MOVLW  06
019A8:  ADDWFC 03,W
019AA:  MOVWF  FEA
019AC:  MOVFF  FEF,60B
019B0:  MOVFF  60B,00
019B4:  MOVF   x03,W
019B6:  MOVWF  01
019B8:  BZ    19C2
019BA:  BCF    FD8.0
019BC:  RRCF   00,F
019BE:  DECFSZ 01,F
019C0:  BRA    19BA
019C2:  BTFSS  00.0
019C4:  BRA    1A08
....................             { 
....................                for(l=0; l < size; ++l)    // These two loops change the 
019C6:  CLRF   x04
019C8:  MOVF   x00,W
019CA:  SUBWF  x04,W
019CC:  BC    1A08
....................                {                          // character's size 
....................                   for(m=0; m < size; ++m) 
019CE:  CLRF   x05
019D0:  MOVF   x00,W
019D2:  SUBWF  x05,W
019D4:  BC    1A04
....................                   { 
....................                      glcd_pixel(x+m, y+k*size+l, color); // Draws the pixel 
019D6:  MOVF   x05,W
019D8:  MOVLB  5
019DA:  ADDWF  xFC,W
019DC:  MOVLB  6
019DE:  MOVWF  x0B
019E0:  MOVF   x03,W
019E2:  MULWF  x00
019E4:  MOVF   FF3,W
019E6:  MOVLB  5
019E8:  ADDWF  xFD,W
019EA:  MOVLB  6
019EC:  ADDWF  x04,W
019EE:  MOVWF  x0C
019F0:  MOVFF  60B,617
019F4:  MOVWF  x18
019F6:  MOVFF  601,619
019FA:  MOVLB  0
019FC:  RCALL  179A
....................                   } 
019FE:  MOVLB  6
01A00:  INCF   x05,F
01A02:  BRA    19D0
....................                } 
01A04:  INCF   x04,F
01A06:  BRA    19C8
....................             } 
....................          } 
01A08:  INCF   x03,F
01A0A:  BRA    1998
....................       } 
01A0C:  INCF   x02,F
01A0E:  MOVF   x00,W
01A10:  MOVLB  5
01A12:  ADDWF  xFC,F
01A14:  MOVLB  6
01A16:  BRA    1990
01A18:  MOVLB  5
....................    } 
01A1A:  INCF   xFE,F
01A1C:  BTFSC  FD8.2
01A1E:  INCF   xFF,F
01A20:  INCF   xFC,F
01A22:  MOVLB  0
01A24:  BRA    1856
01A26:  MOVLB  5
.................... } 
01A28:  MOVLB  0
01A2A:  RETLW  00
....................  
.................... #endif 
....................  
.................... #include "imagen.h" 
.................... const int8 Bombillo [64][16] = { 
.................... 0x00, 0x00, 0x00, 0x00, 0x00, 0x00, 0x00, 0x00, 0x00, 0x00, 0x00, 0x00, 0x00, 0x00, 0x00, 0x00, 
.................... 0x00, 0x00, 0x00, 0x00, 0x00, 0x00, 0x00, 0x00, 0x00, 0x00, 0x00, 0x00, 0x00, 0x00, 0x00, 0x00, 
.................... 0x00, 0x00, 0x00, 0x00, 0x00, 0x00, 0x00, 0x00, 0x00, 0x00, 0x00, 0x00, 0x00, 0x00, 0x00, 0x00, 
.................... 0x00, 0x00, 0x00, 0x00, 0x00, 0x00, 0x00, 0x00, 0x00, 0x00, 0x00, 0x00, 0x00, 0x00, 0x00, 0x00, 
.................... 0x00, 0x00, 0x00, 0x00, 0x00, 0x00, 0x00, 0x00, 0x00, 0x00, 0x00, 0x00, 0x00, 0x00, 0x00, 0x00, 
.................... 0x00, 0x00, 0x00, 0x00, 0x00, 0x00, 0x00, 0x00, 0x00, 0x00, 0x00, 0x00, 0x00, 0x00, 0x00, 0x00, 
.................... 0x00, 0x00, 0x00, 0x00, 0x00, 0x00, 0x00, 0x00, 0x00, 0x00, 0x00, 0x00, 0x00, 0x00, 0x00, 0x00, 
.................... 0x00, 0x00, 0x00, 0x00, 0x00, 0x00, 0x00, 0x00, 0x00, 0x00, 0x00, 0x00, 0x00, 0x00, 0x00, 0x00, 
.................... 0x00, 0x00, 0x00, 0x00, 0x00, 0x00, 0x00, 0x00, 0x00, 0x00, 0x00, 0x00, 0x00, 0x00, 0x00, 0x00, 
.................... 0x00, 0x00, 0x00, 0x00, 0x00, 0x00, 0x00, 0x00, 0x00, 0x00, 0x00, 0x00, 0x00, 0x00, 0x00, 0x00, 
.................... 0x00, 0x00, 0x00, 0x00, 0x00, 0x00, 0x00, 0x00, 0x00, 0x00, 0x00, 0x00, 0x00, 0x00, 0x00, 0x00, 
.................... 0x00, 0x00, 0x00, 0x00, 0x00, 0x00, 0x00, 0x00, 0x00, 0x00, 0x00, 0x00, 0x00, 0x00, 0x00, 0x00, 
.................... 0x00, 0x00, 0x00, 0x00, 0x00, 0x00, 0x00, 0x00, 0x00, 0x00, 0x00, 0x00, 0x00, 0x00, 0x00, 0x00, 
.................... 0x00, 0x00, 0x00, 0x00, 0x00, 0x00, 0x00, 0x00, 0x00, 0x00, 0x00, 0x00, 0x00, 0x00, 0x00, 0x00, 
.................... 0x00, 0x00, 0x00, 0x00, 0x00, 0x00, 0x00, 0x00, 0x00, 0x00, 0x00, 0x00, 0x00, 0x00, 0x00, 0x00, 
.................... 0x00, 0x00, 0x00, 0x00, 0x00, 0x00, 0x00, 0x00, 0x00, 0x00, 0x00, 0x00, 0x00, 0x08, 0x00, 0x80, 
.................... 0x00, 0x00, 0x00, 0x00, 0x00, 0x00, 0x00, 0x00, 0x00, 0x00, 0x00, 0x00, 0x00, 0x04, 0x01, 0x00, 
.................... 0x00, 0x00, 0x00, 0x00, 0x00, 0x00, 0x00, 0x00, 0x00, 0x00, 0x00, 0x00, 0x00, 0x02, 0x02, 0x00, 
.................... 0x00, 0x00, 0x00, 0x00, 0x00, 0x00, 0x00, 0x00, 0x00, 0x00, 0x00, 0x00, 0x00, 0x00, 0x78, 0x00, 
.................... 0x00, 0x00, 0x00, 0x00, 0x00, 0x00, 0x00, 0x00, 0x00, 0x00, 0x00, 0x00, 0x00, 0x00, 0x84, 0x00, 
.................... 0x00, 0x00, 0x00, 0x00, 0x00, 0x00, 0x00, 0x00, 0x00, 0x00, 0x00, 0x00, 0x00, 0x01, 0x02, 0x00, 
.................... 0x00, 0x00, 0x00, 0x00, 0x00, 0x00, 0x00, 0x00, 0x00, 0x00, 0x00, 0x00, 0x00, 0xF9, 0x02, 0xF8, 
.................... 0x00, 0x00, 0x00, 0x00, 0x00, 0x00, 0x00, 0x00, 0x00, 0x00, 0x00, 0x00, 0x00, 0x01, 0x02, 0x00, 
.................... 0x00, 0x00, 0x00, 0x00, 0x00, 0x00, 0x00, 0x00, 0x00, 0x00, 0x00, 0x00, 0x00, 0x01, 0x02, 0x00, 
.................... 0x00, 0x00, 0x00, 0x00, 0x00, 0x00, 0x00, 0x00, 0x00, 0x00, 0x00, 0x00, 0x00, 0x04, 0x84, 0x80, 
.................... 0x00, 0x00, 0x00, 0x00, 0x00, 0x00, 0x00, 0x00, 0x00, 0x00, 0x00, 0x00, 0x00, 0x08, 0x78, 0x40, 
.................... 0x00, 0x00, 0x00, 0x00, 0x00, 0x00, 0x00, 0x00, 0x00, 0x00, 0x00, 0x00, 0x00, 0x10, 0x48, 0x20, 
.................... 0x00, 0x00, 0x00, 0x00, 0x00, 0x00, 0x00, 0x00, 0x00, 0x00, 0x00, 0x00, 0x00, 0x20, 0x48, 0x10, 
.................... 0x00, 0x00, 0x00, 0x00, 0x00, 0x00, 0x00, 0x00, 0x00, 0x00, 0x00, 0x00, 0x00, 0x00, 0x78, 0x00, 
.................... 0x00, 0x00, 0x00, 0x00, 0x00, 0x00, 0x00, 0x00, 0x00, 0x00, 0x00, 0x00, 0x00, 0x00, 0x00, 0x00, 
.................... 0x00, 0x00, 0x00, 0x00, 0x00, 0x00, 0x00, 0x00, 0x00, 0x00, 0x00, 0x00, 0x00, 0x00, 0x00, 0x00, 
.................... 0x00, 0x00, 0x00, 0x00, 0x00, 0x00, 0x00, 0x00, 0x00, 0x00, 0x00, 0x00, 0x00, 0x00, 0x00, 0x00, 
.................... 0x00, 0x00, 0x00, 0x00, 0x00, 0x00, 0x00, 0x00, 0x00, 0x00, 0x00, 0x00, 0x00, 0x00, 0x00, 0x00, 
.................... 0x00, 0x00, 0x00, 0x00, 0x00, 0x00, 0x00, 0x00, 0x00, 0x00, 0x00, 0x00, 0x00, 0x00, 0x00, 0x00, 
.................... 0x00, 0x00, 0x00, 0x00, 0x00, 0x00, 0x00, 0x00, 0x00, 0x00, 0x00, 0x00, 0x00, 0x00, 0x00, 0x00, 
.................... 0x00, 0x00, 0x00, 0x00, 0x00, 0x00, 0x00, 0x00, 0x00, 0x00, 0x00, 0x00, 0x00, 0x00, 0x00, 0x00, 
.................... 0x00, 0x00, 0x00, 0x00, 0x00, 0x00, 0x00, 0x00, 0x00, 0x00, 0x00, 0x00, 0x00, 0x00, 0x00, 0x00, 
.................... 0x00, 0x00, 0x00, 0x00, 0x00, 0x00, 0x00, 0x00, 0x00, 0x00, 0x00, 0x00, 0x00, 0x00, 0x00, 0x00, 
.................... 0x00, 0x00, 0x00, 0x00, 0x00, 0x00, 0x00, 0x00, 0x00, 0x00, 0x00, 0x00, 0x00, 0x00, 0x00, 0x00, 
.................... 0x00, 0x00, 0x00, 0x00, 0x00, 0x00, 0x00, 0x00, 0x00, 0x00, 0x00, 0x00, 0x00, 0x00, 0x00, 0x00, 
.................... 0x00, 0x00, 0x00, 0x00, 0x00, 0x00, 0x00, 0x00, 0x00, 0x00, 0x00, 0x00, 0x00, 0x00, 0x00, 0x00, 
.................... 0x00, 0x00, 0x00, 0x00, 0x00, 0x00, 0x00, 0x00, 0x00, 0x00, 0x00, 0x00, 0x00, 0x00, 0x00, 0x00, 
.................... 0x00, 0x00, 0x00, 0x00, 0x00, 0x00, 0x00, 0x00, 0x00, 0x00, 0x00, 0x00, 0x00, 0x00, 0x00, 0x00, 
.................... 0x00, 0x00, 0x00, 0x00, 0x00, 0x00, 0x00, 0x00, 0x00, 0x00, 0x00, 0x00, 0x00, 0x00, 0x00, 0x00, 
.................... 0x00, 0x00, 0x00, 0x00, 0x00, 0x00, 0x00, 0x00, 0x00, 0x00, 0x00, 0x00, 0x00, 0x00, 0x00, 0x00, 
.................... 0x00, 0x00, 0x00, 0x00, 0x00, 0x00, 0x00, 0x00, 0x00, 0x00, 0x00, 0x00, 0x00, 0x00, 0x00, 0x00, 
.................... 0x00, 0x00, 0x00, 0x00, 0x00, 0x00, 0x00, 0x00, 0x00, 0x00, 0x00, 0x00, 0x00, 0x00, 0x00, 0x00, 
.................... 0x00, 0x00, 0x00, 0x00, 0x00, 0x00, 0x00, 0x00, 0x00, 0x00, 0x00, 0x00, 0x00, 0x00, 0x00, 0x00, 
.................... 0x00, 0x00, 0x00, 0x00, 0x00, 0x00, 0x00, 0x00, 0x00, 0x00, 0x00, 0x00, 0x00, 0x00, 0x00, 0x00, 
.................... 0x00, 0x00, 0x00, 0x00, 0x00, 0x00, 0x00, 0x00, 0x00, 0x00, 0x00, 0x00, 0x00, 0x00, 0x00, 0x00, 
.................... 0x00, 0x00, 0x00, 0x00, 0x00, 0x00, 0x00, 0x00, 0x00, 0x00, 0x00, 0x00, 0x00, 0x00, 0x00, 0x00, 
.................... 0x00, 0x00, 0x00, 0x00, 0x00, 0x00, 0x00, 0x00, 0x00, 0x00, 0x00, 0x00, 0x00, 0x00, 0x00, 0x00, 
.................... 0x00, 0x00, 0x00, 0x00, 0x00, 0x00, 0x00, 0x00, 0x00, 0x00, 0x00, 0x00, 0x00, 0x00, 0x00, 0x00, 
.................... 0x00, 0x00, 0x00, 0x00, 0x00, 0x00, 0x00, 0x00, 0x00, 0x00, 0x00, 0x00, 0x00, 0x00, 0x00, 0x00, 
.................... 0x00, 0x00, 0x00, 0x00, 0x00, 0x00, 0x00, 0x00, 0x00, 0x00, 0x00, 0x00, 0x00, 0x00, 0x00, 0x00, 
.................... 0x00, 0x00, 0x00, 0x00, 0x00, 0x00, 0x00, 0x00, 0x00, 0x00, 0x00, 0x00, 0x00, 0x00, 0x00, 0x00, 
.................... 0x00, 0x00, 0x00, 0x00, 0x00, 0x00, 0x00, 0x00, 0x00, 0x00, 0x00, 0x00, 0x00, 0x00, 0x00, 0x00, 
.................... 0x00, 0x00, 0x00, 0x00, 0x00, 0x00, 0x00, 0x00, 0x00, 0x00, 0x00, 0x00, 0x00, 0x00, 0x00, 0x00, 
.................... 0x00, 0x00, 0x00, 0x00, 0x00, 0x00, 0x00, 0x00, 0x00, 0x00, 0x00, 0x00, 0x00, 0x00, 0x00, 0x00, 
.................... 0x00, 0x00, 0x00, 0x00, 0x00, 0x00, 0x00, 0x00, 0x00, 0x00, 0x00, 0x00, 0x00, 0x00, 0x00, 0x00, 
.................... 0x00, 0x00, 0x00, 0x00, 0x00, 0x00, 0x00, 0x00, 0x00, 0x00, 0x00, 0x00, 0x00, 0x00, 0x00, 0x00, 
.................... 0x00, 0x00, 0x00, 0x00, 0x00, 0x00, 0x00, 0x00, 0x00, 0x00, 0x00, 0x00, 0x00, 0x00, 0x00, 0x00, 
.................... 0x00, 0x00, 0x00, 0x00, 0x00, 0x00, 0x00, 0x00, 0x00, 0x00, 0x00, 0x00, 0x00, 0x00, 0x00, 0x00, 
.................... 0x00, 0x00, 0x00, 0x00, 0x00, 0x00, 0x00, 0x00, 0x00, 0x00, 0x00, 0x00, 0x00, 0x00, 0x00, 0x00 
.................... }; 
....................  
.................... const int8 Tomai [64][16] = { 
.................... 0x00, 0x00, 0x00, 0x00, 0x00, 0x00, 0x00, 0x00, 0x00, 0x00, 0x00, 0x00, 0x00, 0x00, 0x00, 0x00, 
.................... 0x00, 0x00, 0x00, 0x00, 0x00, 0x00, 0x00, 0x00, 0x00, 0x00, 0x00, 0x00, 0x00, 0x00, 0x00, 0x00, 
.................... 0x00, 0x00, 0x00, 0x00, 0x00, 0x00, 0x00, 0x00, 0x00, 0x00, 0x00, 0x00, 0x00, 0x00, 0x00, 0x00, 
.................... 0x00, 0x00, 0x00, 0x00, 0x00, 0x00, 0x00, 0x00, 0x00, 0x00, 0x00, 0x00, 0x00, 0x00, 0x00, 0x00, 
.................... 0x00, 0x00, 0x00, 0x00, 0x00, 0x00, 0x00, 0x00, 0x00, 0x00, 0x00, 0x00, 0x00, 0x00, 0x00, 0x00, 
.................... 0x00, 0x00, 0x00, 0x00, 0x00, 0x00, 0x00, 0x00, 0x00, 0x00, 0x00, 0x00, 0x00, 0x00, 0x00, 0x00, 
.................... 0x00, 0x00, 0x00, 0x00, 0x00, 0x00, 0x00, 0x00, 0x00, 0x00, 0x00, 0x00, 0x00, 0x00, 0x00, 0x00, 
.................... 0x00, 0x00, 0x00, 0x00, 0x00, 0x00, 0x00, 0x00, 0x00, 0x00, 0x00, 0x00, 0x00, 0x00, 0x00, 0x00, 
.................... 0x00, 0x00, 0x00, 0x00, 0x00, 0x00, 0x00, 0x00, 0x00, 0x00, 0x00, 0x00, 0x00, 0x00, 0x00, 0x00, 
.................... 0x00, 0x00, 0x00, 0x00, 0x00, 0x00, 0x00, 0x00, 0x00, 0x00, 0x00, 0x00, 0x00, 0x00, 0x00, 0x00, 
.................... 0x00, 0x00, 0x00, 0x00, 0x00, 0x00, 0x00, 0x00, 0x00, 0x00, 0x00, 0x00, 0x00, 0x00, 0x00, 0x00, 
.................... 0x00, 0x00, 0x00, 0x00, 0x00, 0x00, 0x00, 0x00, 0x00, 0x00, 0x00, 0x00, 0x00, 0x00, 0x00, 0x00, 
.................... 0x00, 0x00, 0x00, 0x00, 0x00, 0x00, 0x00, 0x00, 0x00, 0x00, 0x00, 0x00, 0x00, 0x00, 0x00, 0x00, 
.................... 0x00, 0x00, 0x00, 0x00, 0x00, 0x00, 0x00, 0x00, 0x00, 0x00, 0x00, 0x00, 0x00, 0x00, 0x00, 0x00, 
.................... 0x00, 0x00, 0x00, 0x00, 0x00, 0x00, 0x00, 0x00, 0x00, 0x00, 0x00, 0x00, 0x00, 0x00, 0x00, 0x00, 
.................... 0x00, 0x00, 0x00, 0x00, 0x00, 0x00, 0x00, 0x00, 0x00, 0x00, 0x00, 0x00, 0x00, 0x00, 0x00, 0x00, 
.................... 0x00, 0x00, 0x00, 0x00, 0x00, 0x00, 0x00, 0x00, 0x00, 0x00, 0x00, 0x00, 0x00, 0x00, 0x00, 0x00, 
.................... 0x00, 0x00, 0x00, 0x00, 0x00, 0x00, 0x00, 0x00, 0x00, 0x00, 0x00, 0x00, 0x00, 0x00, 0x00, 0x00, 
.................... 0x00, 0x00, 0x00, 0x00, 0x00, 0x00, 0x00, 0x00, 0x00, 0x00, 0x00, 0x00, 0x00, 0x00, 0x00, 0x00, 
.................... 0x00, 0x00, 0x00, 0x00, 0x00, 0x00, 0x00, 0x00, 0x00, 0x00, 0x00, 0x00, 0x00, 0x00, 0x00, 0x00, 
.................... 0x00, 0x00, 0x00, 0x00, 0x00, 0x00, 0x00, 0x00, 0x00, 0x00, 0x00, 0x00, 0x00, 0x00, 0x00, 0x00, 
.................... 0x00, 0x00, 0x00, 0x00, 0x00, 0x00, 0x00, 0x00, 0x00, 0x00, 0x00, 0x00, 0x00, 0x00, 0x00, 0x00, 
.................... 0x00, 0x00, 0x00, 0x00, 0x00, 0x00, 0x00, 0x00, 0x00, 0x00, 0x00, 0x00, 0x00, 0x00, 0x00, 0x00, 
.................... 0x00, 0x00, 0x00, 0x00, 0x00, 0x00, 0x00, 0x00, 0x00, 0x00, 0x00, 0x00, 0x00, 0x00, 0x00, 0x00, 
.................... 0x00, 0x00, 0x00, 0x00, 0x00, 0x00, 0x00, 0x00, 0x00, 0x00, 0x00, 0x00, 0x00, 0x00, 0x00, 0x00, 
.................... 0x00, 0x00, 0x00, 0x00, 0x00, 0x00, 0x00, 0x00, 0x00, 0x00, 0x00, 0x00, 0x00, 0x00, 0x00, 0x00, 
.................... 0x00, 0x00, 0x00, 0x00, 0x00, 0x00, 0x00, 0x00, 0x00, 0x00, 0x00, 0x00, 0x00, 0x00, 0x00, 0x00, 
.................... 0x00, 0x00, 0x00, 0x00, 0x00, 0x00, 0x00, 0x00, 0x00, 0x00, 0x00, 0x00, 0x00, 0x00, 0x00, 0x00, 
.................... 0x00, 0x00, 0x00, 0x00, 0x00, 0x00, 0x00, 0x00, 0x00, 0x00, 0x00, 0x00, 0x00, 0x00, 0x00, 0x00, 
.................... 0x00, 0x00, 0x00, 0x00, 0x00, 0x00, 0x00, 0x00, 0x00, 0x00, 0x00, 0x00, 0x00, 0x00, 0x00, 0x00, 
.................... 0x00, 0x00, 0x00, 0x00, 0x00, 0x00, 0x00, 0x00, 0x00, 0x00, 0x00, 0x00, 0x00, 0x7F, 0xFF, 0xF8, 
.................... 0x00, 0x00, 0x00, 0x00, 0x00, 0x00, 0x00, 0x00, 0x00, 0x00, 0x00, 0x00, 0x00, 0x40, 0x00, 0x08, 
.................... 0x00, 0x00, 0x00, 0x00, 0x00, 0x00, 0x00, 0x00, 0x00, 0x00, 0x00, 0x00, 0x00, 0x47, 0x03, 0x88, 
.................... 0x00, 0x00, 0x00, 0x00, 0x00, 0x00, 0x00, 0x00, 0x00, 0x00, 0x00, 0x00, 0x00, 0x45, 0x02, 0x88, 
.................... 0x00, 0x00, 0x00, 0x00, 0x00, 0x00, 0x00, 0x00, 0x00, 0x00, 0x00, 0x00, 0x00, 0x45, 0x02, 0x88, 
.................... 0x00, 0x00, 0x00, 0x00, 0x00, 0x00, 0x00, 0x00, 0x00, 0x00, 0x00, 0x00, 0x00, 0x45, 0x02, 0x88, 
.................... 0x00, 0x00, 0x00, 0x00, 0x00, 0x00, 0x00, 0x00, 0x00, 0x00, 0x00, 0x00, 0x00, 0x45, 0x02, 0x88, 
.................... 0x00, 0x00, 0x00, 0x00, 0x00, 0x00, 0x00, 0x00, 0x00, 0x00, 0x00, 0x00, 0x00, 0x47, 0x03, 0x88, 
.................... 0x00, 0x00, 0x00, 0x00, 0x00, 0x00, 0x00, 0x00, 0x00, 0x00, 0x00, 0x00, 0x00, 0x40, 0x00, 0x08, 
.................... 0x00, 0x00, 0x00, 0x00, 0x00, 0x00, 0x00, 0x00, 0x00, 0x00, 0x00, 0x00, 0x00, 0x40, 0xFC, 0x08, 
.................... 0x00, 0x00, 0x00, 0x00, 0x00, 0x00, 0x00, 0x00, 0x00, 0x00, 0x00, 0x00, 0x00, 0x40, 0x84, 0x08, 
.................... 0x00, 0x00, 0x00, 0x00, 0x00, 0x00, 0x00, 0x00, 0x00, 0x00, 0x00, 0x00, 0x00, 0x40, 0x84, 0x08, 
.................... 0x00, 0x00, 0x00, 0x00, 0x00, 0x00, 0x00, 0x00, 0x00, 0x00, 0x00, 0x00, 0x00, 0x40, 0xFC, 0x08, 
.................... 0x00, 0x00, 0x00, 0x00, 0x00, 0x00, 0x00, 0x00, 0x00, 0x00, 0x00, 0x00, 0x00, 0x40, 0x00, 0x08, 
.................... 0x00, 0x00, 0x00, 0x00, 0x00, 0x00, 0x00, 0x00, 0x00, 0x00, 0x00, 0x00, 0x00, 0x7F, 0xFF, 0xF8, 
.................... 0x00, 0x00, 0x00, 0x00, 0x00, 0x00, 0x00, 0x00, 0x00, 0x00, 0x00, 0x00, 0x00, 0x00, 0x00, 0x00, 
.................... 0x00, 0x00, 0x00, 0x00, 0x00, 0x00, 0x00, 0x00, 0x00, 0x00, 0x00, 0x00, 0x00, 0x00, 0x00, 0x00, 
.................... 0x00, 0x00, 0x00, 0x00, 0x00, 0x00, 0x00, 0x00, 0x00, 0x00, 0x00, 0x00, 0x00, 0x00, 0x00, 0x00, 
.................... 0x00, 0x00, 0x00, 0x00, 0x00, 0x00, 0x00, 0x00, 0x00, 0x00, 0x00, 0x00, 0x00, 0x00, 0x00, 0x00, 
.................... 0x00, 0x00, 0x00, 0x00, 0x00, 0x00, 0x00, 0x00, 0x00, 0x00, 0x00, 0x00, 0x00, 0x00, 0x00, 0x00, 
.................... 0x00, 0x00, 0x00, 0x00, 0x00, 0x00, 0x00, 0x00, 0x00, 0x00, 0x00, 0x00, 0x00, 0x00, 0x00, 0x00, 
.................... 0x00, 0x00, 0x00, 0x00, 0x00, 0x00, 0x00, 0x00, 0x00, 0x00, 0x00, 0x00, 0x00, 0x00, 0x00, 0x00, 
.................... 0x00, 0x00, 0x00, 0x00, 0x00, 0x00, 0x00, 0x00, 0x00, 0x00, 0x00, 0x00, 0x00, 0x00, 0x00, 0x00, 
.................... 0x00, 0x00, 0x00, 0x00, 0x00, 0x00, 0x00, 0x00, 0x00, 0x00, 0x00, 0x00, 0x00, 0x00, 0x00, 0x00, 
.................... 0x00, 0x00, 0x00, 0x00, 0x00, 0x00, 0x00, 0x00, 0x00, 0x00, 0x00, 0x00, 0x00, 0x00, 0x00, 0x00, 
.................... 0x00, 0x00, 0x00, 0x00, 0x00, 0x00, 0x00, 0x00, 0x00, 0x00, 0x00, 0x00, 0x00, 0x00, 0x00, 0x00, 
.................... 0x00, 0x00, 0x00, 0x00, 0x00, 0x00, 0x00, 0x00, 0x00, 0x00, 0x00, 0x00, 0x00, 0x00, 0x00, 0x00, 
.................... 0x00, 0x00, 0x00, 0x00, 0x00, 0x00, 0x00, 0x00, 0x00, 0x00, 0x00, 0x00, 0x00, 0x00, 0x00, 0x00, 
.................... 0x00, 0x00, 0x00, 0x00, 0x00, 0x00, 0x00, 0x00, 0x00, 0x00, 0x00, 0x00, 0x00, 0x00, 0x00, 0x00, 
.................... 0x00, 0x00, 0x00, 0x00, 0x00, 0x00, 0x00, 0x00, 0x00, 0x00, 0x00, 0x00, 0x00, 0x00, 0x00, 0x00, 
.................... 0x00, 0x00, 0x00, 0x00, 0x00, 0x00, 0x00, 0x00, 0x00, 0x00, 0x00, 0x00, 0x00, 0x00, 0x00, 0x00, 
.................... 0x00, 0x00, 0x00, 0x00, 0x00, 0x00, 0x00, 0x00, 0x00, 0x00, 0x00, 0x00, 0x00, 0x00, 0x00, 0x00, 
.................... 0x00, 0x00, 0x00, 0x00, 0x00, 0x00, 0x00, 0x00, 0x00, 0x00, 0x00, 0x00, 0x00, 0x00, 0x00, 0x00, 
.................... 0x00, 0x00, 0x00, 0x00, 0x00, 0x00, 0x00, 0x00, 0x00, 0x00, 0x00, 0x00, 0x00, 0x00, 0x00, 0x00 
.................... }; 
....................  
.................... const int8 Ventilador [64][16] = { 
.................... 0x00, 0x00, 0x00, 0x00, 0x00, 0x00, 0x00, 0x00, 0x00, 0x00, 0x00, 0x00, 0x00, 0x00, 0x00, 0x00, 
.................... 0x00, 0x00, 0x00, 0x00, 0x00, 0x00, 0x00, 0x00, 0x00, 0x00, 0x00, 0x00, 0x00, 0x00, 0x00, 0x00, 
.................... 0x00, 0x00, 0x00, 0x00, 0x00, 0x00, 0x00, 0x00, 0x00, 0x00, 0x00, 0x00, 0x00, 0x00, 0x00, 0x00, 
.................... 0x00, 0x00, 0x00, 0x00, 0x00, 0x00, 0x00, 0x00, 0x00, 0x00, 0x00, 0x00, 0x00, 0x00, 0x00, 0x00, 
.................... 0x00, 0x00, 0x00, 0x00, 0x00, 0x00, 0x00, 0x00, 0x00, 0x00, 0x00, 0x00, 0x00, 0x00, 0x00, 0x00, 
.................... 0x00, 0x00, 0x00, 0x00, 0x00, 0x00, 0x00, 0x00, 0x00, 0x00, 0x00, 0x00, 0x00, 0x00, 0x00, 0x00, 
.................... 0x00, 0x00, 0x00, 0x00, 0x00, 0x00, 0x00, 0x00, 0x00, 0x00, 0x00, 0x00, 0x00, 0x00, 0x00, 0x00, 
.................... 0x00, 0x00, 0x00, 0x00, 0x00, 0x00, 0x00, 0x00, 0x00, 0x00, 0x00, 0x00, 0x00, 0x00, 0x00, 0x00, 
.................... 0x00, 0x00, 0x00, 0x00, 0x00, 0x00, 0x00, 0x00, 0x00, 0x00, 0x00, 0x00, 0x00, 0x00, 0x00, 0x00, 
.................... 0x00, 0x00, 0x00, 0x00, 0x00, 0x00, 0x00, 0x00, 0x00, 0x00, 0x00, 0x00, 0x00, 0x00, 0x00, 0x00, 
.................... 0x00, 0x00, 0x00, 0x00, 0x00, 0x00, 0x00, 0x00, 0x00, 0x00, 0x00, 0x00, 0x00, 0x00, 0x00, 0x00, 
.................... 0x00, 0x00, 0x00, 0x00, 0x00, 0x00, 0x00, 0x00, 0x00, 0x00, 0x00, 0x00, 0x00, 0x00, 0x00, 0x00, 
.................... 0x00, 0x00, 0x00, 0x00, 0x00, 0x00, 0x00, 0x00, 0x00, 0x00, 0x00, 0x00, 0x00, 0x00, 0x00, 0x00, 
.................... 0x00, 0x00, 0x00, 0x00, 0x00, 0x00, 0x00, 0x00, 0x00, 0x00, 0x00, 0x00, 0x00, 0x00, 0x00, 0x00, 
.................... 0x00, 0x00, 0x00, 0x00, 0x00, 0x00, 0x00, 0x00, 0x00, 0x00, 0x00, 0x00, 0x00, 0x00, 0x00, 0x00, 
.................... 0x00, 0x00, 0x00, 0x00, 0x00, 0x00, 0x00, 0x00, 0x00, 0x00, 0x00, 0x00, 0x00, 0x00, 0x00, 0x00, 
.................... 0x00, 0x00, 0x00, 0x00, 0x00, 0x00, 0x00, 0x00, 0x00, 0x00, 0x00, 0x00, 0x00, 0x00, 0x00, 0x00, 
.................... 0x00, 0x00, 0x00, 0x00, 0x00, 0x00, 0x00, 0x00, 0x00, 0x00, 0x00, 0x00, 0x00, 0x00, 0x00, 0x00, 
.................... 0x00, 0x00, 0x00, 0x00, 0x00, 0x00, 0x00, 0x00, 0x00, 0x00, 0x00, 0x00, 0x00, 0x00, 0x00, 0x00, 
.................... 0x00, 0x00, 0x00, 0x00, 0x00, 0x00, 0x00, 0x00, 0x00, 0x00, 0x00, 0x00, 0x00, 0x00, 0x00, 0x00, 
.................... 0x00, 0x00, 0x00, 0x00, 0x00, 0x00, 0x00, 0x00, 0x00, 0x00, 0x00, 0x00, 0x00, 0x00, 0x00, 0x00, 
.................... 0x00, 0x00, 0x00, 0x00, 0x00, 0x00, 0x00, 0x00, 0x00, 0x00, 0x00, 0x00, 0x00, 0x00, 0x00, 0x00, 
.................... 0x00, 0x00, 0x00, 0x00, 0x00, 0x00, 0x00, 0x00, 0x00, 0x00, 0x00, 0x00, 0x00, 0x00, 0x00, 0x00, 
.................... 0x00, 0x00, 0x00, 0x00, 0x00, 0x00, 0x00, 0x00, 0x00, 0x00, 0x00, 0x00, 0x00, 0x00, 0x00, 0x00, 
.................... 0x00, 0x00, 0x00, 0x00, 0x00, 0x00, 0x00, 0x00, 0x00, 0x00, 0x00, 0x00, 0x00, 0x00, 0x00, 0x00, 
.................... 0x00, 0x00, 0x00, 0x00, 0x00, 0x00, 0x00, 0x00, 0x00, 0x00, 0x00, 0x00, 0x00, 0x00, 0x00, 0x00, 
.................... 0x00, 0x00, 0x00, 0x00, 0x00, 0x00, 0x00, 0x00, 0x00, 0x00, 0x00, 0x00, 0x00, 0x00, 0x00, 0x00, 
.................... 0x00, 0x00, 0x00, 0x00, 0x00, 0x00, 0x00, 0x00, 0x00, 0x00, 0x00, 0x00, 0x00, 0x00, 0x00, 0x00, 
.................... 0x00, 0x00, 0x00, 0x00, 0x00, 0x00, 0x00, 0x00, 0x00, 0x00, 0x00, 0x00, 0x00, 0x00, 0x00, 0x00, 
.................... 0x00, 0x00, 0x00, 0x00, 0x00, 0x00, 0x00, 0x00, 0x00, 0x00, 0x00, 0x00, 0x00, 0x00, 0x00, 0x00, 
.................... 0x00, 0x00, 0x00, 0x00, 0x00, 0x00, 0x00, 0x00, 0x00, 0x00, 0x00, 0x00, 0x00, 0x00, 0x00, 0x00, 
.................... 0x00, 0x00, 0x00, 0x00, 0x00, 0x00, 0x00, 0x00, 0x00, 0x00, 0x00, 0x00, 0x00, 0x00, 0x00, 0x00, 
.................... 0x00, 0x00, 0x00, 0x00, 0x00, 0x00, 0x00, 0x00, 0x00, 0x00, 0x00, 0x00, 0x00, 0x00, 0x00, 0x00, 
.................... 0x00, 0x00, 0x00, 0x00, 0x00, 0x00, 0x00, 0x00, 0x00, 0x00, 0x00, 0x00, 0x00, 0x00, 0x00, 0x00, 
.................... 0x00, 0x00, 0x00, 0x00, 0x00, 0x00, 0x00, 0x00, 0x00, 0x00, 0x00, 0x00, 0x00, 0x00, 0x00, 0x00, 
.................... 0x00, 0x00, 0x00, 0x00, 0x00, 0x00, 0x00, 0x00, 0x00, 0x00, 0x00, 0x00, 0x00, 0x00, 0x00, 0x00, 
.................... 0x00, 0x00, 0x00, 0x00, 0x00, 0x00, 0x00, 0x00, 0x00, 0x00, 0x00, 0x00, 0x00, 0x00, 0x00, 0x00, 
.................... 0x00, 0x00, 0x00, 0x00, 0x00, 0x00, 0x00, 0x00, 0x00, 0x00, 0x00, 0x00, 0x00, 0x00, 0x00, 0x00, 
.................... 0x00, 0x00, 0x00, 0x00, 0x00, 0x00, 0x00, 0x00, 0x00, 0x00, 0x00, 0x00, 0x00, 0x00, 0x00, 0x00, 
.................... 0x00, 0x00, 0x00, 0x00, 0x00, 0x00, 0x00, 0x00, 0x00, 0x00, 0x00, 0x00, 0x00, 0x00, 0x00, 0x00, 
.................... 0x00, 0x00, 0x00, 0x00, 0x00, 0x00, 0x00, 0x00, 0x00, 0x00, 0x00, 0x00, 0x00, 0x00, 0x00, 0x00, 
.................... 0x00, 0x00, 0x00, 0x00, 0x00, 0x00, 0x00, 0x00, 0x00, 0x00, 0x00, 0x00, 0x00, 0x00, 0x00, 0x00, 
.................... 0x00, 0x00, 0x00, 0x00, 0x00, 0x00, 0x00, 0x00, 0x00, 0x00, 0x00, 0x00, 0x00, 0x00, 0x00, 0x00, 
.................... 0x00, 0x00, 0x00, 0x00, 0x00, 0x00, 0x00, 0x00, 0x00, 0x00, 0x00, 0x00, 0x00, 0x00, 0x00, 0x00, 
.................... 0x00, 0x00, 0x00, 0x00, 0x00, 0x00, 0x00, 0x00, 0x00, 0x00, 0x00, 0x00, 0x00, 0x00, 0x00, 0x00, 
.................... 0x00, 0x00, 0x00, 0x00, 0x00, 0x00, 0x00, 0x00, 0x00, 0x00, 0x00, 0x00, 0x00, 0x00, 0x00, 0x00, 
.................... 0x00, 0x00, 0x00, 0x00, 0x00, 0x00, 0x00, 0x00, 0x00, 0x00, 0x00, 0x00, 0x00, 0x00, 0x60, 0x00, 
.................... 0x00, 0x00, 0x00, 0x00, 0x00, 0x00, 0x00, 0x00, 0x00, 0x00, 0x00, 0x00, 0x00, 0x00, 0xF0, 0x00, 
.................... 0x00, 0x00, 0x00, 0x00, 0x00, 0x00, 0x00, 0x00, 0x00, 0x00, 0x00, 0x00, 0x00, 0x01, 0xF8, 0x00, 
.................... 0x00, 0x00, 0x00, 0x00, 0x00, 0x00, 0x00, 0x00, 0x00, 0x00, 0x00, 0x00, 0x00, 0x01, 0xF8, 0x00, 
.................... 0x00, 0x00, 0x00, 0x00, 0x00, 0x00, 0x00, 0x00, 0x00, 0x00, 0x00, 0x00, 0x00, 0x01, 0xF8, 0x00, 
.................... 0x00, 0x00, 0x00, 0x00, 0x00, 0x00, 0x00, 0x00, 0x00, 0x00, 0x00, 0x00, 0x00, 0x00, 0xF0, 0x00, 
.................... 0x00, 0x00, 0x00, 0x00, 0x00, 0x00, 0x00, 0x00, 0x00, 0x00, 0x00, 0x00, 0x00, 0x38, 0x71, 0xC0, 
.................... 0x00, 0x00, 0x00, 0x00, 0x00, 0x00, 0x00, 0x00, 0x00, 0x00, 0x00, 0x00, 0x00, 0x7C, 0x93, 0xE0, 
.................... 0x00, 0x00, 0x00, 0x00, 0x00, 0x00, 0x00, 0x00, 0x00, 0x00, 0x00, 0x00, 0x00, 0xFF, 0x0F, 0xF0, 
.................... 0x00, 0x00, 0x00, 0x00, 0x00, 0x00, 0x00, 0x00, 0x00, 0x00, 0x00, 0x00, 0x00, 0xFF, 0x0F, 0xF0, 
.................... 0x00, 0x00, 0x00, 0x00, 0x00, 0x00, 0x00, 0x00, 0x00, 0x00, 0x00, 0x00, 0x00, 0x7D, 0x93, 0xE0, 
.................... 0x00, 0x00, 0x00, 0x00, 0x00, 0x00, 0x00, 0x00, 0x00, 0x00, 0x00, 0x00, 0x00, 0x38, 0x61, 0xC0, 
.................... 0x00, 0x00, 0x00, 0x00, 0x00, 0x00, 0x00, 0x00, 0x00, 0x00, 0x00, 0x00, 0x00, 0x00, 0xF0, 0x00, 
.................... 0x00, 0x00, 0x00, 0x00, 0x00, 0x00, 0x00, 0x00, 0x00, 0x00, 0x00, 0x00, 0x00, 0x01, 0xF8, 0x00, 
.................... 0x00, 0x00, 0x00, 0x00, 0x00, 0x00, 0x00, 0x00, 0x00, 0x00, 0x00, 0x00, 0x00, 0x01, 0xF8, 0x00, 
.................... 0x00, 0x00, 0x00, 0x00, 0x00, 0x00, 0x00, 0x00, 0x00, 0x00, 0x00, 0x00, 0x00, 0x01, 0xF8, 0x00, 
.................... 0x00, 0x00, 0x00, 0x00, 0x00, 0x00, 0x00, 0x00, 0x00, 0x00, 0x00, 0x00, 0x00, 0x00, 0xF0, 0x00, 
.................... 0x00, 0x00, 0x00, 0x00, 0x00, 0x00, 0x00, 0x00, 0x00, 0x00, 0x00, 0x00, 0x00, 0x00, 0x60, 0x00 
.................... }; 
....................  
.................... #include "FuncionesDisplay.h" 
....................  
.................... typedef struct{ 
....................    char Letra[20]; 
.................... }MENUU; 
....................  
.................... MENUU Menus; 
....................   
.................... void displayContrasena(int digito, int x, int y, int sombreado) 
.................... { 
....................    char voltage[9]; 
....................    sprintf(voltage, "%i", digito); 
*
04D72:  MOVLW  05
04D74:  MOVLB  4
04D76:  MOVWF  x2C
04D78:  MOVLW  F1
04D7A:  MOVWF  x2B
04D7C:  MOVFF  5ED,5FA
04D80:  MOVLW  1F
04D82:  MOVLB  5
04D84:  MOVWF  xFB
04D86:  MOVLB  0
04D88:  RCALL  4A86
....................     
....................    if(sombreado==1) 
04D8A:  MOVLB  5
04D8C:  DECFSZ xF0,W
04D8E:  BRA    4DE4
....................       {glcd_rect(x, y, x+18, y+24, YES, ON);glcd_text57(x+2, y+1, voltage, 2, OFF);} 
04D90:  MOVLW  12
04D92:  ADDWF  xEE,W
04D94:  MOVWF  xFA
04D96:  MOVLW  18
04D98:  ADDWF  xEF,W
04D9A:  MOVWF  xFB
04D9C:  MOVFF  5EE,5FC
04DA0:  MOVFF  5EF,5FD
04DA4:  MOVFF  5FA,5FE
04DA8:  MOVWF  xFF
04DAA:  MOVLW  01
04DAC:  MOVLB  6
04DAE:  MOVWF  x00
04DB0:  MOVWF  x01
04DB2:  MOVLB  0
04DB4:  RCALL  4CAA
04DB6:  MOVLW  02
04DB8:  MOVLB  5
04DBA:  ADDWF  xEE,W
04DBC:  MOVWF  xFA
04DBE:  MOVLW  01
04DC0:  ADDWF  xEF,W
04DC2:  MOVWF  xFB
04DC4:  MOVFF  5FA,5FC
04DC8:  MOVWF  xFD
04DCA:  MOVLW  05
04DCC:  MOVWF  xFF
04DCE:  MOVLW  F1
04DD0:  MOVWF  xFE
04DD2:  MOVLW  02
04DD4:  MOVLB  6
04DD6:  MOVWF  x00
04DD8:  CLRF   x01
04DDA:  MOVLB  0
04DDC:  CALL   1856
....................    else    
04DE0:  BRA    4E34
04DE2:  MOVLB  5
....................       {glcd_rect(x, y, x+18, y+24, NO, OFF);glcd_text57(x+2, y+1, voltage, 2, ON);} 
04DE4:  MOVLW  12
04DE6:  ADDWF  xEE,W
04DE8:  MOVWF  xFA
04DEA:  MOVLW  18
04DEC:  ADDWF  xEF,W
04DEE:  MOVWF  xFB
04DF0:  MOVFF  5EE,5FC
04DF4:  MOVFF  5EF,5FD
04DF8:  MOVFF  5FA,5FE
04DFC:  MOVWF  xFF
04DFE:  MOVLB  6
04E00:  CLRF   x00
04E02:  CLRF   x01
04E04:  MOVLB  0
04E06:  RCALL  4CAA
04E08:  MOVLW  02
04E0A:  MOVLB  5
04E0C:  ADDWF  xEE,W
04E0E:  MOVWF  xFA
04E10:  MOVLW  01
04E12:  ADDWF  xEF,W
04E14:  MOVWF  xFB
04E16:  MOVFF  5FA,5FC
04E1A:  MOVWF  xFD
04E1C:  MOVLW  05
04E1E:  MOVWF  xFF
04E20:  MOVLW  F1
04E22:  MOVWF  xFE
04E24:  MOVLW  02
04E26:  MOVLB  6
04E28:  MOVWF  x00
04E2A:  MOVLW  01
04E2C:  MOVWF  x01
04E2E:  MOVLB  0
04E30:  CALL   1856
....................  
.................... } 
04E34:  RETLW  00
....................  
.................... void displayTiempo(int digito, int x, int y, int sombreado, int tamano) 
.................... { 
....................    char voltage[9]; 
....................    sprintf(voltage, "%i", digito); 
*
055F4:  MOVLW  05
055F6:  MOVLB  4
055F8:  MOVWF  x2C
055FA:  MOVLW  E8
055FC:  MOVWF  x2B
055FE:  MOVFF  5E3,5FA
05602:  MOVLW  1F
05604:  MOVLB  5
05606:  MOVWF  xFB
05608:  MOVLB  0
0560A:  CALL   4A86
....................     
....................    if(sombreado==1) 
0560E:  MOVLB  5
05610:  DECFSZ xE6,W
05612:  BRA    5670
....................       {glcd_rect(x, y, x+(tamano*6), y+(tamano*8), YES, ON);glcd_text57(x+2, y+1, voltage, tamano, OFF);} 
05614:  MOVF   xE7,W
05616:  MULLW  06
05618:  MOVF   FF3,W
0561A:  ADDWF  xE4,W
0561C:  MOVWF  xF1
0561E:  MOVF   xE7,W
05620:  MULLW  08
05622:  MOVF   FF3,W
05624:  ADDWF  xE5,W
05626:  MOVWF  xF2
05628:  MOVFF  5E4,5FC
0562C:  MOVFF  5E5,5FD
05630:  MOVFF  5F1,5FE
05634:  MOVWF  xFF
05636:  MOVLW  01
05638:  MOVLB  6
0563A:  MOVWF  x00
0563C:  MOVWF  x01
0563E:  MOVLB  0
05640:  CALL   4CAA
05644:  MOVLW  02
05646:  MOVLB  5
05648:  ADDWF  xE4,W
0564A:  MOVWF  xF1
0564C:  MOVLW  01
0564E:  ADDWF  xE5,W
05650:  MOVWF  xF2
05652:  MOVFF  5F1,5FC
05656:  MOVWF  xFD
05658:  MOVLW  05
0565A:  MOVWF  xFF
0565C:  MOVLW  E8
0565E:  MOVWF  xFE
05660:  MOVFF  5E7,600
05664:  MOVLB  6
05666:  CLRF   x01
05668:  MOVLB  0
0566A:  CALL   1856
0566E:  MOVLB  5
....................    if(sombreado==0) 
05670:  MOVF   xE6,F
05672:  BNZ   56D2
....................       {glcd_rect(x, y, x+(tamano*6), y+(tamano*8), YES, OFF);glcd_text57(x+2, y+1, voltage, tamano, ON);} 
05674:  MOVF   xE7,W
05676:  MULLW  06
05678:  MOVF   FF3,W
0567A:  ADDWF  xE4,W
0567C:  MOVWF  xF1
0567E:  MOVF   xE7,W
05680:  MULLW  08
05682:  MOVF   FF3,W
05684:  ADDWF  xE5,W
05686:  MOVWF  xF2
05688:  MOVFF  5E4,5FC
0568C:  MOVFF  5E5,5FD
05690:  MOVFF  5F1,5FE
05694:  MOVWF  xFF
05696:  MOVLW  01
05698:  MOVLB  6
0569A:  MOVWF  x00
0569C:  CLRF   x01
0569E:  MOVLB  0
056A0:  CALL   4CAA
056A4:  MOVLW  02
056A6:  MOVLB  5
056A8:  ADDWF  xE4,W
056AA:  MOVWF  xF1
056AC:  MOVLW  01
056AE:  ADDWF  xE5,W
056B0:  MOVWF  xF2
056B2:  MOVFF  5F1,5FC
056B6:  MOVWF  xFD
056B8:  MOVLW  05
056BA:  MOVWF  xFF
056BC:  MOVLW  E8
056BE:  MOVWF  xFE
056C0:  MOVFF  5E7,600
056C4:  MOVLW  01
056C6:  MOVLB  6
056C8:  MOVWF  x01
056CA:  MOVLB  0
056CC:  CALL   1856
056D0:  MOVLB  5
....................  
.................... } 
056D2:  MOVLB  0
056D4:  RETLW  00
....................  
.................... void displayMenu(char palabra[100], int x, int y, int sombreado, int tamano) 
.................... { 
....................    strcpy(Menus.Letra,palabra); 
*
04E36:  MOVLB  5
04E38:  MOVFF  5EB,01
04E3C:  MOVFF  5EC,03
04E40:  MOVFF  5EB,5F1
04E44:  MOVFF  5EC,5F2
04E48:  MOVLW  04
04E4A:  MOVWF  FEA
04E4C:  MOVLW  17
04E4E:  MOVWF  FE9
04E50:  MOVFF  5EC,FE2
04E54:  MOVFF  5EB,FE1
04E58:  MOVF   FE7,F
04E5A:  MOVFF  FE6,FEE
04E5E:  BNZ   4E58
....................    if(sombreado==1) 
04E60:  DECFSZ xEF,W
04E62:  BRA    4EB4
....................       {glcd_rect(0, y, 127, y+(tamano*8), YES, ON);glcd_text57(x+1, y+1, Menus.Letra, tamano, OFF);} 
04E64:  MOVF   xF0,W
04E66:  MULLW  08
04E68:  MOVF   FF3,W
04E6A:  ADDWF  xEE,W
04E6C:  MOVWF  xF1
04E6E:  CLRF   xFC
04E70:  MOVFF  5EE,5FD
04E74:  MOVLW  7F
04E76:  MOVWF  xFE
04E78:  MOVFF  5F1,5FF
04E7C:  MOVLW  01
04E7E:  MOVLB  6
04E80:  MOVWF  x00
04E82:  MOVWF  x01
04E84:  MOVLB  0
04E86:  RCALL  4CAA
04E88:  MOVLW  01
04E8A:  MOVLB  5
04E8C:  ADDWF  xED,W
04E8E:  MOVWF  xF1
04E90:  MOVLW  01
04E92:  ADDWF  xEE,W
04E94:  MOVWF  xF2
04E96:  MOVFF  5F1,5FC
04E9A:  MOVWF  xFD
04E9C:  MOVLW  04
04E9E:  MOVWF  xFF
04EA0:  MOVLW  17
04EA2:  MOVWF  xFE
04EA4:  MOVFF  5F0,600
04EA8:  MOVLB  6
04EAA:  CLRF   x01
04EAC:  MOVLB  0
04EAE:  CALL   1856
04EB2:  MOVLB  5
....................    if(sombreado==0) 
04EB4:  MOVF   xEF,F
04EB6:  BNZ   4F0A
....................       {glcd_rect(0, y, 127, y+(tamano*8), YES, OFF);glcd_text57(x+1, y+1, Menus.Letra, tamano, ON);} 
04EB8:  MOVF   xF0,W
04EBA:  MULLW  08
04EBC:  MOVF   FF3,W
04EBE:  ADDWF  xEE,W
04EC0:  MOVWF  xF1
04EC2:  CLRF   xFC
04EC4:  MOVFF  5EE,5FD
04EC8:  MOVLW  7F
04ECA:  MOVWF  xFE
04ECC:  MOVFF  5F1,5FF
04ED0:  MOVLW  01
04ED2:  MOVLB  6
04ED4:  MOVWF  x00
04ED6:  CLRF   x01
04ED8:  MOVLB  0
04EDA:  RCALL  4CAA
04EDC:  MOVLW  01
04EDE:  MOVLB  5
04EE0:  ADDWF  xED,W
04EE2:  MOVWF  xF1
04EE4:  MOVLW  01
04EE6:  ADDWF  xEE,W
04EE8:  MOVWF  xF2
04EEA:  MOVFF  5F1,5FC
04EEE:  MOVWF  xFD
04EF0:  MOVLW  04
04EF2:  MOVWF  xFF
04EF4:  MOVLW  17
04EF6:  MOVWF  xFE
04EF8:  MOVFF  5F0,600
04EFC:  MOVLW  01
04EFE:  MOVLB  6
04F00:  MOVWF  x01
04F02:  MOVLB  0
04F04:  CALL   1856
04F08:  MOVLB  5
....................  
.................... } 
04F0A:  MOVLB  0
04F0C:  RETLW  00
....................  
.................... void displayfloat2(float adc,int x,int y,int sombreado, int tamano) { 
....................    char voltage[9];     
....................       sprintf(voltage, "%2.0f C",adc); // Converts adc to text 
*
05C54:  MOVLW  05
05C56:  MOVLB  4
05C58:  MOVWF  x2C
05C5A:  MOVLW  EF
05C5C:  MOVWF  x2B
05C5E:  MOVLW  01
05C60:  MOVWF  FE9
05C62:  MOVFF  5EA,5FB
05C66:  MOVFF  5E9,5FA
05C6A:  MOVFF  5E8,5F9
05C6E:  MOVFF  5E7,5F8
05C72:  MOVLB  5
05C74:  CLRF   xFC
05C76:  MOVLB  0
05C78:  RCALL  579A
05C7A:  MOVLW  20
05C7C:  MOVLB  6
05C7E:  MOVWF  x05
05C80:  MOVLB  0
05C82:  CALL   4A64
05C86:  MOVLW  43
05C88:  MOVLB  6
05C8A:  MOVWF  x05
05C8C:  MOVLB  0
05C8E:  CALL   4A64
....................        
....................    if(sombreado==1) 
05C92:  MOVLB  5
05C94:  DECFSZ xED,W
05C96:  BRA    5D14
....................       {glcd_rect(x, y, x+(tamano*20), y+(tamano*8), YES, ON);glcd_text57(x+2, y+1, voltage, tamano, OFF);glcd_circle(x+17,y+2,1,ON,OFF);} 
05C98:  MOVF   xEE,W
05C9A:  MULLW  14
05C9C:  MOVF   FF3,W
05C9E:  ADDWF  xEB,W
05CA0:  MOVWF  xF8
05CA2:  MOVF   xEE,W
05CA4:  MULLW  08
05CA6:  MOVF   FF3,W
05CA8:  ADDWF  xEC,W
05CAA:  MOVWF  xF9
05CAC:  MOVFF  5EB,5FC
05CB0:  MOVFF  5EC,5FD
05CB4:  MOVFF  5F8,5FE
05CB8:  MOVWF  xFF
05CBA:  MOVLW  01
05CBC:  MOVLB  6
05CBE:  MOVWF  x00
05CC0:  MOVWF  x01
05CC2:  MOVLB  0
05CC4:  CALL   4CAA
05CC8:  MOVLW  02
05CCA:  MOVLB  5
05CCC:  ADDWF  xEB,W
05CCE:  MOVWF  xF8
05CD0:  MOVLW  01
05CD2:  ADDWF  xEC,W
05CD4:  MOVWF  xF9
05CD6:  MOVFF  5F8,5FC
05CDA:  MOVWF  xFD
05CDC:  MOVLW  05
05CDE:  MOVWF  xFF
05CE0:  MOVLW  EF
05CE2:  MOVWF  xFE
05CE4:  MOVFF  5EE,600
05CE8:  MOVLB  6
05CEA:  CLRF   x01
05CEC:  MOVLB  0
05CEE:  CALL   1856
05CF2:  MOVLW  11
05CF4:  MOVLB  5
05CF6:  ADDWF  xEB,W
05CF8:  MOVWF  xF8
05CFA:  MOVLW  02
05CFC:  ADDWF  xEC,W
05CFE:  MOVWF  xF9
05D00:  MOVFF  5F8,5FA
05D04:  MOVWF  xFB
05D06:  MOVLW  01
05D08:  MOVWF  xFC
05D0A:  MOVWF  xFD
05D0C:  CLRF   xFE
05D0E:  MOVLB  0
05D10:  RCALL  59A8
05D12:  MOVLB  5
....................    if(sombreado==0) 
05D14:  MOVF   xED,F
05D16:  BNZ   5D96
....................       {glcd_rect(x, y, x+(tamano*20), y+(tamano*8), YES, OFF);glcd_text57(x+2, y+1, voltage, tamano, ON);glcd_circle(x+17,y+2,1,ON,ON);} 
05D18:  MOVF   xEE,W
05D1A:  MULLW  14
05D1C:  MOVF   FF3,W
05D1E:  ADDWF  xEB,W
05D20:  MOVWF  xF8
05D22:  MOVF   xEE,W
05D24:  MULLW  08
05D26:  MOVF   FF3,W
05D28:  ADDWF  xEC,W
05D2A:  MOVWF  xF9
05D2C:  MOVFF  5EB,5FC
05D30:  MOVFF  5EC,5FD
05D34:  MOVFF  5F8,5FE
05D38:  MOVWF  xFF
05D3A:  MOVLW  01
05D3C:  MOVLB  6
05D3E:  MOVWF  x00
05D40:  CLRF   x01
05D42:  MOVLB  0
05D44:  CALL   4CAA
05D48:  MOVLW  02
05D4A:  MOVLB  5
05D4C:  ADDWF  xEB,W
05D4E:  MOVWF  xF8
05D50:  MOVLW  01
05D52:  ADDWF  xEC,W
05D54:  MOVWF  xF9
05D56:  MOVFF  5F8,5FC
05D5A:  MOVWF  xFD
05D5C:  MOVLW  05
05D5E:  MOVWF  xFF
05D60:  MOVLW  EF
05D62:  MOVWF  xFE
05D64:  MOVFF  5EE,600
05D68:  MOVLW  01
05D6A:  MOVLB  6
05D6C:  MOVWF  x01
05D6E:  MOVLB  0
05D70:  CALL   1856
05D74:  MOVLW  11
05D76:  MOVLB  5
05D78:  ADDWF  xEB,W
05D7A:  MOVWF  xF8
05D7C:  MOVLW  02
05D7E:  ADDWF  xEC,W
05D80:  MOVWF  xF9
05D82:  MOVFF  5F8,5FA
05D86:  MOVWF  xFB
05D88:  MOVLW  01
05D8A:  MOVWF  xFC
05D8C:  MOVWF  xFD
05D8E:  MOVWF  xFE
05D90:  MOVLB  0
05D92:  RCALL  59A8
05D94:  MOVLB  5
....................        
.................... } 
05D96:  MOVLB  0
05D98:  GOTO   7496 (RETURN)
....................  
.................... void displayfloat(float adc,int x,int y,int sombreado, int tamano) { 
....................    char voltage[9];     
....................       sprintf(voltage, "%2.2f ",adc); // Converts adc to text 
*
05FC8:  MOVLW  05
05FCA:  MOVLB  4
05FCC:  MOVWF  x2C
05FCE:  MOVLW  EF
05FD0:  MOVWF  x2B
05FD2:  MOVLW  89
05FD4:  MOVWF  FE9
05FD6:  MOVFF  5EA,5FB
05FDA:  MOVFF  5E9,5FA
05FDE:  MOVFF  5E8,5F9
05FE2:  MOVFF  5E7,5F8
05FE6:  MOVLW  02
05FE8:  MOVLB  5
05FEA:  MOVWF  xFC
05FEC:  MOVLB  0
05FEE:  CALL   579A
05FF2:  MOVLW  20
05FF4:  MOVLB  6
05FF6:  MOVWF  x05
05FF8:  MOVLB  0
05FFA:  CALL   4A64
....................        
....................    if(sombreado==1) 
05FFE:  MOVLB  5
06000:  DECFSZ xED,W
06002:  BRA    6060
....................       {glcd_rect(x, y, x+(tamano*20), y+(tamano*8), YES, ON);glcd_text57(x+2, y+1, voltage, tamano, OFF);} 
06004:  MOVF   xEE,W
06006:  MULLW  14
06008:  MOVF   FF3,W
0600A:  ADDWF  xEB,W
0600C:  MOVWF  xF8
0600E:  MOVF   xEE,W
06010:  MULLW  08
06012:  MOVF   FF3,W
06014:  ADDWF  xEC,W
06016:  MOVWF  xF9
06018:  MOVFF  5EB,5FC
0601C:  MOVFF  5EC,5FD
06020:  MOVFF  5F8,5FE
06024:  MOVWF  xFF
06026:  MOVLW  01
06028:  MOVLB  6
0602A:  MOVWF  x00
0602C:  MOVWF  x01
0602E:  MOVLB  0
06030:  CALL   4CAA
06034:  MOVLW  02
06036:  MOVLB  5
06038:  ADDWF  xEB,W
0603A:  MOVWF  xF8
0603C:  MOVLW  01
0603E:  ADDWF  xEC,W
06040:  MOVWF  xF9
06042:  MOVFF  5F8,5FC
06046:  MOVWF  xFD
06048:  MOVLW  05
0604A:  MOVWF  xFF
0604C:  MOVLW  EF
0604E:  MOVWF  xFE
06050:  MOVFF  5EE,600
06054:  MOVLB  6
06056:  CLRF   x01
06058:  MOVLB  0
0605A:  CALL   1856
0605E:  MOVLB  5
....................    if(sombreado==0) 
06060:  MOVF   xED,F
06062:  BNZ   60C2
....................       {glcd_rect(x, y, x+(tamano*20), y+(tamano*8), YES, OFF);glcd_text57(x+2, y+1, voltage, tamano, ON);} 
06064:  MOVF   xEE,W
06066:  MULLW  14
06068:  MOVF   FF3,W
0606A:  ADDWF  xEB,W
0606C:  MOVWF  xF8
0606E:  MOVF   xEE,W
06070:  MULLW  08
06072:  MOVF   FF3,W
06074:  ADDWF  xEC,W
06076:  MOVWF  xF9
06078:  MOVFF  5EB,5FC
0607C:  MOVFF  5EC,5FD
06080:  MOVFF  5F8,5FE
06084:  MOVWF  xFF
06086:  MOVLW  01
06088:  MOVLB  6
0608A:  MOVWF  x00
0608C:  CLRF   x01
0608E:  MOVLB  0
06090:  CALL   4CAA
06094:  MOVLW  02
06096:  MOVLB  5
06098:  ADDWF  xEB,W
0609A:  MOVWF  xF8
0609C:  MOVLW  01
0609E:  ADDWF  xEC,W
060A0:  MOVWF  xF9
060A2:  MOVFF  5F8,5FC
060A6:  MOVWF  xFD
060A8:  MOVLW  05
060AA:  MOVWF  xFF
060AC:  MOVLW  EF
060AE:  MOVWF  xFE
060B0:  MOVFF  5EE,600
060B4:  MOVLW  01
060B6:  MOVLB  6
060B8:  MOVWF  x01
060BA:  MOVLB  0
060BC:  CALL   1856
060C0:  MOVLB  5
....................        
.................... } 
060C2:  MOVLB  0
060C4:  RETLW  00
....................  
.................... // Funcion para conversor analogo-digital 
.................... unsigned int16 sensores(int x){ 
.................... unsigned int16 y;set_adc_channel(x);delay_ms(1);y=read_adc();return (y); 
*
02FCA:  MOVLB  5
02FCC:  RLCF   xF4,W
02FCE:  MOVWF  00
02FD0:  RLCF   00,F
02FD2:  MOVLW  FC
02FD4:  ANDWF  00,F
02FD6:  MOVFF  00,01
02FDA:  MOVF   FC2,W
02FDC:  ANDLW  C3
02FDE:  IORWF  00,W
02FE0:  MOVWF  FC2
02FE2:  MOVLW  01
02FE4:  MOVWF  xF7
02FE6:  MOVLB  0
02FE8:  CALL   1500
02FEC:  BSF    FC2.1
02FEE:  BTFSC  FC2.1
02FF0:  BRA    2FEE
02FF2:  MOVFF  FC4,5F6
02FF6:  MOVLB  5
02FF8:  MOVFF  FC3,5F5
02FFC:  MOVFF  5F5,01
03000:  MOVFF  5F6,02
.................... } 
03004:  MOVLB  0
03006:  RETLW  00
....................  
....................  
.................... #define   UP               !input(PIN_A5) 
.................... #define   DOWN             !input(PIN_E0) 
.................... #define   RIGHT            !input(PIN_E1) 
.................... #define   LEFT             !input(PIN_E2) 
.................... #define   VIDRIOUP         !input(PIN_A4) 
.................... #define   VIDRIODN         !input(PIN_A3) 
....................  
.................... #define   Alarma_on           output_bit(PIN_C7,1) 
.................... #define   Alarma_off          output_bit(PIN_C7,0) 
.................... #define   LuzBlanca_on        output_bit(PIN_C0,1) 
.................... #define   LuzBlanca_off       output_bit(PIN_C0,0) 
.................... #define   LuzUV_on            output_bit(PIN_C1,1) 
.................... #define   LuzUV_off           output_bit(PIN_C1,0) 
.................... #define   Motor_on            output_bit(PIN_C2,1) 
.................... #define   Motor_off           output_bit(PIN_C2,0) 
.................... #define   Display_on          output_bit(PIN_B1,1) 
.................... #define   Display_off         output_bit(PIN_B1,0) 
....................  
.................... #define   PresDownFlow 2 
....................  
.................... short Flanco=0,Flanco1=0,Flanco2=0,Flanco3=0,Flanco4=0,Flanco5=0,imprimir=0,flag_blower=0,flag_toma=0,flag_luz=0,flag_alarma=0,w=0; 
.................... short tiempo_purga=0,tiempo_trabajo=0,flag_latencia=0,flag_uv=0,tiempo_uv=0,guardauv=0,tiempocumplido=1; 
.................... short guardatrabajo=0,Lectura=0,n=0; 
.................... char  JP[] = "JP Inglobal", Cabina[] = "Cabina Flujo Laminar",Dos_puntos[]=":"; 
.................... char  Clase[] = "   PCR", Tiempo[] = "Tiempo de Purga",UV[]="UV"; 
.................... char  Inflowt[] = "Vel:",Downflowt[] = "T:", ZF[] = "Fabrica:208.0", ZA[] = "Actual:",AJ[]="Ajuste:"; 
.................... char  Vida_Filtro[] = "Filtro:",ZFP[] = "Fabrica:235.0", Perdida[]="!Filtro Saturado!", Tempo[]="Tempo UV:",Vida_UV[] = "UVLife:"; 
.................... int8 Menu=200, unidad=1, Opcion=1,negativo=10,G_l=0,G_h=0,tiemporeset=0; 
.................... int8 q=0,r=0,l=0,h=0,Entero=0,Decimal1=0,Alarma=10; 
....................  
.................... unsigned int16 Inflow_adc=0,Filtro_Downflow_adc=0,Temporal1=0,segundos_uv=0; 
....................  
.................... int16 t_latencia=0,minutos_uv=0,minutos_trabajo=0,G16=0; 
.................... signed int  Tpurga[4]={0,0,0,0};       // Tiempo de Purga transcurrido 
.................... signed int  Tpurgap[4]={9,0,0,0};      // Tiempo de Purga programado 
.................... signed int  Tppurgap[4]={9,0,0,0};     // Tiempo de Post-Purga programado 
.................... signed int  Tuv[4]={0,0,0,0};          // Tiempo de UV transcurrido(en Horas) 
.................... signed int  Tempouvp[4]={0,0,0,0};        // Tiempo de UV transcurrido 
.................... signed int  Tempouv[4]={0,0,0,0};         // Tiempo de UV transcurrido 
.................... signed int  Ttrabajo[4]={0,0,0,0};        // Tiempo de trabajo transcurrido (en Horas) 
.................... signed int  Contrasena[4]={0,0,0,0};      // Contrasena de 4 digitos 
.................... signed int  Password[4]={0,0,0,0};        // Contrasena Almacenada de 4 digitos 
.................... float Inflow=0.0,Downflow=0.0,Filtro_Downflow=0.0,Diferencia=0.0,barra=0.0,barra_old=0.0; 
.................... float Velocidad=0.0,x_uno=0.0,x_cuadrado=0.0,x_cubo=0.0,Ajuste1=0.0,Ajuste2=0.0; 
.................... float Temporal=0.0,Temporal2=0.0; 
.................... float a=0.00000957915546738639,b=-0.00727819571978831,c= 1.85375754678451,d= -156.816806902063; 
.................... //float t=378.463968402560,f=-18275.0402762787;//Sensor 2 Posible bueno 
....................  
.................... float promedio[8]={0.0,0.0,0.0,0.0,0.0,0.0,0.0,0.0}; 
.................... float promedio2[8]={0.0,0.0,0.0,0.0,0.0,0.0,0.0,0.0}; 
.................... float PromPresion[8]={0.0,0.0,0.0,0.0,0.0,0.0,0.0,0.0}; 
.................... float Flujo=0.0,zero_fabrica=208.0,zero_actual=0.0; 
.................... float V1=0.0,Presion=0.0,G=2.0; 
....................  
.................... int16 pulsos=0,retardo=0; 
.................... int8 i=0,l2=0,h2=0,Temperatura=0; 
.................... short Cruce=OFF,Purga=OFF; 
.................... int16 tiempocruce=0; 
.................... int8 Porcentaje=0,VelMotor=0; 
.................... float Tcruce=0.0,Tcruce2=0; 
....................  
.................... #include "Funciones.h" 
.................... float Leer_Sensor_Presion(int media){ 
*
04826:  MOVLB  5
04828:  CLRF   xE7
0482A:  CLRF   xE6
0482C:  CLRF   xE5
0482E:  CLRF   xE4
....................    float promediopresion=0.0; 
....................     
....................    Filtro_Downflow_adc=sensores(PresDownFlow); 
04830:  MOVLW  02
04832:  MOVWF  xF4
04834:  MOVLB  0
04836:  CALL   2FCA
0483A:  MOVFF  02,4DE
0483E:  MOVFF  01,4DD
....................    V1=Filtro_Downflow_adc;  
04842:  MOVFF  4DE,619
04846:  MOVFF  4DD,618
0484A:  CALL   1A2C
0484E:  MOVFF  03,5C6
04852:  MOVFF  02,5C5
04856:  MOVFF  01,5C4
0485A:  MOVFF  00,5C3
....................    //V1 = (x_uno*5.0)/1023.0;   //Lectura de Divisor de Voltaje de PT100 con resistencia de 1k (+-10%) 
....................    Presion=(V1/G)-1.0;// Presion=(Voltaje/Ganancia)-1 
0485E:  MOVFF  5C6,617
04862:  MOVFF  5C5,616
04866:  MOVFF  5C4,615
0486A:  MOVFF  5C3,614
0486E:  MOVFF  5CE,61B
04872:  MOVFF  5CD,61A
04876:  MOVFF  5CC,619
0487A:  MOVFF  5CB,618
0487E:  CALL   1A62
04882:  MOVFF  00,5E8
04886:  MOVFF  01,5E9
0488A:  MOVFF  02,5EA
0488E:  MOVFF  03,5EB
04892:  BSF    FD8.1
04894:  MOVFF  03,61B
04898:  MOVFF  02,61A
0489C:  MOVFF  01,619
048A0:  MOVFF  00,618
048A4:  MOVLB  6
048A6:  CLRF   x1F
048A8:  CLRF   x1E
048AA:  CLRF   x1D
048AC:  MOVLW  7F
048AE:  MOVWF  x1C
048B0:  MOVLB  0
048B2:  CALL   1BC0
048B6:  MOVFF  03,5CA
048BA:  MOVFF  02,5C9
048BE:  MOVFF  01,5C8
048C2:  MOVFF  00,5C7
....................     
....................    if(Presion<0.0) 
048C6:  MOVFF  5CA,617
048CA:  MOVFF  5C9,616
048CE:  MOVFF  5C8,615
048D2:  MOVFF  5C7,614
048D6:  MOVLB  6
048D8:  CLRF   x1B
048DA:  CLRF   x1A
048DC:  CLRF   x19
048DE:  CLRF   x18
048E0:  MOVLB  0
048E2:  CALL   25C4
048E6:  BNC   48F2
....................    { 
....................       Presion=0.0; 
048E8:  MOVLB  5
048EA:  CLRF   xCA
048EC:  CLRF   xC9
048EE:  CLRF   xC8
048F0:  CLRF   xC7
....................    } 
....................  
....................    if(r>media-1) 
048F2:  MOVLW  01
048F4:  MOVLB  5
048F6:  SUBWF  xE3,W
048F8:  MOVLB  4
048FA:  SUBWF  xD5,W
048FC:  BZ    4902
048FE:  BNC   4902
....................    {r=0;} 
04900:  CLRF   xD5
....................    PromPresion[r]=Presion*4.02;r++; 
04902:  MOVF   xD5,W
04904:  MULLW  04
04906:  MOVF   FF3,W
04908:  CLRF   03
0490A:  ADDLW  97
0490C:  MOVWF  FE9
0490E:  MOVLW  05
04910:  ADDWFC 03,W
04912:  MOVWF  FEA
04914:  MOVFF  5CA,617
04918:  MOVFF  5C9,616
0491C:  MOVFF  5C8,615
04920:  MOVFF  5C7,614
04924:  MOVLW  D7
04926:  MOVLB  6
04928:  MOVWF  x1B
0492A:  MOVLW  A3
0492C:  MOVWF  x1A
0492E:  CLRF   x19
04930:  MOVLW  81
04932:  MOVWF  x18
04934:  MOVLB  0
04936:  CALL   3044
0493A:  MOVFF  00,FEF
0493E:  MOVFF  01,FEC
04942:  MOVFF  02,FEC
04946:  MOVFF  03,FEC
0494A:  MOVLB  4
0494C:  INCF   xD5,F
....................           
....................    for(q=0;q<=(media-1);q++) 
0494E:  CLRF   xD4
04950:  MOVLW  01
04952:  MOVLB  5
04954:  SUBWF  xE3,W
04956:  MOVLB  4
04958:  SUBWF  xD4,W
0495A:  BZ    495E
0495C:  BC    49CE
....................    { 
....................       promediopresion+=PromPresion[q]; 
0495E:  MOVF   xD4,W
04960:  MULLW  04
04962:  MOVF   FF3,W
04964:  CLRF   03
04966:  ADDLW  97
04968:  MOVWF  FE9
0496A:  MOVLW  05
0496C:  ADDWFC 03,W
0496E:  MOVWF  FEA
04970:  MOVFF  FEF,00
04974:  MOVFF  FEC,01
04978:  MOVFF  FEC,02
0497C:  MOVFF  FEC,03
04980:  MOVFF  FEA,5E9
04984:  MOVFF  FE9,5E8
04988:  BCF    FD8.1
0498A:  MOVFF  5E7,61B
0498E:  MOVFF  5E6,61A
04992:  MOVFF  5E5,619
04996:  MOVFF  5E4,618
0499A:  MOVFF  03,61F
0499E:  MOVFF  02,61E
049A2:  MOVFF  01,61D
049A6:  MOVFF  00,61C
049AA:  MOVLB  0
049AC:  CALL   1BC0
049B0:  MOVFF  5E9,FEA
049B4:  MOVFF  5E8,FE9
049B8:  MOVFF  03,5E7
049BC:  MOVFF  02,5E6
049C0:  MOVFF  01,5E5
049C4:  MOVFF  00,5E4
....................    }  
049C8:  MOVLB  4
049CA:  INCF   xD4,F
049CC:  BRA    4950
....................    promediopresion=promediopresion/media;    
049CE:  MOVLB  6
049D0:  CLRF   x19
049D2:  MOVFF  5E3,618
049D6:  MOVLB  0
049D8:  CALL   1A2C
049DC:  MOVFF  5E7,617
049E0:  MOVFF  5E6,616
049E4:  MOVFF  5E5,615
049E8:  MOVFF  5E4,614
049EC:  MOVFF  03,61B
049F0:  MOVFF  02,61A
049F4:  MOVFF  01,619
049F8:  MOVFF  00,618
049FC:  CALL   1A62
04A00:  MOVFF  03,5E7
04A04:  MOVFF  02,5E6
04A08:  MOVFF  01,5E5
04A0C:  MOVFF  00,5E4
....................     
....................    return promediopresion*Ajuste2; 
04A10:  MOVFF  5E7,617
04A14:  MOVFF  5E6,616
04A18:  MOVFF  5E5,615
04A1C:  MOVFF  5E4,614
04A20:  MOVFF  53E,61B
04A24:  MOVFF  53D,61A
04A28:  MOVFF  53C,619
04A2C:  MOVFF  53B,618
04A30:  CALL   3044
.................... } 
04A34:  GOTO   6744 (RETURN)
....................  
.................... float leeTemperatura(int8 media){ 
*
04656:  MOVLB  5
04658:  CLRF   xE7
0465A:  CLRF   xE6
0465C:  CLRF   xE5
0465E:  CLRF   xE4
04660:  CLRF   xEB
04662:  CLRF   xEA
04664:  CLRF   xE9
04666:  CLRF   xE8
04668:  CLRF   xEF
0466A:  CLRF   xEE
0466C:  CLRF   xED
0466E:  CLRF   xEC
04670:  CLRF   xF3
04672:  CLRF   xF2
04674:  CLRF   xF1
04676:  CLRF   xF0
....................    float ADC=0,V=0,T=0,Tempera=0; 
....................    ADC=sensores(0); 
04678:  CLRF   xF4
0467A:  MOVLB  0
0467C:  CALL   2FCA
04680:  MOVFF  02,619
04684:  MOVFF  01,618
04688:  CALL   1A2C
0468C:  MOVFF  03,5E7
04690:  MOVFF  02,5E6
04694:  MOVFF  01,5E5
04698:  MOVFF  00,5E4
....................    V=5*ADC/1023; 
0469C:  MOVLB  6
0469E:  CLRF   x17
046A0:  CLRF   x16
046A2:  MOVLW  20
046A4:  MOVWF  x15
046A6:  MOVLW  81
046A8:  MOVWF  x14
046AA:  MOVFF  5E7,61B
046AE:  MOVFF  5E6,61A
046B2:  MOVFF  5E5,619
046B6:  MOVFF  5E4,618
046BA:  MOVLB  0
046BC:  CALL   3044
046C0:  MOVFF  00,5F4
046C4:  MOVFF  01,5F5
046C8:  MOVFF  02,5F6
046CC:  MOVFF  03,5F7
046D0:  MOVFF  03,617
046D4:  MOVFF  02,616
046D8:  MOVFF  01,615
046DC:  MOVFF  00,614
046E0:  MOVLB  6
046E2:  CLRF   x1B
046E4:  MOVLW  C0
046E6:  MOVWF  x1A
046E8:  MOVLW  7F
046EA:  MOVWF  x19
046EC:  MOVLW  88
046EE:  MOVWF  x18
046F0:  MOVLB  0
046F2:  CALL   1A62
046F6:  MOVFF  03,5EB
046FA:  MOVFF  02,5EA
046FE:  MOVFF  01,5E9
04702:  MOVFF  00,5E8
....................    T=V/0.01; 
04706:  MOVFF  5EB,617
0470A:  MOVFF  5EA,616
0470E:  MOVFF  5E9,615
04712:  MOVFF  5E8,614
04716:  MOVLW  0A
04718:  MOVLB  6
0471A:  MOVWF  x1B
0471C:  MOVLW  D7
0471E:  MOVWF  x1A
04720:  MOVLW  23
04722:  MOVWF  x19
04724:  MOVLW  78
04726:  MOVWF  x18
04728:  MOVLB  0
0472A:  CALL   1A62
0472E:  MOVFF  03,5EF
04732:  MOVFF  02,5EE
04736:  MOVFF  01,5ED
0473A:  MOVFF  00,5EC
....................    if(l2>media) 
0473E:  MOVLB  5
04740:  MOVF   xD4,W
04742:  SUBWF  xE3,W
04744:  BC    4748
....................       l2=0; 
04746:  CLRF   xD4
....................        
....................    promedio2[l2]=T;l2++; 
04748:  MOVF   xD4,W
0474A:  MULLW  04
0474C:  MOVF   FF3,W
0474E:  CLRF   03
04750:  ADDLW  77
04752:  MOVWF  FE9
04754:  MOVLW  05
04756:  ADDWFC 03,W
04758:  MOVWF  FEA
0475A:  MOVFF  5EC,FEF
0475E:  MOVFF  5ED,FEC
04762:  MOVFF  5EE,FEC
04766:  MOVFF  5EF,FEC
0476A:  INCF   xD4,F
....................    Tempera=0; 
0476C:  CLRF   xF3
0476E:  CLRF   xF2
04770:  CLRF   xF1
04772:  CLRF   xF0
....................       
....................      for(h2=0;h2<=(media-1);h2++){ 
04774:  CLRF   xD5
04776:  MOVLW  01
04778:  SUBWF  xE3,W
0477A:  SUBWF  xD5,W
0477C:  BZ    4780
0477E:  BC    47F0
....................         Tempera+=promedio2[h2]; 
04780:  MOVF   xD5,W
04782:  MULLW  04
04784:  MOVF   FF3,W
04786:  CLRF   03
04788:  ADDLW  77
0478A:  MOVWF  FE9
0478C:  MOVLW  05
0478E:  ADDWFC 03,W
04790:  MOVWF  FEA
04792:  MOVFF  FEF,00
04796:  MOVFF  FEC,01
0479A:  MOVFF  FEC,02
0479E:  MOVFF  FEC,03
047A2:  MOVFF  FEA,5F5
047A6:  MOVFF  FE9,5F4
047AA:  BCF    FD8.1
047AC:  MOVFF  5F3,61B
047B0:  MOVFF  5F2,61A
047B4:  MOVFF  5F1,619
047B8:  MOVFF  5F0,618
047BC:  MOVFF  03,61F
047C0:  MOVFF  02,61E
047C4:  MOVFF  01,61D
047C8:  MOVFF  00,61C
047CC:  MOVLB  0
047CE:  CALL   1BC0
047D2:  MOVFF  5F5,FEA
047D6:  MOVFF  5F4,FE9
047DA:  MOVFF  03,5F3
047DE:  MOVFF  02,5F2
047E2:  MOVFF  01,5F1
047E6:  MOVFF  00,5F0
....................      }       
047EA:  MOVLB  5
047EC:  INCF   xD5,F
047EE:  BRA    4776
....................    return Tempera/media; 
047F0:  MOVLB  6
047F2:  CLRF   x19
047F4:  MOVFF  5E3,618
047F8:  MOVLB  0
047FA:  CALL   1A2C
047FE:  MOVFF  5F3,617
04802:  MOVFF  5F2,616
04806:  MOVFF  5F1,615
0480A:  MOVFF  5F0,614
0480E:  MOVFF  03,61B
04812:  MOVFF  02,61A
04816:  MOVFF  01,619
0481A:  MOVFF  00,618
0481E:  CALL   1A62
.................... } 
04822:  GOTO   6720 (RETURN)
....................  
.................... void LeeEEPROM(void){ 
....................    Password[0]=read_eeprom(0); 
*
01E38:  MOVFF  FF2,5E3
01E3C:  BCF    FF2.7
01E3E:  CLRF   FAA
01E40:  CLRF   FA9
01E42:  BCF    FA6.6
01E44:  BCF    FA6.7
01E46:  BSF    FA6.0
01E48:  MOVF   FA8,W
01E4A:  MOVLB  5
01E4C:  BTFSC  xE3.7
01E4E:  BSF    FF2.7
01E50:  MOVWF  x0B
....................    delay_ms(10); 
01E52:  MOVLW  0A
01E54:  MOVWF  xF7
01E56:  MOVLB  0
01E58:  CALL   1500
....................    Password[1]=read_eeprom(1); 
01E5C:  MOVFF  FF2,5E3
01E60:  BCF    FF2.7
01E62:  CLRF   FAA
01E64:  MOVLW  01
01E66:  MOVWF  FA9
01E68:  BCF    FA6.6
01E6A:  BCF    FA6.7
01E6C:  BSF    FA6.0
01E6E:  MOVF   FA8,W
01E70:  MOVLB  5
01E72:  BTFSC  xE3.7
01E74:  BSF    FF2.7
01E76:  MOVWF  x0C
....................    delay_ms(10); 
01E78:  MOVLW  0A
01E7A:  MOVWF  xF7
01E7C:  MOVLB  0
01E7E:  CALL   1500
....................    Password[2]=read_eeprom(2); 
01E82:  MOVFF  FF2,5E3
01E86:  BCF    FF2.7
01E88:  CLRF   FAA
01E8A:  MOVLW  02
01E8C:  MOVWF  FA9
01E8E:  BCF    FA6.6
01E90:  BCF    FA6.7
01E92:  BSF    FA6.0
01E94:  MOVF   FA8,W
01E96:  MOVLB  5
01E98:  BTFSC  xE3.7
01E9A:  BSF    FF2.7
01E9C:  MOVWF  x0D
....................    delay_ms(10); 
01E9E:  MOVLW  0A
01EA0:  MOVWF  xF7
01EA2:  MOVLB  0
01EA4:  CALL   1500
....................    Password[3]=read_eeprom(3); 
01EA8:  MOVFF  FF2,5E3
01EAC:  BCF    FF2.7
01EAE:  CLRF   FAA
01EB0:  MOVLW  03
01EB2:  MOVWF  FA9
01EB4:  BCF    FA6.6
01EB6:  BCF    FA6.7
01EB8:  BSF    FA6.0
01EBA:  MOVF   FA8,W
01EBC:  MOVLB  5
01EBE:  BTFSC  xE3.7
01EC0:  BSF    FF2.7
01EC2:  MOVWF  x0E
....................    delay_ms(10); 
01EC4:  MOVLW  0A
01EC6:  MOVWF  xF7
01EC8:  MOVLB  0
01ECA:  CALL   1500
....................    Tpurgap[0]=read_eeprom(4); 
01ECE:  MOVFF  FF2,5E3
01ED2:  BCF    FF2.7
01ED4:  CLRF   FAA
01ED6:  MOVLW  04
01ED8:  MOVWF  FA9
01EDA:  BCF    FA6.6
01EDC:  BCF    FA6.7
01EDE:  BSF    FA6.0
01EE0:  MOVF   FA8,W
01EE2:  MOVLB  5
01EE4:  BTFSC  xE3.7
01EE6:  BSF    FF2.7
01EE8:  MOVLB  4
01EEA:  MOVWF  xEF
....................    delay_ms(10); 
01EEC:  MOVLW  0A
01EEE:  MOVLB  5
01EF0:  MOVWF  xF7
01EF2:  MOVLB  0
01EF4:  CALL   1500
....................    Tpurgap[1]=read_eeprom(5); 
01EF8:  MOVFF  FF2,5E3
01EFC:  BCF    FF2.7
01EFE:  CLRF   FAA
01F00:  MOVLW  05
01F02:  MOVWF  FA9
01F04:  BCF    FA6.6
01F06:  BCF    FA6.7
01F08:  BSF    FA6.0
01F0A:  MOVF   FA8,W
01F0C:  MOVLB  5
01F0E:  BTFSC  xE3.7
01F10:  BSF    FF2.7
01F12:  MOVLB  4
01F14:  MOVWF  xF0
....................    delay_ms(10); 
01F16:  MOVLW  0A
01F18:  MOVLB  5
01F1A:  MOVWF  xF7
01F1C:  MOVLB  0
01F1E:  CALL   1500
....................    Tpurgap[2]=read_eeprom(6); 
01F22:  MOVFF  FF2,5E3
01F26:  BCF    FF2.7
01F28:  CLRF   FAA
01F2A:  MOVLW  06
01F2C:  MOVWF  FA9
01F2E:  BCF    FA6.6
01F30:  BCF    FA6.7
01F32:  BSF    FA6.0
01F34:  MOVF   FA8,W
01F36:  MOVLB  5
01F38:  BTFSC  xE3.7
01F3A:  BSF    FF2.7
01F3C:  MOVLB  4
01F3E:  MOVWF  xF1
....................    delay_ms(10); 
01F40:  MOVLW  0A
01F42:  MOVLB  5
01F44:  MOVWF  xF7
01F46:  MOVLB  0
01F48:  CALL   1500
....................    Tpurgap[3]=read_eeprom(7); 
01F4C:  MOVFF  FF2,5E3
01F50:  BCF    FF2.7
01F52:  CLRF   FAA
01F54:  MOVLW  07
01F56:  MOVWF  FA9
01F58:  BCF    FA6.6
01F5A:  BCF    FA6.7
01F5C:  BSF    FA6.0
01F5E:  MOVF   FA8,W
01F60:  MOVLB  5
01F62:  BTFSC  xE3.7
01F64:  BSF    FF2.7
01F66:  MOVLB  4
01F68:  MOVWF  xF2
....................    delay_ms(10); 
01F6A:  MOVLW  0A
01F6C:  MOVLB  5
01F6E:  MOVWF  xF7
01F70:  MOVLB  0
01F72:  CALL   1500
....................    Tppurgap[0]=read_eeprom(8); 
01F76:  MOVFF  FF2,5E3
01F7A:  BCF    FF2.7
01F7C:  CLRF   FAA
01F7E:  MOVLW  08
01F80:  MOVWF  FA9
01F82:  BCF    FA6.6
01F84:  BCF    FA6.7
01F86:  BSF    FA6.0
01F88:  MOVF   FA8,W
01F8A:  MOVLB  5
01F8C:  BTFSC  xE3.7
01F8E:  BSF    FF2.7
01F90:  MOVLB  4
01F92:  MOVWF  xF3
....................    delay_ms(10); 
01F94:  MOVLW  0A
01F96:  MOVLB  5
01F98:  MOVWF  xF7
01F9A:  MOVLB  0
01F9C:  CALL   1500
....................    Tppurgap[1]=read_eeprom(9); 
01FA0:  MOVFF  FF2,5E3
01FA4:  BCF    FF2.7
01FA6:  CLRF   FAA
01FA8:  MOVLW  09
01FAA:  MOVWF  FA9
01FAC:  BCF    FA6.6
01FAE:  BCF    FA6.7
01FB0:  BSF    FA6.0
01FB2:  MOVF   FA8,W
01FB4:  MOVLB  5
01FB6:  BTFSC  xE3.7
01FB8:  BSF    FF2.7
01FBA:  MOVLB  4
01FBC:  MOVWF  xF4
....................    delay_ms(10); 
01FBE:  MOVLW  0A
01FC0:  MOVLB  5
01FC2:  MOVWF  xF7
01FC4:  MOVLB  0
01FC6:  CALL   1500
....................    Tppurgap[2]=read_eeprom(10); 
01FCA:  MOVFF  FF2,5E3
01FCE:  BCF    FF2.7
01FD0:  CLRF   FAA
01FD2:  MOVLW  0A
01FD4:  MOVWF  FA9
01FD6:  BCF    FA6.6
01FD8:  BCF    FA6.7
01FDA:  BSF    FA6.0
01FDC:  MOVF   FA8,W
01FDE:  MOVLB  5
01FE0:  BTFSC  xE3.7
01FE2:  BSF    FF2.7
01FE4:  MOVLB  4
01FE6:  MOVWF  xF5
....................    delay_ms(10); 
01FE8:  MOVLW  0A
01FEA:  MOVLB  5
01FEC:  MOVWF  xF7
01FEE:  MOVLB  0
01FF0:  CALL   1500
....................    Tppurgap[3]=read_eeprom(11); 
01FF4:  MOVFF  FF2,5E3
01FF8:  BCF    FF2.7
01FFA:  CLRF   FAA
01FFC:  MOVLW  0B
01FFE:  MOVWF  FA9
02000:  BCF    FA6.6
02002:  BCF    FA6.7
02004:  BSF    FA6.0
02006:  MOVF   FA8,W
02008:  MOVLB  5
0200A:  BTFSC  xE3.7
0200C:  BSF    FF2.7
0200E:  MOVLB  4
02010:  MOVWF  xF6
....................    delay_ms(10); 
02012:  MOVLW  0A
02014:  MOVLB  5
02016:  MOVWF  xF7
02018:  MOVLB  0
0201A:  CALL   1500
....................    Tuv[0]=read_eeprom(12); 
0201E:  MOVFF  FF2,5E3
02022:  BCF    FF2.7
02024:  CLRF   FAA
02026:  MOVLW  0C
02028:  MOVWF  FA9
0202A:  BCF    FA6.6
0202C:  BCF    FA6.7
0202E:  BSF    FA6.0
02030:  MOVF   FA8,W
02032:  MOVLB  5
02034:  BTFSC  xE3.7
02036:  BSF    FF2.7
02038:  MOVLB  4
0203A:  MOVWF  xF7
....................    delay_ms(10); 
0203C:  MOVLW  0A
0203E:  MOVLB  5
02040:  MOVWF  xF7
02042:  MOVLB  0
02044:  CALL   1500
....................    Tuv[1]=read_eeprom(13); 
02048:  MOVFF  FF2,5E3
0204C:  BCF    FF2.7
0204E:  CLRF   FAA
02050:  MOVLW  0D
02052:  MOVWF  FA9
02054:  BCF    FA6.6
02056:  BCF    FA6.7
02058:  BSF    FA6.0
0205A:  MOVF   FA8,W
0205C:  MOVLB  5
0205E:  BTFSC  xE3.7
02060:  BSF    FF2.7
02062:  MOVLB  4
02064:  MOVWF  xF8
....................    delay_ms(10); 
02066:  MOVLW  0A
02068:  MOVLB  5
0206A:  MOVWF  xF7
0206C:  MOVLB  0
0206E:  CALL   1500
....................    Tuv[2]=read_eeprom(14); 
02072:  MOVFF  FF2,5E3
02076:  BCF    FF2.7
02078:  CLRF   FAA
0207A:  MOVLW  0E
0207C:  MOVWF  FA9
0207E:  BCF    FA6.6
02080:  BCF    FA6.7
02082:  BSF    FA6.0
02084:  MOVF   FA8,W
02086:  MOVLB  5
02088:  BTFSC  xE3.7
0208A:  BSF    FF2.7
0208C:  MOVLB  4
0208E:  MOVWF  xF9
....................    delay_ms(10); 
02090:  MOVLW  0A
02092:  MOVLB  5
02094:  MOVWF  xF7
02096:  MOVLB  0
02098:  CALL   1500
....................    Tuv[3]=read_eeprom(15); 
0209C:  MOVFF  FF2,5E3
020A0:  BCF    FF2.7
020A2:  CLRF   FAA
020A4:  MOVLW  0F
020A6:  MOVWF  FA9
020A8:  BCF    FA6.6
020AA:  BCF    FA6.7
020AC:  BSF    FA6.0
020AE:  MOVF   FA8,W
020B0:  MOVLB  5
020B2:  BTFSC  xE3.7
020B4:  BSF    FF2.7
020B6:  MOVLB  4
020B8:  MOVWF  xFA
....................    delay_ms(10); 
020BA:  MOVLW  0A
020BC:  MOVLB  5
020BE:  MOVWF  xF7
020C0:  MOVLB  0
020C2:  CALL   1500
....................    Ttrabajo[0]=read_eeprom(16); 
020C6:  MOVFF  FF2,5E3
020CA:  BCF    FF2.7
020CC:  CLRF   FAA
020CE:  MOVLW  10
020D0:  MOVWF  FA9
020D2:  BCF    FA6.6
020D4:  BCF    FA6.7
020D6:  BSF    FA6.0
020D8:  MOVF   FA8,W
020DA:  MOVLB  5
020DC:  BTFSC  xE3.7
020DE:  BSF    FF2.7
020E0:  MOVWF  x03
....................    delay_ms(10); 
020E2:  MOVLW  0A
020E4:  MOVWF  xF7
020E6:  MOVLB  0
020E8:  CALL   1500
....................    Ttrabajo[1]=read_eeprom(17); 
020EC:  MOVFF  FF2,5E3
020F0:  BCF    FF2.7
020F2:  CLRF   FAA
020F4:  MOVLW  11
020F6:  MOVWF  FA9
020F8:  BCF    FA6.6
020FA:  BCF    FA6.7
020FC:  BSF    FA6.0
020FE:  MOVF   FA8,W
02100:  MOVLB  5
02102:  BTFSC  xE3.7
02104:  BSF    FF2.7
02106:  MOVWF  x04
....................    delay_ms(10); 
02108:  MOVLW  0A
0210A:  MOVWF  xF7
0210C:  MOVLB  0
0210E:  CALL   1500
....................    Ttrabajo[2]=read_eeprom(18); 
02112:  MOVFF  FF2,5E3
02116:  BCF    FF2.7
02118:  CLRF   FAA
0211A:  MOVLW  12
0211C:  MOVWF  FA9
0211E:  BCF    FA6.6
02120:  BCF    FA6.7
02122:  BSF    FA6.0
02124:  MOVF   FA8,W
02126:  MOVLB  5
02128:  BTFSC  xE3.7
0212A:  BSF    FF2.7
0212C:  MOVWF  x05
....................    delay_ms(10); 
0212E:  MOVLW  0A
02130:  MOVWF  xF7
02132:  MOVLB  0
02134:  CALL   1500
....................    Ttrabajo[3]=read_eeprom(19); 
02138:  MOVFF  FF2,5E3
0213C:  BCF    FF2.7
0213E:  CLRF   FAA
02140:  MOVLW  13
02142:  MOVWF  FA9
02144:  BCF    FA6.6
02146:  BCF    FA6.7
02148:  BSF    FA6.0
0214A:  MOVF   FA8,W
0214C:  MOVLB  5
0214E:  BTFSC  xE3.7
02150:  BSF    FF2.7
02152:  MOVWF  x06
....................    delay_ms(10); 
02154:  MOVLW  0A
02156:  MOVWF  xF7
02158:  MOVLB  0
0215A:  CALL   1500
....................    //flag_alarma=read_eeprom(20); 
....................    //delay_ms(10); 
....................    Tempouvp[0]=read_eeprom(21); 
0215E:  MOVFF  FF2,5E3
02162:  BCF    FF2.7
02164:  CLRF   FAA
02166:  MOVLW  15
02168:  MOVWF  FA9
0216A:  BCF    FA6.6
0216C:  BCF    FA6.7
0216E:  BSF    FA6.0
02170:  MOVF   FA8,W
02172:  MOVLB  5
02174:  BTFSC  xE3.7
02176:  BSF    FF2.7
02178:  MOVLB  4
0217A:  MOVWF  xFB
....................    delay_ms(10); 
0217C:  MOVLW  0A
0217E:  MOVLB  5
02180:  MOVWF  xF7
02182:  MOVLB  0
02184:  CALL   1500
....................    Tempouvp[1]=read_eeprom(22); 
02188:  MOVFF  FF2,5E3
0218C:  BCF    FF2.7
0218E:  CLRF   FAA
02190:  MOVLW  16
02192:  MOVWF  FA9
02194:  BCF    FA6.6
02196:  BCF    FA6.7
02198:  BSF    FA6.0
0219A:  MOVF   FA8,W
0219C:  MOVLB  5
0219E:  BTFSC  xE3.7
021A0:  BSF    FF2.7
021A2:  MOVLB  4
021A4:  MOVWF  xFC
....................    delay_ms(10); 
021A6:  MOVLW  0A
021A8:  MOVLB  5
021AA:  MOVWF  xF7
021AC:  MOVLB  0
021AE:  CALL   1500
....................    Tempouvp[2]=read_eeprom(23); 
021B2:  MOVFF  FF2,5E3
021B6:  BCF    FF2.7
021B8:  CLRF   FAA
021BA:  MOVLW  17
021BC:  MOVWF  FA9
021BE:  BCF    FA6.6
021C0:  BCF    FA6.7
021C2:  BSF    FA6.0
021C4:  MOVF   FA8,W
021C6:  MOVLB  5
021C8:  BTFSC  xE3.7
021CA:  BSF    FF2.7
021CC:  MOVLB  4
021CE:  MOVWF  xFD
....................    delay_ms(10); 
021D0:  MOVLW  0A
021D2:  MOVLB  5
021D4:  MOVWF  xF7
021D6:  MOVLB  0
021D8:  CALL   1500
....................    Tempouvp[3]=read_eeprom(24); 
021DC:  MOVFF  FF2,5E3
021E0:  BCF    FF2.7
021E2:  CLRF   FAA
021E4:  MOVLW  18
021E6:  MOVWF  FA9
021E8:  BCF    FA6.6
021EA:  BCF    FA6.7
021EC:  BSF    FA6.0
021EE:  MOVF   FA8,W
021F0:  MOVLB  5
021F2:  BTFSC  xE3.7
021F4:  BSF    FF2.7
021F6:  MOVLB  4
021F8:  MOVWF  xFE
....................     
....................    delay_ms(10); 
021FA:  MOVLW  0A
021FC:  MOVLB  5
021FE:  MOVWF  xF7
02200:  MOVLB  0
02202:  CALL   1500
....................    Entero=read_eeprom(25);//Decimal1=read_eeprom(26); 
02206:  MOVFF  FF2,5E3
0220A:  BCF    FF2.7
0220C:  CLRF   FAA
0220E:  MOVLW  19
02210:  MOVWF  FA9
02212:  BCF    FA6.6
02214:  BCF    FA6.7
02216:  BSF    FA6.0
02218:  MOVF   FA8,W
0221A:  MOVLB  5
0221C:  BTFSC  xE3.7
0221E:  BSF    FF2.7
02220:  MOVLB  4
02222:  MOVWF  xD8
....................    delay_ms(10); 
02224:  MOVLW  0A
02226:  MOVLB  5
02228:  MOVWF  xF7
0222A:  MOVLB  0
0222C:  CALL   1500
....................    Temporal=read_eeprom(26); 
02230:  MOVFF  FF2,5E3
02234:  BCF    FF2.7
02236:  CLRF   FAA
02238:  MOVLW  1A
0223A:  MOVWF  FA9
0223C:  BCF    FA6.6
0223E:  BCF    FA6.7
02240:  BSF    FA6.0
02242:  MOVF   FA8,W
02244:  MOVLB  5
02246:  BTFSC  xE3.7
02248:  BSF    FF2.7
0224A:  MOVLB  6
0224C:  CLRF   x19
0224E:  MOVWF  x18
02250:  MOVLB  0
02252:  CALL   1A2C
02256:  MOVFF  03,542
0225A:  MOVFF  02,541
0225E:  MOVFF  01,540
02262:  MOVFF  00,53F
....................    delay_ms(10); 
02266:  MOVLW  0A
02268:  MOVLB  5
0226A:  MOVWF  xF7
0226C:  MOVLB  0
0226E:  CALL   1500
....................    Temporal=Temporal/10.0; 
02272:  MOVFF  542,617
02276:  MOVFF  541,616
0227A:  MOVFF  540,615
0227E:  MOVFF  53F,614
02282:  MOVLB  6
02284:  CLRF   x1B
02286:  CLRF   x1A
02288:  MOVLW  20
0228A:  MOVWF  x19
0228C:  MOVLW  82
0228E:  MOVWF  x18
02290:  MOVLB  0
02292:  CALL   1A62
02296:  MOVFF  03,542
0229A:  MOVFF  02,541
0229E:  MOVFF  01,540
022A2:  MOVFF  00,53F
....................    Ajuste1=Entero+Temporal; 
022A6:  MOVLB  6
022A8:  CLRF   x19
022AA:  MOVFF  4D8,618
022AE:  MOVLB  0
022B0:  CALL   1A2C
022B4:  BCF    FD8.1
022B6:  MOVFF  03,61B
022BA:  MOVFF  02,61A
022BE:  MOVFF  01,619
022C2:  MOVFF  00,618
022C6:  MOVFF  542,61F
022CA:  MOVFF  541,61E
022CE:  MOVFF  540,61D
022D2:  MOVFF  53F,61C
022D6:  RCALL  1BC0
022D8:  MOVFF  03,53A
022DC:  MOVFF  02,539
022E0:  MOVFF  01,538
022E4:  MOVFF  00,537
....................     
....................     
....................    Entero=read_eeprom(27);//Decimal1=read_eeprom(26); 
022E8:  MOVFF  FF2,5E3
022EC:  BCF    FF2.7
022EE:  CLRF   FAA
022F0:  MOVLW  1B
022F2:  MOVWF  FA9
022F4:  BCF    FA6.6
022F6:  BCF    FA6.7
022F8:  BSF    FA6.0
022FA:  MOVF   FA8,W
022FC:  MOVLB  5
022FE:  BTFSC  xE3.7
02300:  BSF    FF2.7
02302:  MOVLB  4
02304:  MOVWF  xD8
....................    delay_ms(10); 
02306:  MOVLW  0A
02308:  MOVLB  5
0230A:  MOVWF  xF7
0230C:  MOVLB  0
0230E:  CALL   1500
....................    Temporal=read_eeprom(28); 
02312:  MOVFF  FF2,5E3
02316:  BCF    FF2.7
02318:  CLRF   FAA
0231A:  MOVLW  1C
0231C:  MOVWF  FA9
0231E:  BCF    FA6.6
02320:  BCF    FA6.7
02322:  BSF    FA6.0
02324:  MOVF   FA8,W
02326:  MOVLB  5
02328:  BTFSC  xE3.7
0232A:  BSF    FF2.7
0232C:  MOVLB  6
0232E:  CLRF   x19
02330:  MOVWF  x18
02332:  MOVLB  0
02334:  CALL   1A2C
02338:  MOVFF  03,542
0233C:  MOVFF  02,541
02340:  MOVFF  01,540
02344:  MOVFF  00,53F
....................    delay_ms(10); 
02348:  MOVLW  0A
0234A:  MOVLB  5
0234C:  MOVWF  xF7
0234E:  MOVLB  0
02350:  CALL   1500
....................    Temporal=Temporal/10.0; 
02354:  MOVFF  542,617
02358:  MOVFF  541,616
0235C:  MOVFF  540,615
02360:  MOVFF  53F,614
02364:  MOVLB  6
02366:  CLRF   x1B
02368:  CLRF   x1A
0236A:  MOVLW  20
0236C:  MOVWF  x19
0236E:  MOVLW  82
02370:  MOVWF  x18
02372:  MOVLB  0
02374:  CALL   1A62
02378:  MOVFF  03,542
0237C:  MOVFF  02,541
02380:  MOVFF  01,540
02384:  MOVFF  00,53F
....................    Ajuste2=Entero+Temporal; 
02388:  MOVLB  6
0238A:  CLRF   x19
0238C:  MOVFF  4D8,618
02390:  MOVLB  0
02392:  CALL   1A2C
02396:  BCF    FD8.1
02398:  MOVFF  03,61B
0239C:  MOVFF  02,61A
023A0:  MOVFF  01,619
023A4:  MOVFF  00,618
023A8:  MOVFF  542,61F
023AC:  MOVFF  541,61E
023B0:  MOVFF  540,61D
023B4:  MOVFF  53F,61C
023B8:  RCALL  1BC0
023BA:  MOVFF  03,53E
023BE:  MOVFF  02,53D
023C2:  MOVFF  01,53C
023C6:  MOVFF  00,53B
....................     
....................    zero_actual=make16(read_eeprom(30),read_eeprom(29)); 
023CA:  MOVFF  FF2,5E3
023CE:  BCF    FF2.7
023D0:  CLRF   FAA
023D2:  MOVLW  1E
023D4:  MOVWF  FA9
023D6:  BCF    FA6.6
023D8:  BCF    FA6.7
023DA:  BSF    FA6.0
023DC:  MOVF   FA8,W
023DE:  MOVLB  5
023E0:  BTFSC  xE3.7
023E2:  BSF    FF2.7
023E4:  MOVWF  xE4
023E6:  MOVFF  FF2,5E5
023EA:  BCF    FF2.7
023EC:  CLRF   FAA
023EE:  MOVLW  1D
023F0:  MOVWF  FA9
023F2:  BCF    FA6.6
023F4:  BCF    FA6.7
023F6:  BSF    FA6.0
023F8:  MOVF   FA8,W
023FA:  BTFSC  xE5.7
023FC:  BSF    FF2.7
023FE:  MOVWF  xE6
02400:  MOVFF  5E4,03
02404:  MOVF   xE6,W
02406:  MOVLB  6
02408:  MOVWF  x18
0240A:  MOVFF  03,619
0240E:  MOVLB  0
02410:  CALL   1A2C
02414:  MOVFF  03,5C2
02418:  MOVFF  02,5C1
0241C:  MOVFF  01,5C0
02420:  MOVFF  00,5BF
....................    delay_ms(10); 
02424:  MOVLW  0A
02426:  MOVLB  5
02428:  MOVWF  xF7
0242A:  MOVLB  0
0242C:  CALL   1500
....................    minutos_trabajo=make16(read_eeprom(34),read_eeprom(33)); 
02430:  MOVFF  FF2,5E3
02434:  BCF    FF2.7
02436:  CLRF   FAA
02438:  MOVLW  22
0243A:  MOVWF  FA9
0243C:  BCF    FA6.6
0243E:  BCF    FA6.7
02440:  BSF    FA6.0
02442:  MOVF   FA8,W
02444:  MOVLB  5
02446:  BTFSC  xE3.7
02448:  BSF    FF2.7
0244A:  MOVWF  xE4
0244C:  MOVFF  FF2,5E5
02450:  BCF    FF2.7
02452:  CLRF   FAA
02454:  MOVLW  21
02456:  MOVWF  FA9
02458:  BCF    FA6.6
0245A:  BCF    FA6.7
0245C:  BSF    FA6.0
0245E:  MOVF   FA8,W
02460:  BTFSC  xE5.7
02462:  BSF    FF2.7
02464:  MOVWF  xE6
02466:  MOVFF  5E4,4E8
0246A:  MOVFF  5E6,4E7
....................    delay_ms(10); 
0246E:  MOVLW  0A
02470:  MOVWF  xF7
02472:  MOVLB  0
02474:  CALL   1500
....................    minutos_uv=read_eeprom(31); 
02478:  MOVFF  FF2,5E3
0247C:  BCF    FF2.7
0247E:  CLRF   FAA
02480:  MOVLW  1F
02482:  MOVWF  FA9
02484:  BCF    FA6.6
02486:  BCF    FA6.7
02488:  BSF    FA6.0
0248A:  MOVF   FA8,W
0248C:  MOVLB  5
0248E:  BTFSC  xE3.7
02490:  BSF    FF2.7
02492:  MOVLB  4
02494:  CLRF   xE6
02496:  MOVWF  xE5
....................    delay_ms(10); 
02498:  MOVLW  0A
0249A:  MOVLB  5
0249C:  MOVWF  xF7
0249E:  MOVLB  0
024A0:  CALL   1500
....................    VelMotor=read_eeprom(32); 
024A4:  MOVFF  FF2,5E3
024A8:  BCF    FF2.7
024AA:  CLRF   FAA
024AC:  MOVLW  20
024AE:  MOVWF  FA9
024B0:  BCF    FA6.6
024B2:  BCF    FA6.7
024B4:  BSF    FA6.0
024B6:  MOVF   FA8,W
024B8:  MOVLB  5
024BA:  BTFSC  xE3.7
024BC:  BSF    FF2.7
024BE:  MOVWF  xDA
....................    delay_ms(10); 
024C0:  MOVLW  0A
024C2:  MOVWF  xF7
024C4:  MOVLB  0
024C6:  CALL   1500
....................     
....................    Diferencia=make16(read_eeprom(61),read_eeprom(60)); 
024CA:  MOVFF  FF2,5E3
024CE:  BCF    FF2.7
024D0:  CLRF   FAA
024D2:  MOVLW  3D
024D4:  MOVWF  FA9
024D6:  BCF    FA6.6
024D8:  BCF    FA6.7
024DA:  BSF    FA6.0
024DC:  MOVF   FA8,W
024DE:  MOVLB  5
024E0:  BTFSC  xE3.7
024E2:  BSF    FF2.7
024E4:  MOVWF  xE4
024E6:  MOVFF  FF2,5E5
024EA:  BCF    FF2.7
024EC:  CLRF   FAA
024EE:  MOVLW  3C
024F0:  MOVWF  FA9
024F2:  BCF    FA6.6
024F4:  BCF    FA6.7
024F6:  BSF    FA6.0
024F8:  MOVF   FA8,W
024FA:  BTFSC  xE5.7
024FC:  BSF    FF2.7
024FE:  MOVWF  xE6
02500:  MOVFF  5E4,03
02504:  MOVF   xE6,W
02506:  MOVLB  6
02508:  MOVWF  x18
0250A:  MOVFF  03,619
0250E:  MOVLB  0
02510:  CALL   1A2C
02514:  MOVFF  03,51E
02518:  MOVFF  02,51D
0251C:  MOVFF  01,51C
02520:  MOVFF  00,51B
....................    delay_ms(10); 
02524:  MOVLW  0A
02526:  MOVLB  5
02528:  MOVWF  xF7
0252A:  MOVLB  0
0252C:  CALL   1500
....................    G=make16(read_eeprom(63),read_eeprom(62)); 
02530:  MOVFF  FF2,5E3
02534:  BCF    FF2.7
02536:  CLRF   FAA
02538:  MOVLW  3F
0253A:  MOVWF  FA9
0253C:  BCF    FA6.6
0253E:  BCF    FA6.7
02540:  BSF    FA6.0
02542:  MOVF   FA8,W
02544:  MOVLB  5
02546:  BTFSC  xE3.7
02548:  BSF    FF2.7
0254A:  MOVWF  xE4
0254C:  MOVFF  FF2,5E5
02550:  BCF    FF2.7
02552:  CLRF   FAA
02554:  MOVLW  3E
02556:  MOVWF  FA9
02558:  BCF    FA6.6
0255A:  BCF    FA6.7
0255C:  BSF    FA6.0
0255E:  MOVF   FA8,W
02560:  BTFSC  xE5.7
02562:  BSF    FF2.7
02564:  MOVWF  xE6
02566:  MOVFF  5E4,03
0256A:  MOVF   xE6,W
0256C:  MOVLB  6
0256E:  MOVWF  x18
02570:  MOVFF  03,619
02574:  MOVLB  0
02576:  CALL   1A2C
0257A:  MOVFF  03,5CE
0257E:  MOVFF  02,5CD
02582:  MOVFF  01,5CC
02586:  MOVFF  00,5CB
....................    delay_ms(10); 
0258A:  MOVLW  0A
0258C:  MOVLB  5
0258E:  MOVWF  xF7
02590:  MOVLB  0
02592:  CALL   1500
....................    negativo=read_eeprom(50); 
02596:  MOVFF  FF2,5E3
0259A:  BCF    FF2.7
0259C:  CLRF   FAA
0259E:  MOVLW  32
025A0:  MOVWF  FA9
025A2:  BCF    FA6.6
025A4:  BCF    FA6.7
025A6:  BSF    FA6.0
025A8:  MOVF   FA8,W
025AA:  MOVLB  5
025AC:  BTFSC  xE3.7
025AE:  BSF    FF2.7
025B0:  MOVLB  4
025B2:  MOVWF  xD0
....................    delay_ms(10); 
025B4:  MOVLW  0A
025B6:  MOVLB  5
025B8:  MOVWF  xF7
025BA:  MOVLB  0
025BC:  CALL   1500
....................  
.................... } 
025C0:  GOTO   66E8 (RETURN)
....................  
.................... void LimitaValores(void){ 
....................    if(Password[0]>9 || Password[0]<0){ 
*
0263E:  MOVLB  5
02640:  BTFSC  x0B.7
02642:  BRA    264A
02644:  MOVF   x0B,W
02646:  SUBLW  09
02648:  BNC   2650
0264A:  BTFSC  x0B.7
0264C:  BRA    2650
0264E:  BRA    267C
....................       Password[0]=0;write_eeprom(0,0); 
02650:  CLRF   x0B
02652:  CLRF   FAA
02654:  CLRF   FA9
02656:  CLRF   FA8
02658:  BCF    FA6.6
0265A:  BCF    FA6.7
0265C:  BSF    FA6.2
0265E:  MOVF   FF2,W
02660:  MOVWF  00
02662:  BCF    FF2.7
02664:  MOVLB  F
02666:  MOVLW  55
02668:  MOVWF  FA7
0266A:  MOVLW  AA
0266C:  MOVWF  FA7
0266E:  BSF    FA6.1
02670:  BTFSC  FA6.1
02672:  BRA    2670
02674:  BCF    FA6.2
02676:  MOVF   00,W
02678:  IORWF  FF2,F
0267A:  MOVLB  5
....................    } 
....................    if(Password[1]>9 || Password[1]<0){ 
0267C:  BTFSC  x0C.7
0267E:  BRA    2686
02680:  MOVF   x0C,W
02682:  SUBLW  09
02684:  BNC   268C
02686:  BTFSC  x0C.7
02688:  BRA    268C
0268A:  BRA    26BA
....................       Password[1]=0;write_eeprom(1,0); 
0268C:  CLRF   x0C
0268E:  CLRF   FAA
02690:  MOVLW  01
02692:  MOVWF  FA9
02694:  CLRF   FA8
02696:  BCF    FA6.6
02698:  BCF    FA6.7
0269A:  BSF    FA6.2
0269C:  MOVF   FF2,W
0269E:  MOVWF  00
026A0:  BCF    FF2.7
026A2:  MOVLB  F
026A4:  MOVLW  55
026A6:  MOVWF  FA7
026A8:  MOVLW  AA
026AA:  MOVWF  FA7
026AC:  BSF    FA6.1
026AE:  BTFSC  FA6.1
026B0:  BRA    26AE
026B2:  BCF    FA6.2
026B4:  MOVF   00,W
026B6:  IORWF  FF2,F
026B8:  MOVLB  5
....................    } 
....................    if(Password[2]>9 || Password[2]<0){ 
026BA:  BTFSC  x0D.7
026BC:  BRA    26C4
026BE:  MOVF   x0D,W
026C0:  SUBLW  09
026C2:  BNC   26CA
026C4:  BTFSC  x0D.7
026C6:  BRA    26CA
026C8:  BRA    26F8
....................       Password[2]=0;write_eeprom(2,0); 
026CA:  CLRF   x0D
026CC:  CLRF   FAA
026CE:  MOVLW  02
026D0:  MOVWF  FA9
026D2:  CLRF   FA8
026D4:  BCF    FA6.6
026D6:  BCF    FA6.7
026D8:  BSF    FA6.2
026DA:  MOVF   FF2,W
026DC:  MOVWF  00
026DE:  BCF    FF2.7
026E0:  MOVLB  F
026E2:  MOVLW  55
026E4:  MOVWF  FA7
026E6:  MOVLW  AA
026E8:  MOVWF  FA7
026EA:  BSF    FA6.1
026EC:  BTFSC  FA6.1
026EE:  BRA    26EC
026F0:  BCF    FA6.2
026F2:  MOVF   00,W
026F4:  IORWF  FF2,F
026F6:  MOVLB  5
....................    } 
....................    if(Password[3]>9 || Password[3]<0){ 
026F8:  BTFSC  x0E.7
026FA:  BRA    2702
026FC:  MOVF   x0E,W
026FE:  SUBLW  09
02700:  BNC   2708
02702:  BTFSC  x0E.7
02704:  BRA    2708
02706:  BRA    2734
....................       Password[3]=0;write_eeprom(3,0); 
02708:  CLRF   x0E
0270A:  CLRF   FAA
0270C:  MOVLW  03
0270E:  MOVWF  FA9
02710:  CLRF   FA8
02712:  BCF    FA6.6
02714:  BCF    FA6.7
02716:  BSF    FA6.2
02718:  MOVF   FF2,W
0271A:  MOVWF  00
0271C:  BCF    FF2.7
0271E:  MOVLB  F
02720:  MOVLW  55
02722:  MOVWF  FA7
02724:  MOVLW  AA
02726:  MOVWF  FA7
02728:  BSF    FA6.1
0272A:  BTFSC  FA6.1
0272C:  BRA    272A
0272E:  BCF    FA6.2
02730:  MOVF   00,W
02732:  IORWF  FF2,F
....................    } 
....................    if(Tpurgap[0]>9 || Tpurgap[0]<0){ 
02734:  MOVLB  4
02736:  BTFSC  xEF.7
02738:  BRA    2740
0273A:  MOVF   xEF,W
0273C:  SUBLW  09
0273E:  BNC   2746
02740:  BTFSC  xEF.7
02742:  BRA    2746
02744:  BRA    2774
....................       Tpurgap[0]=0;write_eeprom(4,0); 
02746:  CLRF   xEF
02748:  CLRF   FAA
0274A:  MOVLW  04
0274C:  MOVWF  FA9
0274E:  CLRF   FA8
02750:  BCF    FA6.6
02752:  BCF    FA6.7
02754:  BSF    FA6.2
02756:  MOVF   FF2,W
02758:  MOVWF  00
0275A:  BCF    FF2.7
0275C:  MOVLB  F
0275E:  MOVLW  55
02760:  MOVWF  FA7
02762:  MOVLW  AA
02764:  MOVWF  FA7
02766:  BSF    FA6.1
02768:  BTFSC  FA6.1
0276A:  BRA    2768
0276C:  BCF    FA6.2
0276E:  MOVF   00,W
02770:  IORWF  FF2,F
02772:  MOVLB  4
....................    } 
....................    if(Tpurgap[1]>9 || Tpurgap[1]<0){ 
02774:  BTFSC  xF0.7
02776:  BRA    277E
02778:  MOVF   xF0,W
0277A:  SUBLW  09
0277C:  BNC   2784
0277E:  BTFSC  xF0.7
02780:  BRA    2784
02782:  BRA    27B2
....................       Tpurgap[1]=0;write_eeprom(5,0); 
02784:  CLRF   xF0
02786:  CLRF   FAA
02788:  MOVLW  05
0278A:  MOVWF  FA9
0278C:  CLRF   FA8
0278E:  BCF    FA6.6
02790:  BCF    FA6.7
02792:  BSF    FA6.2
02794:  MOVF   FF2,W
02796:  MOVWF  00
02798:  BCF    FF2.7
0279A:  MOVLB  F
0279C:  MOVLW  55
0279E:  MOVWF  FA7
027A0:  MOVLW  AA
027A2:  MOVWF  FA7
027A4:  BSF    FA6.1
027A6:  BTFSC  FA6.1
027A8:  BRA    27A6
027AA:  BCF    FA6.2
027AC:  MOVF   00,W
027AE:  IORWF  FF2,F
027B0:  MOVLB  4
....................    } 
....................    if(Tpurgap[2]>9 || Tpurgap[2]<0){ 
027B2:  BTFSC  xF1.7
027B4:  BRA    27BC
027B6:  MOVF   xF1,W
027B8:  SUBLW  09
027BA:  BNC   27C2
027BC:  BTFSC  xF1.7
027BE:  BRA    27C2
027C0:  BRA    27F4
....................       Tpurgap[2]=2;write_eeprom(6,2); 
027C2:  MOVLW  02
027C4:  MOVWF  xF1
027C6:  CLRF   FAA
027C8:  MOVLW  06
027CA:  MOVWF  FA9
027CC:  MOVLW  02
027CE:  MOVWF  FA8
027D0:  BCF    FA6.6
027D2:  BCF    FA6.7
027D4:  BSF    FA6.2
027D6:  MOVF   FF2,W
027D8:  MOVWF  00
027DA:  BCF    FF2.7
027DC:  MOVLB  F
027DE:  MOVLW  55
027E0:  MOVWF  FA7
027E2:  MOVLW  AA
027E4:  MOVWF  FA7
027E6:  BSF    FA6.1
027E8:  BTFSC  FA6.1
027EA:  BRA    27E8
027EC:  BCF    FA6.2
027EE:  MOVF   00,W
027F0:  IORWF  FF2,F
027F2:  MOVLB  4
....................    } 
....................    if(Tpurgap[3]>9 || Tpurgap[3]<0){ 
027F4:  BTFSC  xF2.7
027F6:  BRA    27FE
027F8:  MOVF   xF2,W
027FA:  SUBLW  09
027FC:  BNC   2804
027FE:  BTFSC  xF2.7
02800:  BRA    2804
02802:  BRA    2832
....................       Tpurgap[3]=0;write_eeprom(7,0); 
02804:  CLRF   xF2
02806:  CLRF   FAA
02808:  MOVLW  07
0280A:  MOVWF  FA9
0280C:  CLRF   FA8
0280E:  BCF    FA6.6
02810:  BCF    FA6.7
02812:  BSF    FA6.2
02814:  MOVF   FF2,W
02816:  MOVWF  00
02818:  BCF    FF2.7
0281A:  MOVLB  F
0281C:  MOVLW  55
0281E:  MOVWF  FA7
02820:  MOVLW  AA
02822:  MOVWF  FA7
02824:  BSF    FA6.1
02826:  BTFSC  FA6.1
02828:  BRA    2826
0282A:  BCF    FA6.2
0282C:  MOVF   00,W
0282E:  IORWF  FF2,F
02830:  MOVLB  4
....................    } 
....................    if(Tppurgap[0]>9 || Tppurgap[0]<0){ 
02832:  BTFSC  xF3.7
02834:  BRA    283C
02836:  MOVF   xF3,W
02838:  SUBLW  09
0283A:  BNC   2842
0283C:  BTFSC  xF3.7
0283E:  BRA    2842
02840:  BRA    2870
....................       Tppurgap[0]=0;write_eeprom(8,0); 
02842:  CLRF   xF3
02844:  CLRF   FAA
02846:  MOVLW  08
02848:  MOVWF  FA9
0284A:  CLRF   FA8
0284C:  BCF    FA6.6
0284E:  BCF    FA6.7
02850:  BSF    FA6.2
02852:  MOVF   FF2,W
02854:  MOVWF  00
02856:  BCF    FF2.7
02858:  MOVLB  F
0285A:  MOVLW  55
0285C:  MOVWF  FA7
0285E:  MOVLW  AA
02860:  MOVWF  FA7
02862:  BSF    FA6.1
02864:  BTFSC  FA6.1
02866:  BRA    2864
02868:  BCF    FA6.2
0286A:  MOVF   00,W
0286C:  IORWF  FF2,F
0286E:  MOVLB  4
....................    } 
....................    if(Tppurgap[1]>9 || Tppurgap[1]<0){ 
02870:  BTFSC  xF4.7
02872:  BRA    287A
02874:  MOVF   xF4,W
02876:  SUBLW  09
02878:  BNC   2880
0287A:  BTFSC  xF4.7
0287C:  BRA    2880
0287E:  BRA    28AE
....................       Tppurgap[1]=0;write_eeprom(9,0); 
02880:  CLRF   xF4
02882:  CLRF   FAA
02884:  MOVLW  09
02886:  MOVWF  FA9
02888:  CLRF   FA8
0288A:  BCF    FA6.6
0288C:  BCF    FA6.7
0288E:  BSF    FA6.2
02890:  MOVF   FF2,W
02892:  MOVWF  00
02894:  BCF    FF2.7
02896:  MOVLB  F
02898:  MOVLW  55
0289A:  MOVWF  FA7
0289C:  MOVLW  AA
0289E:  MOVWF  FA7
028A0:  BSF    FA6.1
028A2:  BTFSC  FA6.1
028A4:  BRA    28A2
028A6:  BCF    FA6.2
028A8:  MOVF   00,W
028AA:  IORWF  FF2,F
028AC:  MOVLB  4
....................    } 
....................    if(Tppurgap[2]>9 || Tppurgap[2]<0){ 
028AE:  BTFSC  xF5.7
028B0:  BRA    28B8
028B2:  MOVF   xF5,W
028B4:  SUBLW  09
028B6:  BNC   28BE
028B8:  BTFSC  xF5.7
028BA:  BRA    28BE
028BC:  BRA    28F0
....................       Tppurgap[2]=2;write_eeprom(10,2); 
028BE:  MOVLW  02
028C0:  MOVWF  xF5
028C2:  CLRF   FAA
028C4:  MOVLW  0A
028C6:  MOVWF  FA9
028C8:  MOVLW  02
028CA:  MOVWF  FA8
028CC:  BCF    FA6.6
028CE:  BCF    FA6.7
028D0:  BSF    FA6.2
028D2:  MOVF   FF2,W
028D4:  MOVWF  00
028D6:  BCF    FF2.7
028D8:  MOVLB  F
028DA:  MOVLW  55
028DC:  MOVWF  FA7
028DE:  MOVLW  AA
028E0:  MOVWF  FA7
028E2:  BSF    FA6.1
028E4:  BTFSC  FA6.1
028E6:  BRA    28E4
028E8:  BCF    FA6.2
028EA:  MOVF   00,W
028EC:  IORWF  FF2,F
028EE:  MOVLB  4
....................    } 
....................    if(Tppurgap[3]>9 || Tppurgap[3]<0){ 
028F0:  BTFSC  xF6.7
028F2:  BRA    28FA
028F4:  MOVF   xF6,W
028F6:  SUBLW  09
028F8:  BNC   2900
028FA:  BTFSC  xF6.7
028FC:  BRA    2900
028FE:  BRA    292E
....................       Tppurgap[3]=0;write_eeprom(11,0); 
02900:  CLRF   xF6
02902:  CLRF   FAA
02904:  MOVLW  0B
02906:  MOVWF  FA9
02908:  CLRF   FA8
0290A:  BCF    FA6.6
0290C:  BCF    FA6.7
0290E:  BSF    FA6.2
02910:  MOVF   FF2,W
02912:  MOVWF  00
02914:  BCF    FF2.7
02916:  MOVLB  F
02918:  MOVLW  55
0291A:  MOVWF  FA7
0291C:  MOVLW  AA
0291E:  MOVWF  FA7
02920:  BSF    FA6.1
02922:  BTFSC  FA6.1
02924:  BRA    2922
02926:  BCF    FA6.2
02928:  MOVF   00,W
0292A:  IORWF  FF2,F
0292C:  MOVLB  4
....................    } 
....................    if(Tuv[0]>9 || Tuv[0]<0){ 
0292E:  BTFSC  xF7.7
02930:  BRA    2938
02932:  MOVF   xF7,W
02934:  SUBLW  09
02936:  BNC   293E
02938:  BTFSC  xF7.7
0293A:  BRA    293E
0293C:  BRA    296C
....................       Tuv[0]=0;write_eeprom(12,0); 
0293E:  CLRF   xF7
02940:  CLRF   FAA
02942:  MOVLW  0C
02944:  MOVWF  FA9
02946:  CLRF   FA8
02948:  BCF    FA6.6
0294A:  BCF    FA6.7
0294C:  BSF    FA6.2
0294E:  MOVF   FF2,W
02950:  MOVWF  00
02952:  BCF    FF2.7
02954:  MOVLB  F
02956:  MOVLW  55
02958:  MOVWF  FA7
0295A:  MOVLW  AA
0295C:  MOVWF  FA7
0295E:  BSF    FA6.1
02960:  BTFSC  FA6.1
02962:  BRA    2960
02964:  BCF    FA6.2
02966:  MOVF   00,W
02968:  IORWF  FF2,F
0296A:  MOVLB  4
....................    } 
....................    if(Tuv[1]>9 || Tuv[1]<0){ 
0296C:  BTFSC  xF8.7
0296E:  BRA    2976
02970:  MOVF   xF8,W
02972:  SUBLW  09
02974:  BNC   297C
02976:  BTFSC  xF8.7
02978:  BRA    297C
0297A:  BRA    29AA
....................       Tuv[1]=0;write_eeprom(13,0); 
0297C:  CLRF   xF8
0297E:  CLRF   FAA
02980:  MOVLW  0D
02982:  MOVWF  FA9
02984:  CLRF   FA8
02986:  BCF    FA6.6
02988:  BCF    FA6.7
0298A:  BSF    FA6.2
0298C:  MOVF   FF2,W
0298E:  MOVWF  00
02990:  BCF    FF2.7
02992:  MOVLB  F
02994:  MOVLW  55
02996:  MOVWF  FA7
02998:  MOVLW  AA
0299A:  MOVWF  FA7
0299C:  BSF    FA6.1
0299E:  BTFSC  FA6.1
029A0:  BRA    299E
029A2:  BCF    FA6.2
029A4:  MOVF   00,W
029A6:  IORWF  FF2,F
029A8:  MOVLB  4
....................    } 
....................    if(Tuv[2]>9 || Tuv[2]<0){ 
029AA:  BTFSC  xF9.7
029AC:  BRA    29B4
029AE:  MOVF   xF9,W
029B0:  SUBLW  09
029B2:  BNC   29BA
029B4:  BTFSC  xF9.7
029B6:  BRA    29BA
029B8:  BRA    29E8
....................       Tuv[2]=0;write_eeprom(14,0); 
029BA:  CLRF   xF9
029BC:  CLRF   FAA
029BE:  MOVLW  0E
029C0:  MOVWF  FA9
029C2:  CLRF   FA8
029C4:  BCF    FA6.6
029C6:  BCF    FA6.7
029C8:  BSF    FA6.2
029CA:  MOVF   FF2,W
029CC:  MOVWF  00
029CE:  BCF    FF2.7
029D0:  MOVLB  F
029D2:  MOVLW  55
029D4:  MOVWF  FA7
029D6:  MOVLW  AA
029D8:  MOVWF  FA7
029DA:  BSF    FA6.1
029DC:  BTFSC  FA6.1
029DE:  BRA    29DC
029E0:  BCF    FA6.2
029E2:  MOVF   00,W
029E4:  IORWF  FF2,F
029E6:  MOVLB  4
....................    } 
....................    if(Tuv[3]>9 || Tuv[3]<0){ 
029E8:  BTFSC  xFA.7
029EA:  BRA    29F2
029EC:  MOVF   xFA,W
029EE:  SUBLW  09
029F0:  BNC   29F8
029F2:  BTFSC  xFA.7
029F4:  BRA    29F8
029F6:  BRA    2A24
....................       Tuv[3]=0;write_eeprom(15,0); 
029F8:  CLRF   xFA
029FA:  CLRF   FAA
029FC:  MOVLW  0F
029FE:  MOVWF  FA9
02A00:  CLRF   FA8
02A02:  BCF    FA6.6
02A04:  BCF    FA6.7
02A06:  BSF    FA6.2
02A08:  MOVF   FF2,W
02A0A:  MOVWF  00
02A0C:  BCF    FF2.7
02A0E:  MOVLB  F
02A10:  MOVLW  55
02A12:  MOVWF  FA7
02A14:  MOVLW  AA
02A16:  MOVWF  FA7
02A18:  BSF    FA6.1
02A1A:  BTFSC  FA6.1
02A1C:  BRA    2A1A
02A1E:  BCF    FA6.2
02A20:  MOVF   00,W
02A22:  IORWF  FF2,F
....................    } 
....................    if(Ttrabajo[0]>9 || Ttrabajo[0]<0){ 
02A24:  MOVLB  5
02A26:  BTFSC  x03.7
02A28:  BRA    2A30
02A2A:  MOVF   x03,W
02A2C:  SUBLW  09
02A2E:  BNC   2A36
02A30:  BTFSC  x03.7
02A32:  BRA    2A36
02A34:  BRA    2A64
....................       Ttrabajo[0]=0;write_eeprom(16,0); 
02A36:  CLRF   x03
02A38:  CLRF   FAA
02A3A:  MOVLW  10
02A3C:  MOVWF  FA9
02A3E:  CLRF   FA8
02A40:  BCF    FA6.6
02A42:  BCF    FA6.7
02A44:  BSF    FA6.2
02A46:  MOVF   FF2,W
02A48:  MOVWF  00
02A4A:  BCF    FF2.7
02A4C:  MOVLB  F
02A4E:  MOVLW  55
02A50:  MOVWF  FA7
02A52:  MOVLW  AA
02A54:  MOVWF  FA7
02A56:  BSF    FA6.1
02A58:  BTFSC  FA6.1
02A5A:  BRA    2A58
02A5C:  BCF    FA6.2
02A5E:  MOVF   00,W
02A60:  IORWF  FF2,F
02A62:  MOVLB  5
....................    } 
....................    if(Ttrabajo[1]>9 || Ttrabajo[1]<0){ 
02A64:  BTFSC  x04.7
02A66:  BRA    2A6E
02A68:  MOVF   x04,W
02A6A:  SUBLW  09
02A6C:  BNC   2A74
02A6E:  BTFSC  x04.7
02A70:  BRA    2A74
02A72:  BRA    2AA2
....................       Ttrabajo[1]=0;write_eeprom(17,0); 
02A74:  CLRF   x04
02A76:  CLRF   FAA
02A78:  MOVLW  11
02A7A:  MOVWF  FA9
02A7C:  CLRF   FA8
02A7E:  BCF    FA6.6
02A80:  BCF    FA6.7
02A82:  BSF    FA6.2
02A84:  MOVF   FF2,W
02A86:  MOVWF  00
02A88:  BCF    FF2.7
02A8A:  MOVLB  F
02A8C:  MOVLW  55
02A8E:  MOVWF  FA7
02A90:  MOVLW  AA
02A92:  MOVWF  FA7
02A94:  BSF    FA6.1
02A96:  BTFSC  FA6.1
02A98:  BRA    2A96
02A9A:  BCF    FA6.2
02A9C:  MOVF   00,W
02A9E:  IORWF  FF2,F
02AA0:  MOVLB  5
....................    } 
....................    if(Ttrabajo[2]>9 || Ttrabajo[2]<0){ 
02AA2:  BTFSC  x05.7
02AA4:  BRA    2AAC
02AA6:  MOVF   x05,W
02AA8:  SUBLW  09
02AAA:  BNC   2AB2
02AAC:  BTFSC  x05.7
02AAE:  BRA    2AB2
02AB0:  BRA    2AE0
....................       Ttrabajo[2]=0;write_eeprom(18,0); 
02AB2:  CLRF   x05
02AB4:  CLRF   FAA
02AB6:  MOVLW  12
02AB8:  MOVWF  FA9
02ABA:  CLRF   FA8
02ABC:  BCF    FA6.6
02ABE:  BCF    FA6.7
02AC0:  BSF    FA6.2
02AC2:  MOVF   FF2,W
02AC4:  MOVWF  00
02AC6:  BCF    FF2.7
02AC8:  MOVLB  F
02ACA:  MOVLW  55
02ACC:  MOVWF  FA7
02ACE:  MOVLW  AA
02AD0:  MOVWF  FA7
02AD2:  BSF    FA6.1
02AD4:  BTFSC  FA6.1
02AD6:  BRA    2AD4
02AD8:  BCF    FA6.2
02ADA:  MOVF   00,W
02ADC:  IORWF  FF2,F
02ADE:  MOVLB  5
....................    } 
....................    if(Ttrabajo[3]>9 || Ttrabajo[3]<0){ 
02AE0:  BTFSC  x06.7
02AE2:  BRA    2AEA
02AE4:  MOVF   x06,W
02AE6:  SUBLW  09
02AE8:  BNC   2AF0
02AEA:  BTFSC  x06.7
02AEC:  BRA    2AF0
02AEE:  BRA    2B1C
....................       Ttrabajo[3]=0;write_eeprom(19,0); 
02AF0:  CLRF   x06
02AF2:  CLRF   FAA
02AF4:  MOVLW  13
02AF6:  MOVWF  FA9
02AF8:  CLRF   FA8
02AFA:  BCF    FA6.6
02AFC:  BCF    FA6.7
02AFE:  BSF    FA6.2
02B00:  MOVF   FF2,W
02B02:  MOVWF  00
02B04:  BCF    FF2.7
02B06:  MOVLB  F
02B08:  MOVLW  55
02B0A:  MOVWF  FA7
02B0C:  MOVLW  AA
02B0E:  MOVWF  FA7
02B10:  BSF    FA6.1
02B12:  BTFSC  FA6.1
02B14:  BRA    2B12
02B16:  BCF    FA6.2
02B18:  MOVF   00,W
02B1A:  IORWF  FF2,F
....................    } 
....................    if(Tempouvp[0]>9 || Tempouvp[0]<0){ 
02B1C:  MOVLB  4
02B1E:  BTFSC  xFB.7
02B20:  BRA    2B28
02B22:  MOVF   xFB,W
02B24:  SUBLW  09
02B26:  BNC   2B2E
02B28:  BTFSC  xFB.7
02B2A:  BRA    2B2E
02B2C:  BRA    2B5C
....................       Tempouvp[0]=0;write_eeprom(21,0); 
02B2E:  CLRF   xFB
02B30:  CLRF   FAA
02B32:  MOVLW  15
02B34:  MOVWF  FA9
02B36:  CLRF   FA8
02B38:  BCF    FA6.6
02B3A:  BCF    FA6.7
02B3C:  BSF    FA6.2
02B3E:  MOVF   FF2,W
02B40:  MOVWF  00
02B42:  BCF    FF2.7
02B44:  MOVLB  F
02B46:  MOVLW  55
02B48:  MOVWF  FA7
02B4A:  MOVLW  AA
02B4C:  MOVWF  FA7
02B4E:  BSF    FA6.1
02B50:  BTFSC  FA6.1
02B52:  BRA    2B50
02B54:  BCF    FA6.2
02B56:  MOVF   00,W
02B58:  IORWF  FF2,F
02B5A:  MOVLB  4
....................    } 
....................    if(Tempouvp[1]>9 || Tempouvp[1]<0){ 
02B5C:  BTFSC  xFC.7
02B5E:  BRA    2B66
02B60:  MOVF   xFC,W
02B62:  SUBLW  09
02B64:  BNC   2B6C
02B66:  BTFSC  xFC.7
02B68:  BRA    2B6C
02B6A:  BRA    2B9A
....................       Tempouvp[1]=0;write_eeprom(22,0); 
02B6C:  CLRF   xFC
02B6E:  CLRF   FAA
02B70:  MOVLW  16
02B72:  MOVWF  FA9
02B74:  CLRF   FA8
02B76:  BCF    FA6.6
02B78:  BCF    FA6.7
02B7A:  BSF    FA6.2
02B7C:  MOVF   FF2,W
02B7E:  MOVWF  00
02B80:  BCF    FF2.7
02B82:  MOVLB  F
02B84:  MOVLW  55
02B86:  MOVWF  FA7
02B88:  MOVLW  AA
02B8A:  MOVWF  FA7
02B8C:  BSF    FA6.1
02B8E:  BTFSC  FA6.1
02B90:  BRA    2B8E
02B92:  BCF    FA6.2
02B94:  MOVF   00,W
02B96:  IORWF  FF2,F
02B98:  MOVLB  4
....................    } 
....................    if(Tempouvp[2]>9 || Tempouvp[2]<0){ 
02B9A:  BTFSC  xFD.7
02B9C:  BRA    2BA4
02B9E:  MOVF   xFD,W
02BA0:  SUBLW  09
02BA2:  BNC   2BAA
02BA4:  BTFSC  xFD.7
02BA6:  BRA    2BAA
02BA8:  BRA    2BD8
....................       Tempouvp[2]=0;write_eeprom(23,0); 
02BAA:  CLRF   xFD
02BAC:  CLRF   FAA
02BAE:  MOVLW  17
02BB0:  MOVWF  FA9
02BB2:  CLRF   FA8
02BB4:  BCF    FA6.6
02BB6:  BCF    FA6.7
02BB8:  BSF    FA6.2
02BBA:  MOVF   FF2,W
02BBC:  MOVWF  00
02BBE:  BCF    FF2.7
02BC0:  MOVLB  F
02BC2:  MOVLW  55
02BC4:  MOVWF  FA7
02BC6:  MOVLW  AA
02BC8:  MOVWF  FA7
02BCA:  BSF    FA6.1
02BCC:  BTFSC  FA6.1
02BCE:  BRA    2BCC
02BD0:  BCF    FA6.2
02BD2:  MOVF   00,W
02BD4:  IORWF  FF2,F
02BD6:  MOVLB  4
....................    } 
....................    if(Tempouvp[3]>9 || Tempouvp[3]<0){ 
02BD8:  BTFSC  xFE.7
02BDA:  BRA    2BE2
02BDC:  MOVF   xFE,W
02BDE:  SUBLW  09
02BE0:  BNC   2BE8
02BE2:  BTFSC  xFE.7
02BE4:  BRA    2BE8
02BE6:  BRA    2C18
....................       Tempouvp[3]=1;write_eeprom(24,1); 
02BE8:  MOVLW  01
02BEA:  MOVWF  xFE
02BEC:  CLRF   FAA
02BEE:  MOVLW  18
02BF0:  MOVWF  FA9
02BF2:  MOVLW  01
02BF4:  MOVWF  FA8
02BF6:  BCF    FA6.6
02BF8:  BCF    FA6.7
02BFA:  BSF    FA6.2
02BFC:  MOVF   FF2,W
02BFE:  MOVWF  00
02C00:  BCF    FF2.7
02C02:  MOVLB  F
02C04:  MOVLW  55
02C06:  MOVWF  FA7
02C08:  MOVLW  AA
02C0A:  MOVWF  FA7
02C0C:  BSF    FA6.1
02C0E:  BTFSC  FA6.1
02C10:  BRA    2C0E
02C12:  BCF    FA6.2
02C14:  MOVF   00,W
02C16:  IORWF  FF2,F
....................    } 
....................    if(Ajuste1>2.0){ 
02C18:  MOVLB  6
02C1A:  CLRF   x17
02C1C:  CLRF   x16
02C1E:  CLRF   x15
02C20:  MOVLW  80
02C22:  MOVWF  x14
02C24:  MOVFF  53A,61B
02C28:  MOVFF  539,61A
02C2C:  MOVFF  538,619
02C30:  MOVFF  537,618
02C34:  MOVLB  0
02C36:  RCALL  25C4
02C38:  BNC   2C9E
....................       Ajuste1=1.5;write_eeprom(25,1);write_eeprom(26,5); 
02C3A:  MOVLB  5
02C3C:  CLRF   x3A
02C3E:  CLRF   x39
02C40:  MOVLW  40
02C42:  MOVWF  x38
02C44:  MOVLW  7F
02C46:  MOVWF  x37
02C48:  CLRF   FAA
02C4A:  MOVLW  19
02C4C:  MOVWF  FA9
02C4E:  MOVLW  01
02C50:  MOVWF  FA8
02C52:  BCF    FA6.6
02C54:  BCF    FA6.7
02C56:  BSF    FA6.2
02C58:  MOVF   FF2,W
02C5A:  MOVWF  00
02C5C:  BCF    FF2.7
02C5E:  MOVLB  F
02C60:  MOVLW  55
02C62:  MOVWF  FA7
02C64:  MOVLW  AA
02C66:  MOVWF  FA7
02C68:  BSF    FA6.1
02C6A:  BTFSC  FA6.1
02C6C:  BRA    2C6A
02C6E:  BCF    FA6.2
02C70:  MOVF   00,W
02C72:  IORWF  FF2,F
02C74:  CLRF   FAA
02C76:  MOVLW  1A
02C78:  MOVWF  FA9
02C7A:  MOVLW  05
02C7C:  MOVWF  FA8
02C7E:  BCF    FA6.6
02C80:  BCF    FA6.7
02C82:  BSF    FA6.2
02C84:  MOVF   FF2,W
02C86:  MOVWF  00
02C88:  BCF    FF2.7
02C8A:  MOVLW  55
02C8C:  MOVWF  FA7
02C8E:  MOVLW  AA
02C90:  MOVWF  FA7
02C92:  BSF    FA6.1
02C94:  BTFSC  FA6.1
02C96:  BRA    2C94
02C98:  BCF    FA6.2
02C9A:  MOVF   00,W
02C9C:  IORWF  FF2,F
....................    } 
....................    if(Ajuste2>2.0){ 
02C9E:  MOVLB  6
02CA0:  CLRF   x17
02CA2:  CLRF   x16
02CA4:  CLRF   x15
02CA6:  MOVLW  80
02CA8:  MOVWF  x14
02CAA:  MOVFF  53E,61B
02CAE:  MOVFF  53D,61A
02CB2:  MOVFF  53C,619
02CB6:  MOVFF  53B,618
02CBA:  MOVLB  0
02CBC:  RCALL  25C4
02CBE:  BNC   2D20
....................       Ajuste2=1.0;write_eeprom(27,1);write_eeprom(28,0); 
02CC0:  MOVLB  5
02CC2:  CLRF   x3E
02CC4:  CLRF   x3D
02CC6:  CLRF   x3C
02CC8:  MOVLW  7F
02CCA:  MOVWF  x3B
02CCC:  CLRF   FAA
02CCE:  MOVLW  1B
02CD0:  MOVWF  FA9
02CD2:  MOVLW  01
02CD4:  MOVWF  FA8
02CD6:  BCF    FA6.6
02CD8:  BCF    FA6.7
02CDA:  BSF    FA6.2
02CDC:  MOVF   FF2,W
02CDE:  MOVWF  00
02CE0:  BCF    FF2.7
02CE2:  MOVLB  F
02CE4:  MOVLW  55
02CE6:  MOVWF  FA7
02CE8:  MOVLW  AA
02CEA:  MOVWF  FA7
02CEC:  BSF    FA6.1
02CEE:  BTFSC  FA6.1
02CF0:  BRA    2CEE
02CF2:  BCF    FA6.2
02CF4:  MOVF   00,W
02CF6:  IORWF  FF2,F
02CF8:  CLRF   FAA
02CFA:  MOVLW  1C
02CFC:  MOVWF  FA9
02CFE:  CLRF   FA8
02D00:  BCF    FA6.6
02D02:  BCF    FA6.7
02D04:  BSF    FA6.2
02D06:  MOVF   FF2,W
02D08:  MOVWF  00
02D0A:  BCF    FF2.7
02D0C:  MOVLW  55
02D0E:  MOVWF  FA7
02D10:  MOVLW  AA
02D12:  MOVWF  FA7
02D14:  BSF    FA6.1
02D16:  BTFSC  FA6.1
02D18:  BRA    2D16
02D1A:  BCF    FA6.2
02D1C:  MOVF   00,W
02D1E:  IORWF  FF2,F
....................    } 
....................    if(zero_actual>300){ 
02D20:  MOVLB  6
02D22:  CLRF   x17
02D24:  CLRF   x16
02D26:  MOVLW  16
02D28:  MOVWF  x15
02D2A:  MOVLW  87
02D2C:  MOVWF  x14
02D2E:  MOVFF  5C2,61B
02D32:  MOVFF  5C1,61A
02D36:  MOVFF  5C0,619
02D3A:  MOVFF  5BF,618
02D3E:  MOVLB  0
02D40:  RCALL  25C4
02D42:  BNC   2DA6
....................       zero_actual=203;write_eeprom(29,203);write_eeprom(30,0); 
02D44:  MOVLB  5
02D46:  CLRF   xC2
02D48:  CLRF   xC1
02D4A:  MOVLW  4B
02D4C:  MOVWF  xC0
02D4E:  MOVLW  86
02D50:  MOVWF  xBF
02D52:  CLRF   FAA
02D54:  MOVLW  1D
02D56:  MOVWF  FA9
02D58:  MOVLW  CB
02D5A:  MOVWF  FA8
02D5C:  BCF    FA6.6
02D5E:  BCF    FA6.7
02D60:  BSF    FA6.2
02D62:  MOVF   FF2,W
02D64:  MOVWF  00
02D66:  BCF    FF2.7
02D68:  MOVLB  F
02D6A:  MOVLW  55
02D6C:  MOVWF  FA7
02D6E:  MOVLW  AA
02D70:  MOVWF  FA7
02D72:  BSF    FA6.1
02D74:  BTFSC  FA6.1
02D76:  BRA    2D74
02D78:  BCF    FA6.2
02D7A:  MOVF   00,W
02D7C:  IORWF  FF2,F
02D7E:  CLRF   FAA
02D80:  MOVLW  1E
02D82:  MOVWF  FA9
02D84:  CLRF   FA8
02D86:  BCF    FA6.6
02D88:  BCF    FA6.7
02D8A:  BSF    FA6.2
02D8C:  MOVF   FF2,W
02D8E:  MOVWF  00
02D90:  BCF    FF2.7
02D92:  MOVLW  55
02D94:  MOVWF  FA7
02D96:  MOVLW  AA
02D98:  MOVWF  FA7
02D9A:  BSF    FA6.1
02D9C:  BTFSC  FA6.1
02D9E:  BRA    2D9C
02DA0:  BCF    FA6.2
02DA2:  MOVF   00,W
02DA4:  IORWF  FF2,F
....................    } 
....................    if(minutos_uv>60){ 
02DA6:  MOVLB  4
02DA8:  MOVF   xE6,F
02DAA:  BNZ   2DB2
02DAC:  MOVF   xE5,W
02DAE:  SUBLW  3C
02DB0:  BC    2DE0
....................       minutos_uv=0;write_eeprom(31,0); 
02DB2:  CLRF   xE6
02DB4:  CLRF   xE5
02DB6:  CLRF   FAA
02DB8:  MOVLW  1F
02DBA:  MOVWF  FA9
02DBC:  CLRF   FA8
02DBE:  BCF    FA6.6
02DC0:  BCF    FA6.7
02DC2:  BSF    FA6.2
02DC4:  MOVF   FF2,W
02DC6:  MOVWF  00
02DC8:  BCF    FF2.7
02DCA:  MOVLB  F
02DCC:  MOVLW  55
02DCE:  MOVWF  FA7
02DD0:  MOVLW  AA
02DD2:  MOVWF  FA7
02DD4:  BSF    FA6.1
02DD6:  BTFSC  FA6.1
02DD8:  BRA    2DD6
02DDA:  BCF    FA6.2
02DDC:  MOVF   00,W
02DDE:  IORWF  FF2,F
....................    } 
....................    if(VelMotor>6){ 
02DE0:  MOVLB  5
02DE2:  MOVF   xDA,W
02DE4:  SUBLW  06
02DE6:  BC    2E18
....................       VelMotor=2;write_eeprom(32,2); 
02DE8:  MOVLW  02
02DEA:  MOVWF  xDA
02DEC:  CLRF   FAA
02DEE:  MOVLW  20
02DF0:  MOVWF  FA9
02DF2:  MOVLW  02
02DF4:  MOVWF  FA8
02DF6:  BCF    FA6.6
02DF8:  BCF    FA6.7
02DFA:  BSF    FA6.2
02DFC:  MOVF   FF2,W
02DFE:  MOVWF  00
02E00:  BCF    FF2.7
02E02:  MOVLB  F
02E04:  MOVLW  55
02E06:  MOVWF  FA7
02E08:  MOVLW  AA
02E0A:  MOVWF  FA7
02E0C:  BSF    FA6.1
02E0E:  BTFSC  FA6.1
02E10:  BRA    2E0E
02E12:  BCF    FA6.2
02E14:  MOVF   00,W
02E16:  IORWF  FF2,F
....................    }    
....................    if(minutos_trabajo>3600){ 
02E18:  MOVLB  4
02E1A:  MOVF   xE8,W
02E1C:  SUBLW  0D
02E1E:  BC    2E80
02E20:  XORLW  FF
02E22:  BNZ   2E2A
02E24:  MOVF   xE7,W
02E26:  SUBLW  10
02E28:  BC    2E80
....................       minutos_trabajo=0;write_eeprom(33,0);write_eeprom(34,0); 
02E2A:  CLRF   xE8
02E2C:  CLRF   xE7
02E2E:  CLRF   FAA
02E30:  MOVLW  21
02E32:  MOVWF  FA9
02E34:  CLRF   FA8
02E36:  BCF    FA6.6
02E38:  BCF    FA6.7
02E3A:  BSF    FA6.2
02E3C:  MOVF   FF2,W
02E3E:  MOVWF  00
02E40:  BCF    FF2.7
02E42:  MOVLB  F
02E44:  MOVLW  55
02E46:  MOVWF  FA7
02E48:  MOVLW  AA
02E4A:  MOVWF  FA7
02E4C:  BSF    FA6.1
02E4E:  BTFSC  FA6.1
02E50:  BRA    2E4E
02E52:  BCF    FA6.2
02E54:  MOVF   00,W
02E56:  IORWF  FF2,F
02E58:  CLRF   FAA
02E5A:  MOVLW  22
02E5C:  MOVWF  FA9
02E5E:  CLRF   FA8
02E60:  BCF    FA6.6
02E62:  BCF    FA6.7
02E64:  BSF    FA6.2
02E66:  MOVF   FF2,W
02E68:  MOVWF  00
02E6A:  BCF    FF2.7
02E6C:  MOVLW  55
02E6E:  MOVWF  FA7
02E70:  MOVLW  AA
02E72:  MOVWF  FA7
02E74:  BSF    FA6.1
02E76:  BTFSC  FA6.1
02E78:  BRA    2E76
02E7A:  BCF    FA6.2
02E7C:  MOVF   00,W
02E7E:  IORWF  FF2,F
....................    } 
....................    //if(Relacion>2.0){ 
....................       //Relacion=0.57;write_eeprom(35,0);write_eeprom(36,57); 
....................    //} 
....................    if(Diferencia>200){ 
02E80:  MOVLB  6
02E82:  CLRF   x17
02E84:  CLRF   x16
02E86:  MOVLW  48
02E88:  MOVWF  x15
02E8A:  MOVLW  86
02E8C:  MOVWF  x14
02E8E:  MOVFF  51E,61B
02E92:  MOVFF  51D,61A
02E96:  MOVFF  51C,619
02E9A:  MOVFF  51B,618
02E9E:  MOVLB  0
02EA0:  CALL   25C4
02EA4:  BNC   2F02
....................       Diferencia=0;write_eeprom(60,0);write_eeprom(61,0); 
02EA6:  MOVLB  5
02EA8:  CLRF   x1E
02EAA:  CLRF   x1D
02EAC:  CLRF   x1C
02EAE:  CLRF   x1B
02EB0:  CLRF   FAA
02EB2:  MOVLW  3C
02EB4:  MOVWF  FA9
02EB6:  CLRF   FA8
02EB8:  BCF    FA6.6
02EBA:  BCF    FA6.7
02EBC:  BSF    FA6.2
02EBE:  MOVF   FF2,W
02EC0:  MOVWF  00
02EC2:  BCF    FF2.7
02EC4:  MOVLB  F
02EC6:  MOVLW  55
02EC8:  MOVWF  FA7
02ECA:  MOVLW  AA
02ECC:  MOVWF  FA7
02ECE:  BSF    FA6.1
02ED0:  BTFSC  FA6.1
02ED2:  BRA    2ED0
02ED4:  BCF    FA6.2
02ED6:  MOVF   00,W
02ED8:  IORWF  FF2,F
02EDA:  CLRF   FAA
02EDC:  MOVLW  3D
02EDE:  MOVWF  FA9
02EE0:  CLRF   FA8
02EE2:  BCF    FA6.6
02EE4:  BCF    FA6.7
02EE6:  BSF    FA6.2
02EE8:  MOVF   FF2,W
02EEA:  MOVWF  00
02EEC:  BCF    FF2.7
02EEE:  MOVLW  55
02EF0:  MOVWF  FA7
02EF2:  MOVLW  AA
02EF4:  MOVWF  FA7
02EF6:  BSF    FA6.1
02EF8:  BTFSC  FA6.1
02EFA:  BRA    2EF8
02EFC:  BCF    FA6.2
02EFE:  MOVF   00,W
02F00:  IORWF  FF2,F
....................    } 
....................    if(G>240){ 
02F02:  MOVLB  6
02F04:  CLRF   x17
02F06:  CLRF   x16
02F08:  MOVLW  70
02F0A:  MOVWF  x15
02F0C:  MOVLW  86
02F0E:  MOVWF  x14
02F10:  MOVFF  5CE,61B
02F14:  MOVFF  5CD,61A
02F18:  MOVFF  5CC,619
02F1C:  MOVFF  5CB,618
02F20:  MOVLB  0
02F22:  CALL   25C4
02F26:  BNC   2F8A
....................       G=240;write_eeprom(62,240);write_eeprom(63,0); 
02F28:  MOVLB  5
02F2A:  CLRF   xCE
02F2C:  CLRF   xCD
02F2E:  MOVLW  70
02F30:  MOVWF  xCC
02F32:  MOVLW  86
02F34:  MOVWF  xCB
02F36:  CLRF   FAA
02F38:  MOVLW  3E
02F3A:  MOVWF  FA9
02F3C:  MOVLW  F0
02F3E:  MOVWF  FA8
02F40:  BCF    FA6.6
02F42:  BCF    FA6.7
02F44:  BSF    FA6.2
02F46:  MOVF   FF2,W
02F48:  MOVWF  00
02F4A:  BCF    FF2.7
02F4C:  MOVLB  F
02F4E:  MOVLW  55
02F50:  MOVWF  FA7
02F52:  MOVLW  AA
02F54:  MOVWF  FA7
02F56:  BSF    FA6.1
02F58:  BTFSC  FA6.1
02F5A:  BRA    2F58
02F5C:  BCF    FA6.2
02F5E:  MOVF   00,W
02F60:  IORWF  FF2,F
02F62:  CLRF   FAA
02F64:  MOVLW  3F
02F66:  MOVWF  FA9
02F68:  CLRF   FA8
02F6A:  BCF    FA6.6
02F6C:  BCF    FA6.7
02F6E:  BSF    FA6.2
02F70:  MOVF   FF2,W
02F72:  MOVWF  00
02F74:  BCF    FF2.7
02F76:  MOVLW  55
02F78:  MOVWF  FA7
02F7A:  MOVLW  AA
02F7C:  MOVWF  FA7
02F7E:  BSF    FA6.1
02F80:  BTFSC  FA6.1
02F82:  BRA    2F80
02F84:  BCF    FA6.2
02F86:  MOVF   00,W
02F88:  IORWF  FF2,F
....................    } 
....................    if(negativo>20){ 
02F8A:  MOVLB  4
02F8C:  MOVF   xD0,W
02F8E:  SUBLW  14
02F90:  BC    2FC4
....................       negativo=10;write_eeprom(50,10); 
02F92:  MOVLW  0A
02F94:  MOVWF  xD0
02F96:  CLRF   FAA
02F98:  MOVLW  32
02F9A:  MOVWF  FA9
02F9C:  MOVLW  0A
02F9E:  MOVWF  FA8
02FA0:  BCF    FA6.6
02FA2:  BCF    FA6.7
02FA4:  BSF    FA6.2
02FA6:  MOVF   FF2,W
02FA8:  MOVWF  00
02FAA:  BCF    FF2.7
02FAC:  MOVLB  F
02FAE:  MOVLW  55
02FB0:  MOVWF  FA7
02FB2:  MOVLW  AA
02FB4:  MOVWF  FA7
02FB6:  BSF    FA6.1
02FB8:  BTFSC  FA6.1
02FBA:  BRA    2FB8
02FBC:  BCF    FA6.2
02FBE:  MOVF   00,W
02FC0:  IORWF  FF2,F
02FC2:  MOVLB  4
....................    } 
.................... } 
02FC4:  MOVLB  0
02FC6:  GOTO   66EC (RETURN)
....................  
.................... void VelocidadMotor(int8 Vel){ 
....................    if(Vel==6){ 
*
01528:  MOVLB  5
0152A:  MOVF   xE3,W
0152C:  SUBLW  06
0152E:  BNZ   1538
....................       Porcentaje=0; 
01530:  CLRF   xD9
....................       Motor_on; 
01532:  BSF    F8B.2
01534:  BCF    F94.2
....................    }else if(Vel==5){ 
01536:  BRA    15A6
01538:  MOVF   xE3,W
0153A:  SUBLW  05
0153C:  BNZ   154C
....................       Porcentaje=15; 
0153E:  MOVLW  0F
01540:  MOVWF  xD9
....................       retardo=2000; 
01542:  MOVLW  07
01544:  MOVWF  xD2
01546:  MOVLW  D0
01548:  MOVWF  xD1
....................    }else if(Vel==4){ 
0154A:  BRA    15A6
0154C:  MOVF   xE3,W
0154E:  SUBLW  04
01550:  BNZ   1560
....................       Porcentaje=25; 
01552:  MOVLW  19
01554:  MOVWF  xD9
....................       retardo=3000; 
01556:  MOVLW  0B
01558:  MOVWF  xD2
0155A:  MOVLW  B8
0155C:  MOVWF  xD1
....................    }else if(Vel==3){ 
0155E:  BRA    15A6
01560:  MOVF   xE3,W
01562:  SUBLW  03
01564:  BNZ   1574
....................       Porcentaje=35; 
01566:  MOVLW  23
01568:  MOVWF  xD9
....................       retardo=3600; 
0156A:  MOVLW  0E
0156C:  MOVWF  xD2
0156E:  MOVLW  10
01570:  MOVWF  xD1
....................    }else if(Vel==2){ 
01572:  BRA    15A6
01574:  MOVF   xE3,W
01576:  SUBLW  02
01578:  BNZ   1588
....................       Porcentaje=45; 
0157A:  MOVLW  2D
0157C:  MOVWF  xD9
....................       retardo=4300; 
0157E:  MOVLW  10
01580:  MOVWF  xD2
01582:  MOVLW  CC
01584:  MOVWF  xD1
....................    }else if(Vel==1){ 
01586:  BRA    15A6
01588:  DECFSZ xE3,W
0158A:  BRA    159A
....................       Porcentaje=50; 
0158C:  MOVLW  32
0158E:  MOVWF  xD9
....................       retardo=5000; 
01590:  MOVLW  13
01592:  MOVWF  xD2
01594:  MOVLW  88
01596:  MOVWF  xD1
....................    }else if(Vel==0){ 
01598:  BRA    15A6
0159A:  MOVF   xE3,F
0159C:  BNZ   15A6
....................       Porcentaje=100; 
0159E:  MOVLW  64
015A0:  MOVWF  xD9
....................       Motor_off; 
015A2:  BCF    F8B.2
015A4:  BCF    F94.2
....................    } 
.................... } 
015A6:  MOVLB  0
015A8:  RETLW  00
....................  
.................... short PidePassword(int8 MenuAnt, int8 MenuActual, int8 MenuPost, int8 clave0,int8 clave1, int8 clave2,int8 clave3){ 
....................       if(n==0) 
*
04F0E:  MOVLB  4
04F10:  BTFSC  x2F.5
04F12:  BRA    4FAA
....................       { 
....................          displayContrasena(Contrasena[0],20,30,1);displayContrasena(Contrasena[1],40,30,0); 
04F14:  MOVFF  507,5ED
04F18:  MOVLW  14
04F1A:  MOVLB  5
04F1C:  MOVWF  xEE
04F1E:  MOVLW  1E
04F20:  MOVWF  xEF
04F22:  MOVLW  01
04F24:  MOVWF  xF0
04F26:  MOVLB  0
04F28:  RCALL  4D72
04F2A:  MOVFF  508,5ED
04F2E:  MOVLW  28
04F30:  MOVLB  5
04F32:  MOVWF  xEE
04F34:  MOVLW  1E
04F36:  MOVWF  xEF
04F38:  CLRF   xF0
04F3A:  MOVLB  0
04F3C:  RCALL  4D72
....................          displayContrasena(Contrasena[2],60,30,0);displayContrasena(Contrasena[0],80,30,0); 
04F3E:  MOVFF  509,5ED
04F42:  MOVLW  3C
04F44:  MOVLB  5
04F46:  MOVWF  xEE
04F48:  MOVLW  1E
04F4A:  MOVWF  xEF
04F4C:  CLRF   xF0
04F4E:  MOVLB  0
04F50:  RCALL  4D72
04F52:  MOVFF  507,5ED
04F56:  MOVLW  50
04F58:  MOVLB  5
04F5A:  MOVWF  xEE
04F5C:  MOVLW  1E
04F5E:  MOVWF  xEF
04F60:  CLRF   xF0
04F62:  MOVLB  0
04F64:  RCALL  4D72
....................          strcpy(Menus.Letra,"Clave"); 
04F66:  MOVLW  04
04F68:  MOVWF  FEA
04F6A:  MOVLW  17
04F6C:  MOVWF  FE9
04F6E:  MOVFF  FF2,5EB
04F72:  BCF    FF2.7
04F74:  MOVLW  00
04F76:  CALL   0F0A
04F7A:  TBLRD*-
04F7C:  TBLRD*+
04F7E:  MOVF   FF5,W
04F80:  MOVWF  FEE
04F82:  IORLW  00
04F84:  BNZ   4F7C
04F86:  MOVLB  5
04F88:  BTFSC  xEB.7
04F8A:  BSF    FF2.7
....................          displayMenu(Menus.Letra,20,0,1,3); 
04F8C:  MOVLW  04
04F8E:  MOVWF  xEC
04F90:  MOVLW  17
04F92:  MOVWF  xEB
04F94:  MOVLW  14
04F96:  MOVWF  xED
04F98:  CLRF   xEE
04F9A:  MOVLW  01
04F9C:  MOVWF  xEF
04F9E:  MOVLW  03
04FA0:  MOVWF  xF0
04FA2:  MOVLB  0
04FA4:  RCALL  4E36
....................          n=1; 
04FA6:  MOVLB  4
04FA8:  BSF    x2F.5
....................       } 
....................        
....................       if(UP){ 
04FAA:  BSF    F92.5
04FAC:  BTFSC  F80.5
04FAE:  BRA    508A
....................          flag_latencia=0;t_latencia=0; 
04FB0:  BCF    x2E.6
04FB2:  CLRF   xE4
04FB4:  CLRF   xE3
....................          if(Flanco == 0){ 
04FB6:  BTFSC  x2D.0
04FB8:  BRA    5088
....................             Flanco = 1;delay_ms(5); 
04FBA:  BSF    x2D.0
04FBC:  MOVLW  05
04FBE:  MOVLB  5
04FC0:  MOVWF  xF7
04FC2:  MOVLB  0
04FC4:  CALL   1500
....................             for(i=1;i<=4;i++){ 
04FC8:  MOVLW  01
04FCA:  MOVLB  5
04FCC:  MOVWF  xD3
04FCE:  MOVF   xD3,W
04FD0:  SUBLW  04
04FD2:  BNC   5086
....................                if(unidad==i){ 
04FD4:  MOVF   xD3,W
04FD6:  MOVLB  4
04FD8:  SUBWF  xCE,W
04FDA:  BNZ   5050
....................                   Contrasena[i-1]++; 
04FDC:  MOVLW  01
04FDE:  MOVLB  5
04FE0:  SUBWF  xD3,W
04FE2:  CLRF   03
04FE4:  ADDLW  07
04FE6:  MOVWF  FE9
04FE8:  MOVLW  05
04FEA:  ADDWFC 03,W
04FEC:  MOVWF  FEA
04FEE:  INCF   FEF,F
....................                   if(Contrasena[i-1]>9){ 
04FF0:  MOVLW  01
04FF2:  SUBWF  xD3,W
04FF4:  CLRF   03
04FF6:  ADDLW  07
04FF8:  MOVWF  FE9
04FFA:  MOVLW  05
04FFC:  ADDWFC 03,W
04FFE:  MOVWF  FEA
05000:  BTFSC  FEF.7
05002:  BRA    501C
05004:  MOVF   FEF,W
05006:  SUBLW  09
05008:  BC    501C
....................                      Contrasena[i-1]=0; 
0500A:  MOVLW  01
0500C:  SUBWF  xD3,W
0500E:  CLRF   03
05010:  ADDLW  07
05012:  MOVWF  FE9
05014:  MOVLW  05
05016:  ADDWFC 03,W
05018:  MOVWF  FEA
0501A:  CLRF   FEF
....................                   } 
....................                   displayContrasena(Contrasena[i-1],i*20,30,1); 
0501C:  MOVLW  01
0501E:  SUBWF  xD3,W
05020:  CLRF   03
05022:  ADDLW  07
05024:  MOVWF  FE9
05026:  MOVLW  05
05028:  ADDWFC 03,W
0502A:  MOVWF  FEA
0502C:  MOVFF  FEF,5EB
05030:  MOVF   xD3,W
05032:  MULLW  14
05034:  MOVFF  FF3,5EC
05038:  MOVFF  5EB,5ED
0503C:  MOVFF  5EC,5EE
05040:  MOVLW  1E
05042:  MOVWF  xEF
05044:  MOVLW  01
05046:  MOVWF  xF0
05048:  MOVLB  0
0504A:  RCALL  4D72
....................                }else{ 
0504C:  BRA    5080
0504E:  MOVLB  4
....................                   displayContrasena(Contrasena[i-1],i*20,30,0); 
05050:  MOVLW  01
05052:  MOVLB  5
05054:  SUBWF  xD3,W
05056:  CLRF   03
05058:  ADDLW  07
0505A:  MOVWF  FE9
0505C:  MOVLW  05
0505E:  ADDWFC 03,W
05060:  MOVWF  FEA
05062:  MOVFF  FEF,5EB
05066:  MOVF   xD3,W
05068:  MULLW  14
0506A:  MOVFF  FF3,5EC
0506E:  MOVFF  5EB,5ED
05072:  MOVFF  5EC,5EE
05076:  MOVLW  1E
05078:  MOVWF  xEF
0507A:  CLRF   xF0
0507C:  MOVLB  0
0507E:  RCALL  4D72
....................                } 
....................             } 
05080:  MOVLB  5
05082:  INCF   xD3,F
05084:  BRA    4FCE
05086:  MOVLB  4
....................          } 
....................       }else{ 
05088:  BRA    508C
....................          Flanco = 0; 
0508A:  BCF    x2D.0
....................       } 
....................              
....................       if(DOWN){ 
0508C:  BSF    F96.0
0508E:  BTFSC  F84.0
05090:  BRA    516A
....................          flag_latencia=0;t_latencia=0; 
05092:  BCF    x2E.6
05094:  CLRF   xE4
05096:  CLRF   xE3
....................          if(Flanco2 == 0){ 
05098:  BTFSC  x2D.2
0509A:  BRA    5168
....................             Flanco2 = 1;delay_ms(5); 
0509C:  BSF    x2D.2
0509E:  MOVLW  05
050A0:  MOVLB  5
050A2:  MOVWF  xF7
050A4:  MOVLB  0
050A6:  CALL   1500
....................             for(i=1;i<=4;i++){ 
050AA:  MOVLW  01
050AC:  MOVLB  5
050AE:  MOVWF  xD3
050B0:  MOVF   xD3,W
050B2:  SUBLW  04
050B4:  BNC   5166
....................                if(unidad==i){ 
050B6:  MOVF   xD3,W
050B8:  MOVLB  4
050BA:  SUBWF  xCE,W
050BC:  BNZ   5130
....................                   Contrasena[i-1]--; 
050BE:  MOVLW  01
050C0:  MOVLB  5
050C2:  SUBWF  xD3,W
050C4:  CLRF   03
050C6:  ADDLW  07
050C8:  MOVWF  FE9
050CA:  MOVLW  05
050CC:  ADDWFC 03,W
050CE:  MOVWF  FEA
050D0:  DECF   FEF,F
....................                   if(Contrasena[i-1]<0){ 
050D2:  MOVLW  01
050D4:  SUBWF  xD3,W
050D6:  CLRF   03
050D8:  ADDLW  07
050DA:  MOVWF  FE9
050DC:  MOVLW  05
050DE:  ADDWFC 03,W
050E0:  MOVWF  FEA
050E2:  BTFSC  FEF.7
050E4:  BRA    50E8
050E6:  BRA    50FC
....................                      Contrasena[i-1]=9; 
050E8:  MOVLW  01
050EA:  SUBWF  xD3,W
050EC:  CLRF   03
050EE:  ADDLW  07
050F0:  MOVWF  FE9
050F2:  MOVLW  05
050F4:  ADDWFC 03,W
050F6:  MOVWF  FEA
050F8:  MOVLW  09
050FA:  MOVWF  FEF
....................                   } 
....................                   displayContrasena(Contrasena[i-1],i*20,30,1); 
050FC:  MOVLW  01
050FE:  SUBWF  xD3,W
05100:  CLRF   03
05102:  ADDLW  07
05104:  MOVWF  FE9
05106:  MOVLW  05
05108:  ADDWFC 03,W
0510A:  MOVWF  FEA
0510C:  MOVFF  FEF,5EB
05110:  MOVF   xD3,W
05112:  MULLW  14
05114:  MOVFF  FF3,5EC
05118:  MOVFF  5EB,5ED
0511C:  MOVFF  5EC,5EE
05120:  MOVLW  1E
05122:  MOVWF  xEF
05124:  MOVLW  01
05126:  MOVWF  xF0
05128:  MOVLB  0
0512A:  RCALL  4D72
....................                }else{ 
0512C:  BRA    5160
0512E:  MOVLB  4
....................                   displayContrasena(Contrasena[i-1],i*20,30,0); 
05130:  MOVLW  01
05132:  MOVLB  5
05134:  SUBWF  xD3,W
05136:  CLRF   03
05138:  ADDLW  07
0513A:  MOVWF  FE9
0513C:  MOVLW  05
0513E:  ADDWFC 03,W
05140:  MOVWF  FEA
05142:  MOVFF  FEF,5EB
05146:  MOVF   xD3,W
05148:  MULLW  14
0514A:  MOVFF  FF3,5EC
0514E:  MOVFF  5EB,5ED
05152:  MOVFF  5EC,5EE
05156:  MOVLW  1E
05158:  MOVWF  xEF
0515A:  CLRF   xF0
0515C:  MOVLB  0
0515E:  RCALL  4D72
....................                } 
....................             }       
05160:  MOVLB  5
05162:  INCF   xD3,F
05164:  BRA    50B0
05166:  MOVLB  4
....................          }      
....................       }else{ 
05168:  BRA    516C
....................          Flanco2 = 0; 
0516A:  BCF    x2D.2
....................       } 
....................              
....................       if(RIGHT){ 
0516C:  BSF    F96.1
0516E:  BTFSC  F84.1
05170:  BRA    5212
....................          flag_latencia=0;t_latencia=0; 
05172:  BCF    x2E.6
05174:  CLRF   xE4
05176:  CLRF   xE3
....................          if(Flanco1 == 0){ 
05178:  BTFSC  x2D.1
0517A:  BRA    5210
....................             Flanco1 = 1;delay_ms(5);unidad++; 
0517C:  BSF    x2D.1
0517E:  MOVLW  05
05180:  MOVLB  5
05182:  MOVWF  xF7
05184:  MOVLB  0
05186:  CALL   1500
0518A:  MOVLB  4
0518C:  INCF   xCE,F
....................             for(i=1;i<=4;i++){ 
0518E:  MOVLW  01
05190:  MOVLB  5
05192:  MOVWF  xD3
05194:  MOVF   xD3,W
05196:  SUBLW  04
05198:  BNC   520E
....................                if(unidad==i){ 
0519A:  MOVF   xD3,W
0519C:  MOVLB  4
0519E:  SUBWF  xCE,W
051A0:  BNZ   51D8
....................                   displayContrasena(Contrasena[i-1],i*20,30,1); 
051A2:  MOVLW  01
051A4:  MOVLB  5
051A6:  SUBWF  xD3,W
051A8:  CLRF   03
051AA:  ADDLW  07
051AC:  MOVWF  FE9
051AE:  MOVLW  05
051B0:  ADDWFC 03,W
051B2:  MOVWF  FEA
051B4:  MOVFF  FEF,5EB
051B8:  MOVF   xD3,W
051BA:  MULLW  14
051BC:  MOVFF  FF3,5EC
051C0:  MOVFF  5EB,5ED
051C4:  MOVFF  5EC,5EE
051C8:  MOVLW  1E
051CA:  MOVWF  xEF
051CC:  MOVLW  01
051CE:  MOVWF  xF0
051D0:  MOVLB  0
051D2:  RCALL  4D72
....................                }else{ 
051D4:  BRA    5208
051D6:  MOVLB  4
....................                   displayContrasena(Contrasena[i-1],i*20,30,0); 
051D8:  MOVLW  01
051DA:  MOVLB  5
051DC:  SUBWF  xD3,W
051DE:  CLRF   03
051E0:  ADDLW  07
051E2:  MOVWF  FE9
051E4:  MOVLW  05
051E6:  ADDWFC 03,W
051E8:  MOVWF  FEA
051EA:  MOVFF  FEF,5EB
051EE:  MOVF   xD3,W
051F0:  MULLW  14
051F2:  MOVFF  FF3,5EC
051F6:  MOVFF  5EB,5ED
051FA:  MOVFF  5EC,5EE
051FE:  MOVLW  1E
05200:  MOVWF  xEF
05202:  CLRF   xF0
05204:  MOVLB  0
05206:  RCALL  4D72
....................                } 
....................             } 
05208:  MOVLB  5
0520A:  INCF   xD3,F
0520C:  BRA    5194
0520E:  MOVLB  4
....................          } 
....................       }else{ 
05210:  BRA    5214
....................          Flanco1 = 0; 
05212:  BCF    x2D.1
....................       } 
....................        
....................       if(LEFT){ 
05214:  BSF    F96.2
05216:  BTFSC  F84.2
05218:  BRA    5262
....................          delay_ms(100); 
0521A:  MOVLW  64
0521C:  MOVLB  5
0521E:  MOVWF  xF7
05220:  MOVLB  0
05222:  CALL   1500
....................          if(LEFT){ 
05226:  BSF    F96.2
05228:  BTFSC  F84.2
0522A:  BRA    5260
....................             Menu=MenuAnt;glcd_fillScreen(OFF);n=0;Opcion=1;unidad=1; 
0522C:  MOVFF  5E4,4CD
05230:  MOVLB  5
05232:  CLRF   xEB
05234:  MOVLB  0
05236:  CALL   15E0
0523A:  MOVLB  4
0523C:  BCF    x2F.5
0523E:  MOVLW  01
05240:  MOVWF  xCF
05242:  MOVWF  xCE
....................             Contrasena[0]=0;Contrasena[1]=0;Contrasena[2]=0;Contrasena[3]=0; 
05244:  MOVLB  5
05246:  CLRF   x07
05248:  CLRF   x08
0524A:  CLRF   x09
0524C:  CLRF   x0A
....................             glcd_fillScreen(OFF);glcd_update(); 
0524E:  CLRF   xEB
05250:  MOVLB  0
05252:  CALL   15E0
05256:  CALL   163A
....................             return 1; 
0525A:  MOVLW  01
0525C:  MOVWF  01
0525E:  BRA    55EE
05260:  MOVLB  4
....................          } 
....................       } 
....................      
....................       if(unidad>4){ 
05262:  MOVF   xCE,W
05264:  SUBLW  04
05266:  BTFSC  FD8.0
05268:  BRA    55F0
....................          glcd_fillScreen(OFF);unidad=1;flag_latencia=0;t_latencia=0; 
0526A:  MOVLB  5
0526C:  CLRF   xEB
0526E:  MOVLB  0
05270:  CALL   15E0
05274:  MOVLW  01
05276:  MOVLB  4
05278:  MOVWF  xCE
0527A:  BCF    x2E.6
0527C:  CLRF   xE4
0527E:  CLRF   xE3
....................           
....................          if(Contrasena[0]==3&&Contrasena[1]==8&&Contrasena[2]==9&&Contrasena[3]==2 && MenuActual==0){ // Si Ingresa clave para reset general del sistema. 
05280:  MOVLB  5
05282:  MOVF   x07,W
05284:  SUBLW  03
05286:  BTFSS  FD8.2
05288:  BRA    537C
0528A:  MOVF   x08,W
0528C:  SUBLW  08
0528E:  BTFSS  FD8.2
05290:  BRA    537C
05292:  MOVF   x09,W
05294:  SUBLW  09
05296:  BNZ   537C
05298:  MOVF   x0A,W
0529A:  SUBLW  02
0529C:  BNZ   537C
0529E:  MOVF   xE5,F
052A0:  BNZ   537C
....................             write_eeprom(0,0);delay_ms(20);write_eeprom(1,0);delay_ms(20);// Reestablece a contrasea de Fabrica y reinicia Programa. 
052A2:  CLRF   FAA
052A4:  CLRF   FA9
052A6:  CLRF   FA8
052A8:  BCF    FA6.6
052AA:  BCF    FA6.7
052AC:  BSF    FA6.2
052AE:  MOVF   FF2,W
052B0:  MOVWF  00
052B2:  BCF    FF2.7
052B4:  MOVLB  F
052B6:  MOVLW  55
052B8:  MOVWF  FA7
052BA:  MOVLW  AA
052BC:  MOVWF  FA7
052BE:  BSF    FA6.1
052C0:  BTFSC  FA6.1
052C2:  BRA    52C0
052C4:  BCF    FA6.2
052C6:  MOVF   00,W
052C8:  IORWF  FF2,F
052CA:  MOVLW  14
052CC:  MOVLB  5
052CE:  MOVWF  xF7
052D0:  MOVLB  0
052D2:  CALL   1500
052D6:  CLRF   FAA
052D8:  MOVLW  01
052DA:  MOVWF  FA9
052DC:  CLRF   FA8
052DE:  BCF    FA6.6
052E0:  BCF    FA6.7
052E2:  BSF    FA6.2
052E4:  MOVF   FF2,W
052E6:  MOVWF  00
052E8:  BCF    FF2.7
052EA:  MOVLB  F
052EC:  MOVLW  55
052EE:  MOVWF  FA7
052F0:  MOVLW  AA
052F2:  MOVWF  FA7
052F4:  BSF    FA6.1
052F6:  BTFSC  FA6.1
052F8:  BRA    52F6
052FA:  BCF    FA6.2
052FC:  MOVF   00,W
052FE:  IORWF  FF2,F
05300:  MOVLW  14
05302:  MOVLB  5
05304:  MOVWF  xF7
05306:  MOVLB  0
05308:  CALL   1500
....................             write_eeprom(2,0);delay_ms(20);write_eeprom(3,0);delay_ms(20); 
0530C:  CLRF   FAA
0530E:  MOVLW  02
05310:  MOVWF  FA9
05312:  CLRF   FA8
05314:  BCF    FA6.6
05316:  BCF    FA6.7
05318:  BSF    FA6.2
0531A:  MOVF   FF2,W
0531C:  MOVWF  00
0531E:  BCF    FF2.7
05320:  MOVLB  F
05322:  MOVLW  55
05324:  MOVWF  FA7
05326:  MOVLW  AA
05328:  MOVWF  FA7
0532A:  BSF    FA6.1
0532C:  BTFSC  FA6.1
0532E:  BRA    532C
05330:  BCF    FA6.2
05332:  MOVF   00,W
05334:  IORWF  FF2,F
05336:  MOVLW  14
05338:  MOVLB  5
0533A:  MOVWF  xF7
0533C:  MOVLB  0
0533E:  CALL   1500
05342:  CLRF   FAA
05344:  MOVLW  03
05346:  MOVWF  FA9
05348:  CLRF   FA8
0534A:  BCF    FA6.6
0534C:  BCF    FA6.7
0534E:  BSF    FA6.2
05350:  MOVF   FF2,W
05352:  MOVWF  00
05354:  BCF    FF2.7
05356:  MOVLB  F
05358:  MOVLW  55
0535A:  MOVWF  FA7
0535C:  MOVLW  AA
0535E:  MOVWF  FA7
05360:  BSF    FA6.1
05362:  BTFSC  FA6.1
05364:  BRA    5362
05366:  BCF    FA6.2
05368:  MOVF   00,W
0536A:  IORWF  FF2,F
0536C:  MOVLW  14
0536E:  MOVLB  5
05370:  MOVWF  xF7
05372:  MOVLB  0
05374:  CALL   1500
....................             reset_cpu(); 
05378:  RESET
0537A:  MOVLB  5
....................          } 
....................        
....................          if((Contrasena[0]==clave0)&&(Contrasena[1]==clave1)&&(Contrasena[2]==clave2)&&(Contrasena[3]==clave3)){ 
0537C:  MOVF   xE7,W
0537E:  SUBWF  x07,W
05380:  BTFSS  FD8.2
05382:  BRA    5464
05384:  MOVF   xE8,W
05386:  SUBWF  x08,W
05388:  BNZ   5464
0538A:  MOVF   xE9,W
0538C:  SUBWF  x09,W
0538E:  BNZ   5464
05390:  MOVF   xEA,W
05392:  SUBWF  x0A,W
05394:  BNZ   5464
....................             glcd_fillScreen(OFF); 
05396:  CLRF   xEB
05398:  MOVLB  0
0539A:  CALL   15E0
....................             strcpy(Menus.Letra,"Clave"); 
0539E:  MOVLW  04
053A0:  MOVWF  FEA
053A2:  MOVLW  17
053A4:  MOVWF  FE9
053A6:  MOVFF  FF2,5EB
053AA:  BCF    FF2.7
053AC:  MOVLW  00
053AE:  CALL   0F0A
053B2:  TBLRD*-
053B4:  TBLRD*+
053B6:  MOVF   FF5,W
053B8:  MOVWF  FEE
053BA:  IORLW  00
053BC:  BNZ   53B4
053BE:  MOVLB  5
053C0:  BTFSC  xEB.7
053C2:  BSF    FF2.7
....................             displayMenu(Menus.Letra,30,0,0,2); 
053C4:  MOVLW  04
053C6:  MOVWF  xEC
053C8:  MOVLW  17
053CA:  MOVWF  xEB
053CC:  MOVLW  1E
053CE:  MOVWF  xED
053D0:  CLRF   xEE
053D2:  CLRF   xEF
053D4:  MOVLW  02
053D6:  MOVWF  xF0
053D8:  MOVLB  0
053DA:  RCALL  4E36
....................             strcpy(Menus.Letra,"Correcta"); 
053DC:  MOVLW  04
053DE:  MOVWF  FEA
053E0:  MOVLW  17
053E2:  MOVWF  FE9
053E4:  MOVFF  FF2,5EB
053E8:  BCF    FF2.7
053EA:  MOVLW  00
053EC:  CALL   0F2E
053F0:  TBLRD*-
053F2:  TBLRD*+
053F4:  MOVF   FF5,W
053F6:  MOVWF  FEE
053F8:  IORLW  00
053FA:  BNZ   53F2
053FC:  MOVLB  5
053FE:  BTFSC  xEB.7
05400:  BSF    FF2.7
....................             displayMenu(Menus.Letra,15,30,0,2); 
05402:  MOVLW  04
05404:  MOVWF  xEC
05406:  MOVLW  17
05408:  MOVWF  xEB
0540A:  MOVLW  0F
0540C:  MOVWF  xED
0540E:  MOVLW  1E
05410:  MOVWF  xEE
05412:  CLRF   xEF
05414:  MOVLW  02
05416:  MOVWF  xF0
05418:  MOVLB  0
0541A:  RCALL  4E36
....................             Menu=MenuPost;glcd_update();delay_ms(1000);glcd_fillScreen(OFF); 
0541C:  MOVFF  5E6,4CD
05420:  CALL   163A
05424:  MOVLW  04
05426:  MOVLB  5
05428:  MOVWF  xEB
0542A:  MOVLW  FA
0542C:  MOVWF  xF7
0542E:  MOVLB  0
05430:  CALL   1500
05434:  MOVLB  5
05436:  DECFSZ xEB,F
05438:  BRA    542A
0543A:  CLRF   xEB
0543C:  MOVLB  0
0543E:  CALL   15E0
....................             Contrasena[0]=0;Contrasena[1]=0;Contrasena[2]=0;Contrasena[3]=0; 
05442:  MOVLB  5
05444:  CLRF   x07
05446:  CLRF   x08
05448:  CLRF   x09
0544A:  CLRF   x0A
....................             if(MenuActual==0)tiempo_purga=1;n=0; 
0544C:  MOVF   xE5,F
0544E:  BNZ   5454
05450:  MOVLB  4
05452:  BSF    x2E.4
05454:  MOVLB  4
05456:  BCF    x2F.5
....................             return 1; 
05458:  MOVLW  01
0545A:  MOVWF  01
0545C:  MOVLB  0
0545E:  BRA    55EE
....................          }else{ 
05460:  BRA    55EE
05462:  MOVLB  5
....................             glcd_fillScreen(OFF); 
05464:  CLRF   xEB
05466:  MOVLB  0
05468:  CALL   15E0
....................             strcpy(Menus.Letra,"Clave"); 
0546C:  MOVLW  04
0546E:  MOVWF  FEA
05470:  MOVLW  17
05472:  MOVWF  FE9
05474:  MOVFF  FF2,5EB
05478:  BCF    FF2.7
0547A:  MOVLW  00
0547C:  CALL   0F0A
05480:  TBLRD*-
05482:  TBLRD*+
05484:  MOVF   FF5,W
05486:  MOVWF  FEE
05488:  IORLW  00
0548A:  BNZ   5482
0548C:  MOVLB  5
0548E:  BTFSC  xEB.7
05490:  BSF    FF2.7
....................             displayMenu(Menus.Letra,30,0,0,2); 
05492:  MOVLW  04
05494:  MOVWF  xEC
05496:  MOVLW  17
05498:  MOVWF  xEB
0549A:  MOVLW  1E
0549C:  MOVWF  xED
0549E:  CLRF   xEE
054A0:  CLRF   xEF
054A2:  MOVLW  02
054A4:  MOVWF  xF0
054A6:  MOVLB  0
054A8:  RCALL  4E36
....................             strcpy(Menus.Letra,"Incorrecta"); 
054AA:  MOVLW  04
054AC:  MOVWF  FEA
054AE:  MOVLW  17
054B0:  MOVWF  FE9
054B2:  MOVFF  FF2,5EB
054B6:  BCF    FF2.7
054B8:  MOVLW  00
054BA:  CALL   0F56
054BE:  TBLRD*-
054C0:  TBLRD*+
054C2:  MOVF   FF5,W
054C4:  MOVWF  FEE
054C6:  IORLW  00
054C8:  BNZ   54C0
054CA:  MOVLB  5
054CC:  BTFSC  xEB.7
054CE:  BSF    FF2.7
....................             displayMenu(Menus.Letra,0,30,0,2); 
054D0:  MOVLW  04
054D2:  MOVWF  xEC
054D4:  MOVLW  17
054D6:  MOVWF  xEB
054D8:  CLRF   xED
054DA:  MOVLW  1E
054DC:  MOVWF  xEE
054DE:  CLRF   xEF
054E0:  MOVLW  02
054E2:  MOVWF  xF0
054E4:  MOVLB  0
054E6:  RCALL  4E36
....................             unidad=1;glcd_update();delay_ms(1000);Contrasena[0]=0;Contrasena[1]=0;Contrasena[2]=0;Contrasena[3]=0;glcd_fillScreen(OFF); 
054E8:  MOVLW  01
054EA:  MOVLB  4
054EC:  MOVWF  xCE
054EE:  MOVLB  0
054F0:  CALL   163A
054F4:  MOVLW  04
054F6:  MOVLB  5
054F8:  MOVWF  xEB
054FA:  MOVLW  FA
054FC:  MOVWF  xF7
054FE:  MOVLB  0
05500:  CALL   1500
05504:  MOVLB  5
05506:  DECFSZ xEB,F
05508:  BRA    54FA
0550A:  CLRF   x07
0550C:  CLRF   x08
0550E:  CLRF   x09
05510:  CLRF   x0A
05512:  CLRF   xEB
05514:  MOVLB  0
05516:  CALL   15E0
....................             glcd_rect(0, 0, 127, 25, YES, ON);strcpy(Menus.Letra,"Clave");glcd_text57(25, 1, Menus.Letra, 3, OFF);displayContrasena(Contrasena[0],20,30,1); 
0551A:  MOVLB  5
0551C:  CLRF   xFC
0551E:  CLRF   xFD
05520:  MOVLW  7F
05522:  MOVWF  xFE
05524:  MOVLW  19
05526:  MOVWF  xFF
05528:  MOVLW  01
0552A:  MOVLB  6
0552C:  MOVWF  x00
0552E:  MOVWF  x01
05530:  MOVLB  0
05532:  CALL   4CAA
05536:  MOVLW  04
05538:  MOVWF  FEA
0553A:  MOVLW  17
0553C:  MOVWF  FE9
0553E:  MOVFF  FF2,5EB
05542:  BCF    FF2.7
05544:  MOVLW  00
05546:  CALL   0F0A
0554A:  TBLRD*-
0554C:  TBLRD*+
0554E:  MOVF   FF5,W
05550:  MOVWF  FEE
05552:  IORLW  00
05554:  BNZ   554C
05556:  MOVLB  5
05558:  BTFSC  xEB.7
0555A:  BSF    FF2.7
0555C:  MOVLW  19
0555E:  MOVWF  xFC
05560:  MOVLW  01
05562:  MOVWF  xFD
05564:  MOVLW  04
05566:  MOVWF  xFF
05568:  MOVLW  17
0556A:  MOVWF  xFE
0556C:  MOVLW  03
0556E:  MOVLB  6
05570:  MOVWF  x00
05572:  CLRF   x01
05574:  MOVLB  0
05576:  CALL   1856
0557A:  MOVFF  507,5ED
0557E:  MOVLW  14
05580:  MOVLB  5
05582:  MOVWF  xEE
05584:  MOVLW  1E
05586:  MOVWF  xEF
05588:  MOVLW  01
0558A:  MOVWF  xF0
0558C:  MOVLB  0
0558E:  CALL   4D72
....................             displayContrasena(Contrasena[1],40,30,0);displayContrasena(Contrasena[2],60,30,0);displayContrasena(Contrasena[0],80,30,0); 
05592:  MOVFF  508,5ED
05596:  MOVLW  28
05598:  MOVLB  5
0559A:  MOVWF  xEE
0559C:  MOVLW  1E
0559E:  MOVWF  xEF
055A0:  CLRF   xF0
055A2:  MOVLB  0
055A4:  CALL   4D72
055A8:  MOVFF  509,5ED
055AC:  MOVLW  3C
055AE:  MOVLB  5
055B0:  MOVWF  xEE
055B2:  MOVLW  1E
055B4:  MOVWF  xEF
055B6:  CLRF   xF0
055B8:  MOVLB  0
055BA:  CALL   4D72
055BE:  MOVFF  507,5ED
055C2:  MOVLW  50
055C4:  MOVLB  5
055C6:  MOVWF  xEE
055C8:  MOVLW  1E
055CA:  MOVWF  xEF
055CC:  CLRF   xF0
055CE:  MOVLB  0
055D0:  CALL   4D72
....................             Menu=MenuAnt;glcd_fillScreen(OFF);n=0; 
055D4:  MOVFF  5E4,4CD
055D8:  MOVLB  5
055DA:  CLRF   xEB
055DC:  MOVLB  0
055DE:  CALL   15E0
055E2:  MOVLB  4
055E4:  BCF    x2F.5
....................             return 0; 
055E6:  MOVLW  00
055E8:  MOVWF  01
055EA:  MOVLB  0
055EC:  BRA    55EE
055EE:  MOVLB  4
....................          } 
....................       } 
.................... } 
055F0:  MOVLB  0
055F2:  RETLW  00
....................  
....................  
.................... #int_EXT            // Interrupcin de encoder para control. 
.................... void ext0() {       // 6 pulsos por vuelta. 
....................    pulsos++; 
*
013E6:  MOVLB  5
013E8:  INCF   xCF,F
013EA:  BTFSC  FD8.2
013EC:  INCF   xD0,F
....................    if(pulsos>=120){ 
013EE:  MOVF   xD0,F
013F0:  BNZ   13F8
013F2:  MOVF   xCF,W
013F4:  SUBLW  77
013F6:  BC    14A8
....................       pulsos=0; 
013F8:  CLRF   xD0
013FA:  CLRF   xCF
....................       imprimir=1;Lectura=1;tiemporeset++; 
013FC:  MOVLB  4
013FE:  BSF    x2D.6
01400:  BSF    x2F.4
01402:  INCF   xD3,F
....................     
....................       if(flag_blower==1) 
01404:  BTFSS  x2D.7
01406:  BRA    140E
....................          minutos_trabajo++;  
01408:  INCF   xE7,F
0140A:  BTFSC  FD8.2
0140C:  INCF   xE8,F
....................        
....................       if(tiempo_uv==1){ 
0140E:  BTFSS  x2F.0
01410:  BRA    1462
....................          segundos_uv++; 
01412:  INCF   xE1,F
01414:  BTFSC  FD8.2
01416:  INCF   xE2,F
....................        
....................          if(Tempouv[0]>0){ 
01418:  BTFSC  xFF.7
0141A:  BRA    1426
0141C:  MOVF   xFF,W
0141E:  SUBLW  00
01420:  BC    1426
....................             Tempouv[0]--; 
01422:  DECF   xFF,F
....................          }else{ 
01424:  BRA    1462
....................             Tempouv[0]=9; 
01426:  MOVLW  09
01428:  MOVWF  xFF
....................             if(Tempouv[1]>0){ 
0142A:  MOVLB  5
0142C:  BTFSC  x00.7
0142E:  BRA    143A
01430:  MOVF   x00,W
01432:  SUBLW  00
01434:  BC    143A
....................                Tempouv[1]--; 
01436:  DECF   x00,F
....................             }else{ 
01438:  BRA    1464
....................                Tempouv[1]=5; 
0143A:  MOVLW  05
0143C:  MOVWF  x00
....................                if(Tempouv[2]>0){ 
0143E:  BTFSC  x01.7
01440:  BRA    144C
01442:  MOVF   x01,W
01444:  SUBLW  00
01446:  BC    144C
....................                   Tempouv[2]--; 
01448:  DECF   x01,F
....................                }else{ 
0144A:  BRA    1464
....................                   Tempouv[2]=9; 
0144C:  MOVLW  09
0144E:  MOVWF  x01
....................                   if(Tempouv[3]>0){ 
01450:  BTFSC  x02.7
01452:  BRA    145E
01454:  MOVF   x02,W
01456:  SUBLW  00
01458:  BC    145E
....................                      Tempouv[3]--; 
0145A:  DECF   x02,F
....................                   }else{ 
0145C:  BRA    1464
....................                      tiempocumplido=1; 
0145E:  MOVLB  4
01460:  BSF    x2F.2
01462:  MOVLB  5
....................                   } 
....................                } 
....................             } 
....................          }     
....................       } 
....................    
....................       if(tiempo_purga==1 || Purga){                   
01464:  MOVLB  4
01466:  BTFSC  x2E.4
01468:  BRA    146E
0146A:  BTFSS  x2F.7
0146C:  BRA    14A6
....................          Tpurga[0]++; 
0146E:  INCF   xEB,F
....................          if(Tpurga[0]>9){ 
01470:  BTFSC  xEB.7
01472:  BRA    147E
01474:  MOVF   xEB,W
01476:  SUBLW  09
01478:  BC    147E
....................             Tpurga[0]=0; 
0147A:  CLRF   xEB
....................             Tpurga[1]++; 
0147C:  INCF   xEC,F
....................          } 
....................          if(Tpurga[1]>5){ 
0147E:  BTFSC  xEC.7
01480:  BRA    148C
01482:  MOVF   xEC,W
01484:  SUBLW  05
01486:  BC    148C
....................             Tpurga[1]=0; 
01488:  CLRF   xEC
....................             Tpurga[2]++; 
0148A:  INCF   xED,F
....................          } 
....................          if(Tpurga[2]>9){ 
0148C:  BTFSC  xED.7
0148E:  BRA    149A
01490:  MOVF   xED,W
01492:  SUBLW  09
01494:  BC    149A
....................             Tpurga[2]=0; 
01496:  CLRF   xED
....................             Tpurga[3]++; 
01498:  INCF   xEE,F
....................          } 
....................          if(Tpurga[3]>5){ 
0149A:  BTFSC  xEE.7
0149C:  BRA    14A6
0149E:  MOVF   xEE,W
014A0:  SUBLW  05
014A2:  BC    14A6
....................             Tpurga[3]=0; 
014A4:  CLRF   xEE
014A6:  MOVLB  5
....................          } 
....................       }  
....................    } 
....................    tiempocruce=0; 
014A8:  CLRF   xD8
014AA:  CLRF   xD7
....................    Cruce=ON; 
014AC:  MOVLB  4
014AE:  BSF    x2F.6
....................    if(VelMotor<6){ 
014B0:  MOVLB  5
014B2:  MOVF   xDA,W
014B4:  SUBLW  05
014B6:  BNC   14F8
....................       if(VelMotor>0 && Porcentaje<100){ 
014B8:  MOVF   xDA,F
014BA:  BZ    14F4
014BC:  MOVF   xD9,W
014BE:  SUBLW  63
014C0:  BNC   14F4
....................          delay_us(retardo);       
014C2:  MOVFF  5D2,62C
014C6:  MOVLB  6
014C8:  INCF   x2C,F
014CA:  DECF   x2C,F
014CC:  BTFSC  FD8.2
014CE:  BRA    14DC
014D0:  MOVLW  FF
014D2:  MOVWF  x2D
014D4:  MOVLB  0
014D6:  RCALL  13C6
014D8:  MOVLB  6
014DA:  BRA    14CA
014DC:  MOVFF  5D1,62D
014E0:  MOVLB  0
014E2:  RCALL  13C6
....................          Motor_on; 
014E4:  BSF    F8B.2
014E6:  BCF    F94.2
....................          delay_us(100);       
014E8:  MOVLW  A6
014EA:  MOVWF  00
014EC:  DECFSZ 00,F
014EE:  BRA    14EC
014F0:  NOP   
014F2:  MOVLB  5
....................       } 
....................       Motor_off; 
014F4:  BCF    F8B.2
014F6:  BCF    F94.2
....................    } 
.................... } 
....................  
014F8:  BCF    FF2.1
014FA:  MOVLB  0
014FC:  GOTO   0058
.................... void glcd_imagen(int8 x) 
.................... { 
....................    char i,j; 
....................    signed char k;  
....................       
....................    if(x==3){ 
*
05DBE:  MOVLB  5
05DC0:  MOVF   xE3,W
05DC2:  SUBLW  03
05DC4:  BNZ   5E6C
....................    for( i = 0 ; i < 64 ; i ++ ) 
05DC6:  CLRF   xE4
05DC8:  MOVF   xE4,W
05DCA:  SUBLW  3F
05DCC:  BNC   5E6C
....................    {  for( j = 0 ; j < 16 ; j ++) 
05DCE:  CLRF   xE5
05DD0:  MOVF   xE5,W
05DD2:  SUBLW  0F
05DD4:  BNC   5E68
....................       {  for(k=7;k>-1;k--) 
05DD6:  MOVLW  07
05DD8:  MOVWF  xE6
05DDA:  MOVF   xE6,W
05DDC:  XORLW  80
05DDE:  SUBLW  7F
05DE0:  BC    5E64
....................          {       
....................             if( bit_test(Bombillo[i][j] ,7-k ))  
05DE2:  CLRF   xE8
05DE4:  MOVFF  5E4,5E7
05DE8:  CLRF   xEA
05DEA:  MOVLW  10
05DEC:  MOVWF  xE9
05DEE:  MOVLB  0
05DF0:  RCALL  5D9C
05DF2:  MOVFF  02,5E8
05DF6:  MOVFF  01,5E7
05DFA:  MOVLB  5
05DFC:  MOVF   xE5,W
05DFE:  ADDWF  01,W
05E00:  MOVWF  01
05E02:  MOVLW  00
05E04:  ADDWFC 02,W
05E06:  MOVWF  03
05E08:  MOVF   01,W
05E0A:  MOVFF  FF2,5E7
05E0E:  BCF    FF2.7
05E10:  MOVFF  03,FF7
05E14:  MOVLB  0
05E16:  CALL   02B6
05E1A:  MOVLB  5
05E1C:  BTFSC  xE7.7
05E1E:  BSF    FF2.7
05E20:  MOVWF  xE7
05E22:  MOVLW  07
05E24:  BSF    FD8.0
05E26:  SUBFWB xE6,W
05E28:  MOVWF  xE8
05E2A:  MOVFF  5E7,00
05E2E:  MOVF   xE8,W
05E30:  MOVWF  01
05E32:  BZ    5E3C
05E34:  BCF    FD8.0
05E36:  RRCF   00,F
05E38:  DECFSZ 01,F
05E3A:  BRA    5E34
05E3C:  BTFSS  00.0
05E3E:  BRA    5E60
....................                glcd_pixel( j*8+k,i, ON ); 
05E40:  MOVF   xE5,W
05E42:  MULLW  08
05E44:  MOVF   FF3,W
05E46:  ADDWF  xE6,W
05E48:  MOVWF  xE7
05E4A:  MOVFF  FE8,617
05E4E:  MOVFF  5E4,618
05E52:  MOVLW  01
05E54:  MOVLB  6
05E56:  MOVWF  x19
05E58:  MOVLB  0
05E5A:  CALL   179A
05E5E:  MOVLB  5
....................          }   
05E60:  DECF   xE6,F
05E62:  BRA    5DDA
....................       } 
05E64:  INCF   xE5,F
05E66:  BRA    5DD0
....................    } 
05E68:  INCF   xE4,F
05E6A:  BRA    5DC8
....................    } 
....................     
....................    if(x==4){ 
05E6C:  MOVF   xE3,W
05E6E:  SUBLW  04
05E70:  BNZ   5F18
....................    for( i = 0 ; i < 64 ; i ++ ) 
05E72:  CLRF   xE4
05E74:  MOVF   xE4,W
05E76:  SUBLW  3F
05E78:  BNC   5F18
....................    {  for( j = 0 ; j < 16 ; j ++) 
05E7A:  CLRF   xE5
05E7C:  MOVF   xE5,W
05E7E:  SUBLW  0F
05E80:  BNC   5F14
....................       {  for(k=7;k>-1;k--) 
05E82:  MOVLW  07
05E84:  MOVWF  xE6
05E86:  MOVF   xE6,W
05E88:  XORLW  80
05E8A:  SUBLW  7F
05E8C:  BC    5F10
....................          {       
....................             if( bit_test(Tomai[i][j] ,7-k ))  
05E8E:  CLRF   xE8
05E90:  MOVFF  5E4,5E7
05E94:  CLRF   xEA
05E96:  MOVLW  10
05E98:  MOVWF  xE9
05E9A:  MOVLB  0
05E9C:  RCALL  5D9C
05E9E:  MOVFF  02,5E8
05EA2:  MOVFF  01,5E7
05EA6:  MOVLB  5
05EA8:  MOVF   xE5,W
05EAA:  ADDWF  01,W
05EAC:  MOVWF  01
05EAE:  MOVLW  00
05EB0:  ADDWFC 02,W
05EB2:  MOVWF  03
05EB4:  MOVF   01,W
05EB6:  MOVFF  FF2,5E7
05EBA:  BCF    FF2.7
05EBC:  MOVFF  03,FF7
05EC0:  MOVLB  0
05EC2:  CALL   06D2
05EC6:  MOVLB  5
05EC8:  BTFSC  xE7.7
05ECA:  BSF    FF2.7
05ECC:  MOVWF  xE7
05ECE:  MOVLW  07
05ED0:  BSF    FD8.0
05ED2:  SUBFWB xE6,W
05ED4:  MOVWF  xE8
05ED6:  MOVFF  5E7,00
05EDA:  MOVF   xE8,W
05EDC:  MOVWF  01
05EDE:  BZ    5EE8
05EE0:  BCF    FD8.0
05EE2:  RRCF   00,F
05EE4:  DECFSZ 01,F
05EE6:  BRA    5EE0
05EE8:  BTFSS  00.0
05EEA:  BRA    5F0C
....................                glcd_pixel( j*8+k,i, ON ); 
05EEC:  MOVF   xE5,W
05EEE:  MULLW  08
05EF0:  MOVF   FF3,W
05EF2:  ADDWF  xE6,W
05EF4:  MOVWF  xE7
05EF6:  MOVFF  FE8,617
05EFA:  MOVFF  5E4,618
05EFE:  MOVLW  01
05F00:  MOVLB  6
05F02:  MOVWF  x19
05F04:  MOVLB  0
05F06:  CALL   179A
05F0A:  MOVLB  5
....................          }   
05F0C:  DECF   xE6,F
05F0E:  BRA    5E86
....................       } 
05F10:  INCF   xE5,F
05F12:  BRA    5E7C
....................    } 
05F14:  INCF   xE4,F
05F16:  BRA    5E74
....................    } 
....................     
....................    if(x==5){ 
05F18:  MOVF   xE3,W
05F1A:  SUBLW  05
05F1C:  BNZ   5FC4
....................    for( i = 0 ; i < 64 ; i ++ ) 
05F1E:  CLRF   xE4
05F20:  MOVF   xE4,W
05F22:  SUBLW  3F
05F24:  BNC   5FC4
....................    {  for( j = 0 ; j < 16 ; j ++) 
05F26:  CLRF   xE5
05F28:  MOVF   xE5,W
05F2A:  SUBLW  0F
05F2C:  BNC   5FC0
....................       {  for(k=7;k>-1;k--) 
05F2E:  MOVLW  07
05F30:  MOVWF  xE6
05F32:  MOVF   xE6,W
05F34:  XORLW  80
05F36:  SUBLW  7F
05F38:  BC    5FBC
....................          {       
....................             if( bit_test(Ventilador[i][j] ,7-k ))  
05F3A:  CLRF   xE8
05F3C:  MOVFF  5E4,5E7
05F40:  CLRF   xEA
05F42:  MOVLW  10
05F44:  MOVWF  xE9
05F46:  MOVLB  0
05F48:  RCALL  5D9C
05F4A:  MOVFF  02,5E8
05F4E:  MOVFF  01,5E7
05F52:  MOVLB  5
05F54:  MOVF   xE5,W
05F56:  ADDWF  01,W
05F58:  MOVWF  01
05F5A:  MOVLW  00
05F5C:  ADDWFC 02,W
05F5E:  MOVWF  03
05F60:  MOVF   01,W
05F62:  MOVFF  FF2,5E7
05F66:  BCF    FF2.7
05F68:  MOVFF  03,FF7
05F6C:  MOVLB  0
05F6E:  CALL   0AEE
05F72:  MOVLB  5
05F74:  BTFSC  xE7.7
05F76:  BSF    FF2.7
05F78:  MOVWF  xE7
05F7A:  MOVLW  07
05F7C:  BSF    FD8.0
05F7E:  SUBFWB xE6,W
05F80:  MOVWF  xE8
05F82:  MOVFF  5E7,00
05F86:  MOVF   xE8,W
05F88:  MOVWF  01
05F8A:  BZ    5F94
05F8C:  BCF    FD8.0
05F8E:  RRCF   00,F
05F90:  DECFSZ 01,F
05F92:  BRA    5F8C
05F94:  BTFSS  00.0
05F96:  BRA    5FB8
....................                glcd_pixel( j*8+k,i, ON ); 
05F98:  MOVF   xE5,W
05F9A:  MULLW  08
05F9C:  MOVF   FF3,W
05F9E:  ADDWF  xE6,W
05FA0:  MOVWF  xE7
05FA2:  MOVFF  FE8,617
05FA6:  MOVFF  5E4,618
05FAA:  MOVLW  01
05FAC:  MOVLB  6
05FAE:  MOVWF  x19
05FB0:  MOVLB  0
05FB2:  CALL   179A
05FB6:  MOVLB  5
....................          }   
05FB8:  DECF   xE6,F
05FBA:  BRA    5F32
....................       } 
05FBC:  INCF   xE5,F
05FBE:  BRA    5F28
....................    } 
05FC0:  INCF   xE4,F
05FC2:  BRA    5F20
....................    } 
.................... } 
05FC4:  MOVLB  0
05FC6:  RETLW  00
....................  
....................  
.................... Float LeerFlujoInFlow(int media) 
.................... { 
....................     InFlow_adc=sensores(1); 
*
04288:  MOVLW  01
0428A:  MOVLB  5
0428C:  MOVWF  xF4
0428E:  MOVLB  0
04290:  CALL   2FCA
04294:  MOVFF  02,4DC
04298:  MOVFF  01,4DB
....................        
....................     if(negativo==10) 
0429C:  MOVLB  4
0429E:  MOVF   xD0,W
042A0:  SUBLW  0A
042A2:  BNZ   42EA
....................     { 
....................       x_uno=Inflow_adc+Diferencia; 
042A4:  MOVFF  4DC,619
042A8:  MOVFF  4DB,618
042AC:  MOVLB  0
042AE:  CALL   1A2C
042B2:  BCF    FD8.1
042B4:  MOVFF  03,61B
042B8:  MOVFF  02,61A
042BC:  MOVFF  01,619
042C0:  MOVFF  00,618
042C4:  MOVFF  51E,61F
042C8:  MOVFF  51D,61E
042CC:  MOVFF  51C,61D
042D0:  MOVFF  51B,61C
042D4:  CALL   1BC0
042D8:  MOVFF  03,52E
042DC:  MOVFF  02,52D
042E0:  MOVFF  01,52C
042E4:  MOVFF  00,52B
042E8:  MOVLB  4
....................     } 
....................     if(negativo==20) 
042EA:  MOVF   xD0,W
042EC:  SUBLW  14
042EE:  BNZ   4334
....................     { 
....................       x_uno=Inflow_adc-Diferencia; 
042F0:  MOVFF  4DC,619
042F4:  MOVFF  4DB,618
042F8:  MOVLB  0
042FA:  CALL   1A2C
042FE:  BSF    FD8.1
04300:  MOVFF  03,61B
04304:  MOVFF  02,61A
04308:  MOVFF  01,619
0430C:  MOVFF  00,618
04310:  MOVFF  51E,61F
04314:  MOVFF  51D,61E
04318:  MOVFF  51C,61D
0431C:  MOVFF  51B,61C
04320:  CALL   1BC0
04324:  MOVFF  03,52E
04328:  MOVFF  02,52D
0432C:  MOVFF  01,52C
04330:  MOVFF  00,52B
....................     } 
....................     Velocidad=(pow(x_uno,3)*a)+(pow(x_uno,2)*b)+(x_uno*c)+(d); 
04334:  MOVFF  52E,5EB
04338:  MOVFF  52D,5EA
0433C:  MOVFF  52C,5E9
04340:  MOVFF  52B,5E8
04344:  MOVLB  5
04346:  CLRF   xEF
04348:  CLRF   xEE
0434A:  MOVLW  40
0434C:  MOVWF  xED
0434E:  MOVLW  80
04350:  MOVWF  xEC
04352:  MOVLB  0
04354:  RCALL  3F7C
04356:  MOVFF  00,5E4
0435A:  MOVFF  01,5E5
0435E:  MOVFF  02,5E6
04362:  MOVFF  03,5E7
04366:  MOVFF  03,617
0436A:  MOVFF  02,616
0436E:  MOVFF  01,615
04372:  MOVFF  00,614
04376:  MOVFF  54A,61B
0437A:  MOVFF  549,61A
0437E:  MOVFF  548,619
04382:  MOVFF  547,618
04386:  CALL   3044
0438A:  MOVFF  00,5E4
0438E:  MOVFF  01,5E5
04392:  MOVFF  02,5E6
04396:  MOVFF  03,5E7
0439A:  MOVFF  52E,5EB
0439E:  MOVFF  52D,5EA
043A2:  MOVFF  52C,5E9
043A6:  MOVFF  52B,5E8
043AA:  MOVLB  5
043AC:  CLRF   xEF
043AE:  CLRF   xEE
043B0:  CLRF   xED
043B2:  MOVLW  80
043B4:  MOVWF  xEC
043B6:  MOVLB  0
043B8:  RCALL  3F7C
043BA:  MOVFF  00,5E8
043BE:  MOVFF  01,5E9
043C2:  MOVFF  02,5EA
043C6:  MOVFF  03,5EB
043CA:  MOVFF  03,617
043CE:  MOVFF  02,616
043D2:  MOVFF  01,615
043D6:  MOVFF  00,614
043DA:  MOVFF  54E,61B
043DE:  MOVFF  54D,61A
043E2:  MOVFF  54C,619
043E6:  MOVFF  54B,618
043EA:  CALL   3044
043EE:  MOVFF  FEA,5E9
043F2:  MOVFF  FE9,5E8
043F6:  BCF    FD8.1
043F8:  MOVFF  5E7,61B
043FC:  MOVFF  5E6,61A
04400:  MOVFF  5E5,619
04404:  MOVFF  5E4,618
04408:  MOVFF  03,61F
0440C:  MOVFF  02,61E
04410:  MOVFF  01,61D
04414:  MOVFF  00,61C
04418:  CALL   1BC0
0441C:  MOVFF  5E9,FEA
04420:  MOVFF  5E8,FE9
04424:  MOVFF  00,5E4
04428:  MOVFF  01,5E5
0442C:  MOVFF  02,5E6
04430:  MOVFF  03,5E7
04434:  MOVFF  52E,617
04438:  MOVFF  52D,616
0443C:  MOVFF  52C,615
04440:  MOVFF  52B,614
04444:  MOVFF  552,61B
04448:  MOVFF  551,61A
0444C:  MOVFF  550,619
04450:  MOVFF  54F,618
04454:  CALL   3044
04458:  MOVFF  FEA,5EB
0445C:  MOVFF  FE9,5EA
04460:  BCF    FD8.1
04462:  MOVFF  5E7,61B
04466:  MOVFF  5E6,61A
0446A:  MOVFF  5E5,619
0446E:  MOVFF  5E4,618
04472:  MOVFF  03,61F
04476:  MOVFF  02,61E
0447A:  MOVFF  01,61D
0447E:  MOVFF  00,61C
04482:  CALL   1BC0
04486:  MOVFF  5EB,FEA
0448A:  MOVFF  5EA,FE9
0448E:  MOVFF  00,5E4
04492:  MOVFF  01,5E5
04496:  MOVFF  02,5E6
0449A:  MOVFF  03,5E7
0449E:  MOVFF  FEA,5ED
044A2:  MOVFF  FE9,5EC
044A6:  BCF    FD8.1
044A8:  MOVFF  03,61B
044AC:  MOVFF  02,61A
044B0:  MOVFF  01,619
044B4:  MOVFF  00,618
044B8:  MOVFF  556,61F
044BC:  MOVFF  555,61E
044C0:  MOVFF  554,61D
044C4:  MOVFF  553,61C
044C8:  CALL   1BC0
044CC:  MOVFF  5ED,FEA
044D0:  MOVFF  5EC,FE9
044D4:  MOVFF  03,52A
044D8:  MOVFF  02,529
044DC:  MOVFF  01,528
044E0:  MOVFF  00,527
....................     //Velocidad=Velocidad*correccion;//Ajuste de Temperatura 
....................      
....................     if(Velocidad<0.0) 
044E4:  MOVFF  52A,617
044E8:  MOVFF  529,616
044EC:  MOVFF  528,615
044F0:  MOVFF  527,614
044F4:  MOVLB  6
044F6:  CLRF   x1B
044F8:  CLRF   x1A
044FA:  CLRF   x19
044FC:  CLRF   x18
044FE:  MOVLB  0
04500:  CALL   25C4
04504:  BNC   4510
....................      {Velocidad=0.0;} 
04506:  MOVLB  5
04508:  CLRF   x2A
0450A:  CLRF   x29
0450C:  CLRF   x28
0450E:  CLRF   x27
....................       
....................      if(l>=media) 
04510:  MOVLB  5
04512:  MOVF   xE3,W
04514:  MOVLB  4
04516:  SUBWF  xD6,W
04518:  BNC   451C
....................        {l=0;} 
0451A:  CLRF   xD6
....................       
....................      promedio[l]=Velocidad;l++; 
0451C:  MOVF   xD6,W
0451E:  MULLW  04
04520:  MOVF   FF3,W
04522:  CLRF   03
04524:  ADDLW  57
04526:  MOVWF  FE9
04528:  MOVLW  05
0452A:  ADDWFC 03,W
0452C:  MOVWF  FEA
0452E:  MOVFF  527,FEF
04532:  MOVFF  528,FEC
04536:  MOVFF  529,FEC
0453A:  MOVFF  52A,FEC
0453E:  INCF   xD6,F
....................      Flujo=0; 
04540:  MOVLB  5
04542:  CLRF   xBA
04544:  CLRF   xB9
04546:  CLRF   xB8
04548:  CLRF   xB7
....................         for(h=0;h<=(media-1);h++) 
0454A:  MOVLB  4
0454C:  CLRF   xD7
0454E:  MOVLW  01
04550:  MOVLB  5
04552:  SUBWF  xE3,W
04554:  MOVLB  4
04556:  SUBWF  xD7,W
04558:  BZ    455C
0455A:  BC    45CC
....................         { 
....................            Flujo+=promedio[h]; 
0455C:  MOVF   xD7,W
0455E:  MULLW  04
04560:  MOVF   FF3,W
04562:  CLRF   03
04564:  ADDLW  57
04566:  MOVWF  FE9
04568:  MOVLW  05
0456A:  ADDWFC 03,W
0456C:  MOVWF  FEA
0456E:  MOVFF  FEF,00
04572:  MOVFF  FEC,01
04576:  MOVFF  FEC,02
0457A:  MOVFF  FEC,03
0457E:  MOVFF  FEA,5E5
04582:  MOVFF  FE9,5E4
04586:  BCF    FD8.1
04588:  MOVFF  5BA,61B
0458C:  MOVFF  5B9,61A
04590:  MOVFF  5B8,619
04594:  MOVFF  5B7,618
04598:  MOVFF  03,61F
0459C:  MOVFF  02,61E
045A0:  MOVFF  01,61D
045A4:  MOVFF  00,61C
045A8:  MOVLB  0
045AA:  CALL   1BC0
045AE:  MOVFF  5E5,FEA
045B2:  MOVFF  5E4,FE9
045B6:  MOVFF  03,5BA
045BA:  MOVFF  02,5B9
045BE:  MOVFF  01,5B8
045C2:  MOVFF  00,5B7
....................         }  
045C6:  MOVLB  4
045C8:  INCF   xD7,F
045CA:  BRA    454E
....................            Flujo=(Flujo/media)*Ajuste1;  
045CC:  MOVLB  6
045CE:  CLRF   x19
045D0:  MOVFF  5E3,618
045D4:  MOVLB  0
045D6:  CALL   1A2C
045DA:  MOVFF  5BA,617
045DE:  MOVFF  5B9,616
045E2:  MOVFF  5B8,615
045E6:  MOVFF  5B7,614
045EA:  MOVFF  03,61B
045EE:  MOVFF  02,61A
045F2:  MOVFF  01,619
045F6:  MOVFF  00,618
045FA:  CALL   1A62
045FE:  MOVFF  00,5E4
04602:  MOVFF  01,5E5
04606:  MOVFF  02,5E6
0460A:  MOVFF  03,5E7
0460E:  MOVFF  03,617
04612:  MOVFF  02,616
04616:  MOVFF  01,615
0461A:  MOVFF  00,614
0461E:  MOVFF  53A,61B
04622:  MOVFF  539,61A
04626:  MOVFF  538,619
0462A:  MOVFF  537,618
0462E:  CALL   3044
04632:  MOVFF  03,5BA
04636:  MOVFF  02,5B9
0463A:  MOVFF  01,5B8
0463E:  MOVFF  00,5B7
....................            return Flujo; 
04642:  MOVFF  5B7,00
04646:  MOVFF  5B8,01
0464A:  MOVFF  5B9,02
0464E:  MOVFF  5BA,03
.................... } 
04652:  GOTO   6704 (RETURN)
....................  
.................... void main(){ 
*
060C6:  CLRF   FF8
060C8:  BCF    FD0.7
060CA:  BSF    07.7
060CC:  CLRF   FEA
060CE:  CLRF   FE9
060D0:  MOVLB  4
060D2:  BCF    x2D.0
060D4:  BCF    x2D.1
060D6:  BCF    x2D.2
060D8:  BCF    x2D.3
060DA:  BCF    x2D.4
060DC:  BCF    x2D.5
060DE:  BCF    x2D.6
060E0:  BCF    x2D.7
060E2:  BCF    x2E.0
060E4:  BCF    x2E.1
060E6:  BCF    x2E.2
060E8:  BCF    x2E.3
060EA:  BCF    x2E.4
060EC:  BCF    x2E.5
060EE:  BCF    x2E.6
060F0:  BCF    x2E.7
060F2:  BCF    x2F.0
060F4:  BCF    x2F.1
060F6:  BSF    x2F.2
060F8:  BCF    x2F.3
060FA:  BCF    x2F.4
060FC:  BCF    x2F.5
060FE:  MOVLW  C8
06100:  MOVWF  xCD
06102:  MOVLW  01
06104:  MOVWF  xCE
06106:  MOVWF  xCF
06108:  MOVLW  0A
0610A:  MOVWF  xD0
0610C:  CLRF   xD1
0610E:  CLRF   xD2
06110:  CLRF   xD3
06112:  CLRF   xD4
06114:  CLRF   xD5
06116:  CLRF   xD6
06118:  CLRF   xD7
0611A:  CLRF   xD8
0611C:  CLRF   xD9
0611E:  MOVWF  xDA
06120:  CLRF   xDC
06122:  CLRF   xDB
06124:  CLRF   xDE
06126:  CLRF   xDD
06128:  CLRF   xE0
0612A:  CLRF   xDF
0612C:  CLRF   xE2
0612E:  CLRF   xE1
06130:  CLRF   xE4
06132:  CLRF   xE3
06134:  CLRF   xE6
06136:  CLRF   xE5
06138:  CLRF   xE8
0613A:  CLRF   xE7
0613C:  CLRF   xEA
0613E:  CLRF   xE9
06140:  MOVLB  5
06142:  CLRF   x12
06144:  CLRF   x11
06146:  CLRF   x10
06148:  CLRF   x0F
0614A:  CLRF   x16
0614C:  CLRF   x15
0614E:  CLRF   x14
06150:  CLRF   x13
06152:  CLRF   x1A
06154:  CLRF   x19
06156:  CLRF   x18
06158:  CLRF   x17
0615A:  CLRF   x1E
0615C:  CLRF   x1D
0615E:  CLRF   x1C
06160:  CLRF   x1B
06162:  CLRF   x22
06164:  CLRF   x21
06166:  CLRF   x20
06168:  CLRF   x1F
0616A:  CLRF   x26
0616C:  CLRF   x25
0616E:  CLRF   x24
06170:  CLRF   x23
06172:  CLRF   x2A
06174:  CLRF   x29
06176:  CLRF   x28
06178:  CLRF   x27
0617A:  CLRF   x2E
0617C:  CLRF   x2D
0617E:  CLRF   x2C
06180:  CLRF   x2B
06182:  CLRF   x32
06184:  CLRF   x31
06186:  CLRF   x30
06188:  CLRF   x2F
0618A:  CLRF   x36
0618C:  CLRF   x35
0618E:  CLRF   x34
06190:  CLRF   x33
06192:  CLRF   x3A
06194:  CLRF   x39
06196:  CLRF   x38
06198:  CLRF   x37
0619A:  CLRF   x3E
0619C:  CLRF   x3D
0619E:  CLRF   x3C
061A0:  CLRF   x3B
061A2:  CLRF   x42
061A4:  CLRF   x41
061A6:  CLRF   x40
061A8:  CLRF   x3F
061AA:  CLRF   x46
061AC:  CLRF   x45
061AE:  CLRF   x44
061B0:  CLRF   x43
061B2:  MOVLW  29
061B4:  MOVWF  x4A
061B6:  MOVLW  B6
061B8:  MOVWF  x49
061BA:  MOVLW  20
061BC:  MOVWF  x48
061BE:  MOVLW  6E
061C0:  MOVWF  x47
061C2:  MOVLW  EE
061C4:  MOVWF  x4E
061C6:  MOVLW  7D
061C8:  MOVWF  x4D
061CA:  MOVLW  EE
061CC:  MOVWF  x4C
061CE:  MOVLW  77
061D0:  MOVWF  x4B
061D2:  MOVLW  ED
061D4:  MOVWF  x52
061D6:  MOVLW  47
061D8:  MOVWF  x51
061DA:  MOVLW  6D
061DC:  MOVWF  x50
061DE:  MOVLW  7F
061E0:  MOVWF  x4F
061E2:  MOVLW  1A
061E4:  MOVWF  x56
061E6:  MOVLW  D1
061E8:  MOVWF  x55
061EA:  MOVLW  9C
061EC:  MOVWF  x54
061EE:  MOVLW  86
061F0:  MOVWF  x53
061F2:  CLRF   xBA
061F4:  CLRF   xB9
061F6:  CLRF   xB8
061F8:  CLRF   xB7
061FA:  CLRF   xBE
061FC:  CLRF   xBD
061FE:  MOVLW  50
06200:  MOVWF  xBC
06202:  MOVLW  86
06204:  MOVWF  xBB
06206:  CLRF   xC2
06208:  CLRF   xC1
0620A:  CLRF   xC0
0620C:  CLRF   xBF
0620E:  CLRF   xC6
06210:  CLRF   xC5
06212:  CLRF   xC4
06214:  CLRF   xC3
06216:  CLRF   xCA
06218:  CLRF   xC9
0621A:  CLRF   xC8
0621C:  CLRF   xC7
0621E:  CLRF   xCE
06220:  CLRF   xCD
06222:  CLRF   xCC
06224:  MOVLW  80
06226:  MOVWF  xCB
06228:  CLRF   xD0
0622A:  CLRF   xCF
0622C:  CLRF   xD2
0622E:  CLRF   xD1
06230:  CLRF   xD3
06232:  CLRF   xD4
06234:  CLRF   xD5
06236:  CLRF   xD6
06238:  MOVLB  4
0623A:  BCF    x2F.6
0623C:  BCF    x2F.7
0623E:  MOVLB  5
06240:  CLRF   xD8
06242:  CLRF   xD7
06244:  CLRF   xD9
06246:  CLRF   xDA
06248:  CLRF   xDE
0624A:  CLRF   xDD
0624C:  CLRF   xDC
0624E:  CLRF   xDB
06250:  CLRF   xE2
06252:  CLRF   xE1
06254:  CLRF   xE0
06256:  CLRF   xDF
06258:  MOVF   FC1,W
0625A:  ANDLW  C0
0625C:  IORLW  0F
0625E:  MOVWF  FC1
06260:  MOVLW  07
06262:  MOVWF  FB4
06264:  MOVLB  4
06266:  CLRF   x2B
06268:  CLRF   x2C
0626A:  MOVLW  4A
0626C:  MOVWF  x30
0626E:  MOVLW  50
06270:  MOVWF  x31
06272:  MOVLW  20
06274:  MOVWF  x32
06276:  MOVLW  49
06278:  MOVWF  x33
0627A:  MOVLW  6E
0627C:  MOVWF  x34
0627E:  MOVLW  67
06280:  MOVWF  x35
06282:  MOVLW  6C
06284:  MOVWF  x36
06286:  MOVLW  6F
06288:  MOVWF  x37
0628A:  MOVLW  62
0628C:  MOVWF  x38
0628E:  MOVLW  61
06290:  MOVWF  x39
06292:  MOVLW  6C
06294:  MOVWF  x3A
06296:  CLRF   x3B
06298:  MOVLW  43
0629A:  MOVWF  x3C
0629C:  MOVLW  61
0629E:  MOVWF  x3D
062A0:  MOVLW  62
062A2:  MOVWF  x3E
062A4:  MOVLW  69
062A6:  MOVWF  x3F
062A8:  MOVLW  6E
062AA:  MOVWF  x40
062AC:  MOVLW  61
062AE:  MOVWF  x41
062B0:  MOVLW  20
062B2:  MOVWF  x42
062B4:  MOVLW  46
062B6:  MOVWF  x43
062B8:  MOVLW  6C
062BA:  MOVWF  x44
062BC:  MOVLW  75
062BE:  MOVWF  x45
062C0:  MOVLW  6A
062C2:  MOVWF  x46
062C4:  MOVLW  6F
062C6:  MOVWF  x47
062C8:  MOVLW  20
062CA:  MOVWF  x48
062CC:  MOVLW  4C
062CE:  MOVWF  x49
062D0:  MOVLW  61
062D2:  MOVWF  x4A
062D4:  MOVLW  6D
062D6:  MOVWF  x4B
062D8:  MOVLW  69
062DA:  MOVWF  x4C
062DC:  MOVLW  6E
062DE:  MOVWF  x4D
062E0:  MOVLW  61
062E2:  MOVWF  x4E
062E4:  MOVLW  72
062E6:  MOVWF  x4F
062E8:  CLRF   x50
062EA:  MOVLW  3A
062EC:  MOVWF  x51
062EE:  CLRF   x52
062F0:  MOVLW  20
062F2:  MOVWF  x53
062F4:  MOVWF  x54
062F6:  MOVWF  x55
062F8:  MOVLW  50
062FA:  MOVWF  x56
062FC:  MOVLW  43
062FE:  MOVWF  x57
06300:  MOVLW  52
06302:  MOVWF  x58
06304:  CLRF   x59
06306:  MOVLW  54
06308:  MOVWF  x5A
0630A:  MOVLW  69
0630C:  MOVWF  x5B
0630E:  MOVLW  65
06310:  MOVWF  x5C
06312:  MOVLW  6D
06314:  MOVWF  x5D
06316:  MOVLW  70
06318:  MOVWF  x5E
0631A:  MOVLW  6F
0631C:  MOVWF  x5F
0631E:  MOVLW  20
06320:  MOVWF  x60
06322:  MOVLW  64
06324:  MOVWF  x61
06326:  MOVLW  65
06328:  MOVWF  x62
0632A:  MOVLW  20
0632C:  MOVWF  x63
0632E:  MOVLW  50
06330:  MOVWF  x64
06332:  MOVLW  75
06334:  MOVWF  x65
06336:  MOVLW  72
06338:  MOVWF  x66
0633A:  MOVLW  67
0633C:  MOVWF  x67
0633E:  MOVLW  61
06340:  MOVWF  x68
06342:  CLRF   x69
06344:  MOVLW  55
06346:  MOVWF  x6A
06348:  MOVLW  56
0634A:  MOVWF  x6B
0634C:  CLRF   x6C
0634E:  MOVWF  x6D
06350:  MOVLW  65
06352:  MOVWF  x6E
06354:  MOVLW  6C
06356:  MOVWF  x6F
06358:  MOVLW  3A
0635A:  MOVWF  x70
0635C:  CLRF   x71
0635E:  MOVLW  54
06360:  MOVWF  x72
06362:  MOVLW  3A
06364:  MOVWF  x73
06366:  CLRF   x74
06368:  MOVLW  46
0636A:  MOVWF  x75
0636C:  MOVLW  61
0636E:  MOVWF  x76
06370:  MOVLW  62
06372:  MOVWF  x77
06374:  MOVLW  72
06376:  MOVWF  x78
06378:  MOVLW  69
0637A:  MOVWF  x79
0637C:  MOVLW  63
0637E:  MOVWF  x7A
06380:  MOVLW  61
06382:  MOVWF  x7B
06384:  MOVLW  3A
06386:  MOVWF  x7C
06388:  MOVLW  32
0638A:  MOVWF  x7D
0638C:  MOVLW  30
0638E:  MOVWF  x7E
06390:  MOVLW  38
06392:  MOVWF  x7F
06394:  MOVLW  2E
06396:  MOVWF  x80
06398:  MOVLW  30
0639A:  MOVWF  x81
0639C:  CLRF   x82
0639E:  MOVLW  41
063A0:  MOVWF  x83
063A2:  MOVLW  63
063A4:  MOVWF  x84
063A6:  MOVLW  74
063A8:  MOVWF  x85
063AA:  MOVLW  75
063AC:  MOVWF  x86
063AE:  MOVLW  61
063B0:  MOVWF  x87
063B2:  MOVLW  6C
063B4:  MOVWF  x88
063B6:  MOVLW  3A
063B8:  MOVWF  x89
063BA:  CLRF   x8A
063BC:  MOVLW  41
063BE:  MOVWF  x8B
063C0:  MOVLW  6A
063C2:  MOVWF  x8C
063C4:  MOVLW  75
063C6:  MOVWF  x8D
063C8:  MOVLW  73
063CA:  MOVWF  x8E
063CC:  MOVLW  74
063CE:  MOVWF  x8F
063D0:  MOVLW  65
063D2:  MOVWF  x90
063D4:  MOVLW  3A
063D6:  MOVWF  x91
063D8:  CLRF   x92
063DA:  MOVLW  46
063DC:  MOVWF  x93
063DE:  MOVLW  69
063E0:  MOVWF  x94
063E2:  MOVLW  6C
063E4:  MOVWF  x95
063E6:  MOVLW  74
063E8:  MOVWF  x96
063EA:  MOVLW  72
063EC:  MOVWF  x97
063EE:  MOVLW  6F
063F0:  MOVWF  x98
063F2:  MOVLW  3A
063F4:  MOVWF  x99
063F6:  CLRF   x9A
063F8:  MOVLW  46
063FA:  MOVWF  x9B
063FC:  MOVLW  61
063FE:  MOVWF  x9C
06400:  MOVLW  62
06402:  MOVWF  x9D
06404:  MOVLW  72
06406:  MOVWF  x9E
06408:  MOVLW  69
0640A:  MOVWF  x9F
0640C:  MOVLW  63
0640E:  MOVWF  xA0
06410:  MOVLW  61
06412:  MOVWF  xA1
06414:  MOVLW  3A
06416:  MOVWF  xA2
06418:  MOVLW  32
0641A:  MOVWF  xA3
0641C:  MOVLW  33
0641E:  MOVWF  xA4
06420:  MOVLW  35
06422:  MOVWF  xA5
06424:  MOVLW  2E
06426:  MOVWF  xA6
06428:  MOVLW  30
0642A:  MOVWF  xA7
0642C:  CLRF   xA8
0642E:  MOVLW  21
06430:  MOVWF  xA9
06432:  MOVLW  46
06434:  MOVWF  xAA
06436:  MOVLW  69
06438:  MOVWF  xAB
0643A:  MOVLW  6C
0643C:  MOVWF  xAC
0643E:  MOVLW  74
06440:  MOVWF  xAD
06442:  MOVLW  72
06444:  MOVWF  xAE
06446:  MOVLW  6F
06448:  MOVWF  xAF
0644A:  MOVLW  20
0644C:  MOVWF  xB0
0644E:  MOVLW  53
06450:  MOVWF  xB1
06452:  MOVLW  61
06454:  MOVWF  xB2
06456:  MOVLW  74
06458:  MOVWF  xB3
0645A:  MOVLW  75
0645C:  MOVWF  xB4
0645E:  MOVLW  72
06460:  MOVWF  xB5
06462:  MOVLW  61
06464:  MOVWF  xB6
06466:  MOVLW  64
06468:  MOVWF  xB7
0646A:  MOVLW  6F
0646C:  MOVWF  xB8
0646E:  MOVLW  21
06470:  MOVWF  xB9
06472:  CLRF   xBA
06474:  MOVLW  54
06476:  MOVWF  xBB
06478:  MOVLW  65
0647A:  MOVWF  xBC
0647C:  MOVLW  6D
0647E:  MOVWF  xBD
06480:  MOVLW  70
06482:  MOVWF  xBE
06484:  MOVLW  6F
06486:  MOVWF  xBF
06488:  MOVLW  20
0648A:  MOVWF  xC0
0648C:  MOVLW  55
0648E:  MOVWF  xC1
06490:  MOVLW  56
06492:  MOVWF  xC2
06494:  MOVLW  3A
06496:  MOVWF  xC3
06498:  CLRF   xC4
0649A:  MOVLW  55
0649C:  MOVWF  xC5
0649E:  MOVLW  56
064A0:  MOVWF  xC6
064A2:  MOVLW  4C
064A4:  MOVWF  xC7
064A6:  MOVLW  69
064A8:  MOVWF  xC8
064AA:  MOVLW  66
064AC:  MOVWF  xC9
064AE:  MOVLW  65
064B0:  MOVWF  xCA
064B2:  MOVLW  3A
064B4:  MOVWF  xCB
064B6:  CLRF   xCC
064B8:  CLRF   xEB
064BA:  CLRF   xEC
064BC:  CLRF   xED
064BE:  CLRF   xEE
064C0:  MOVLW  09
064C2:  MOVWF  xEF
064C4:  CLRF   xF0
064C6:  CLRF   xF1
064C8:  CLRF   xF2
064CA:  MOVWF  xF3
064CC:  CLRF   xF4
064CE:  CLRF   xF5
064D0:  CLRF   xF6
064D2:  CLRF   xF7
064D4:  CLRF   xF8
064D6:  CLRF   xF9
064D8:  CLRF   xFA
064DA:  CLRF   xFB
064DC:  CLRF   xFC
064DE:  CLRF   xFD
064E0:  CLRF   xFE
064E2:  CLRF   xFF
064E4:  MOVLB  5
064E6:  CLRF   x00
064E8:  CLRF   x01
064EA:  CLRF   x02
064EC:  CLRF   x03
064EE:  CLRF   x04
064F0:  CLRF   x05
064F2:  CLRF   x06
064F4:  CLRF   x07
064F6:  CLRF   x08
064F8:  CLRF   x09
064FA:  CLRF   x0A
064FC:  CLRF   x0B
064FE:  CLRF   x0C
06500:  CLRF   x0D
06502:  CLRF   x0E
06504:  CLRF   x57
06506:  CLRF   x58
06508:  CLRF   x59
0650A:  CLRF   x5A
0650C:  CLRF   x5B
0650E:  CLRF   x5C
06510:  CLRF   x5D
06512:  CLRF   x5E
06514:  CLRF   x5F
06516:  CLRF   x60
06518:  CLRF   x61
0651A:  CLRF   x62
0651C:  CLRF   x63
0651E:  CLRF   x64
06520:  CLRF   x65
06522:  CLRF   x66
06524:  CLRF   x67
06526:  CLRF   x68
06528:  CLRF   x69
0652A:  CLRF   x6A
0652C:  CLRF   x6B
0652E:  CLRF   x6C
06530:  CLRF   x6D
06532:  CLRF   x6E
06534:  CLRF   x6F
06536:  CLRF   x70
06538:  CLRF   x71
0653A:  CLRF   x72
0653C:  CLRF   x73
0653E:  CLRF   x74
06540:  CLRF   x75
06542:  CLRF   x76
06544:  CLRF   x77
06546:  CLRF   x78
06548:  CLRF   x79
0654A:  CLRF   x7A
0654C:  CLRF   x7B
0654E:  CLRF   x7C
06550:  CLRF   x7D
06552:  CLRF   x7E
06554:  CLRF   x7F
06556:  CLRF   x80
06558:  CLRF   x81
0655A:  CLRF   x82
0655C:  CLRF   x83
0655E:  CLRF   x84
06560:  CLRF   x85
06562:  CLRF   x86
06564:  CLRF   x87
06566:  CLRF   x88
06568:  CLRF   x89
0656A:  CLRF   x8A
0656C:  CLRF   x8B
0656E:  CLRF   x8C
06570:  CLRF   x8D
06572:  CLRF   x8E
06574:  CLRF   x8F
06576:  CLRF   x90
06578:  CLRF   x91
0657A:  CLRF   x92
0657C:  CLRF   x93
0657E:  CLRF   x94
06580:  CLRF   x95
06582:  CLRF   x96
06584:  CLRF   x97
06586:  CLRF   x98
06588:  CLRF   x99
0658A:  CLRF   x9A
0658C:  CLRF   x9B
0658E:  CLRF   x9C
06590:  CLRF   x9D
06592:  CLRF   x9E
06594:  CLRF   x9F
06596:  CLRF   xA0
06598:  CLRF   xA1
0659A:  CLRF   xA2
0659C:  CLRF   xA3
0659E:  CLRF   xA4
065A0:  CLRF   xA5
065A2:  CLRF   xA6
065A4:  CLRF   xA7
065A6:  CLRF   xA8
065A8:  CLRF   xA9
065AA:  CLRF   xAA
065AC:  CLRF   xAB
065AE:  CLRF   xAC
065B0:  CLRF   xAD
065B2:  CLRF   xAE
065B4:  CLRF   xAF
065B6:  CLRF   xB0
065B8:  CLRF   xB1
065BA:  CLRF   xB2
065BC:  CLRF   xB3
065BE:  CLRF   xB4
065C0:  CLRF   xB5
065C2:  CLRF   xB6
....................    delay_ms(1000); 
065C4:  MOVLW  04
065C6:  MOVWF  xE3
065C8:  MOVLW  FA
065CA:  MOVWF  xF7
065CC:  MOVLB  0
065CE:  CALL   1500
065D2:  MOVLB  5
065D4:  DECFSZ xE3,F
065D6:  BRA    65C8
....................    Cruce=OFF; 
065D8:  MOVLB  4
065DA:  BCF    x2F.6
....................    VelocidadMotor(0); 
065DC:  MOVLB  5
065DE:  CLRF   xE3
065E0:  MOVLB  0
065E2:  CALL   1528
....................    Tcruce2=83; 
065E6:  MOVLB  5
065E8:  CLRF   xE2
065EA:  CLRF   xE1
065EC:  MOVLW  26
065EE:  MOVWF  xE0
065F0:  MOVLW  85
065F2:  MOVWF  xDF
....................    Tcruce=8300; 
065F4:  CLRF   xDE
065F6:  MOVLW  B0
065F8:  MOVWF  xDD
065FA:  MOVLW  01
065FC:  MOVWF  xDC
065FE:  MOVLW  8C
06600:  MOVWF  xDB
....................    Motor_off; 
06602:  BCF    F8B.2
06604:  BCF    F94.2
....................    //setup_timer_1(T1_INTERNAL|T1_DIV_BY_1); 
....................    //enable_interrupts(INT_TIMER1); 
....................    enable_interrupts(INT_EXT_L2H); 
06606:  BSF    FF2.4
06608:  BSF    FF1.6
....................    setup_adc_ports(AN0_TO_AN1); 
0660A:  MOVF   FC1,W
0660C:  ANDLW  C0
0660E:  IORLW  0D
06610:  MOVWF  FC1
....................    setup_adc(ADC_CLOCK_DIV_32 ); 
06612:  MOVF   FC0,W
06614:  ANDLW  C0
06616:  IORLW  02
06618:  MOVWF  FC0
0661A:  BSF    FC0.7
0661C:  BSF    FC2.0
....................    enable_interrupts(global);   
0661E:  MOVLW  C0
06620:  IORWF  FF2,F
....................    VelocidadMotor(0); 
06622:  CLRF   xE3
06624:  MOVLB  0
06626:  CALL   1528
....................    Motor_off; 
0662A:  BCF    F8B.2
0662C:  BCF    F94.2
.................... //-------Inicio de Cabina-------------------------------------------------------------------------// 
....................    Display_on; 
0662E:  BSF    F8A.1
06630:  BCF    F93.1
....................    glcd_init(ON);             //Inicializa la glcd 
06632:  MOVLW  01
06634:  MOVLB  5
06636:  MOVWF  xE3
06638:  MOVLB  0
0663A:  CALL   16F2
....................    glcd_fillScreen(OFF);      //Limpia la pantalla 
0663E:  MOVLB  5
06640:  CLRF   xEB
06642:  MOVLB  0
06644:  CALL   15E0
....................    glcd_text57(0, 0, JP, 2, ON);glcd_text57(5, 20, Cabina, 1, ON);glcd_text57(10, 40, Clase, 2, ON);              
06648:  MOVLB  5
0664A:  CLRF   xFC
0664C:  CLRF   xFD
0664E:  MOVLW  04
06650:  MOVWF  xFF
06652:  MOVLW  30
06654:  MOVWF  xFE
06656:  MOVLW  02
06658:  MOVLB  6
0665A:  MOVWF  x00
0665C:  MOVLW  01
0665E:  MOVWF  x01
06660:  MOVLB  0
06662:  CALL   1856
06666:  MOVLW  05
06668:  MOVLB  5
0666A:  MOVWF  xFC
0666C:  MOVLW  14
0666E:  MOVWF  xFD
06670:  MOVLW  04
06672:  MOVWF  xFF
06674:  MOVLW  3C
06676:  MOVWF  xFE
06678:  MOVLW  01
0667A:  MOVLB  6
0667C:  MOVWF  x00
0667E:  MOVWF  x01
06680:  MOVLB  0
06682:  CALL   1856
06686:  MOVLW  0A
06688:  MOVLB  5
0668A:  MOVWF  xFC
0668C:  MOVLW  28
0668E:  MOVWF  xFD
06690:  MOVLW  04
06692:  MOVWF  xFF
06694:  MOVLW  53
06696:  MOVWF  xFE
06698:  MOVLW  02
0669A:  MOVLB  6
0669C:  MOVWF  x00
0669E:  MOVLW  01
066A0:  MOVWF  x01
066A2:  MOVLB  0
066A4:  CALL   1856
....................    glcd_update(); 
066A8:  CALL   163A
....................    delay_ms(3000); 
066AC:  MOVLW  0C
066AE:  MOVLB  5
066B0:  MOVWF  xE3
066B2:  MOVLW  FA
066B4:  MOVWF  xF7
066B6:  MOVLB  0
066B8:  CALL   1500
066BC:  MOVLB  5
066BE:  DECFSZ xE3,F
066C0:  BRA    66B2
....................                         
....................    glcd_fillScreen(OFF);      //Limpia la pantalla 
066C2:  CLRF   xEB
066C4:  MOVLB  0
066C6:  CALL   15E0
....................    Menu=0; 
066CA:  MOVLB  4
066CC:  CLRF   xCD
....................    LuzBlanca_off;Alarma_off; 
066CE:  BCF    F8B.0
066D0:  BCF    F94.0
066D2:  BCF    F8B.7
066D4:  BCF    F94.7
.................... //-------Inicio de Cabina-------------------------------------------------------------------------// 
....................    VelocidadMotor(0); 
066D6:  MOVLB  5
066D8:  CLRF   xE3
066DA:  MOVLB  0
066DC:  CALL   1528
....................    Motor_off; 
066E0:  BCF    F8B.2
066E2:  BCF    F94.2
....................    LeeEEPROM(); // Lectura de variables almacenadas en la EEPROM  
066E4:  GOTO   1E38
....................    LimitaValores(); 
066E8:  GOTO   263E
....................    //Menu=2; 
....................    while(true){  
....................    glcd_update(); 
066EC:  CALL   163A
.................... //**Actualizacin de Lectura de Sensores**//    
....................    if(Lectura==1){ 
066F0:  MOVLB  4
066F2:  BTFSS  x2F.4
066F4:  BRA    6756
....................       Lectura=0; 
066F6:  BCF    x2F.4
....................       InFlow=LeerFlujoInFlow(8); 
066F8:  MOVLW  08
066FA:  MOVLB  5
066FC:  MOVWF  xE3
066FE:  MOVLB  0
06700:  GOTO   4288
06704:  MOVFF  03,512
06708:  MOVFF  02,511
0670C:  MOVFF  01,510
06710:  MOVFF  00,50F
....................       Temperatura=leeTemperatura(5); 
06714:  MOVLW  05
06716:  MOVLB  5
06718:  MOVWF  xE3
0671A:  MOVLB  0
0671C:  GOTO   4656
06720:  MOVFF  03,617
06724:  MOVFF  02,616
06728:  MOVFF  01,615
0672C:  MOVFF  00,614
06730:  CALL   3008
06734:  MOVFF  01,5D6
....................       Filtro_DownFlow=Leer_Sensor_Presion(8); 
06738:  MOVLW  08
0673A:  MOVLB  5
0673C:  MOVWF  xE3
0673E:  MOVLB  0
06740:  GOTO   4826
06744:  MOVFF  03,51A
06748:  MOVFF  02,519
0674C:  MOVFF  01,518
06750:  MOVFF  00,517
06754:  MOVLB  4
....................    } 
.................... //----------------------------------------// 
....................  
.................... //**Contador de Tiempo de Trabajo del filtro**// 
....................    if(minutos_trabajo>=3600){ // Tiempo de Trabajo 
06756:  MOVF   xE8,W
06758:  SUBLW  0D
0675A:  BTFSC  FD8.0
0675C:  BRA    6904
0675E:  XORLW  FF
06760:  BNZ   676A
06762:  MOVF   xE7,W
06764:  SUBLW  0F
06766:  BTFSC  FD8.0
06768:  BRA    6904
....................       minutos_trabajo=0; //Minutos Trabajo realmente son segundos. 
0676A:  CLRF   xE8
0676C:  CLRF   xE7
....................       write_eeprom(33,make8(minutos_trabajo,0)); 
0676E:  MOVFF  4E7,5E3
06772:  CLRF   FAA
06774:  MOVLW  21
06776:  MOVWF  FA9
06778:  MOVFF  5E3,FA8
0677C:  BCF    FA6.6
0677E:  BCF    FA6.7
06780:  BSF    FA6.2
06782:  MOVF   FF2,W
06784:  MOVWF  00
06786:  BCF    FF2.7
06788:  MOVLB  F
0678A:  MOVLW  55
0678C:  MOVWF  FA7
0678E:  MOVLW  AA
06790:  MOVWF  FA7
06792:  BSF    FA6.1
06794:  BTFSC  FA6.1
06796:  BRA    6794
06798:  BCF    FA6.2
0679A:  MOVF   00,W
0679C:  IORWF  FF2,F
....................       delay_ms(20); 
0679E:  MOVLW  14
067A0:  MOVLB  5
067A2:  MOVWF  xF7
067A4:  MOVLB  0
067A6:  CALL   1500
....................       write_eeprom(34,make8(minutos_trabajo,1)); 
067AA:  MOVFF  4E8,5E3
067AE:  CLRF   FAA
067B0:  MOVLW  22
067B2:  MOVWF  FA9
067B4:  MOVFF  5E3,FA8
067B8:  BCF    FA6.6
067BA:  BCF    FA6.7
067BC:  BSF    FA6.2
067BE:  MOVF   FF2,W
067C0:  MOVWF  00
067C2:  BCF    FF2.7
067C4:  MOVLB  F
067C6:  MOVLW  55
067C8:  MOVWF  FA7
067CA:  MOVLW  AA
067CC:  MOVWF  FA7
067CE:  BSF    FA6.1
067D0:  BTFSC  FA6.1
067D2:  BRA    67D0
067D4:  BCF    FA6.2
067D6:  MOVF   00,W
067D8:  IORWF  FF2,F
....................       delay_ms(20); 
067DA:  MOVLW  14
067DC:  MOVLB  5
067DE:  MOVWF  xF7
067E0:  MOVLB  0
067E2:  CALL   1500
....................       Ttrabajo[0]++; 
067E6:  MOVLB  5
067E8:  INCF   x03,F
....................       if(Ttrabajo[0]>9){ 
067EA:  BTFSC  x03.7
067EC:  BRA    67F8
067EE:  MOVF   x03,W
067F0:  SUBLW  09
067F2:  BC    67F8
....................          Ttrabajo[0]=0; 
067F4:  CLRF   x03
....................          Ttrabajo[1]++; 
067F6:  INCF   x04,F
....................       } 
....................       if(Ttrabajo[1]>9){ 
067F8:  BTFSC  x04.7
067FA:  BRA    6806
067FC:  MOVF   x04,W
067FE:  SUBLW  09
06800:  BC    6806
....................          Ttrabajo[1]=0; 
06802:  CLRF   x04
....................          Ttrabajo[2]++; 
06804:  INCF   x05,F
....................       } 
....................       if(Ttrabajo[2]>9){ 
06806:  BTFSC  x05.7
06808:  BRA    6814
0680A:  MOVF   x05,W
0680C:  SUBLW  09
0680E:  BC    6814
....................          Ttrabajo[2]=0; 
06810:  CLRF   x05
....................          Ttrabajo[3]++; 
06812:  INCF   x06,F
....................       } 
....................       if(Ttrabajo[3]>9){ 
06814:  BTFSC  x06.7
06816:  BRA    6820
06818:  MOVF   x06,W
0681A:  SUBLW  09
0681C:  BC    6820
....................          Ttrabajo[3]=0; 
0681E:  CLRF   x06
....................       } 
....................       write_eeprom(16,Ttrabajo[0]); 
06820:  CLRF   FAA
06822:  MOVLW  10
06824:  MOVWF  FA9
06826:  MOVFF  503,FA8
0682A:  BCF    FA6.6
0682C:  BCF    FA6.7
0682E:  BSF    FA6.2
06830:  MOVF   FF2,W
06832:  MOVWF  00
06834:  BCF    FF2.7
06836:  MOVLB  F
06838:  MOVLW  55
0683A:  MOVWF  FA7
0683C:  MOVLW  AA
0683E:  MOVWF  FA7
06840:  BSF    FA6.1
06842:  BTFSC  FA6.1
06844:  BRA    6842
06846:  BCF    FA6.2
06848:  MOVF   00,W
0684A:  IORWF  FF2,F
....................       delay_ms(20); 
0684C:  MOVLW  14
0684E:  MOVLB  5
06850:  MOVWF  xF7
06852:  MOVLB  0
06854:  CALL   1500
....................       write_eeprom(17,Ttrabajo[1]); 
06858:  CLRF   FAA
0685A:  MOVLW  11
0685C:  MOVWF  FA9
0685E:  MOVFF  504,FA8
06862:  BCF    FA6.6
06864:  BCF    FA6.7
06866:  BSF    FA6.2
06868:  MOVF   FF2,W
0686A:  MOVWF  00
0686C:  BCF    FF2.7
0686E:  MOVLB  F
06870:  MOVLW  55
06872:  MOVWF  FA7
06874:  MOVLW  AA
06876:  MOVWF  FA7
06878:  BSF    FA6.1
0687A:  BTFSC  FA6.1
0687C:  BRA    687A
0687E:  BCF    FA6.2
06880:  MOVF   00,W
06882:  IORWF  FF2,F
....................       delay_ms(20); 
06884:  MOVLW  14
06886:  MOVLB  5
06888:  MOVWF  xF7
0688A:  MOVLB  0
0688C:  CALL   1500
....................       write_eeprom(18,Ttrabajo[2]); 
06890:  CLRF   FAA
06892:  MOVLW  12
06894:  MOVWF  FA9
06896:  MOVFF  505,FA8
0689A:  BCF    FA6.6
0689C:  BCF    FA6.7
0689E:  BSF    FA6.2
068A0:  MOVF   FF2,W
068A2:  MOVWF  00
068A4:  BCF    FF2.7
068A6:  MOVLB  F
068A8:  MOVLW  55
068AA:  MOVWF  FA7
068AC:  MOVLW  AA
068AE:  MOVWF  FA7
068B0:  BSF    FA6.1
068B2:  BTFSC  FA6.1
068B4:  BRA    68B2
068B6:  BCF    FA6.2
068B8:  MOVF   00,W
068BA:  IORWF  FF2,F
....................       delay_ms(20); 
068BC:  MOVLW  14
068BE:  MOVLB  5
068C0:  MOVWF  xF7
068C2:  MOVLB  0
068C4:  CALL   1500
....................       write_eeprom(19,Ttrabajo[3]); 
068C8:  CLRF   FAA
068CA:  MOVLW  13
068CC:  MOVWF  FA9
068CE:  MOVFF  506,FA8
068D2:  BCF    FA6.6
068D4:  BCF    FA6.7
068D6:  BSF    FA6.2
068D8:  MOVF   FF2,W
068DA:  MOVWF  00
068DC:  BCF    FF2.7
068DE:  MOVLB  F
068E0:  MOVLW  55
068E2:  MOVWF  FA7
068E4:  MOVLW  AA
068E6:  MOVWF  FA7
068E8:  BSF    FA6.1
068EA:  BTFSC  FA6.1
068EC:  BRA    68EA
068EE:  BCF    FA6.2
068F0:  MOVF   00,W
068F2:  IORWF  FF2,F
....................       delay_ms(20); 
068F4:  MOVLW  14
068F6:  MOVLB  5
068F8:  MOVWF  xF7
068FA:  MOVLB  0
068FC:  CALL   1500
....................    }else if(minutos_trabajo==900 || minutos_trabajo==1800 || minutos_trabajo==2700 ){ 
06900:  BRA    69A0
06902:  MOVLB  4
06904:  MOVF   xE7,W
06906:  SUBLW  84
06908:  BNZ   6910
0690A:  MOVF   xE8,W
0690C:  SUBLW  03
0690E:  BZ    6928
06910:  MOVF   xE7,W
06912:  SUBLW  08
06914:  BNZ   691C
06916:  MOVF   xE8,W
06918:  SUBLW  07
0691A:  BZ    6928
0691C:  MOVF   xE7,W
0691E:  SUBLW  8C
06920:  BNZ   69A2
06922:  MOVF   xE8,W
06924:  SUBLW  0A
06926:  BNZ   69A2
....................       write_eeprom(33,make8(minutos_trabajo,0)); 
06928:  MOVFF  4E7,5E3
0692C:  CLRF   FAA
0692E:  MOVLW  21
06930:  MOVWF  FA9
06932:  MOVFF  5E3,FA8
06936:  BCF    FA6.6
06938:  BCF    FA6.7
0693A:  BSF    FA6.2
0693C:  MOVF   FF2,W
0693E:  MOVWF  00
06940:  BCF    FF2.7
06942:  MOVLB  F
06944:  MOVLW  55
06946:  MOVWF  FA7
06948:  MOVLW  AA
0694A:  MOVWF  FA7
0694C:  BSF    FA6.1
0694E:  BTFSC  FA6.1
06950:  BRA    694E
06952:  BCF    FA6.2
06954:  MOVF   00,W
06956:  IORWF  FF2,F
....................       delay_ms(20); 
06958:  MOVLW  14
0695A:  MOVLB  5
0695C:  MOVWF  xF7
0695E:  MOVLB  0
06960:  CALL   1500
....................       write_eeprom(34,make8(minutos_trabajo,1)); 
06964:  MOVFF  4E8,5E3
06968:  CLRF   FAA
0696A:  MOVLW  22
0696C:  MOVWF  FA9
0696E:  MOVFF  5E3,FA8
06972:  BCF    FA6.6
06974:  BCF    FA6.7
06976:  BSF    FA6.2
06978:  MOVF   FF2,W
0697A:  MOVWF  00
0697C:  BCF    FF2.7
0697E:  MOVLB  F
06980:  MOVLW  55
06982:  MOVWF  FA7
06984:  MOVLW  AA
06986:  MOVWF  FA7
06988:  BSF    FA6.1
0698A:  BTFSC  FA6.1
0698C:  BRA    698A
0698E:  BCF    FA6.2
06990:  MOVF   00,W
06992:  IORWF  FF2,F
....................       delay_ms(20); 
06994:  MOVLW  14
06996:  MOVLB  5
06998:  MOVWF  xF7
0699A:  MOVLB  0
0699C:  CALL   1500
069A0:  MOVLB  4
....................    } 
.................... //----------------------------------------//       
....................  
.................... //**Contador de Tiempo de Trabajo de UV**// 
....................          if(segundos_uv>=60){ 
069A2:  MOVF   xE2,F
069A4:  BNZ   69AC
069A6:  MOVF   xE1,W
069A8:  SUBLW  3B
069AA:  BC    69B6
....................             segundos_uv=0; 
069AC:  CLRF   xE2
069AE:  CLRF   xE1
....................             minutos_uv++; 
069B0:  INCF   xE5,F
069B2:  BTFSC  FD8.2
069B4:  INCF   xE6,F
....................          } 
....................           
....................          if(minutos_uv>=60){ 
069B6:  MOVF   xE6,F
069B8:  BNZ   69C2
069BA:  MOVF   xE5,W
069BC:  SUBLW  3B
069BE:  BTFSC  FD8.0
069C0:  BRA    6B1A
....................             minutos_uv=0; 
069C2:  CLRF   xE6
069C4:  CLRF   xE5
....................             Tuv[0]++; 
069C6:  INCF   xF7,F
....................             if(Tuv[0]>9){ 
069C8:  BTFSC  xF7.7
069CA:  BRA    69D6
069CC:  MOVF   xF7,W
069CE:  SUBLW  09
069D0:  BC    69D6
....................                Tuv[0]=0; 
069D2:  CLRF   xF7
....................                Tuv[1]++; 
069D4:  INCF   xF8,F
....................             } 
....................             if(Tuv[1]>9){ 
069D6:  BTFSC  xF8.7
069D8:  BRA    69E4
069DA:  MOVF   xF8,W
069DC:  SUBLW  09
069DE:  BC    69E4
....................                Tuv[1]=0; 
069E0:  CLRF   xF8
....................                Tuv[2]++; 
069E2:  INCF   xF9,F
....................             } 
....................             if(Tuv[2]>9){ 
069E4:  BTFSC  xF9.7
069E6:  BRA    69F2
069E8:  MOVF   xF9,W
069EA:  SUBLW  09
069EC:  BC    69F2
....................                Tuv[2]=0; 
069EE:  CLRF   xF9
....................                Tuv[3]++; 
069F0:  INCF   xFA,F
....................             } 
....................             if(Tuv[3]>9){ 
069F2:  BTFSC  xFA.7
069F4:  BRA    69FE
069F6:  MOVF   xFA,W
069F8:  SUBLW  09
069FA:  BC    69FE
....................                Tuv[3]=0; 
069FC:  CLRF   xFA
....................             } 
....................             write_eeprom(31,minutos_uv); 
069FE:  CLRF   FAA
06A00:  MOVLW  1F
06A02:  MOVWF  FA9
06A04:  MOVFF  4E5,FA8
06A08:  BCF    FA6.6
06A0A:  BCF    FA6.7
06A0C:  BSF    FA6.2
06A0E:  MOVF   FF2,W
06A10:  MOVWF  00
06A12:  BCF    FF2.7
06A14:  MOVLB  F
06A16:  MOVLW  55
06A18:  MOVWF  FA7
06A1A:  MOVLW  AA
06A1C:  MOVWF  FA7
06A1E:  BSF    FA6.1
06A20:  BTFSC  FA6.1
06A22:  BRA    6A20
06A24:  BCF    FA6.2
06A26:  MOVF   00,W
06A28:  IORWF  FF2,F
....................             delay_ms(20); 
06A2A:  MOVLW  14
06A2C:  MOVLB  5
06A2E:  MOVWF  xF7
06A30:  MOVLB  0
06A32:  CALL   1500
....................             write_eeprom(12,Tuv[0]); 
06A36:  CLRF   FAA
06A38:  MOVLW  0C
06A3A:  MOVWF  FA9
06A3C:  MOVFF  4F7,FA8
06A40:  BCF    FA6.6
06A42:  BCF    FA6.7
06A44:  BSF    FA6.2
06A46:  MOVF   FF2,W
06A48:  MOVWF  00
06A4A:  BCF    FF2.7
06A4C:  MOVLB  F
06A4E:  MOVLW  55
06A50:  MOVWF  FA7
06A52:  MOVLW  AA
06A54:  MOVWF  FA7
06A56:  BSF    FA6.1
06A58:  BTFSC  FA6.1
06A5A:  BRA    6A58
06A5C:  BCF    FA6.2
06A5E:  MOVF   00,W
06A60:  IORWF  FF2,F
....................             delay_ms(20); 
06A62:  MOVLW  14
06A64:  MOVLB  5
06A66:  MOVWF  xF7
06A68:  MOVLB  0
06A6A:  CALL   1500
....................             write_eeprom(13,Tuv[1]); 
06A6E:  CLRF   FAA
06A70:  MOVLW  0D
06A72:  MOVWF  FA9
06A74:  MOVFF  4F8,FA8
06A78:  BCF    FA6.6
06A7A:  BCF    FA6.7
06A7C:  BSF    FA6.2
06A7E:  MOVF   FF2,W
06A80:  MOVWF  00
06A82:  BCF    FF2.7
06A84:  MOVLB  F
06A86:  MOVLW  55
06A88:  MOVWF  FA7
06A8A:  MOVLW  AA
06A8C:  MOVWF  FA7
06A8E:  BSF    FA6.1
06A90:  BTFSC  FA6.1
06A92:  BRA    6A90
06A94:  BCF    FA6.2
06A96:  MOVF   00,W
06A98:  IORWF  FF2,F
....................             delay_ms(20); 
06A9A:  MOVLW  14
06A9C:  MOVLB  5
06A9E:  MOVWF  xF7
06AA0:  MOVLB  0
06AA2:  CALL   1500
....................             write_eeprom(14,Tuv[2]); 
06AA6:  CLRF   FAA
06AA8:  MOVLW  0E
06AAA:  MOVWF  FA9
06AAC:  MOVFF  4F9,FA8
06AB0:  BCF    FA6.6
06AB2:  BCF    FA6.7
06AB4:  BSF    FA6.2
06AB6:  MOVF   FF2,W
06AB8:  MOVWF  00
06ABA:  BCF    FF2.7
06ABC:  MOVLB  F
06ABE:  MOVLW  55
06AC0:  MOVWF  FA7
06AC2:  MOVLW  AA
06AC4:  MOVWF  FA7
06AC6:  BSF    FA6.1
06AC8:  BTFSC  FA6.1
06ACA:  BRA    6AC8
06ACC:  BCF    FA6.2
06ACE:  MOVF   00,W
06AD0:  IORWF  FF2,F
....................             delay_ms(20); 
06AD2:  MOVLW  14
06AD4:  MOVLB  5
06AD6:  MOVWF  xF7
06AD8:  MOVLB  0
06ADA:  CALL   1500
....................             write_eeprom(15,Tuv[3]); 
06ADE:  CLRF   FAA
06AE0:  MOVLW  0F
06AE2:  MOVWF  FA9
06AE4:  MOVFF  4FA,FA8
06AE8:  BCF    FA6.6
06AEA:  BCF    FA6.7
06AEC:  BSF    FA6.2
06AEE:  MOVF   FF2,W
06AF0:  MOVWF  00
06AF2:  BCF    FF2.7
06AF4:  MOVLB  F
06AF6:  MOVLW  55
06AF8:  MOVWF  FA7
06AFA:  MOVLW  AA
06AFC:  MOVWF  FA7
06AFE:  BSF    FA6.1
06B00:  BTFSC  FA6.1
06B02:  BRA    6B00
06B04:  BCF    FA6.2
06B06:  MOVF   00,W
06B08:  IORWF  FF2,F
....................             delay_ms(20); 
06B0A:  MOVLW  14
06B0C:  MOVLB  5
06B0E:  MOVWF  xF7
06B10:  MOVLB  0
06B12:  CALL   1500
....................          }else if(minutos_uv==15 || minutos_uv==30 || minutos_uv==45){ 
06B16:  BRA    6B70
06B18:  MOVLB  4
06B1A:  MOVF   xE5,W
06B1C:  SUBLW  0F
06B1E:  BNZ   6B24
06B20:  MOVF   xE6,F
06B22:  BZ    6B38
06B24:  MOVF   xE5,W
06B26:  SUBLW  1E
06B28:  BNZ   6B2E
06B2A:  MOVF   xE6,F
06B2C:  BZ    6B38
06B2E:  MOVF   xE5,W
06B30:  SUBLW  2D
06B32:  BNZ   6B72
06B34:  MOVF   xE6,F
06B36:  BNZ   6B72
....................             write_eeprom(31,minutos_uv); 
06B38:  CLRF   FAA
06B3A:  MOVLW  1F
06B3C:  MOVWF  FA9
06B3E:  MOVFF  4E5,FA8
06B42:  BCF    FA6.6
06B44:  BCF    FA6.7
06B46:  BSF    FA6.2
06B48:  MOVF   FF2,W
06B4A:  MOVWF  00
06B4C:  BCF    FF2.7
06B4E:  MOVLB  F
06B50:  MOVLW  55
06B52:  MOVWF  FA7
06B54:  MOVLW  AA
06B56:  MOVWF  FA7
06B58:  BSF    FA6.1
06B5A:  BTFSC  FA6.1
06B5C:  BRA    6B5A
06B5E:  BCF    FA6.2
06B60:  MOVF   00,W
06B62:  IORWF  FF2,F
....................             delay_ms(20); 
06B64:  MOVLW  14
06B66:  MOVLB  5
06B68:  MOVWF  xF7
06B6A:  MOVLB  0
06B6C:  CALL   1500
06B70:  MOVLB  4
....................          } 
.................... //----------------------------------------// 
....................  
....................    if(Menu!=2){// Si no esta en el menu de estados apaga la alarma 
06B72:  MOVF   xCD,W
06B74:  SUBLW  02
06B76:  BZ    6B80
....................       Alarma_off; 
06B78:  BCF    F8B.7
06B7A:  BCF    F94.7
....................       Alarma=10; 
06B7C:  MOVLW  0A
06B7E:  MOVWF  xDA
....................    } 
....................     
.................... //_-------------------------------------------------------------------------------------------------------------------------------------------------------- 
....................    if(Menu==0){ //Menu de Contrasea. 
06B80:  MOVF   xCD,F
06B82:  BNZ   6BBA
....................       while(PidePassword(0,0,1,Password[0],Password[1],Password[2],Password[3])==0){ 
06B84:  MOVLB  5
06B86:  CLRF   xE4
06B88:  CLRF   xE5
06B8A:  MOVLW  01
06B8C:  MOVWF  xE6
06B8E:  MOVFF  50B,5E7
06B92:  MOVFF  50C,5E8
06B96:  MOVFF  50D,5E9
06B9A:  MOVFF  50E,5EA
06B9E:  MOVLB  0
06BA0:  CALL   4F0E
06BA4:  MOVF   01,F
06BA6:  BNZ   6BBC
....................          VelocidadMotor(0); 
06BA8:  MOVLB  5
06BAA:  CLRF   xE3
06BAC:  MOVLB  0
06BAE:  CALL   1528
....................          glcd_update(); 
06BB2:  CALL   163A
....................       }        
06BB6:  MOVLB  4
06BB8:  BRA    6B84
06BBA:  MOVLB  0
....................    } 
.................... //_--------------------------------------------------------------------------------------------------------------------------------------------------------        
....................  
.................... //_-------------------------------------------------------------------------------------------------------------------------------------------------------- 
....................       if(Menu==1){//Menu de Purga. 
06BBC:  MOVLB  4
06BBE:  DECFSZ xCD,W
06BC0:  BRA    6E40
....................          glcd_text57(15, 1, Tiempo, 1, ON); 
06BC2:  MOVLW  0F
06BC4:  MOVLB  5
06BC6:  MOVWF  xFC
06BC8:  MOVLW  01
06BCA:  MOVWF  xFD
06BCC:  MOVLW  04
06BCE:  MOVWF  xFF
06BD0:  MOVLW  5A
06BD2:  MOVWF  xFE
06BD4:  MOVLW  01
06BD6:  MOVLB  6
06BD8:  MOVWF  x00
06BDA:  MOVWF  x01
06BDC:  MOVLB  0
06BDE:  CALL   1856
....................          LuzBlanca_off;//Alarma_off; 
06BE2:  BCF    F8B.0
06BE4:  BCF    F94.0
....................          glcd_rect(9, 54, 120, 64, YES, OFF);          
06BE6:  MOVLW  09
06BE8:  MOVLB  5
06BEA:  MOVWF  xFC
06BEC:  MOVLW  36
06BEE:  MOVWF  xFD
06BF0:  MOVLW  78
06BF2:  MOVWF  xFE
06BF4:  MOVLW  40
06BF6:  MOVWF  xFF
06BF8:  MOVLW  01
06BFA:  MOVLB  6
06BFC:  MOVWF  x00
06BFE:  CLRF   x01
06C00:  MOVLB  0
06C02:  CALL   4CAA
....................          displayTiempo(Tpurga[3],20,20,0,2);displayTiempo(Tpurga[2],40,20,0,2);glcd_text57(60, 22, Dos_puntos, 2, ON); 
06C06:  MOVFF  4EE,5E3
06C0A:  MOVLW  14
06C0C:  MOVLB  5
06C0E:  MOVWF  xE4
06C10:  MOVWF  xE5
06C12:  CLRF   xE6
06C14:  MOVLW  02
06C16:  MOVWF  xE7
06C18:  MOVLB  0
06C1A:  CALL   55F4
06C1E:  MOVFF  4ED,5E3
06C22:  MOVLW  28
06C24:  MOVLB  5
06C26:  MOVWF  xE4
06C28:  MOVLW  14
06C2A:  MOVWF  xE5
06C2C:  CLRF   xE6
06C2E:  MOVLW  02
06C30:  MOVWF  xE7
06C32:  MOVLB  0
06C34:  CALL   55F4
06C38:  MOVLW  3C
06C3A:  MOVLB  5
06C3C:  MOVWF  xFC
06C3E:  MOVLW  16
06C40:  MOVWF  xFD
06C42:  MOVLW  04
06C44:  MOVWF  xFF
06C46:  MOVLW  51
06C48:  MOVWF  xFE
06C4A:  MOVLW  02
06C4C:  MOVLB  6
06C4E:  MOVWF  x00
06C50:  MOVLW  01
06C52:  MOVWF  x01
06C54:  MOVLB  0
06C56:  CALL   1856
....................          displayTiempo(Tpurga[1],70,20,0,2);displayTiempo(Tpurga[0],90,20,0,2);         
06C5A:  MOVFF  4EC,5E3
06C5E:  MOVLW  46
06C60:  MOVLB  5
06C62:  MOVWF  xE4
06C64:  MOVLW  14
06C66:  MOVWF  xE5
06C68:  CLRF   xE6
06C6A:  MOVLW  02
06C6C:  MOVWF  xE7
06C6E:  MOVLB  0
06C70:  CALL   55F4
06C74:  MOVFF  4EB,5E3
06C78:  MOVLW  5A
06C7A:  MOVLB  5
06C7C:  MOVWF  xE4
06C7E:  MOVLW  14
06C80:  MOVWF  xE5
06C82:  CLRF   xE6
06C84:  MOVLW  02
06C86:  MOVWF  xE7
06C88:  MOVLB  0
06C8A:  CALL   55F4
....................           
....................          if(VIDRIODN){ 
06C8E:  BSF    F92.3
06C90:  BTFSC  F80.3
06C92:  BRA    6D1E
....................             strcpy(Menus.Letra,"  !Abra Proteccion"); 
06C94:  MOVLW  04
06C96:  MOVWF  FEA
06C98:  MOVLW  17
06C9A:  MOVWF  FE9
06C9C:  MOVFF  FF2,5E3
06CA0:  BCF    FF2.7
06CA2:  MOVLW  00
06CA4:  CALL   0F80
06CA8:  TBLRD*-
06CAA:  TBLRD*+
06CAC:  MOVF   FF5,W
06CAE:  MOVWF  FEE
06CB0:  IORLW  00
06CB2:  BNZ   6CAA
06CB4:  MOVLB  5
06CB6:  BTFSC  xE3.7
06CB8:  BSF    FF2.7
....................             displayMenu(Menus.Letra,0,46,1,1); 
06CBA:  MOVLW  04
06CBC:  MOVWF  xEC
06CBE:  MOVLW  17
06CC0:  MOVWF  xEB
06CC2:  CLRF   xED
06CC4:  MOVLW  2E
06CC6:  MOVWF  xEE
06CC8:  MOVLW  01
06CCA:  MOVWF  xEF
06CCC:  MOVWF  xF0
06CCE:  MOVLB  0
06CD0:  CALL   4E36
....................             strcpy(Menus.Letra,"      Frontal!    "); 
06CD4:  MOVLW  04
06CD6:  MOVWF  FEA
06CD8:  MOVLW  17
06CDA:  MOVWF  FE9
06CDC:  MOVFF  FF2,5E3
06CE0:  BCF    FF2.7
06CE2:  MOVLW  00
06CE4:  CALL   0FB2
06CE8:  TBLRD*-
06CEA:  TBLRD*+
06CEC:  MOVF   FF5,W
06CEE:  MOVWF  FEE
06CF0:  IORLW  00
06CF2:  BNZ   6CEA
06CF4:  MOVLB  5
06CF6:  BTFSC  xE3.7
06CF8:  BSF    FF2.7
....................             displayMenu(Menus.Letra,0,55,1,1); 
06CFA:  MOVLW  04
06CFC:  MOVWF  xEC
06CFE:  MOVLW  17
06D00:  MOVWF  xEB
06D02:  CLRF   xED
06D04:  MOVLW  37
06D06:  MOVWF  xEE
06D08:  MOVLW  01
06D0A:  MOVWF  xEF
06D0C:  MOVWF  xF0
06D0E:  MOVLB  0
06D10:  CALL   4E36
....................             tiempo_purga=0; 
06D14:  MOVLB  4
06D16:  BCF    x2E.4
....................             Purga=OFF; 
06D18:  BCF    x2F.7
....................          }else{ 
06D1A:  BRA    6DA6
06D1C:  MOVLB  0
....................             tiempo_purga=1; 
06D1E:  MOVLB  4
06D20:  BSF    x2E.4
....................             Purga=ON; 
06D22:  BSF    x2F.7
....................             strcpy(Menus.Letra,"                  "); 
06D24:  MOVLW  04
06D26:  MOVWF  FEA
06D28:  MOVLW  17
06D2A:  MOVWF  FE9
06D2C:  MOVFF  FF2,5E3
06D30:  BCF    FF2.7
06D32:  MOVLW  00
06D34:  MOVLB  0
06D36:  CALL   0FE4
06D3A:  TBLRD*-
06D3C:  TBLRD*+
06D3E:  MOVF   FF5,W
06D40:  MOVWF  FEE
06D42:  IORLW  00
06D44:  BNZ   6D3C
06D46:  MOVLB  5
06D48:  BTFSC  xE3.7
06D4A:  BSF    FF2.7
....................             displayMenu(Menus.Letra,0,46,0,1); 
06D4C:  MOVLW  04
06D4E:  MOVWF  xEC
06D50:  MOVLW  17
06D52:  MOVWF  xEB
06D54:  CLRF   xED
06D56:  MOVLW  2E
06D58:  MOVWF  xEE
06D5A:  CLRF   xEF
06D5C:  MOVLW  01
06D5E:  MOVWF  xF0
06D60:  MOVLB  0
06D62:  CALL   4E36
....................             strcpy(Menus.Letra,"                  "); 
06D66:  MOVLW  04
06D68:  MOVWF  FEA
06D6A:  MOVLW  17
06D6C:  MOVWF  FE9
06D6E:  MOVFF  FF2,5E3
06D72:  BCF    FF2.7
06D74:  MOVLW  00
06D76:  CALL   0FE4
06D7A:  TBLRD*-
06D7C:  TBLRD*+
06D7E:  MOVF   FF5,W
06D80:  MOVWF  FEE
06D82:  IORLW  00
06D84:  BNZ   6D7C
06D86:  MOVLB  5
06D88:  BTFSC  xE3.7
06D8A:  BSF    FF2.7
....................             displayMenu(Menus.Letra,0,55,0,1); 
06D8C:  MOVLW  04
06D8E:  MOVWF  xEC
06D90:  MOVLW  17
06D92:  MOVWF  xEB
06D94:  CLRF   xED
06D96:  MOVLW  37
06D98:  MOVWF  xEE
06D9A:  CLRF   xEF
06D9C:  MOVLW  01
06D9E:  MOVWF  xF0
06DA0:  MOVLB  0
06DA2:  CALL   4E36
....................          } 
....................           
....................          VelocidadMotor(VelMotor); 
06DA6:  MOVFF  5DA,5E3
06DAA:  MOVLB  0
06DAC:  CALL   1528
....................           
....................          if(RIGHT){ 
06DB0:  BSF    F96.1
06DB2:  BTFSC  F84.1
06DB4:  BRA    6DE4
....................             delay_ms(500); 
06DB6:  MOVLW  02
06DB8:  MOVLB  5
06DBA:  MOVWF  xE3
06DBC:  MOVLW  FA
06DBE:  MOVWF  xF7
06DC0:  MOVLB  0
06DC2:  CALL   1500
06DC6:  MOVLB  5
06DC8:  DECFSZ xE3,F
06DCA:  BRA    6DBC
....................             if(RIGHT){ 
06DCC:  BSF    F96.1
06DCE:  BTFSC  F84.1
06DD0:  BRA    6DE6
....................                tiempo_purga=0;Menu=2;glcd_fillScreen(OFF); 
06DD2:  MOVLB  4
06DD4:  BCF    x2E.4
06DD6:  MOVLW  02
06DD8:  MOVWF  xCD
06DDA:  MOVLB  5
06DDC:  CLRF   xEB
06DDE:  MOVLB  0
06DE0:  CALL   15E0
06DE4:  MOVLB  5
....................             } 
....................          } 
....................         
....................          if((Tpurga[0]>=Tpurgap[0])&&(Tpurga[1]>=Tpurgap[1])&&(Tpurga[2]>=Tpurgap[2])&&(Tpurga[3]>=Tpurgap[3])){ 
06DE6:  MOVLB  4
06DE8:  MOVF   xEF,W
06DEA:  XORLW  80
06DEC:  MOVWF  00
06DEE:  MOVF   xEB,W
06DF0:  XORLW  80
06DF2:  SUBWF  00,W
06DF4:  BZ    6DF8
06DF6:  BC    6E40
06DF8:  MOVF   xF0,W
06DFA:  XORLW  80
06DFC:  MOVWF  00
06DFE:  MOVF   xEC,W
06E00:  XORLW  80
06E02:  SUBWF  00,W
06E04:  BZ    6E08
06E06:  BC    6E40
06E08:  MOVF   xF1,W
06E0A:  XORLW  80
06E0C:  MOVWF  00
06E0E:  MOVF   xED,W
06E10:  XORLW  80
06E12:  SUBWF  00,W
06E14:  BZ    6E18
06E16:  BC    6E40
06E18:  MOVF   xF2,W
06E1A:  XORLW  80
06E1C:  MOVWF  00
06E1E:  MOVF   xEE,W
06E20:  XORLW  80
06E22:  SUBWF  00,W
06E24:  BZ    6E28
06E26:  BC    6E40
....................             tiempo_purga=0;Menu=2;glcd_fillScreen(OFF);flag_luz=1;flag_blower=1;flag_toma=1; 
06E28:  BCF    x2E.4
06E2A:  MOVLW  02
06E2C:  MOVWF  xCD
06E2E:  MOVLB  5
06E30:  CLRF   xEB
06E32:  MOVLB  0
06E34:  CALL   15E0
06E38:  MOVLB  4
06E3A:  BSF    x2E.1
06E3C:  BSF    x2D.7
06E3E:  BSF    x2E.0
....................          }       
....................       } 
.................... //_--------------------------------------------------------------------------------------------------------------------------------------------------------        
....................  
.................... //_-------------------------------------------------------------------------------------------------------------------------------------------------------- 
....................       if(Menu==2){ //Menu General. 
06E40:  MOVF   xCD,W
06E42:  SUBLW  02
06E44:  BTFSS  FD8.2
06E46:  GOTO   7DF2
....................          Purga=OFF; 
06E4A:  BCF    x2F.7
....................          w=0; 
06E4C:  BCF    x2E.3
....................          //glcd_imagen(4); 
....................           
....................          if(VelMotor==1){ 
06E4E:  MOVLB  5
06E50:  DECFSZ xDA,W
06E52:  BRA    6F14
....................             glcd_rect(0, 29, 13, 39, YES, ON); 
06E54:  CLRF   xFC
06E56:  MOVLW  1D
06E58:  MOVWF  xFD
06E5A:  MOVLW  0D
06E5C:  MOVWF  xFE
06E5E:  MOVLW  27
06E60:  MOVWF  xFF
06E62:  MOVLW  01
06E64:  MOVLB  6
06E66:  MOVWF  x00
06E68:  MOVWF  x01
06E6A:  MOVLB  0
06E6C:  CALL   4CAA
....................             glcd_rect(15, 26, 28, 39, NO, ON); 
06E70:  MOVLW  0F
06E72:  MOVLB  5
06E74:  MOVWF  xFC
06E76:  MOVLW  1A
06E78:  MOVWF  xFD
06E7A:  MOVLW  1C
06E7C:  MOVWF  xFE
06E7E:  MOVLW  27
06E80:  MOVWF  xFF
06E82:  MOVLB  6
06E84:  CLRF   x00
06E86:  MOVLW  01
06E88:  MOVWF  x01
06E8A:  MOVLB  0
06E8C:  CALL   4CAA
....................             glcd_rect(30, 23, 43, 39, NO, ON); 
06E90:  MOVLW  1E
06E92:  MOVLB  5
06E94:  MOVWF  xFC
06E96:  MOVLW  17
06E98:  MOVWF  xFD
06E9A:  MOVLW  2B
06E9C:  MOVWF  xFE
06E9E:  MOVLW  27
06EA0:  MOVWF  xFF
06EA2:  MOVLB  6
06EA4:  CLRF   x00
06EA6:  MOVLW  01
06EA8:  MOVWF  x01
06EAA:  MOVLB  0
06EAC:  CALL   4CAA
....................             glcd_rect(45, 20, 58, 39, NO, ON); 
06EB0:  MOVLW  2D
06EB2:  MOVLB  5
06EB4:  MOVWF  xFC
06EB6:  MOVLW  14
06EB8:  MOVWF  xFD
06EBA:  MOVLW  3A
06EBC:  MOVWF  xFE
06EBE:  MOVLW  27
06EC0:  MOVWF  xFF
06EC2:  MOVLB  6
06EC4:  CLRF   x00
06EC6:  MOVLW  01
06EC8:  MOVWF  x01
06ECA:  MOVLB  0
06ECC:  CALL   4CAA
....................             glcd_rect(60, 17, 73, 39, NO, ON); 
06ED0:  MOVLW  3C
06ED2:  MOVLB  5
06ED4:  MOVWF  xFC
06ED6:  MOVLW  11
06ED8:  MOVWF  xFD
06EDA:  MOVLW  49
06EDC:  MOVWF  xFE
06EDE:  MOVLW  27
06EE0:  MOVWF  xFF
06EE2:  MOVLB  6
06EE4:  CLRF   x00
06EE6:  MOVLW  01
06EE8:  MOVWF  x01
06EEA:  MOVLB  0
06EEC:  CALL   4CAA
....................             glcd_rect(75, 14, 88, 39, NO, ON); 
06EF0:  MOVLW  4B
06EF2:  MOVLB  5
06EF4:  MOVWF  xFC
06EF6:  MOVLW  0E
06EF8:  MOVWF  xFD
06EFA:  MOVLW  58
06EFC:  MOVWF  xFE
06EFE:  MOVLW  27
06F00:  MOVWF  xFF
06F02:  MOVLB  6
06F04:  CLRF   x00
06F06:  MOVLW  01
06F08:  MOVWF  x01
06F0A:  MOVLB  0
06F0C:  CALL   4CAA
....................          }else if(VelMotor==2){ 
06F10:  BRA    72EE
06F12:  MOVLB  5
06F14:  MOVF   xDA,W
06F16:  SUBLW  02
06F18:  BNZ   6FDA
....................             glcd_rect(0, 29, 13, 39, YES, ON); 
06F1A:  CLRF   xFC
06F1C:  MOVLW  1D
06F1E:  MOVWF  xFD
06F20:  MOVLW  0D
06F22:  MOVWF  xFE
06F24:  MOVLW  27
06F26:  MOVWF  xFF
06F28:  MOVLW  01
06F2A:  MOVLB  6
06F2C:  MOVWF  x00
06F2E:  MOVWF  x01
06F30:  MOVLB  0
06F32:  CALL   4CAA
....................             glcd_rect(15, 26, 28, 39, YES, ON); 
06F36:  MOVLW  0F
06F38:  MOVLB  5
06F3A:  MOVWF  xFC
06F3C:  MOVLW  1A
06F3E:  MOVWF  xFD
06F40:  MOVLW  1C
06F42:  MOVWF  xFE
06F44:  MOVLW  27
06F46:  MOVWF  xFF
06F48:  MOVLW  01
06F4A:  MOVLB  6
06F4C:  MOVWF  x00
06F4E:  MOVWF  x01
06F50:  MOVLB  0
06F52:  CALL   4CAA
....................             glcd_rect(30, 23, 43, 39, NO, ON); 
06F56:  MOVLW  1E
06F58:  MOVLB  5
06F5A:  MOVWF  xFC
06F5C:  MOVLW  17
06F5E:  MOVWF  xFD
06F60:  MOVLW  2B
06F62:  MOVWF  xFE
06F64:  MOVLW  27
06F66:  MOVWF  xFF
06F68:  MOVLB  6
06F6A:  CLRF   x00
06F6C:  MOVLW  01
06F6E:  MOVWF  x01
06F70:  MOVLB  0
06F72:  CALL   4CAA
....................             glcd_rect(45, 20, 58, 39, NO, ON); 
06F76:  MOVLW  2D
06F78:  MOVLB  5
06F7A:  MOVWF  xFC
06F7C:  MOVLW  14
06F7E:  MOVWF  xFD
06F80:  MOVLW  3A
06F82:  MOVWF  xFE
06F84:  MOVLW  27
06F86:  MOVWF  xFF
06F88:  MOVLB  6
06F8A:  CLRF   x00
06F8C:  MOVLW  01
06F8E:  MOVWF  x01
06F90:  MOVLB  0
06F92:  CALL   4CAA
....................             glcd_rect(60, 17, 73, 39, NO, ON); 
06F96:  MOVLW  3C
06F98:  MOVLB  5
06F9A:  MOVWF  xFC
06F9C:  MOVLW  11
06F9E:  MOVWF  xFD
06FA0:  MOVLW  49
06FA2:  MOVWF  xFE
06FA4:  MOVLW  27
06FA6:  MOVWF  xFF
06FA8:  MOVLB  6
06FAA:  CLRF   x00
06FAC:  MOVLW  01
06FAE:  MOVWF  x01
06FB0:  MOVLB  0
06FB2:  CALL   4CAA
....................             glcd_rect(75, 14, 88, 39, NO, ON); 
06FB6:  MOVLW  4B
06FB8:  MOVLB  5
06FBA:  MOVWF  xFC
06FBC:  MOVLW  0E
06FBE:  MOVWF  xFD
06FC0:  MOVLW  58
06FC2:  MOVWF  xFE
06FC4:  MOVLW  27
06FC6:  MOVWF  xFF
06FC8:  MOVLB  6
06FCA:  CLRF   x00
06FCC:  MOVLW  01
06FCE:  MOVWF  x01
06FD0:  MOVLB  0
06FD2:  CALL   4CAA
....................          }else if(VelMotor==3){ 
06FD6:  BRA    72EE
06FD8:  MOVLB  5
06FDA:  MOVF   xDA,W
06FDC:  SUBLW  03
06FDE:  BNZ   70A0
....................             glcd_rect(0, 29, 13, 39, YES, ON); 
06FE0:  CLRF   xFC
06FE2:  MOVLW  1D
06FE4:  MOVWF  xFD
06FE6:  MOVLW  0D
06FE8:  MOVWF  xFE
06FEA:  MOVLW  27
06FEC:  MOVWF  xFF
06FEE:  MOVLW  01
06FF0:  MOVLB  6
06FF2:  MOVWF  x00
06FF4:  MOVWF  x01
06FF6:  MOVLB  0
06FF8:  CALL   4CAA
....................             glcd_rect(15, 26, 28, 39, YES, ON); 
06FFC:  MOVLW  0F
06FFE:  MOVLB  5
07000:  MOVWF  xFC
07002:  MOVLW  1A
07004:  MOVWF  xFD
07006:  MOVLW  1C
07008:  MOVWF  xFE
0700A:  MOVLW  27
0700C:  MOVWF  xFF
0700E:  MOVLW  01
07010:  MOVLB  6
07012:  MOVWF  x00
07014:  MOVWF  x01
07016:  MOVLB  0
07018:  CALL   4CAA
....................             glcd_rect(30, 23, 43, 39, YES, ON); 
0701C:  MOVLW  1E
0701E:  MOVLB  5
07020:  MOVWF  xFC
07022:  MOVLW  17
07024:  MOVWF  xFD
07026:  MOVLW  2B
07028:  MOVWF  xFE
0702A:  MOVLW  27
0702C:  MOVWF  xFF
0702E:  MOVLW  01
07030:  MOVLB  6
07032:  MOVWF  x00
07034:  MOVWF  x01
07036:  MOVLB  0
07038:  CALL   4CAA
....................             glcd_rect(45, 20, 58, 39, NO, ON); 
0703C:  MOVLW  2D
0703E:  MOVLB  5
07040:  MOVWF  xFC
07042:  MOVLW  14
07044:  MOVWF  xFD
07046:  MOVLW  3A
07048:  MOVWF  xFE
0704A:  MOVLW  27
0704C:  MOVWF  xFF
0704E:  MOVLB  6
07050:  CLRF   x00
07052:  MOVLW  01
07054:  MOVWF  x01
07056:  MOVLB  0
07058:  CALL   4CAA
....................             glcd_rect(60, 17, 73, 39, NO, ON); 
0705C:  MOVLW  3C
0705E:  MOVLB  5
07060:  MOVWF  xFC
07062:  MOVLW  11
07064:  MOVWF  xFD
07066:  MOVLW  49
07068:  MOVWF  xFE
0706A:  MOVLW  27
0706C:  MOVWF  xFF
0706E:  MOVLB  6
07070:  CLRF   x00
07072:  MOVLW  01
07074:  MOVWF  x01
07076:  MOVLB  0
07078:  CALL   4CAA
....................             glcd_rect(75, 14, 88, 39, NO, ON); 
0707C:  MOVLW  4B
0707E:  MOVLB  5
07080:  MOVWF  xFC
07082:  MOVLW  0E
07084:  MOVWF  xFD
07086:  MOVLW  58
07088:  MOVWF  xFE
0708A:  MOVLW  27
0708C:  MOVWF  xFF
0708E:  MOVLB  6
07090:  CLRF   x00
07092:  MOVLW  01
07094:  MOVWF  x01
07096:  MOVLB  0
07098:  CALL   4CAA
....................          }else if(VelMotor==4){ 
0709C:  BRA    72EE
0709E:  MOVLB  5
070A0:  MOVF   xDA,W
070A2:  SUBLW  04
070A4:  BNZ   7166
....................             glcd_rect(0, 29, 13, 39, YES, ON); 
070A6:  CLRF   xFC
070A8:  MOVLW  1D
070AA:  MOVWF  xFD
070AC:  MOVLW  0D
070AE:  MOVWF  xFE
070B0:  MOVLW  27
070B2:  MOVWF  xFF
070B4:  MOVLW  01
070B6:  MOVLB  6
070B8:  MOVWF  x00
070BA:  MOVWF  x01
070BC:  MOVLB  0
070BE:  CALL   4CAA
....................             glcd_rect(15, 26, 28, 39, YES, ON); 
070C2:  MOVLW  0F
070C4:  MOVLB  5
070C6:  MOVWF  xFC
070C8:  MOVLW  1A
070CA:  MOVWF  xFD
070CC:  MOVLW  1C
070CE:  MOVWF  xFE
070D0:  MOVLW  27
070D2:  MOVWF  xFF
070D4:  MOVLW  01
070D6:  MOVLB  6
070D8:  MOVWF  x00
070DA:  MOVWF  x01
070DC:  MOVLB  0
070DE:  CALL   4CAA
....................             glcd_rect(30, 23, 43, 39, YES, ON); 
070E2:  MOVLW  1E
070E4:  MOVLB  5
070E6:  MOVWF  xFC
070E8:  MOVLW  17
070EA:  MOVWF  xFD
070EC:  MOVLW  2B
070EE:  MOVWF  xFE
070F0:  MOVLW  27
070F2:  MOVWF  xFF
070F4:  MOVLW  01
070F6:  MOVLB  6
070F8:  MOVWF  x00
070FA:  MOVWF  x01
070FC:  MOVLB  0
070FE:  CALL   4CAA
....................             glcd_rect(45, 20, 58, 39, YES, ON); 
07102:  MOVLW  2D
07104:  MOVLB  5
07106:  MOVWF  xFC
07108:  MOVLW  14
0710A:  MOVWF  xFD
0710C:  MOVLW  3A
0710E:  MOVWF  xFE
07110:  MOVLW  27
07112:  MOVWF  xFF
07114:  MOVLW  01
07116:  MOVLB  6
07118:  MOVWF  x00
0711A:  MOVWF  x01
0711C:  MOVLB  0
0711E:  CALL   4CAA
....................             glcd_rect(60, 17, 73, 39, NO, ON); 
07122:  MOVLW  3C
07124:  MOVLB  5
07126:  MOVWF  xFC
07128:  MOVLW  11
0712A:  MOVWF  xFD
0712C:  MOVLW  49
0712E:  MOVWF  xFE
07130:  MOVLW  27
07132:  MOVWF  xFF
07134:  MOVLB  6
07136:  CLRF   x00
07138:  MOVLW  01
0713A:  MOVWF  x01
0713C:  MOVLB  0
0713E:  CALL   4CAA
....................             glcd_rect(75, 14, 88, 39, NO, ON); 
07142:  MOVLW  4B
07144:  MOVLB  5
07146:  MOVWF  xFC
07148:  MOVLW  0E
0714A:  MOVWF  xFD
0714C:  MOVLW  58
0714E:  MOVWF  xFE
07150:  MOVLW  27
07152:  MOVWF  xFF
07154:  MOVLB  6
07156:  CLRF   x00
07158:  MOVLW  01
0715A:  MOVWF  x01
0715C:  MOVLB  0
0715E:  CALL   4CAA
....................          }else if(VelMotor==5){ 
07162:  BRA    72EE
07164:  MOVLB  5
07166:  MOVF   xDA,W
07168:  SUBLW  05
0716A:  BNZ   722C
....................             glcd_rect(0, 29, 13, 39, YES, ON); 
0716C:  CLRF   xFC
0716E:  MOVLW  1D
07170:  MOVWF  xFD
07172:  MOVLW  0D
07174:  MOVWF  xFE
07176:  MOVLW  27
07178:  MOVWF  xFF
0717A:  MOVLW  01
0717C:  MOVLB  6
0717E:  MOVWF  x00
07180:  MOVWF  x01
07182:  MOVLB  0
07184:  CALL   4CAA
....................             glcd_rect(15, 26, 28, 39, YES, ON); 
07188:  MOVLW  0F
0718A:  MOVLB  5
0718C:  MOVWF  xFC
0718E:  MOVLW  1A
07190:  MOVWF  xFD
07192:  MOVLW  1C
07194:  MOVWF  xFE
07196:  MOVLW  27
07198:  MOVWF  xFF
0719A:  MOVLW  01
0719C:  MOVLB  6
0719E:  MOVWF  x00
071A0:  MOVWF  x01
071A2:  MOVLB  0
071A4:  CALL   4CAA
....................             glcd_rect(30, 23, 43, 39, YES, ON); 
071A8:  MOVLW  1E
071AA:  MOVLB  5
071AC:  MOVWF  xFC
071AE:  MOVLW  17
071B0:  MOVWF  xFD
071B2:  MOVLW  2B
071B4:  MOVWF  xFE
071B6:  MOVLW  27
071B8:  MOVWF  xFF
071BA:  MOVLW  01
071BC:  MOVLB  6
071BE:  MOVWF  x00
071C0:  MOVWF  x01
071C2:  MOVLB  0
071C4:  CALL   4CAA
....................             glcd_rect(45, 20, 58, 39, YES, ON); 
071C8:  MOVLW  2D
071CA:  MOVLB  5
071CC:  MOVWF  xFC
071CE:  MOVLW  14
071D0:  MOVWF  xFD
071D2:  MOVLW  3A
071D4:  MOVWF  xFE
071D6:  MOVLW  27
071D8:  MOVWF  xFF
071DA:  MOVLW  01
071DC:  MOVLB  6
071DE:  MOVWF  x00
071E0:  MOVWF  x01
071E2:  MOVLB  0
071E4:  CALL   4CAA
....................             glcd_rect(60, 17, 73, 39, YES, ON); 
071E8:  MOVLW  3C
071EA:  MOVLB  5
071EC:  MOVWF  xFC
071EE:  MOVLW  11
071F0:  MOVWF  xFD
071F2:  MOVLW  49
071F4:  MOVWF  xFE
071F6:  MOVLW  27
071F8:  MOVWF  xFF
071FA:  MOVLW  01
071FC:  MOVLB  6
071FE:  MOVWF  x00
07200:  MOVWF  x01
07202:  MOVLB  0
07204:  CALL   4CAA
....................             glcd_rect(75, 14, 88, 39, NO, ON); 
07208:  MOVLW  4B
0720A:  MOVLB  5
0720C:  MOVWF  xFC
0720E:  MOVLW  0E
07210:  MOVWF  xFD
07212:  MOVLW  58
07214:  MOVWF  xFE
07216:  MOVLW  27
07218:  MOVWF  xFF
0721A:  MOVLB  6
0721C:  CLRF   x00
0721E:  MOVLW  01
07220:  MOVWF  x01
07222:  MOVLB  0
07224:  CALL   4CAA
....................          }else if(VelMotor==6){ 
07228:  BRA    72EE
0722A:  MOVLB  5
0722C:  MOVF   xDA,W
0722E:  SUBLW  06
07230:  BNZ   72EE
....................             glcd_rect(0, 29, 13, 39, YES, ON); 
07232:  CLRF   xFC
07234:  MOVLW  1D
07236:  MOVWF  xFD
07238:  MOVLW  0D
0723A:  MOVWF  xFE
0723C:  MOVLW  27
0723E:  MOVWF  xFF
07240:  MOVLW  01
07242:  MOVLB  6
07244:  MOVWF  x00
07246:  MOVWF  x01
07248:  MOVLB  0
0724A:  CALL   4CAA
....................             glcd_rect(15, 26, 28, 39, YES, ON); 
0724E:  MOVLW  0F
07250:  MOVLB  5
07252:  MOVWF  xFC
07254:  MOVLW  1A
07256:  MOVWF  xFD
07258:  MOVLW  1C
0725A:  MOVWF  xFE
0725C:  MOVLW  27
0725E:  MOVWF  xFF
07260:  MOVLW  01
07262:  MOVLB  6
07264:  MOVWF  x00
07266:  MOVWF  x01
07268:  MOVLB  0
0726A:  CALL   4CAA
....................             glcd_rect(30, 23, 43, 39, YES, ON); 
0726E:  MOVLW  1E
07270:  MOVLB  5
07272:  MOVWF  xFC
07274:  MOVLW  17
07276:  MOVWF  xFD
07278:  MOVLW  2B
0727A:  MOVWF  xFE
0727C:  MOVLW  27
0727E:  MOVWF  xFF
07280:  MOVLW  01
07282:  MOVLB  6
07284:  MOVWF  x00
07286:  MOVWF  x01
07288:  MOVLB  0
0728A:  CALL   4CAA
....................             glcd_rect(45, 20, 58, 39, YES, ON); 
0728E:  MOVLW  2D
07290:  MOVLB  5
07292:  MOVWF  xFC
07294:  MOVLW  14
07296:  MOVWF  xFD
07298:  MOVLW  3A
0729A:  MOVWF  xFE
0729C:  MOVLW  27
0729E:  MOVWF  xFF
072A0:  MOVLW  01
072A2:  MOVLB  6
072A4:  MOVWF  x00
072A6:  MOVWF  x01
072A8:  MOVLB  0
072AA:  CALL   4CAA
....................             glcd_rect(60, 17, 73, 39, YES, ON); 
072AE:  MOVLW  3C
072B0:  MOVLB  5
072B2:  MOVWF  xFC
072B4:  MOVLW  11
072B6:  MOVWF  xFD
072B8:  MOVLW  49
072BA:  MOVWF  xFE
072BC:  MOVLW  27
072BE:  MOVWF  xFF
072C0:  MOVLW  01
072C2:  MOVLB  6
072C4:  MOVWF  x00
072C6:  MOVWF  x01
072C8:  MOVLB  0
072CA:  CALL   4CAA
....................             glcd_rect(75, 14, 88, 39, YES, ON); 
072CE:  MOVLW  4B
072D0:  MOVLB  5
072D2:  MOVWF  xFC
072D4:  MOVLW  0E
072D6:  MOVWF  xFD
072D8:  MOVLW  58
072DA:  MOVWF  xFE
072DC:  MOVLW  27
072DE:  MOVWF  xFF
072E0:  MOVLW  01
072E2:  MOVLB  6
072E4:  MOVWF  x00
072E6:  MOVWF  x01
072E8:  MOVLB  0
072EA:  CALL   4CAA
....................          } 
....................           
....................          if(imprimir==1){ 
072EE:  MOVLB  4
072F0:  BTFSS  x2D.6
072F2:  BRA    7542
....................             glcd_text57(2, 12, Inflowt, 1, ON); 
072F4:  MOVLW  02
072F6:  MOVLB  5
072F8:  MOVWF  xFC
072FA:  MOVLW  0C
072FC:  MOVWF  xFD
072FE:  MOVLW  04
07300:  MOVWF  xFF
07302:  MOVLW  6D
07304:  MOVWF  xFE
07306:  MOVLW  01
07308:  MOVLB  6
0730A:  MOVWF  x00
0730C:  MOVWF  x01
0730E:  MOVLB  0
07310:  CALL   1856
....................             displayTiempo(VelMotor,23,11,0,1);   
07314:  MOVFF  5DA,5E3
07318:  MOVLW  17
0731A:  MOVLB  5
0731C:  MOVWF  xE4
0731E:  MOVLW  0B
07320:  MOVWF  xE5
07322:  CLRF   xE6
07324:  MOVLW  01
07326:  MOVWF  xE7
07328:  MOVLB  0
0732A:  CALL   55F4
....................             glcd_rect(0, 10, 95, 63, NO, ON); 
0732E:  MOVLB  5
07330:  CLRF   xFC
07332:  MOVLW  0A
07334:  MOVWF  xFD
07336:  MOVLW  5F
07338:  MOVWF  xFE
0733A:  MOVLW  3F
0733C:  MOVWF  xFF
0733E:  MOVLB  6
07340:  CLRF   x00
07342:  MOVLW  01
07344:  MOVWF  x01
07346:  MOVLB  0
07348:  CALL   4CAA
....................             glcd_rect(100, 10, 127, 63, NO, ON); 
0734C:  MOVLW  64
0734E:  MOVLB  5
07350:  MOVWF  xFC
07352:  MOVLW  0A
07354:  MOVWF  xFD
07356:  MOVLW  7F
07358:  MOVWF  xFE
0735A:  MOVLW  3F
0735C:  MOVWF  xFF
0735E:  MOVLB  6
07360:  CLRF   x00
07362:  MOVLW  01
07364:  MOVWF  x01
07366:  MOVLB  0
07368:  CALL   4CAA
....................             //glcd_text57(35, 12, Downflowt, 1, ON); 
....................             glcd_text57(2, 41, Vida_Filtro, 1, ON); 
0736C:  MOVLW  02
0736E:  MOVLB  5
07370:  MOVWF  xFC
07372:  MOVLW  29
07374:  MOVWF  xFD
07376:  MOVLW  04
07378:  MOVWF  xFF
0737A:  MOVLW  93
0737C:  MOVWF  xFE
0737E:  MOVLW  01
07380:  MOVLB  6
07382:  MOVWF  x00
07384:  MOVWF  x01
07386:  MOVLB  0
07388:  CALL   1856
....................             //displayTiempo(Ttrabajo[3],60,41,0,1);displayTiempo(Ttrabajo[2],67,41,0,1);displayTiempo(Ttrabajo[1],74,41,0,1);displayTiempo(Ttrabajo[0],82,41,0,1); 
....................             if(Filtro_Downflow>=0.9){ 
0738C:  MOVLW  66
0738E:  MOVLB  6
07390:  MOVWF  x17
07392:  MOVWF  x16
07394:  MOVWF  x15
07396:  MOVLW  7E
07398:  MOVWF  x14
0739A:  MOVFF  51A,61B
0739E:  MOVFF  519,61A
073A2:  MOVFF  518,619
073A6:  MOVFF  517,618
073AA:  MOVLB  0
073AC:  CALL   25C4
073B0:  BC    73B4
073B2:  BNZ   7414
....................                strcpy(Menus.Letra,"Filtro Saturado"); 
073B4:  MOVLW  04
073B6:  MOVWF  FEA
073B8:  MOVLW  17
073BA:  MOVWF  FE9
073BC:  MOVFF  FF2,5E3
073C0:  BCF    FF2.7
073C2:  MOVLW  00
073C4:  CALL   1016
073C8:  TBLRD*-
073CA:  TBLRD*+
073CC:  MOVF   FF5,W
073CE:  MOVWF  FEE
073D0:  IORLW  00
073D2:  BNZ   73CA
073D4:  MOVLB  5
073D6:  BTFSC  xE3.7
073D8:  BSF    FF2.7
....................                displayMenu(Menus.Letra,0,0,1,1); 
073DA:  MOVLW  04
073DC:  MOVWF  xEC
073DE:  MOVLW  17
073E0:  MOVWF  xEB
073E2:  CLRF   xED
073E4:  CLRF   xEE
073E6:  MOVLW  01
073E8:  MOVWF  xEF
073EA:  MOVWF  xF0
073EC:  MOVLB  0
073EE:  CALL   4E36
....................                Alarma_on; 
073F2:  BSF    F8B.7
073F4:  BCF    F94.7
....................                delay_ms(50); 
073F6:  MOVLW  32
073F8:  MOVLB  5
073FA:  MOVWF  xF7
073FC:  MOVLB  0
073FE:  CALL   1500
....................                Alarma_off; 
07402:  BCF    F8B.7
07404:  BCF    F94.7
....................                delay_ms(50); 
07406:  MOVLW  32
07408:  MOVLB  5
0740A:  MOVWF  xF7
0740C:  MOVLB  0
0740E:  CALL   1500
....................             }else{ 
07412:  BRA    7454
....................                strcpy(Menus.Letra,"JPCV24-PCR-EC"); 
07414:  MOVLW  04
07416:  MOVWF  FEA
07418:  MOVLW  17
0741A:  MOVWF  FE9
0741C:  MOVFF  FF2,5E3
07420:  BCF    FF2.7
07422:  MOVLW  00
07424:  CALL   1044
07428:  TBLRD*-
0742A:  TBLRD*+
0742C:  MOVF   FF5,W
0742E:  MOVWF  FEE
07430:  IORLW  00
07432:  BNZ   742A
07434:  MOVLB  5
07436:  BTFSC  xE3.7
07438:  BSF    FF2.7
....................                displayMenu(Menus.Letra,2,0,1,1); 
0743A:  MOVLW  04
0743C:  MOVWF  xEC
0743E:  MOVLW  17
07440:  MOVWF  xEB
07442:  MOVLW  02
07444:  MOVWF  xED
07446:  CLRF   xEE
07448:  MOVLW  01
0744A:  MOVWF  xEF
0744C:  MOVWF  xF0
0744E:  MOVLB  0
07450:  CALL   4E36
....................             } 
....................             displayfloat2(Temperatura,90,0,1,1); 
07454:  MOVLB  6
07456:  CLRF   x19
07458:  MOVFF  5D6,618
0745C:  MOVLB  0
0745E:  CALL   1A2C
07462:  MOVFF  00,5E3
07466:  MOVFF  01,5E4
0746A:  MOVFF  02,5E5
0746E:  MOVFF  03,5E6
07472:  MOVFF  03,5EA
07476:  MOVFF  02,5E9
0747A:  MOVFF  01,5E8
0747E:  MOVFF  00,5E7
07482:  MOVLW  5A
07484:  MOVLB  5
07486:  MOVWF  xEB
07488:  CLRF   xEC
0748A:  MOVLW  01
0748C:  MOVWF  xED
0748E:  MOVWF  xEE
07490:  MOVLB  0
07492:  GOTO   5C54
....................              
....................             glcd_text57(2, 52, Tempo, 1, ON); 
07496:  MOVLW  02
07498:  MOVLB  5
0749A:  MOVWF  xFC
0749C:  MOVLW  34
0749E:  MOVWF  xFD
074A0:  MOVLW  04
074A2:  MOVWF  xFF
074A4:  MOVLW  BB
074A6:  MOVWF  xFE
074A8:  MOVLW  01
074AA:  MOVLB  6
074AC:  MOVWF  x00
074AE:  MOVWF  x01
074B0:  MOVLB  0
074B2:  CALL   1856
....................             displayTiempo(Tempouv[3],59,51,0,1); 
074B6:  MOVFF  502,5E3
074BA:  MOVLW  3B
074BC:  MOVLB  5
074BE:  MOVWF  xE4
074C0:  MOVLW  33
074C2:  MOVWF  xE5
074C4:  CLRF   xE6
074C6:  MOVLW  01
074C8:  MOVWF  xE7
074CA:  MOVLB  0
074CC:  CALL   55F4
....................             displayTiempo(Tempouv[2],67,51,0,1); 
074D0:  MOVFF  501,5E3
074D4:  MOVLW  43
074D6:  MOVLB  5
074D8:  MOVWF  xE4
074DA:  MOVLW  33
074DC:  MOVWF  xE5
074DE:  CLRF   xE6
074E0:  MOVLW  01
074E2:  MOVWF  xE7
074E4:  MOVLB  0
074E6:  CALL   55F4
....................             glcd_text57(75, 52, Dos_puntos, 1, ON); 
074EA:  MOVLW  4B
074EC:  MOVLB  5
074EE:  MOVWF  xFC
074F0:  MOVLW  34
074F2:  MOVWF  xFD
074F4:  MOVLW  04
074F6:  MOVWF  xFF
074F8:  MOVLW  51
074FA:  MOVWF  xFE
074FC:  MOVLW  01
074FE:  MOVLB  6
07500:  MOVWF  x00
07502:  MOVWF  x01
07504:  MOVLB  0
07506:  CALL   1856
....................             displayTiempo(Tempouv[1],79,51,0,1); 
0750A:  MOVFF  500,5E3
0750E:  MOVLW  4F
07510:  MOVLB  5
07512:  MOVWF  xE4
07514:  MOVLW  33
07516:  MOVWF  xE5
07518:  CLRF   xE6
0751A:  MOVLW  01
0751C:  MOVWF  xE7
0751E:  MOVLB  0
07520:  CALL   55F4
....................             displayTiempo(Tempouv[0],87,51,0,1); 
07524:  MOVFF  4FF,5E3
07528:  MOVLW  57
0752A:  MOVLB  5
0752C:  MOVWF  xE4
0752E:  MOVLW  33
07530:  MOVWF  xE5
07532:  CLRF   xE6
07534:  MOVLW  01
07536:  MOVWF  xE7
07538:  MOVLB  0
0753A:  CALL   55F4
....................             imprimir=0; 
0753E:  MOVLB  4
07540:  BCF    x2D.6
....................          } 
....................           
....................          // Dibujo de barra de estado de filtro                   
....................          barra=100.0*(Filtro_Downflow/1); 
07542:  MOVFF  51A,617
07546:  MOVFF  519,616
0754A:  MOVFF  518,615
0754E:  MOVFF  517,614
07552:  MOVLB  6
07554:  CLRF   x1B
07556:  CLRF   x1A
07558:  CLRF   x19
0755A:  MOVLW  7F
0755C:  MOVWF  x18
0755E:  MOVLB  0
07560:  CALL   1A62
07564:  MOVLB  6
07566:  CLRF   x17
07568:  CLRF   x16
0756A:  MOVLW  48
0756C:  MOVWF  x15
0756E:  MOVLW  85
07570:  MOVWF  x14
07572:  MOVFF  03,61B
07576:  MOVFF  02,61A
0757A:  MOVFF  01,619
0757E:  MOVFF  00,618
07582:  MOVLB  0
07584:  CALL   3044
07588:  MOVFF  03,522
0758C:  MOVFF  02,521
07590:  MOVFF  01,520
07594:  MOVFF  00,51F
....................          if(barra>100.0) 
07598:  MOVLB  6
0759A:  CLRF   x17
0759C:  CLRF   x16
0759E:  MOVLW  48
075A0:  MOVWF  x15
075A2:  MOVLW  85
075A4:  MOVWF  x14
075A6:  MOVFF  522,61B
075AA:  MOVFF  521,61A
075AE:  MOVFF  520,619
075B2:  MOVFF  51F,618
075B6:  MOVLB  0
075B8:  CALL   25C4
075BC:  BNC   75CC
....................             barra=100.0; 
075BE:  MOVLB  5
075C0:  CLRF   x22
075C2:  CLRF   x21
075C4:  MOVLW  48
075C6:  MOVWF  x20
075C8:  MOVLW  85
075CA:  MOVWF  x1F
....................          barra=barra/2; 
075CC:  MOVFF  522,617
075D0:  MOVFF  521,616
075D4:  MOVFF  520,615
075D8:  MOVFF  51F,614
075DC:  MOVLB  6
075DE:  CLRF   x1B
075E0:  CLRF   x1A
075E2:  CLRF   x19
075E4:  MOVLW  80
075E6:  MOVWF  x18
075E8:  MOVLB  0
075EA:  CALL   1A62
075EE:  MOVFF  03,522
075F2:  MOVFF  02,521
075F6:  MOVFF  01,520
075FA:  MOVFF  00,51F
....................          glcd_rect(42, 41, (int8)(barra_old)+42, 48, YES, OFF);  // Clears the old bar 
075FE:  MOVFF  526,617
07602:  MOVFF  525,616
07606:  MOVFF  524,615
0760A:  MOVFF  523,614
0760E:  CALL   3008
07612:  MOVLW  2A
07614:  ADDWF  01,W
07616:  MOVLB  5
07618:  MOVWF  xE3
0761A:  MOVLW  2A
0761C:  MOVWF  xFC
0761E:  MOVLW  29
07620:  MOVWF  xFD
07622:  MOVFF  5E3,5FE
07626:  MOVLW  30
07628:  MOVWF  xFF
0762A:  MOVLW  01
0762C:  MOVLB  6
0762E:  MOVWF  x00
07630:  CLRF   x01
07632:  MOVLB  0
07634:  CALL   4CAA
....................          glcd_rect(42, 41, (int8)(barra)+42, 48, YES, ON);             // Draws a new bar 
07638:  MOVFF  522,617
0763C:  MOVFF  521,616
07640:  MOVFF  520,615
07644:  MOVFF  51F,614
07648:  CALL   3008
0764C:  MOVLW  2A
0764E:  ADDWF  01,W
07650:  MOVLB  5
07652:  MOVWF  xE3
07654:  MOVLW  2A
07656:  MOVWF  xFC
07658:  MOVLW  29
0765A:  MOVWF  xFD
0765C:  MOVFF  5E3,5FE
07660:  MOVLW  30
07662:  MOVWF  xFF
07664:  MOVLW  01
07666:  MOVLB  6
07668:  MOVWF  x00
0766A:  MOVWF  x01
0766C:  MOVLB  0
0766E:  CALL   4CAA
....................          glcd_rect(42, 41, 94, 48, NO, ON);             // Draws a new bar 
07672:  MOVLW  2A
07674:  MOVLB  5
07676:  MOVWF  xFC
07678:  MOVLW  29
0767A:  MOVWF  xFD
0767C:  MOVLW  5E
0767E:  MOVWF  xFE
07680:  MOVLW  30
07682:  MOVWF  xFF
07684:  MOVLB  6
07686:  CLRF   x00
07688:  MOVLW  01
0768A:  MOVWF  x01
0768C:  MOVLB  0
0768E:  CALL   4CAA
....................          barra_old=barra; 
07692:  MOVFF  522,526
07696:  MOVFF  521,525
0769A:  MOVFF  520,524
0769E:  MOVFF  51F,523
.................... // Fin de Dibujo de barra de estado de Filtro 
....................           
....................          if(VIDRIODN){ 
076A2:  BSF    F92.3
076A4:  BTFSC  F80.3
076A6:  BRA    76B2
....................            flag_blower=0; 
076A8:  MOVLB  4
076AA:  BCF    x2D.7
....................            flag_luz=0; 
076AC:  BCF    x2E.1
....................          }else{ 
076AE:  BRA    76B6
076B0:  MOVLB  0
....................            flag_uv=0;  
076B2:  MOVLB  4
076B4:  BCF    x2E.7
....................          } 
....................           
....................          if(flag_blower==1 && flag_uv==0){ 
076B6:  BTFSS  x2D.7
076B8:  BRA    7862
076BA:  BTFSC  x2E.7
076BC:  BRA    7862
....................             glcd_imagen(5);tiempo_trabajo=1; 
076BE:  MOVLW  05
076C0:  MOVLB  5
076C2:  MOVWF  xE3
076C4:  MOVLB  0
076C6:  CALL   5DBE
076CA:  MOVLB  4
076CC:  BSF    x2E.5
....................             if(guardatrabajo==1){ 
076CE:  BTFSS  x2F.3
076D0:  BRA    7854
....................                VelocidadMotor(6); 
076D2:  MOVLW  06
076D4:  MOVLB  5
076D6:  MOVWF  xE3
076D8:  MOVLB  0
076DA:  CALL   1528
....................                guardatrabajo=0; 
076DE:  MOVLB  4
076E0:  BCF    x2F.3
....................                write_eeprom(33,make8(minutos_trabajo,0)); 
076E2:  MOVFF  4E7,5E3
076E6:  CLRF   FAA
076E8:  MOVLW  21
076EA:  MOVWF  FA9
076EC:  MOVFF  5E3,FA8
076F0:  BCF    FA6.6
076F2:  BCF    FA6.7
076F4:  BSF    FA6.2
076F6:  MOVF   FF2,W
076F8:  MOVWF  00
076FA:  BCF    FF2.7
076FC:  MOVLB  F
076FE:  MOVLW  55
07700:  MOVWF  FA7
07702:  MOVLW  AA
07704:  MOVWF  FA7
07706:  BSF    FA6.1
07708:  BTFSC  FA6.1
0770A:  BRA    7708
0770C:  BCF    FA6.2
0770E:  MOVF   00,W
07710:  IORWF  FF2,F
....................                delay_ms(20); 
07712:  MOVLW  14
07714:  MOVLB  5
07716:  MOVWF  xF7
07718:  MOVLB  0
0771A:  CALL   1500
....................                write_eeprom(34,make8(minutos_trabajo,1)); 
0771E:  MOVFF  4E8,5E3
07722:  CLRF   FAA
07724:  MOVLW  22
07726:  MOVWF  FA9
07728:  MOVFF  5E3,FA8
0772C:  BCF    FA6.6
0772E:  BCF    FA6.7
07730:  BSF    FA6.2
07732:  MOVF   FF2,W
07734:  MOVWF  00
07736:  BCF    FF2.7
07738:  MOVLB  F
0773A:  MOVLW  55
0773C:  MOVWF  FA7
0773E:  MOVLW  AA
07740:  MOVWF  FA7
07742:  BSF    FA6.1
07744:  BTFSC  FA6.1
07746:  BRA    7744
07748:  BCF    FA6.2
0774A:  MOVF   00,W
0774C:  IORWF  FF2,F
....................                delay_ms(20); 
0774E:  MOVLW  14
07750:  MOVLB  5
07752:  MOVWF  xF7
07754:  MOVLB  0
07756:  CALL   1500
....................                write_eeprom(16,Ttrabajo[0]); 
0775A:  CLRF   FAA
0775C:  MOVLW  10
0775E:  MOVWF  FA9
07760:  MOVFF  503,FA8
07764:  BCF    FA6.6
07766:  BCF    FA6.7
07768:  BSF    FA6.2
0776A:  MOVF   FF2,W
0776C:  MOVWF  00
0776E:  BCF    FF2.7
07770:  MOVLB  F
07772:  MOVLW  55
07774:  MOVWF  FA7
07776:  MOVLW  AA
07778:  MOVWF  FA7
0777A:  BSF    FA6.1
0777C:  BTFSC  FA6.1
0777E:  BRA    777C
07780:  BCF    FA6.2
07782:  MOVF   00,W
07784:  IORWF  FF2,F
....................                delay_ms(20); 
07786:  MOVLW  14
07788:  MOVLB  5
0778A:  MOVWF  xF7
0778C:  MOVLB  0
0778E:  CALL   1500
....................                write_eeprom(17,Ttrabajo[1]); 
07792:  CLRF   FAA
07794:  MOVLW  11
07796:  MOVWF  FA9
07798:  MOVFF  504,FA8
0779C:  BCF    FA6.6
0779E:  BCF    FA6.7
077A0:  BSF    FA6.2
077A2:  MOVF   FF2,W
077A4:  MOVWF  00
077A6:  BCF    FF2.7
077A8:  MOVLB  F
077AA:  MOVLW  55
077AC:  MOVWF  FA7
077AE:  MOVLW  AA
077B0:  MOVWF  FA7
077B2:  BSF    FA6.1
077B4:  BTFSC  FA6.1
077B6:  BRA    77B4
077B8:  BCF    FA6.2
077BA:  MOVF   00,W
077BC:  IORWF  FF2,F
....................                delay_ms(20); 
077BE:  MOVLW  14
077C0:  MOVLB  5
077C2:  MOVWF  xF7
077C4:  MOVLB  0
077C6:  CALL   1500
....................                write_eeprom(18,Ttrabajo[2]); 
077CA:  CLRF   FAA
077CC:  MOVLW  12
077CE:  MOVWF  FA9
077D0:  MOVFF  505,FA8
077D4:  BCF    FA6.6
077D6:  BCF    FA6.7
077D8:  BSF    FA6.2
077DA:  MOVF   FF2,W
077DC:  MOVWF  00
077DE:  BCF    FF2.7
077E0:  MOVLB  F
077E2:  MOVLW  55
077E4:  MOVWF  FA7
077E6:  MOVLW  AA
077E8:  MOVWF  FA7
077EA:  BSF    FA6.1
077EC:  BTFSC  FA6.1
077EE:  BRA    77EC
077F0:  BCF    FA6.2
077F2:  MOVF   00,W
077F4:  IORWF  FF2,F
....................                delay_ms(20); 
077F6:  MOVLW  14
077F8:  MOVLB  5
077FA:  MOVWF  xF7
077FC:  MOVLB  0
077FE:  CALL   1500
....................                write_eeprom(19,Ttrabajo[3]); 
07802:  CLRF   FAA
07804:  MOVLW  13
07806:  MOVWF  FA9
07808:  MOVFF  506,FA8
0780C:  BCF    FA6.6
0780E:  BCF    FA6.7
07810:  BSF    FA6.2
07812:  MOVF   FF2,W
07814:  MOVWF  00
07816:  BCF    FF2.7
07818:  MOVLB  F
0781A:  MOVLW  55
0781C:  MOVWF  FA7
0781E:  MOVLW  AA
07820:  MOVWF  FA7
07822:  BSF    FA6.1
07824:  BTFSC  FA6.1
07826:  BRA    7824
07828:  BCF    FA6.2
0782A:  MOVF   00,W
0782C:  IORWF  FF2,F
....................                delay_ms(20); 
0782E:  MOVLW  14
07830:  MOVLB  5
07832:  MOVWF  xF7
07834:  MOVLB  0
07836:  CALL   1500
....................                glcd_init(ON);             //Inicializa la glcd 
0783A:  MOVLW  01
0783C:  MOVLB  5
0783E:  MOVWF  xE3
07840:  MOVLB  0
07842:  CALL   16F2
....................                glcd_fillScreen(OFF);      //Limpia la pantalla 
07846:  MOVLB  5
07848:  CLRF   xEB
0784A:  MOVLB  0
0784C:  CALL   15E0
....................                glcd_update();   
07850:  CALL   163A
....................             } 
....................             VelocidadMotor(VelMotor); 
07854:  MOVFF  5DA,5E3
07858:  MOVLB  0
0785A:  CALL   1528
....................          }else{ 
0785E:  BRA    79FC
07860:  MOVLB  4
....................             Filtro_Downflow=0; 
07862:  MOVLB  5
07864:  CLRF   x1A
07866:  CLRF   x19
07868:  CLRF   x18
0786A:  CLRF   x17
....................             glcd_rect(102, 45, 126, 62, YES, OFF);tiempo_trabajo=0;VelocidadMotor(0); 
0786C:  MOVLW  66
0786E:  MOVWF  xFC
07870:  MOVLW  2D
07872:  MOVWF  xFD
07874:  MOVLW  7E
07876:  MOVWF  xFE
07878:  MOVLW  3E
0787A:  MOVWF  xFF
0787C:  MOVLW  01
0787E:  MOVLB  6
07880:  MOVWF  x00
07882:  CLRF   x01
07884:  MOVLB  0
07886:  CALL   4CAA
0788A:  MOVLB  4
0788C:  BCF    x2E.5
0788E:  MOVLB  5
07890:  CLRF   xE3
07892:  MOVLB  0
07894:  CALL   1528
....................             if(guardatrabajo==0){ 
07898:  MOVLB  4
0789A:  BTFSC  x2F.3
0789C:  BRA    79FE
....................                guardatrabajo=1; 
0789E:  BSF    x2F.3
....................                write_eeprom(33,make8(minutos_trabajo,0)); 
078A0:  MOVFF  4E7,5E3
078A4:  CLRF   FAA
078A6:  MOVLW  21
078A8:  MOVWF  FA9
078AA:  MOVFF  5E3,FA8
078AE:  BCF    FA6.6
078B0:  BCF    FA6.7
078B2:  BSF    FA6.2
078B4:  MOVF   FF2,W
078B6:  MOVWF  00
078B8:  BCF    FF2.7
078BA:  MOVLB  F
078BC:  MOVLW  55
078BE:  MOVWF  FA7
078C0:  MOVLW  AA
078C2:  MOVWF  FA7
078C4:  BSF    FA6.1
078C6:  BTFSC  FA6.1
078C8:  BRA    78C6
078CA:  BCF    FA6.2
078CC:  MOVF   00,W
078CE:  IORWF  FF2,F
....................                delay_ms(20); 
078D0:  MOVLW  14
078D2:  MOVLB  5
078D4:  MOVWF  xF7
078D6:  MOVLB  0
078D8:  CALL   1500
....................                write_eeprom(34,make8(minutos_trabajo,1)); 
078DC:  MOVFF  4E8,5E3
078E0:  CLRF   FAA
078E2:  MOVLW  22
078E4:  MOVWF  FA9
078E6:  MOVFF  5E3,FA8
078EA:  BCF    FA6.6
078EC:  BCF    FA6.7
078EE:  BSF    FA6.2
078F0:  MOVF   FF2,W
078F2:  MOVWF  00
078F4:  BCF    FF2.7
078F6:  MOVLB  F
078F8:  MOVLW  55
078FA:  MOVWF  FA7
078FC:  MOVLW  AA
078FE:  MOVWF  FA7
07900:  BSF    FA6.1
07902:  BTFSC  FA6.1
07904:  BRA    7902
07906:  BCF    FA6.2
07908:  MOVF   00,W
0790A:  IORWF  FF2,F
....................                delay_ms(20); 
0790C:  MOVLW  14
0790E:  MOVLB  5
07910:  MOVWF  xF7
07912:  MOVLB  0
07914:  CALL   1500
....................                write_eeprom(16,Ttrabajo[0]); 
07918:  CLRF   FAA
0791A:  MOVLW  10
0791C:  MOVWF  FA9
0791E:  MOVFF  503,FA8
07922:  BCF    FA6.6
07924:  BCF    FA6.7
07926:  BSF    FA6.2
07928:  MOVF   FF2,W
0792A:  MOVWF  00
0792C:  BCF    FF2.7
0792E:  MOVLB  F
07930:  MOVLW  55
07932:  MOVWF  FA7
07934:  MOVLW  AA
07936:  MOVWF  FA7
07938:  BSF    FA6.1
0793A:  BTFSC  FA6.1
0793C:  BRA    793A
0793E:  BCF    FA6.2
07940:  MOVF   00,W
07942:  IORWF  FF2,F
....................                delay_ms(20); 
07944:  MOVLW  14
07946:  MOVLB  5
07948:  MOVWF  xF7
0794A:  MOVLB  0
0794C:  CALL   1500
....................                write_eeprom(17,Ttrabajo[1]); 
07950:  CLRF   FAA
07952:  MOVLW  11
07954:  MOVWF  FA9
07956:  MOVFF  504,FA8
0795A:  BCF    FA6.6
0795C:  BCF    FA6.7
0795E:  BSF    FA6.2
07960:  MOVF   FF2,W
07962:  MOVWF  00
07964:  BCF    FF2.7
07966:  MOVLB  F
07968:  MOVLW  55
0796A:  MOVWF  FA7
0796C:  MOVLW  AA
0796E:  MOVWF  FA7
07970:  BSF    FA6.1
07972:  BTFSC  FA6.1
07974:  BRA    7972
07976:  BCF    FA6.2
07978:  MOVF   00,W
0797A:  IORWF  FF2,F
....................                delay_ms(20); 
0797C:  MOVLW  14
0797E:  MOVLB  5
07980:  MOVWF  xF7
07982:  MOVLB  0
07984:  CALL   1500
....................                write_eeprom(18,Ttrabajo[2]); 
07988:  CLRF   FAA
0798A:  MOVLW  12
0798C:  MOVWF  FA9
0798E:  MOVFF  505,FA8
07992:  BCF    FA6.6
07994:  BCF    FA6.7
07996:  BSF    FA6.2
07998:  MOVF   FF2,W
0799A:  MOVWF  00
0799C:  BCF    FF2.7
0799E:  MOVLB  F
079A0:  MOVLW  55
079A2:  MOVWF  FA7
079A4:  MOVLW  AA
079A6:  MOVWF  FA7
079A8:  BSF    FA6.1
079AA:  BTFSC  FA6.1
079AC:  BRA    79AA
079AE:  BCF    FA6.2
079B0:  MOVF   00,W
079B2:  IORWF  FF2,F
....................                delay_ms(20); 
079B4:  MOVLW  14
079B6:  MOVLB  5
079B8:  MOVWF  xF7
079BA:  MOVLB  0
079BC:  CALL   1500
....................                write_eeprom(19,Ttrabajo[3]); 
079C0:  CLRF   FAA
079C2:  MOVLW  13
079C4:  MOVWF  FA9
079C6:  MOVFF  506,FA8
079CA:  BCF    FA6.6
079CC:  BCF    FA6.7
079CE:  BSF    FA6.2
079D0:  MOVF   FF2,W
079D2:  MOVWF  00
079D4:  BCF    FF2.7
079D6:  MOVLB  F
079D8:  MOVLW  55
079DA:  MOVWF  FA7
079DC:  MOVLW  AA
079DE:  MOVWF  FA7
079E0:  BSF    FA6.1
079E2:  BTFSC  FA6.1
079E4:  BRA    79E2
079E6:  BCF    FA6.2
079E8:  MOVF   00,W
079EA:  IORWF  FF2,F
....................                delay_ms(20); 
079EC:  MOVLW  14
079EE:  MOVLB  5
079F0:  MOVWF  xF7
079F2:  MOVLB  0
079F4:  CALL   1500
....................                //glcd_init(ON);             //Inicializa la glcd 
....................                //glcd_fillScreen(OFF);      //Limpia la pantalla 
....................                glcd_update();   
079F8:  CALL   163A
079FC:  MOVLB  4
....................             } 
....................          } 
....................           
....................       if(flag_luz==1 && flag_uv==0){ 
079FE:  BTFSS  x2E.1
07A00:  BRA    7A1A
07A02:  BTFSC  x2E.7
07A04:  BRA    7A1A
....................          glcd_imagen(3);LuzBlanca_on; 
07A06:  MOVLW  03
07A08:  MOVLB  5
07A0A:  MOVWF  xE3
07A0C:  MOVLB  0
07A0E:  CALL   5DBE
07A12:  BSF    F8B.0
07A14:  BCF    F94.0
....................       }else{ 
07A16:  BRA    7A3E
07A18:  MOVLB  4
....................          glcd_rect(102, 14, 126, 28, YES, OFF);LuzBlanca_off; 
07A1A:  MOVLW  66
07A1C:  MOVLB  5
07A1E:  MOVWF  xFC
07A20:  MOVLW  0E
07A22:  MOVWF  xFD
07A24:  MOVLW  7E
07A26:  MOVWF  xFE
07A28:  MOVLW  1C
07A2A:  MOVWF  xFF
07A2C:  MOVLW  01
07A2E:  MOVLB  6
07A30:  MOVWF  x00
07A32:  CLRF   x01
07A34:  MOVLB  0
07A36:  CALL   4CAA
07A3A:  BCF    F8B.0
07A3C:  BCF    F94.0
....................       } 
....................           
....................       if(flag_uv){ 
07A3E:  MOVLB  4
07A40:  BTFSS  x2E.7
07A42:  BRA    7B94
....................          tiempo_uv=1; 
07A44:  BSF    x2F.0
....................          LuzUV_on;flag_luz=0;flag_blower=0; 
07A46:  BSF    F8B.1
07A48:  BCF    F94.1
07A4A:  BCF    x2E.1
07A4C:  BCF    x2D.7
....................          glcd_text57(105, 30, UV, 2, ON); 
07A4E:  MOVLW  69
07A50:  MOVLB  5
07A52:  MOVWF  xFC
07A54:  MOVLW  1E
07A56:  MOVWF  xFD
07A58:  MOVLW  04
07A5A:  MOVWF  xFF
07A5C:  MOVLW  6A
07A5E:  MOVWF  xFE
07A60:  MOVLW  02
07A62:  MOVLB  6
07A64:  MOVWF  x00
07A66:  MOVLW  01
07A68:  MOVWF  x01
07A6A:  MOVLB  0
07A6C:  CALL   1856
....................          if(guardauv==1){ 
07A70:  MOVLB  4
07A72:  BTFSS  x2F.1
07A74:  BRA    7B92
....................             guardauv=0; 
07A76:  BCF    x2F.1
....................             write_eeprom(31,minutos_uv); 
07A78:  CLRF   FAA
07A7A:  MOVLW  1F
07A7C:  MOVWF  FA9
07A7E:  MOVFF  4E5,FA8
07A82:  BCF    FA6.6
07A84:  BCF    FA6.7
07A86:  BSF    FA6.2
07A88:  MOVF   FF2,W
07A8A:  MOVWF  00
07A8C:  BCF    FF2.7
07A8E:  MOVLB  F
07A90:  MOVLW  55
07A92:  MOVWF  FA7
07A94:  MOVLW  AA
07A96:  MOVWF  FA7
07A98:  BSF    FA6.1
07A9A:  BTFSC  FA6.1
07A9C:  BRA    7A9A
07A9E:  BCF    FA6.2
07AA0:  MOVF   00,W
07AA2:  IORWF  FF2,F
....................             delay_ms(20); 
07AA4:  MOVLW  14
07AA6:  MOVLB  5
07AA8:  MOVWF  xF7
07AAA:  MOVLB  0
07AAC:  CALL   1500
....................             write_eeprom(12,Tuv[0]); 
07AB0:  CLRF   FAA
07AB2:  MOVLW  0C
07AB4:  MOVWF  FA9
07AB6:  MOVFF  4F7,FA8
07ABA:  BCF    FA6.6
07ABC:  BCF    FA6.7
07ABE:  BSF    FA6.2
07AC0:  MOVF   FF2,W
07AC2:  MOVWF  00
07AC4:  BCF    FF2.7
07AC6:  MOVLB  F
07AC8:  MOVLW  55
07ACA:  MOVWF  FA7
07ACC:  MOVLW  AA
07ACE:  MOVWF  FA7
07AD0:  BSF    FA6.1
07AD2:  BTFSC  FA6.1
07AD4:  BRA    7AD2
07AD6:  BCF    FA6.2
07AD8:  MOVF   00,W
07ADA:  IORWF  FF2,F
....................             delay_ms(20); 
07ADC:  MOVLW  14
07ADE:  MOVLB  5
07AE0:  MOVWF  xF7
07AE2:  MOVLB  0
07AE4:  CALL   1500
....................             write_eeprom(13,Tuv[1]); 
07AE8:  CLRF   FAA
07AEA:  MOVLW  0D
07AEC:  MOVWF  FA9
07AEE:  MOVFF  4F8,FA8
07AF2:  BCF    FA6.6
07AF4:  BCF    FA6.7
07AF6:  BSF    FA6.2
07AF8:  MOVF   FF2,W
07AFA:  MOVWF  00
07AFC:  BCF    FF2.7
07AFE:  MOVLB  F
07B00:  MOVLW  55
07B02:  MOVWF  FA7
07B04:  MOVLW  AA
07B06:  MOVWF  FA7
07B08:  BSF    FA6.1
07B0A:  BTFSC  FA6.1
07B0C:  BRA    7B0A
07B0E:  BCF    FA6.2
07B10:  MOVF   00,W
07B12:  IORWF  FF2,F
....................             delay_ms(20); 
07B14:  MOVLW  14
07B16:  MOVLB  5
07B18:  MOVWF  xF7
07B1A:  MOVLB  0
07B1C:  CALL   1500
....................             write_eeprom(14,Tuv[2]); 
07B20:  CLRF   FAA
07B22:  MOVLW  0E
07B24:  MOVWF  FA9
07B26:  MOVFF  4F9,FA8
07B2A:  BCF    FA6.6
07B2C:  BCF    FA6.7
07B2E:  BSF    FA6.2
07B30:  MOVF   FF2,W
07B32:  MOVWF  00
07B34:  BCF    FF2.7
07B36:  MOVLB  F
07B38:  MOVLW  55
07B3A:  MOVWF  FA7
07B3C:  MOVLW  AA
07B3E:  MOVWF  FA7
07B40:  BSF    FA6.1
07B42:  BTFSC  FA6.1
07B44:  BRA    7B42
07B46:  BCF    FA6.2
07B48:  MOVF   00,W
07B4A:  IORWF  FF2,F
....................             delay_ms(20); 
07B4C:  MOVLW  14
07B4E:  MOVLB  5
07B50:  MOVWF  xF7
07B52:  MOVLB  0
07B54:  CALL   1500
....................             write_eeprom(15,Tuv[3]); 
07B58:  CLRF   FAA
07B5A:  MOVLW  0F
07B5C:  MOVWF  FA9
07B5E:  MOVFF  4FA,FA8
07B62:  BCF    FA6.6
07B64:  BCF    FA6.7
07B66:  BSF    FA6.2
07B68:  MOVF   FF2,W
07B6A:  MOVWF  00
07B6C:  BCF    FF2.7
07B6E:  MOVLB  F
07B70:  MOVLW  55
07B72:  MOVWF  FA7
07B74:  MOVLW  AA
07B76:  MOVWF  FA7
07B78:  BSF    FA6.1
07B7A:  BTFSC  FA6.1
07B7C:  BRA    7B7A
07B7E:  BCF    FA6.2
07B80:  MOVF   00,W
07B82:  IORWF  FF2,F
....................             delay_ms(20); 
07B84:  MOVLW  14
07B86:  MOVLB  5
07B88:  MOVWF  xF7
07B8A:  MOVLB  0
07B8C:  CALL   1500
07B90:  MOVLB  4
....................          }                
....................       }else{ 
07B92:  BRA    7CDC
....................          LuzUV_off;tiempo_uv=0; 
07B94:  BCF    F8B.1
07B96:  BCF    F94.1
07B98:  BCF    x2F.0
....................          glcd_rect(102, 30, 126, 44, YES, OFF); 
07B9A:  MOVLW  66
07B9C:  MOVLB  5
07B9E:  MOVWF  xFC
07BA0:  MOVLW  1E
07BA2:  MOVWF  xFD
07BA4:  MOVLW  7E
07BA6:  MOVWF  xFE
07BA8:  MOVLW  2C
07BAA:  MOVWF  xFF
07BAC:  MOVLW  01
07BAE:  MOVLB  6
07BB0:  MOVWF  x00
07BB2:  CLRF   x01
07BB4:  MOVLB  0
07BB6:  CALL   4CAA
....................          if(guardauv==0){ 
07BBA:  MOVLB  4
07BBC:  BTFSC  x2F.1
07BBE:  BRA    7CDC
....................             guardauv=1; 
07BC0:  BSF    x2F.1
....................             write_eeprom(31,minutos_uv); 
07BC2:  CLRF   FAA
07BC4:  MOVLW  1F
07BC6:  MOVWF  FA9
07BC8:  MOVFF  4E5,FA8
07BCC:  BCF    FA6.6
07BCE:  BCF    FA6.7
07BD0:  BSF    FA6.2
07BD2:  MOVF   FF2,W
07BD4:  MOVWF  00
07BD6:  BCF    FF2.7
07BD8:  MOVLB  F
07BDA:  MOVLW  55
07BDC:  MOVWF  FA7
07BDE:  MOVLW  AA
07BE0:  MOVWF  FA7
07BE2:  BSF    FA6.1
07BE4:  BTFSC  FA6.1
07BE6:  BRA    7BE4
07BE8:  BCF    FA6.2
07BEA:  MOVF   00,W
07BEC:  IORWF  FF2,F
....................             delay_ms(20); 
07BEE:  MOVLW  14
07BF0:  MOVLB  5
07BF2:  MOVWF  xF7
07BF4:  MOVLB  0
07BF6:  CALL   1500
....................             write_eeprom(12,Tuv[0]); 
07BFA:  CLRF   FAA
07BFC:  MOVLW  0C
07BFE:  MOVWF  FA9
07C00:  MOVFF  4F7,FA8
07C04:  BCF    FA6.6
07C06:  BCF    FA6.7
07C08:  BSF    FA6.2
07C0A:  MOVF   FF2,W
07C0C:  MOVWF  00
07C0E:  BCF    FF2.7
07C10:  MOVLB  F
07C12:  MOVLW  55
07C14:  MOVWF  FA7
07C16:  MOVLW  AA
07C18:  MOVWF  FA7
07C1A:  BSF    FA6.1
07C1C:  BTFSC  FA6.1
07C1E:  BRA    7C1C
07C20:  BCF    FA6.2
07C22:  MOVF   00,W
07C24:  IORWF  FF2,F
....................             delay_ms(20); 
07C26:  MOVLW  14
07C28:  MOVLB  5
07C2A:  MOVWF  xF7
07C2C:  MOVLB  0
07C2E:  CALL   1500
....................             write_eeprom(13,Tuv[1]); 
07C32:  CLRF   FAA
07C34:  MOVLW  0D
07C36:  MOVWF  FA9
07C38:  MOVFF  4F8,FA8
07C3C:  BCF    FA6.6
07C3E:  BCF    FA6.7
07C40:  BSF    FA6.2
07C42:  MOVF   FF2,W
07C44:  MOVWF  00
07C46:  BCF    FF2.7
07C48:  MOVLB  F
07C4A:  MOVLW  55
07C4C:  MOVWF  FA7
07C4E:  MOVLW  AA
07C50:  MOVWF  FA7
07C52:  BSF    FA6.1
07C54:  BTFSC  FA6.1
07C56:  BRA    7C54
07C58:  BCF    FA6.2
07C5A:  MOVF   00,W
07C5C:  IORWF  FF2,F
....................             delay_ms(20); 
07C5E:  MOVLW  14
07C60:  MOVLB  5
07C62:  MOVWF  xF7
07C64:  MOVLB  0
07C66:  CALL   1500
....................             write_eeprom(14,Tuv[2]); 
07C6A:  CLRF   FAA
07C6C:  MOVLW  0E
07C6E:  MOVWF  FA9
07C70:  MOVFF  4F9,FA8
07C74:  BCF    FA6.6
07C76:  BCF    FA6.7
07C78:  BSF    FA6.2
07C7A:  MOVF   FF2,W
07C7C:  MOVWF  00
07C7E:  BCF    FF2.7
07C80:  MOVLB  F
07C82:  MOVLW  55
07C84:  MOVWF  FA7
07C86:  MOVLW  AA
07C88:  MOVWF  FA7
07C8A:  BSF    FA6.1
07C8C:  BTFSC  FA6.1
07C8E:  BRA    7C8C
07C90:  BCF    FA6.2
07C92:  MOVF   00,W
07C94:  IORWF  FF2,F
....................             delay_ms(20); 
07C96:  MOVLW  14
07C98:  MOVLB  5
07C9A:  MOVWF  xF7
07C9C:  MOVLB  0
07C9E:  CALL   1500
....................             write_eeprom(15,Tuv[3]); 
07CA2:  CLRF   FAA
07CA4:  MOVLW  0F
07CA6:  MOVWF  FA9
07CA8:  MOVFF  4FA,FA8
07CAC:  BCF    FA6.6
07CAE:  BCF    FA6.7
07CB0:  BSF    FA6.2
07CB2:  MOVF   FF2,W
07CB4:  MOVWF  00
07CB6:  BCF    FF2.7
07CB8:  MOVLB  F
07CBA:  MOVLW  55
07CBC:  MOVWF  FA7
07CBE:  MOVLW  AA
07CC0:  MOVWF  FA7
07CC2:  BSF    FA6.1
07CC4:  BTFSC  FA6.1
07CC6:  BRA    7CC4
07CC8:  BCF    FA6.2
07CCA:  MOVF   00,W
07CCC:  IORWF  FF2,F
....................             delay_ms(20); 
07CCE:  MOVLW  14
07CD0:  MOVLB  5
07CD2:  MOVWF  xF7
07CD4:  MOVLB  0
07CD6:  CALL   1500
07CDA:  MOVLB  4
....................          } 
....................       } 
....................        
....................       if(tiempocumplido){ 
07CDC:  BTFSS  x2F.2
07CDE:  BRA    7D48
....................          tiempo_uv=0;flag_uv=0;glcd_rect(102, 30, 126, 44, YES, OFF); 
07CE0:  BCF    x2F.0
07CE2:  BCF    x2E.7
07CE4:  MOVLW  66
07CE6:  MOVLB  5
07CE8:  MOVWF  xFC
07CEA:  MOVLW  1E
07CEC:  MOVWF  xFD
07CEE:  MOVLW  7E
07CF0:  MOVWF  xFE
07CF2:  MOVLW  2C
07CF4:  MOVWF  xFF
07CF6:  MOVLW  01
07CF8:  MOVLB  6
07CFA:  MOVWF  x00
07CFC:  CLRF   x01
07CFE:  MOVLB  0
07D00:  CALL   4CAA
....................          Tempouv[0]=Tempouvp[0];Tempouv[1]=Tempouvp[1];Tempouv[2]=Tempouvp[2];Tempouv[3]=Tempouvp[3];tiempocumplido=0; 
07D04:  MOVFF  4FB,4FF
07D08:  MOVFF  4FC,500
07D0C:  MOVFF  4FD,501
07D10:  MOVFF  4FE,502
07D14:  MOVLB  4
07D16:  BCF    x2F.2
....................          for(i=0;i<3;i++){ 
07D18:  MOVLB  5
07D1A:  CLRF   xD3
07D1C:  MOVF   xD3,W
07D1E:  SUBLW  02
07D20:  BNC   7D46
....................             Alarma_on; 
07D22:  BSF    F8B.7
07D24:  BCF    F94.7
....................             delay_ms(100); 
07D26:  MOVLW  64
07D28:  MOVWF  xF7
07D2A:  MOVLB  0
07D2C:  CALL   1500
....................             Alarma_off; 
07D30:  BCF    F8B.7
07D32:  BCF    F94.7
....................             delay_ms(100); 
07D34:  MOVLW  64
07D36:  MOVLB  5
07D38:  MOVWF  xF7
07D3A:  MOVLB  0
07D3C:  CALL   1500
....................          } 
07D40:  MOVLB  5
07D42:  INCF   xD3,F
07D44:  BRA    7D1C
07D46:  MOVLB  4
....................       } 
....................              
....................       if(RIGHT){//Si oprime boton de Blower. 
07D48:  BSF    F96.1
07D4A:  BTFSC  F84.1
07D4C:  BRA    7D66
....................          if(Flanco3 == 0){ 
07D4E:  BTFSC  x2D.3
07D50:  BRA    7D64
....................             Flanco3 = 1;delay_ms(3);flag_blower=!flag_blower; 
07D52:  BSF    x2D.3
07D54:  MOVLW  03
07D56:  MOVLB  5
07D58:  MOVWF  xF7
07D5A:  MOVLB  0
07D5C:  CALL   1500
07D60:  MOVLB  4
07D62:  BTG    x2D.7
....................          } 
....................       }else{ 
07D64:  BRA    7D68
....................          Flanco3 = 0; 
07D66:  BCF    x2D.3
....................       } 
....................        
....................       if(LEFT){//Si oprime boton de UV. 
07D68:  BSF    F96.2
07D6A:  BTFSC  F84.2
07D6C:  BRA    7D86
....................          if(Flanco4 == 0){ 
07D6E:  BTFSC  x2D.4
07D70:  BRA    7D84
....................             Flanco4 = 1;delay_ms(3);flag_uv=!flag_uv; 
07D72:  BSF    x2D.4
07D74:  MOVLW  03
07D76:  MOVLB  5
07D78:  MOVWF  xF7
07D7A:  MOVLB  0
07D7C:  CALL   1500
07D80:  MOVLB  4
07D82:  BTG    x2E.7
....................          } 
....................       }else{ 
07D84:  BRA    7D88
....................          Flanco4 = 0; 
07D86:  BCF    x2D.4
....................       } 
....................              
....................       if(DOWN){//Si oprime boton de Luz Blanca. 
07D88:  BSF    F96.0
07D8A:  BTFSC  F84.0
07D8C:  BRA    7DA6
....................          if(Flanco5 == 0){ 
07D8E:  BTFSC  x2D.5
07D90:  BRA    7DA4
....................             Flanco5 = 1;delay_ms(3);flag_luz=!flag_luz; 
07D92:  BSF    x2D.5
07D94:  MOVLW  03
07D96:  MOVLB  5
07D98:  MOVWF  xF7
07D9A:  MOVLB  0
07D9C:  CALL   1500
07DA0:  MOVLB  4
07DA2:  BTG    x2E.1
....................          } 
....................       }else{ 
07DA4:  BRA    7DA8
....................          Flanco5 = 0; 
07DA6:  BCF    x2D.5
....................       } 
....................        
....................       if(UP){//Si oprime boton de Toma. 
07DA8:  BSF    F92.5
07DAA:  BTFSC  F80.5
07DAC:  BRA    7DF2
....................          delay_ms(20); 
07DAE:  MOVLW  14
07DB0:  MOVLB  5
07DB2:  MOVWF  xF7
07DB4:  MOVLB  0
07DB6:  CALL   1500
....................          if(UP){//Si oprime boton de Toma. 
07DBA:  BSF    F92.5
07DBC:  BTFSC  F80.5
07DBE:  BRA    7DF0
....................             delay_ms(5);Menu=3;//glcd_fillScreen(OFF); 
07DC0:  MOVLW  05
07DC2:  MOVLB  5
07DC4:  MOVWF  xF7
07DC6:  MOVLB  0
07DC8:  CALL   1500
07DCC:  MOVLW  03
07DCE:  MOVLB  4
07DD0:  MOVWF  xCD
....................             glcd_init(ON);             //Inicializa la glcd 
07DD2:  MOVLW  01
07DD4:  MOVLB  5
07DD6:  MOVWF  xE3
07DD8:  MOVLB  0
07DDA:  CALL   16F2
....................             glcd_fillScreen(OFF);      //Limpia la pantalla 
07DDE:  MOVLB  5
07DE0:  CLRF   xEB
07DE2:  MOVLB  0
07DE4:  CALL   15E0
....................             glcd_update();   
07DE8:  CALL   163A
....................             LuzBlanca_off; 
07DEC:  BCF    F8B.0
07DEE:  BCF    F94.0
07DF0:  MOVLB  4
....................          } 
....................       } 
....................              
....................     } 
.................... //_--------------------------------------------------------------------------------------------------------------------------------------------------------        
....................  
.................... //_-------------------------------------------------------------------------------------------------------------------------------------------------------- 
....................       if(Menu==3){ //Menu Principal. 
07DF2:  MOVF   xCD,W
07DF4:  SUBLW  03
07DF6:  BTFSS  FD8.2
07DF8:  BRA    80E0
....................              
....................       strcpy(Menus.Letra,"Menu"); 
07DFA:  MOVLW  04
07DFC:  MOVWF  FEA
07DFE:  MOVLW  17
07E00:  MOVWF  FE9
07E02:  MOVFF  FF2,5E3
07E06:  BCF    FF2.7
07E08:  MOVLW  00
07E0A:  MOVLB  0
07E0C:  CALL   1070
07E10:  TBLRD*-
07E12:  TBLRD*+
07E14:  MOVF   FF5,W
07E16:  MOVWF  FEE
07E18:  IORLW  00
07E1A:  BNZ   7E12
07E1C:  MOVLB  5
07E1E:  BTFSC  xE3.7
07E20:  BSF    FF2.7
....................       displayMenu(Menus.Letra,40,0,1,2); 
07E22:  MOVLW  04
07E24:  MOVWF  xEC
07E26:  MOVLW  17
07E28:  MOVWF  xEB
07E2A:  MOVLW  28
07E2C:  MOVWF  xED
07E2E:  CLRF   xEE
07E30:  MOVLW  01
07E32:  MOVWF  xEF
07E34:  MOVLW  02
07E36:  MOVWF  xF0
07E38:  MOVLB  0
07E3A:  CALL   4E36
....................        
....................       if(Opcion==1){ 
07E3E:  MOVLB  4
07E40:  DECFSZ xCF,W
07E42:  BRA    7E8A
....................          strcpy(Menus.Letra,"Ajustes"); 
07E44:  MOVLW  04
07E46:  MOVWF  FEA
07E48:  MOVLW  17
07E4A:  MOVWF  FE9
07E4C:  MOVFF  FF2,5E3
07E50:  BCF    FF2.7
07E52:  MOVLW  00
07E54:  MOVLB  0
07E56:  CALL   1094
07E5A:  TBLRD*-
07E5C:  TBLRD*+
07E5E:  MOVF   FF5,W
07E60:  MOVWF  FEE
07E62:  IORLW  00
07E64:  BNZ   7E5C
07E66:  MOVLB  5
07E68:  BTFSC  xE3.7
07E6A:  BSF    FF2.7
....................          displayMenu(Menus.Letra,0,19,1,1); 
07E6C:  MOVLW  04
07E6E:  MOVWF  xEC
07E70:  MOVLW  17
07E72:  MOVWF  xEB
07E74:  CLRF   xED
07E76:  MOVLW  13
07E78:  MOVWF  xEE
07E7A:  MOVLW  01
07E7C:  MOVWF  xEF
07E7E:  MOVWF  xF0
07E80:  MOVLB  0
07E82:  CALL   4E36
....................       }else{ 
07E86:  BRA    7ECC
07E88:  MOVLB  4
....................          strcpy(Menus.Letra,"Ajustes"); 
07E8A:  MOVLW  04
07E8C:  MOVWF  FEA
07E8E:  MOVLW  17
07E90:  MOVWF  FE9
07E92:  MOVFF  FF2,5E3
07E96:  BCF    FF2.7
07E98:  MOVLW  00
07E9A:  MOVLB  0
07E9C:  CALL   1094
07EA0:  TBLRD*-
07EA2:  TBLRD*+
07EA4:  MOVF   FF5,W
07EA6:  MOVWF  FEE
07EA8:  IORLW  00
07EAA:  BNZ   7EA2
07EAC:  MOVLB  5
07EAE:  BTFSC  xE3.7
07EB0:  BSF    FF2.7
....................          displayMenu(Menus.Letra,0,19,0,1); 
07EB2:  MOVLW  04
07EB4:  MOVWF  xEC
07EB6:  MOVLW  17
07EB8:  MOVWF  xEB
07EBA:  CLRF   xED
07EBC:  MOVLW  13
07EBE:  MOVWF  xEE
07EC0:  CLRF   xEF
07EC2:  MOVLW  01
07EC4:  MOVWF  xF0
07EC6:  MOVLB  0
07EC8:  CALL   4E36
....................       } 
....................           
....................       if(Opcion==2){ 
07ECC:  MOVLB  4
07ECE:  MOVF   xCF,W
07ED0:  SUBLW  02
07ED2:  BNZ   7F1A
....................          strcpy(Menus.Letra,"Cambio de Clave"); 
07ED4:  MOVLW  04
07ED6:  MOVWF  FEA
07ED8:  MOVLW  17
07EDA:  MOVWF  FE9
07EDC:  MOVFF  FF2,5E3
07EE0:  BCF    FF2.7
07EE2:  MOVLW  00
07EE4:  MOVLB  0
07EE6:  CALL   10BA
07EEA:  TBLRD*-
07EEC:  TBLRD*+
07EEE:  MOVF   FF5,W
07EF0:  MOVWF  FEE
07EF2:  IORLW  00
07EF4:  BNZ   7EEC
07EF6:  MOVLB  5
07EF8:  BTFSC  xE3.7
07EFA:  BSF    FF2.7
....................          displayMenu(Menus.Letra,0,35,1,1); 
07EFC:  MOVLW  04
07EFE:  MOVWF  xEC
07F00:  MOVLW  17
07F02:  MOVWF  xEB
07F04:  CLRF   xED
07F06:  MOVLW  23
07F08:  MOVWF  xEE
07F0A:  MOVLW  01
07F0C:  MOVWF  xEF
07F0E:  MOVWF  xF0
07F10:  MOVLB  0
07F12:  CALL   4E36
....................       }else{ 
07F16:  BRA    7F5C
07F18:  MOVLB  4
....................          strcpy(Menus.Letra,"Cambio de Clave"); 
07F1A:  MOVLW  04
07F1C:  MOVWF  FEA
07F1E:  MOVLW  17
07F20:  MOVWF  FE9
07F22:  MOVFF  FF2,5E3
07F26:  BCF    FF2.7
07F28:  MOVLW  00
07F2A:  MOVLB  0
07F2C:  CALL   10BA
07F30:  TBLRD*-
07F32:  TBLRD*+
07F34:  MOVF   FF5,W
07F36:  MOVWF  FEE
07F38:  IORLW  00
07F3A:  BNZ   7F32
07F3C:  MOVLB  5
07F3E:  BTFSC  xE3.7
07F40:  BSF    FF2.7
....................          displayMenu(Menus.Letra,0,35,0,1); 
07F42:  MOVLW  04
07F44:  MOVWF  xEC
07F46:  MOVLW  17
07F48:  MOVWF  xEB
07F4A:  CLRF   xED
07F4C:  MOVLW  23
07F4E:  MOVWF  xEE
07F50:  CLRF   xEF
07F52:  MOVLW  01
07F54:  MOVWF  xF0
07F56:  MOVLB  0
07F58:  CALL   4E36
....................       } 
....................           
....................       if(Opcion==3){ 
07F5C:  MOVLB  4
07F5E:  MOVF   xCF,W
07F60:  SUBLW  03
07F62:  BNZ   7FAA
....................          strcpy(Menus.Letra,"Modo"); 
07F64:  MOVLW  04
07F66:  MOVWF  FEA
07F68:  MOVLW  17
07F6A:  MOVWF  FE9
07F6C:  MOVFF  FF2,5E3
07F70:  BCF    FF2.7
07F72:  MOVLW  00
07F74:  MOVLB  0
07F76:  CALL   10E8
07F7A:  TBLRD*-
07F7C:  TBLRD*+
07F7E:  MOVF   FF5,W
07F80:  MOVWF  FEE
07F82:  IORLW  00
07F84:  BNZ   7F7C
07F86:  MOVLB  5
07F88:  BTFSC  xE3.7
07F8A:  BSF    FF2.7
....................          displayMenu(Menus.Letra,0,51,1,1); 
07F8C:  MOVLW  04
07F8E:  MOVWF  xEC
07F90:  MOVLW  17
07F92:  MOVWF  xEB
07F94:  CLRF   xED
07F96:  MOVLW  33
07F98:  MOVWF  xEE
07F9A:  MOVLW  01
07F9C:  MOVWF  xEF
07F9E:  MOVWF  xF0
07FA0:  MOVLB  0
07FA2:  CALL   4E36
....................       }else{ 
07FA6:  BRA    7FEC
07FA8:  MOVLB  4
....................          strcpy(Menus.Letra,"Modo"); 
07FAA:  MOVLW  04
07FAC:  MOVWF  FEA
07FAE:  MOVLW  17
07FB0:  MOVWF  FE9
07FB2:  MOVFF  FF2,5E3
07FB6:  BCF    FF2.7
07FB8:  MOVLW  00
07FBA:  MOVLB  0
07FBC:  CALL   10E8
07FC0:  TBLRD*-
07FC2:  TBLRD*+
07FC4:  MOVF   FF5,W
07FC6:  MOVWF  FEE
07FC8:  IORLW  00
07FCA:  BNZ   7FC2
07FCC:  MOVLB  5
07FCE:  BTFSC  xE3.7
07FD0:  BSF    FF2.7
....................          displayMenu(Menus.Letra,0,51,0,1); 
07FD2:  MOVLW  04
07FD4:  MOVWF  xEC
07FD6:  MOVLW  17
07FD8:  MOVWF  xEB
07FDA:  CLRF   xED
07FDC:  MOVLW  33
07FDE:  MOVWF  xEE
07FE0:  CLRF   xEF
07FE2:  MOVLW  01
07FE4:  MOVWF  xF0
07FE6:  MOVLB  0
07FE8:  CALL   4E36
....................       } 
....................       glcd_update();  
07FEC:  CALL   163A
....................        
....................       if(w==0){ 
07FF0:  MOVLB  4
07FF2:  BTFSC  x2E.3
07FF4:  BRA    8010
....................          delay_ms(500);w=1; 
07FF6:  MOVLW  02
07FF8:  MOVLB  5
07FFA:  MOVWF  xE3
07FFC:  MOVLW  FA
07FFE:  MOVWF  xF7
08000:  MOVLB  0
08002:  CALL   1500
08006:  MOVLB  5
08008:  DECFSZ xE3,F
0800A:  BRA    7FFC
0800C:  MOVLB  4
0800E:  BSF    x2E.3
....................       } 
....................           
....................       if(UP){//Si oprime hacia arriba         
08010:  BSF    F92.5
08012:  BTFSC  F80.5
08014:  BRA    802E
....................          if(Flanco == 0){ 
08016:  BTFSC  x2D.0
08018:  BRA    802C
....................             Flanco = 1;delay_ms(30);Opcion--; 
0801A:  BSF    x2D.0
0801C:  MOVLW  1E
0801E:  MOVLB  5
08020:  MOVWF  xF7
08022:  MOVLB  0
08024:  CALL   1500
08028:  MOVLB  4
0802A:  DECF   xCF,F
....................          } 
....................       }else{ 
0802C:  BRA    8030
....................          Flanco = 0; 
0802E:  BCF    x2D.0
....................       } 
....................              
....................       if(DOWN){//Si oprime hacia abajo 
08030:  BSF    F96.0
08032:  BTFSC  F84.0
08034:  BRA    804E
....................          if(Flanco2 == 0){ 
08036:  BTFSC  x2D.2
08038:  BRA    804C
....................             Flanco2 = 1;delay_ms(30);Opcion++; 
0803A:  BSF    x2D.2
0803C:  MOVLW  1E
0803E:  MOVLB  5
08040:  MOVWF  xF7
08042:  MOVLB  0
08044:  CALL   1500
08048:  MOVLB  4
0804A:  INCF   xCF,F
....................          } 
....................       }else{ 
0804C:  BRA    8050
....................          Flanco2 = 0; 
0804E:  BCF    x2D.2
....................       } 
....................              
....................       if(RIGHT){//Si oprime SET 
08050:  BSF    F96.1
08052:  BTFSC  F84.1
08054:  BRA    809E
....................          if(Flanco1 == 0){ 
08056:  BTFSC  x2D.1
08058:  BRA    809C
....................             Flanco1 = 1;delay_ms(500);Menu=Opcion+3;Opcion=1;glcd_fillscreen(OFF);unidad=1; 
0805A:  BSF    x2D.1
0805C:  MOVLW  02
0805E:  MOVLB  5
08060:  MOVWF  xE3
08062:  MOVLW  FA
08064:  MOVWF  xF7
08066:  MOVLB  0
08068:  CALL   1500
0806C:  MOVLB  5
0806E:  DECFSZ xE3,F
08070:  BRA    8062
08072:  MOVLW  03
08074:  MOVLB  4
08076:  ADDWF  xCF,W
08078:  MOVWF  xCD
0807A:  MOVLW  01
0807C:  MOVWF  xCF
0807E:  MOVLB  5
08080:  CLRF   xEB
08082:  MOVLB  0
08084:  CALL   15E0
08088:  MOVLW  01
0808A:  MOVLB  4
0808C:  MOVWF  xCE
....................             Contrasena[0]=0;Contrasena[1]=0;Contrasena[2]=0;Contrasena[3]=0;n=0; 
0808E:  MOVLB  5
08090:  CLRF   x07
08092:  CLRF   x08
08094:  CLRF   x09
08096:  CLRF   x0A
08098:  MOVLB  4
0809A:  BCF    x2F.5
....................          } 
....................       }else{ 
0809C:  BRA    80A0
....................          Flanco1 = 0; 
0809E:  BCF    x2D.1
....................       } 
....................              
....................       if(LEFT){//Si oprime boton de Toma. 
080A0:  BSF    F96.2
080A2:  BTFSC  F84.2
080A4:  BRA    80CE
....................          delay_ms(700);Menu=2;glcd_fillscreen(OFF); 
080A6:  MOVLW  04
080A8:  MOVLB  5
080AA:  MOVWF  xE3
080AC:  MOVLW  AF
080AE:  MOVWF  xF7
080B0:  MOVLB  0
080B2:  CALL   1500
080B6:  MOVLB  5
080B8:  DECFSZ xE3,F
080BA:  BRA    80AC
080BC:  MOVLW  02
080BE:  MOVLB  4
080C0:  MOVWF  xCD
080C2:  MOVLB  5
080C4:  CLRF   xEB
080C6:  MOVLB  0
080C8:  CALL   15E0
080CC:  MOVLB  4
....................       } 
....................              
....................       if(Opcion>3) 
080CE:  MOVF   xCF,W
080D0:  SUBLW  03
080D2:  BC    80D8
....................          Opcion=1; 
080D4:  MOVLW  01
080D6:  MOVWF  xCF
....................       if(Opcion<1) 
080D8:  MOVF   xCF,F
080DA:  BNZ   80E0
....................          Opcion=3; 
080DC:  MOVLW  03
080DE:  MOVWF  xCF
....................     } 
.................... //_--------------------------------------------------------------------------------------------------------------------------------------------------------        
....................  
.................... //_-------------------------------------------------------------------------------------------------------------------------------------------------------- 
....................       if(Menu==4){ //Menu de Ajustes. 
080E0:  MOVF   xCD,W
080E2:  SUBLW  04
080E4:  BTFSS  FD8.2
080E6:  BRA    8306
....................        
....................       strcpy(Menus.Letra,"Ajustes"); 
080E8:  MOVLW  04
080EA:  MOVWF  FEA
080EC:  MOVLW  17
080EE:  MOVWF  FE9
080F0:  MOVFF  FF2,5E3
080F4:  BCF    FF2.7
080F6:  MOVLW  00
080F8:  MOVLB  0
080FA:  CALL   1094
080FE:  TBLRD*-
08100:  TBLRD*+
08102:  MOVF   FF5,W
08104:  MOVWF  FEE
08106:  IORLW  00
08108:  BNZ   8100
0810A:  MOVLB  5
0810C:  BTFSC  xE3.7
0810E:  BSF    FF2.7
....................       displayMenu(Menus.Letra,0,0,1,2); 
08110:  MOVLW  04
08112:  MOVWF  xEC
08114:  MOVLW  17
08116:  MOVWF  xEB
08118:  CLRF   xED
0811A:  CLRF   xEE
0811C:  MOVLW  01
0811E:  MOVWF  xEF
08120:  MOVLW  02
08122:  MOVWF  xF0
08124:  MOVLB  0
08126:  CALL   4E36
....................        
....................       if(Opcion==1)    
0812A:  MOVLB  4
0812C:  DECFSZ xCF,W
0812E:  BRA    8176
....................          {strcpy(Menus.Letra,"Tiempo Purga"); 
08130:  MOVLW  04
08132:  MOVWF  FEA
08134:  MOVLW  17
08136:  MOVWF  FE9
08138:  MOVFF  FF2,5E3
0813C:  BCF    FF2.7
0813E:  MOVLW  00
08140:  MOVLB  0
08142:  CALL   110C
08146:  TBLRD*-
08148:  TBLRD*+
0814A:  MOVF   FF5,W
0814C:  MOVWF  FEE
0814E:  IORLW  00
08150:  BNZ   8148
08152:  MOVLB  5
08154:  BTFSC  xE3.7
08156:  BSF    FF2.7
....................          displayMenu(Menus.Letra,0,20,1,1);} 
08158:  MOVLW  04
0815A:  MOVWF  xEC
0815C:  MOVLW  17
0815E:  MOVWF  xEB
08160:  CLRF   xED
08162:  MOVLW  14
08164:  MOVWF  xEE
08166:  MOVLW  01
08168:  MOVWF  xEF
0816A:  MOVWF  xF0
0816C:  MOVLB  0
0816E:  CALL   4E36
....................       else 
08172:  BRA    81B8
08174:  MOVLB  4
....................          {strcpy(Menus.Letra,"Tiempo Purga"); 
08176:  MOVLW  04
08178:  MOVWF  FEA
0817A:  MOVLW  17
0817C:  MOVWF  FE9
0817E:  MOVFF  FF2,5E3
08182:  BCF    FF2.7
08184:  MOVLW  00
08186:  MOVLB  0
08188:  CALL   110C
0818C:  TBLRD*-
0818E:  TBLRD*+
08190:  MOVF   FF5,W
08192:  MOVWF  FEE
08194:  IORLW  00
08196:  BNZ   818E
08198:  MOVLB  5
0819A:  BTFSC  xE3.7
0819C:  BSF    FF2.7
....................          displayMenu(Menus.Letra,0,20,0,1);}              
0819E:  MOVLW  04
081A0:  MOVWF  xEC
081A2:  MOVLW  17
081A4:  MOVWF  xEB
081A6:  CLRF   xED
081A8:  MOVLW  14
081AA:  MOVWF  xEE
081AC:  CLRF   xEF
081AE:  MOVLW  01
081B0:  MOVWF  xF0
081B2:  MOVLB  0
081B4:  CALL   4E36
....................        
....................       if(Opcion==2)    
081B8:  MOVLB  4
081BA:  MOVF   xCF,W
081BC:  SUBLW  02
081BE:  BNZ   8206
....................          {strcpy(Menus.Letra,"Tempo UV"); 
081C0:  MOVLW  04
081C2:  MOVWF  FEA
081C4:  MOVLW  17
081C6:  MOVWF  FE9
081C8:  MOVFF  FF2,5E3
081CC:  BCF    FF2.7
081CE:  MOVLW  00
081D0:  MOVLB  0
081D2:  CALL   1138
081D6:  TBLRD*-
081D8:  TBLRD*+
081DA:  MOVF   FF5,W
081DC:  MOVWF  FEE
081DE:  IORLW  00
081E0:  BNZ   81D8
081E2:  MOVLB  5
081E4:  BTFSC  xE3.7
081E6:  BSF    FF2.7
....................          displayMenu(Menus.Letra,0,35,1,1);} 
081E8:  MOVLW  04
081EA:  MOVWF  xEC
081EC:  MOVLW  17
081EE:  MOVWF  xEB
081F0:  CLRF   xED
081F2:  MOVLW  23
081F4:  MOVWF  xEE
081F6:  MOVLW  01
081F8:  MOVWF  xEF
081FA:  MOVWF  xF0
081FC:  MOVLB  0
081FE:  CALL   4E36
....................       else 
08202:  BRA    8248
08204:  MOVLB  4
....................          {strcpy(Menus.Letra,"Tempo UV"); 
08206:  MOVLW  04
08208:  MOVWF  FEA
0820A:  MOVLW  17
0820C:  MOVWF  FE9
0820E:  MOVFF  FF2,5E3
08212:  BCF    FF2.7
08214:  MOVLW  00
08216:  MOVLB  0
08218:  CALL   1138
0821C:  TBLRD*-
0821E:  TBLRD*+
08220:  MOVF   FF5,W
08222:  MOVWF  FEE
08224:  IORLW  00
08226:  BNZ   821E
08228:  MOVLB  5
0822A:  BTFSC  xE3.7
0822C:  BSF    FF2.7
....................          displayMenu(Menus.Letra,0,35,0,1);}  
0822E:  MOVLW  04
08230:  MOVWF  xEC
08232:  MOVLW  17
08234:  MOVWF  xEB
08236:  CLRF   xED
08238:  MOVLW  23
0823A:  MOVWF  xEE
0823C:  CLRF   xEF
0823E:  MOVLW  01
08240:  MOVWF  xF0
08242:  MOVLB  0
08244:  CALL   4E36
....................        
....................       if(UP)//Si oprime hacia arriba 
08248:  BSF    F92.5
0824A:  BTFSC  F80.5
0824C:  BRA    8268
....................       {  if(Flanco == 0)  
0824E:  MOVLB  4
08250:  BTFSC  x2D.0
08252:  BRA    8266
....................             {Flanco = 1;delay_ms(30);Opcion--; 
08254:  BSF    x2D.0
08256:  MOVLW  1E
08258:  MOVLB  5
0825A:  MOVWF  xF7
0825C:  MOVLB  0
0825E:  CALL   1500
08262:  MOVLB  4
08264:  DECF   xCF,F
....................             } 
....................       } 
....................          else 
08266:  BRA    826C
....................             {Flanco = 0;} 
08268:  MOVLB  4
0826A:  BCF    x2D.0
....................              
....................       if(DOWN)//Si oprime hacia abajo 
0826C:  BSF    F96.0
0826E:  BTFSC  F84.0
08270:  BRA    828A
....................       {  if(Flanco2 == 0)  
08272:  BTFSC  x2D.2
08274:  BRA    8288
....................             {Flanco2 = 1;delay_ms(30);Opcion++; 
08276:  BSF    x2D.2
08278:  MOVLW  1E
0827A:  MOVLB  5
0827C:  MOVWF  xF7
0827E:  MOVLB  0
08280:  CALL   1500
08284:  MOVLB  4
08286:  INCF   xCF,F
....................             }      
....................       } 
....................          else 
08288:  BRA    828C
....................             {Flanco2 = 0;}   
0828A:  BCF    x2D.2
....................              
....................       if(RIGHT)//Si oprime SET 
0828C:  BSF    F96.1
0828E:  BTFSC  F84.1
08290:  BRA    82C4
....................       {  if(Flanco1 == 0)  
08292:  BTFSC  x2D.1
08294:  BRA    82C2
....................             {Flanco1 = 1;delay_ms(500);Menu=Opcion+10;glcd_fillScreen(OFF); 
08296:  BSF    x2D.1
08298:  MOVLW  02
0829A:  MOVLB  5
0829C:  MOVWF  xE3
0829E:  MOVLW  FA
082A0:  MOVWF  xF7
082A2:  MOVLB  0
082A4:  CALL   1500
082A8:  MOVLB  5
082AA:  DECFSZ xE3,F
082AC:  BRA    829E
082AE:  MOVLW  0A
082B0:  MOVLB  4
082B2:  ADDWF  xCF,W
082B4:  MOVWF  xCD
082B6:  MOVLB  5
082B8:  CLRF   xEB
082BA:  MOVLB  0
082BC:  CALL   15E0
082C0:  MOVLB  4
....................             } 
....................       } 
....................          else 
082C2:  BRA    82C6
....................             {Flanco1 = 0;}   
082C4:  BCF    x2D.1
....................              
....................       if(LEFT)//Si oprime boton de Toma. 
082C6:  BSF    F96.2
082C8:  BTFSC  F84.2
082CA:  BRA    82F4
....................         {delay_ms(700);Menu=3;glcd_fillscreen(OFF);} 
082CC:  MOVLW  04
082CE:  MOVLB  5
082D0:  MOVWF  xE3
082D2:  MOVLW  AF
082D4:  MOVWF  xF7
082D6:  MOVLB  0
082D8:  CALL   1500
082DC:  MOVLB  5
082DE:  DECFSZ xE3,F
082E0:  BRA    82D2
082E2:  MOVLW  03
082E4:  MOVLB  4
082E6:  MOVWF  xCD
082E8:  MOVLB  5
082EA:  CLRF   xEB
082EC:  MOVLB  0
082EE:  CALL   15E0
082F2:  MOVLB  4
....................        
....................       if(Opcion>2) 
082F4:  MOVF   xCF,W
082F6:  SUBLW  02
082F8:  BC    82FE
....................       {Opcion=1;} 
082FA:  MOVLW  01
082FC:  MOVWF  xCF
....................       if(Opcion<1) 
082FE:  MOVF   xCF,F
08300:  BNZ   8306
....................       {Opcion=2;} 
08302:  MOVLW  02
08304:  MOVWF  xCF
....................      
....................     } 
.................... //_--------------------------------------------------------------------------------------------------------------------------------------------------------        
....................  
.................... //_-------------------------------------------------------------------------------------------------------------------------------------------------------- 
....................       if(Menu==6){ //Menu de Modo. 
08306:  MOVF   xCD,W
08308:  SUBLW  06
0830A:  BTFSS  FD8.2
0830C:  BRA    8534
....................        
....................       strcpy(Menus.Letra,"Modo"); 
0830E:  MOVLW  04
08310:  MOVWF  FEA
08312:  MOVLW  17
08314:  MOVWF  FE9
08316:  MOVFF  FF2,5E3
0831A:  BCF    FF2.7
0831C:  MOVLW  00
0831E:  MOVLB  0
08320:  CALL   10E8
08324:  TBLRD*-
08326:  TBLRD*+
08328:  MOVF   FF5,W
0832A:  MOVWF  FEE
0832C:  IORLW  00
0832E:  BNZ   8326
08330:  MOVLB  5
08332:  BTFSC  xE3.7
08334:  BSF    FF2.7
....................       displayMenu(Menus.Letra,40,0,1,2); 
08336:  MOVLW  04
08338:  MOVWF  xEC
0833A:  MOVLW  17
0833C:  MOVWF  xEB
0833E:  MOVLW  28
08340:  MOVWF  xED
08342:  CLRF   xEE
08344:  MOVLW  01
08346:  MOVWF  xEF
08348:  MOVLW  02
0834A:  MOVWF  xF0
0834C:  MOVLB  0
0834E:  CALL   4E36
....................           
....................       if(Opcion==1)    
08352:  MOVLB  4
08354:  DECFSZ xCF,W
08356:  BRA    839E
....................          {strcpy(Menus.Letra,"Mantenimiento"); 
08358:  MOVLW  04
0835A:  MOVWF  FEA
0835C:  MOVLW  17
0835E:  MOVWF  FE9
08360:  MOVFF  FF2,5E3
08364:  BCF    FF2.7
08366:  MOVLW  00
08368:  MOVLB  0
0836A:  CALL   1160
0836E:  TBLRD*-
08370:  TBLRD*+
08372:  MOVF   FF5,W
08374:  MOVWF  FEE
08376:  IORLW  00
08378:  BNZ   8370
0837A:  MOVLB  5
0837C:  BTFSC  xE3.7
0837E:  BSF    FF2.7
....................          displayMenu(Menus.Letra,0,19,1,1);} 
08380:  MOVLW  04
08382:  MOVWF  xEC
08384:  MOVLW  17
08386:  MOVWF  xEB
08388:  CLRF   xED
0838A:  MOVLW  13
0838C:  MOVWF  xEE
0838E:  MOVLW  01
08390:  MOVWF  xEF
08392:  MOVWF  xF0
08394:  MOVLB  0
08396:  CALL   4E36
....................       else 
0839A:  BRA    83E0
0839C:  MOVLB  4
....................          {strcpy(Menus.Letra,"Mantenimiento"); 
0839E:  MOVLW  04
083A0:  MOVWF  FEA
083A2:  MOVLW  17
083A4:  MOVWF  FE9
083A6:  MOVFF  FF2,5E3
083AA:  BCF    FF2.7
083AC:  MOVLW  00
083AE:  MOVLB  0
083B0:  CALL   1160
083B4:  TBLRD*-
083B6:  TBLRD*+
083B8:  MOVF   FF5,W
083BA:  MOVWF  FEE
083BC:  IORLW  00
083BE:  BNZ   83B6
083C0:  MOVLB  5
083C2:  BTFSC  xE3.7
083C4:  BSF    FF2.7
....................          displayMenu(Menus.Letra,0,19,0,1);}    
083C6:  MOVLW  04
083C8:  MOVWF  xEC
083CA:  MOVLW  17
083CC:  MOVWF  xEB
083CE:  CLRF   xED
083D0:  MOVLW  13
083D2:  MOVWF  xEE
083D4:  CLRF   xEF
083D6:  MOVLW  01
083D8:  MOVWF  xF0
083DA:  MOVLB  0
083DC:  CALL   4E36
....................           
....................       if(Opcion==2)    
083E0:  MOVLB  4
083E2:  MOVF   xCF,W
083E4:  SUBLW  02
083E6:  BNZ   842E
....................          {strcpy(Menus.Letra,"Servicio"); 
083E8:  MOVLW  04
083EA:  MOVWF  FEA
083EC:  MOVLW  17
083EE:  MOVWF  FE9
083F0:  MOVFF  FF2,5E3
083F4:  BCF    FF2.7
083F6:  MOVLW  00
083F8:  MOVLB  0
083FA:  CALL   118C
083FE:  TBLRD*-
08400:  TBLRD*+
08402:  MOVF   FF5,W
08404:  MOVWF  FEE
08406:  IORLW  00
08408:  BNZ   8400
0840A:  MOVLB  5
0840C:  BTFSC  xE3.7
0840E:  BSF    FF2.7
....................          displayMenu(Menus.Letra,0,35,1,1);} 
08410:  MOVLW  04
08412:  MOVWF  xEC
08414:  MOVLW  17
08416:  MOVWF  xEB
08418:  CLRF   xED
0841A:  MOVLW  23
0841C:  MOVWF  xEE
0841E:  MOVLW  01
08420:  MOVWF  xEF
08422:  MOVWF  xF0
08424:  MOVLB  0
08426:  CALL   4E36
....................       else 
0842A:  BRA    8470
0842C:  MOVLB  4
....................          {strcpy(Menus.Letra,"Servicio"); 
0842E:  MOVLW  04
08430:  MOVWF  FEA
08432:  MOVLW  17
08434:  MOVWF  FE9
08436:  MOVFF  FF2,5E3
0843A:  BCF    FF2.7
0843C:  MOVLW  00
0843E:  MOVLB  0
08440:  CALL   118C
08444:  TBLRD*-
08446:  TBLRD*+
08448:  MOVF   FF5,W
0844A:  MOVWF  FEE
0844C:  IORLW  00
0844E:  BNZ   8446
08450:  MOVLB  5
08452:  BTFSC  xE3.7
08454:  BSF    FF2.7
....................          displayMenu(Menus.Letra,0,35,0,1);} 
08456:  MOVLW  04
08458:  MOVWF  xEC
0845A:  MOVLW  17
0845C:  MOVWF  xEB
0845E:  CLRF   xED
08460:  MOVLW  23
08462:  MOVWF  xEE
08464:  CLRF   xEF
08466:  MOVLW  01
08468:  MOVWF  xF0
0846A:  MOVLB  0
0846C:  CALL   4E36
....................           
....................       if(UP)//Si oprime hacia arriba 
08470:  BSF    F92.5
08472:  BTFSC  F80.5
08474:  BRA    8490
....................       {  if(Flanco == 0)  
08476:  MOVLB  4
08478:  BTFSC  x2D.0
0847A:  BRA    848E
....................             {Flanco = 1;delay_ms(30);Opcion--; 
0847C:  BSF    x2D.0
0847E:  MOVLW  1E
08480:  MOVLB  5
08482:  MOVWF  xF7
08484:  MOVLB  0
08486:  CALL   1500
0848A:  MOVLB  4
0848C:  DECF   xCF,F
....................             } 
....................       } 
....................          else 
0848E:  BRA    8494
....................             {Flanco = 0;} 
08490:  MOVLB  4
08492:  BCF    x2D.0
....................              
....................       if(DOWN)//Si oprime hacia abajo 
08494:  BSF    F96.0
08496:  BTFSC  F84.0
08498:  BRA    84B2
....................       {  if(Flanco2 == 0)  
0849A:  BTFSC  x2D.2
0849C:  BRA    84B0
....................             {Flanco2 = 1;delay_ms(30);Opcion++; 
0849E:  BSF    x2D.2
084A0:  MOVLW  1E
084A2:  MOVLB  5
084A4:  MOVWF  xF7
084A6:  MOVLB  0
084A8:  CALL   1500
084AC:  MOVLB  4
084AE:  INCF   xCF,F
....................             }      
....................       } 
....................          else 
084B0:  BRA    84B4
....................             {Flanco2 = 0;}   
084B2:  BCF    x2D.2
....................              
....................       if(RIGHT)//Si oprime SET 
084B4:  BSF    F96.1
084B6:  BTFSC  F84.1
084B8:  BRA    84F2
....................       {  if(Flanco1 == 0)  
084BA:  BTFSC  x2D.1
084BC:  BRA    84F0
....................             {Flanco1 = 1;delay_ms(500);Menu=Opcion+30;glcd_fillScreen(OFF);Opcion=1;unidad=1; 
084BE:  BSF    x2D.1
084C0:  MOVLW  02
084C2:  MOVLB  5
084C4:  MOVWF  xE3
084C6:  MOVLW  FA
084C8:  MOVWF  xF7
084CA:  MOVLB  0
084CC:  CALL   1500
084D0:  MOVLB  5
084D2:  DECFSZ xE3,F
084D4:  BRA    84C6
084D6:  MOVLW  1E
084D8:  MOVLB  4
084DA:  ADDWF  xCF,W
084DC:  MOVWF  xCD
084DE:  MOVLB  5
084E0:  CLRF   xEB
084E2:  MOVLB  0
084E4:  CALL   15E0
084E8:  MOVLW  01
084EA:  MOVLB  4
084EC:  MOVWF  xCF
084EE:  MOVWF  xCE
....................             } 
....................       } 
....................          else 
084F0:  BRA    84F4
....................             {Flanco1 = 0;}   
084F2:  BCF    x2D.1
....................              
....................       if(LEFT)//Si oprime boton de Toma. 
084F4:  BSF    F96.2
084F6:  BTFSC  F84.2
084F8:  BRA    8522
....................         {delay_ms(700);Menu=3;glcd_fillscreen(OFF);} 
084FA:  MOVLW  04
084FC:  MOVLB  5
084FE:  MOVWF  xE3
08500:  MOVLW  AF
08502:  MOVWF  xF7
08504:  MOVLB  0
08506:  CALL   1500
0850A:  MOVLB  5
0850C:  DECFSZ xE3,F
0850E:  BRA    8500
08510:  MOVLW  03
08512:  MOVLB  4
08514:  MOVWF  xCD
08516:  MOVLB  5
08518:  CLRF   xEB
0851A:  MOVLB  0
0851C:  CALL   15E0
08520:  MOVLB  4
....................       if(Opcion>2) 
08522:  MOVF   xCF,W
08524:  SUBLW  02
08526:  BC    852C
....................       {Opcion=1;} 
08528:  MOVLW  01
0852A:  MOVWF  xCF
....................       if(Opcion<1) 
0852C:  MOVF   xCF,F
0852E:  BNZ   8534
....................       {Opcion=2;} 
08530:  MOVLW  02
08532:  MOVWF  xCF
....................      
....................     } 
.................... //_--------------------------------------------------------------------------------------------------------------------------------------------------------        
....................  
.................... //_-------------------------------------------------------------------------------------------------------------------------------------------------------- 
....................       if(Menu==11){ //Menu de Purga. 
08534:  MOVF   xCD,W
08536:  SUBLW  0B
08538:  BTFSS  FD8.2
0853A:  BRA    8900
....................        
....................       strcpy(Menus.Letra,"T. Purga"); 
0853C:  MOVLW  04
0853E:  MOVWF  FEA
08540:  MOVLW  17
08542:  MOVWF  FE9
08544:  MOVFF  FF2,5E3
08548:  BCF    FF2.7
0854A:  MOVLW  00
0854C:  MOVLB  0
0854E:  CALL   11B4
08552:  TBLRD*-
08554:  TBLRD*+
08556:  MOVF   FF5,W
08558:  MOVWF  FEE
0855A:  IORLW  00
0855C:  BNZ   8554
0855E:  MOVLB  5
08560:  BTFSC  xE3.7
08562:  BSF    FF2.7
....................       displayMenu(Menus.Letra,10,0,1,2); 
08564:  MOVLW  04
08566:  MOVWF  xEC
08568:  MOVLW  17
0856A:  MOVWF  xEB
0856C:  MOVLW  0A
0856E:  MOVWF  xED
08570:  CLRF   xEE
08572:  MOVLW  01
08574:  MOVWF  xEF
08576:  MOVLW  02
08578:  MOVWF  xF0
0857A:  MOVLB  0
0857C:  CALL   4E36
....................        
....................       if(unidad==4) 
08580:  MOVLB  4
08582:  MOVF   xCE,W
08584:  SUBLW  04
08586:  BNZ   85A6
....................       {displayTiempo(Tpurgap[3],20,40,1,2);} 
08588:  MOVFF  4F2,5E3
0858C:  MOVLW  14
0858E:  MOVLB  5
08590:  MOVWF  xE4
08592:  MOVLW  28
08594:  MOVWF  xE5
08596:  MOVLW  01
08598:  MOVWF  xE6
0859A:  MOVLW  02
0859C:  MOVWF  xE7
0859E:  MOVLB  0
085A0:  CALL   55F4
....................       else 
085A4:  BRA    85C0
....................       {displayTiempo(Tpurgap[3],20,40,0,2);} 
085A6:  MOVFF  4F2,5E3
085AA:  MOVLW  14
085AC:  MOVLB  5
085AE:  MOVWF  xE4
085B0:  MOVLW  28
085B2:  MOVWF  xE5
085B4:  CLRF   xE6
085B6:  MOVLW  02
085B8:  MOVWF  xE7
085BA:  MOVLB  0
085BC:  CALL   55F4
....................        
....................       if(unidad==3) 
085C0:  MOVLB  4
085C2:  MOVF   xCE,W
085C4:  SUBLW  03
085C6:  BNZ   85E4
....................       {displayTiempo(Tpurgap[2],40,40,1,2);} 
085C8:  MOVFF  4F1,5E3
085CC:  MOVLW  28
085CE:  MOVLB  5
085D0:  MOVWF  xE4
085D2:  MOVWF  xE5
085D4:  MOVLW  01
085D6:  MOVWF  xE6
085D8:  MOVLW  02
085DA:  MOVWF  xE7
085DC:  MOVLB  0
085DE:  CALL   55F4
....................       else 
085E2:  BRA    85FC
....................       {displayTiempo(Tpurgap[2],40,40,0,2);} 
085E4:  MOVFF  4F1,5E3
085E8:  MOVLW  28
085EA:  MOVLB  5
085EC:  MOVWF  xE4
085EE:  MOVWF  xE5
085F0:  CLRF   xE6
085F2:  MOVLW  02
085F4:  MOVWF  xE7
085F6:  MOVLB  0
085F8:  CALL   55F4
....................        
....................       if(unidad==2) 
085FC:  MOVLB  4
085FE:  MOVF   xCE,W
08600:  SUBLW  02
08602:  BNZ   8622
....................       {displayTiempo(Tpurgap[1],70,40,1,2);} 
08604:  MOVFF  4F0,5E3
08608:  MOVLW  46
0860A:  MOVLB  5
0860C:  MOVWF  xE4
0860E:  MOVLW  28
08610:  MOVWF  xE5
08612:  MOVLW  01
08614:  MOVWF  xE6
08616:  MOVLW  02
08618:  MOVWF  xE7
0861A:  MOVLB  0
0861C:  CALL   55F4
....................       else 
08620:  BRA    863C
....................       {displayTiempo(Tpurgap[1],70,40,0,2);} 
08622:  MOVFF  4F0,5E3
08626:  MOVLW  46
08628:  MOVLB  5
0862A:  MOVWF  xE4
0862C:  MOVLW  28
0862E:  MOVWF  xE5
08630:  CLRF   xE6
08632:  MOVLW  02
08634:  MOVWF  xE7
08636:  MOVLB  0
08638:  CALL   55F4
....................        
....................       if(unidad==1) 
0863C:  MOVLB  4
0863E:  DECFSZ xCE,W
08640:  BRA    8660
....................       {displayTiempo(Tpurgap[0],90,40,1,2);} 
08642:  MOVFF  4EF,5E3
08646:  MOVLW  5A
08648:  MOVLB  5
0864A:  MOVWF  xE4
0864C:  MOVLW  28
0864E:  MOVWF  xE5
08650:  MOVLW  01
08652:  MOVWF  xE6
08654:  MOVLW  02
08656:  MOVWF  xE7
08658:  MOVLB  0
0865A:  CALL   55F4
....................       else 
0865E:  BRA    867A
....................       {displayTiempo(Tpurgap[0],90,40,0,2);} 
08660:  MOVFF  4EF,5E3
08664:  MOVLW  5A
08666:  MOVLB  5
08668:  MOVWF  xE4
0866A:  MOVLW  28
0866C:  MOVWF  xE5
0866E:  CLRF   xE6
08670:  MOVLW  02
08672:  MOVWF  xE7
08674:  MOVLB  0
08676:  CALL   55F4
....................        
....................       glcd_text57(60, 42, Dos_puntos, 2, ON); 
0867A:  MOVLW  3C
0867C:  MOVLB  5
0867E:  MOVWF  xFC
08680:  MOVLW  2A
08682:  MOVWF  xFD
08684:  MOVLW  04
08686:  MOVWF  xFF
08688:  MOVLW  51
0868A:  MOVWF  xFE
0868C:  MOVLW  02
0868E:  MOVLB  6
08690:  MOVWF  x00
08692:  MOVLW  01
08694:  MOVWF  x01
08696:  MOVLB  0
08698:  CALL   1856
....................           
....................          
....................       if(UP)//Si oprime hacia arriba 
0869C:  BSF    F92.5
0869E:  BTFSC  F80.5
086A0:  BRA    86CC
....................       {  if(Flanco == 0)  
086A2:  MOVLB  4
086A4:  BTFSC  x2D.0
086A6:  BRA    86CA
....................             {Flanco = 1;delay_ms(30);Tpurgap[unidad-1]++; 
086A8:  BSF    x2D.0
086AA:  MOVLW  1E
086AC:  MOVLB  5
086AE:  MOVWF  xF7
086B0:  MOVLB  0
086B2:  CALL   1500
086B6:  MOVLW  01
086B8:  MOVLB  4
086BA:  SUBWF  xCE,W
086BC:  CLRF   03
086BE:  ADDLW  EF
086C0:  MOVWF  FE9
086C2:  MOVLW  04
086C4:  ADDWFC 03,W
086C6:  MOVWF  FEA
086C8:  INCF   FEF,F
....................             } 
....................       } 
....................          else 
086CA:  BRA    86D0
....................             {Flanco = 0;} 
086CC:  MOVLB  4
086CE:  BCF    x2D.0
....................              
....................       if(DOWN)//Si oprime hacia abajo 
086D0:  BSF    F96.0
086D2:  BTFSC  F84.0
086D4:  BRA    86FE
....................       {  if(Flanco2 == 0)  
086D6:  BTFSC  x2D.2
086D8:  BRA    86FC
....................             {Flanco2 = 1;delay_ms(30);Tpurgap[unidad-1]--; 
086DA:  BSF    x2D.2
086DC:  MOVLW  1E
086DE:  MOVLB  5
086E0:  MOVWF  xF7
086E2:  MOVLB  0
086E4:  CALL   1500
086E8:  MOVLW  01
086EA:  MOVLB  4
086EC:  SUBWF  xCE,W
086EE:  CLRF   03
086F0:  ADDLW  EF
086F2:  MOVWF  FE9
086F4:  MOVLW  04
086F6:  ADDWFC 03,W
086F8:  MOVWF  FEA
086FA:  DECF   FEF,F
....................             }      
....................       } 
....................          else 
086FC:  BRA    8700
....................             {Flanco2 = 0;}   
086FE:  BCF    x2D.2
....................              
....................       if(RIGHT)//Si oprime SET 
08700:  BSF    F96.1
08702:  BTFSC  F84.1
08704:  BRA    871E
....................       {  if(Flanco1 == 0)  
08706:  BTFSC  x2D.1
08708:  BRA    871C
....................             {Flanco1 = 1;delay_ms(30);unidad--; 
0870A:  BSF    x2D.1
0870C:  MOVLW  1E
0870E:  MOVLB  5
08710:  MOVWF  xF7
08712:  MOVLB  0
08714:  CALL   1500
08718:  MOVLB  4
0871A:  DECF   xCE,F
....................             } 
....................       } 
....................          else 
0871C:  BRA    8720
....................             {Flanco1 = 0;}   
0871E:  BCF    x2D.1
....................              
....................       if(LEFT)//Si oprime boton de Toma. 
08720:  BSF    F96.2
08722:  BTFSC  F84.2
08724:  BRA    8834
....................       { 
....................          delay_ms(700);Menu=4;glcd_fillscreen(OFF);Opcion=1;unidad=1; 
08726:  MOVLW  04
08728:  MOVLB  5
0872A:  MOVWF  xE3
0872C:  MOVLW  AF
0872E:  MOVWF  xF7
08730:  MOVLB  0
08732:  CALL   1500
08736:  MOVLB  5
08738:  DECFSZ xE3,F
0873A:  BRA    872C
0873C:  MOVLW  04
0873E:  MOVLB  4
08740:  MOVWF  xCD
08742:  MOVLB  5
08744:  CLRF   xEB
08746:  MOVLB  0
08748:  CALL   15E0
0874C:  MOVLW  01
0874E:  MOVLB  4
08750:  MOVWF  xCF
08752:  MOVWF  xCE
....................          write_eeprom(4,Tpurgap[0]); 
08754:  CLRF   FAA
08756:  MOVLW  04
08758:  MOVWF  FA9
0875A:  MOVFF  4EF,FA8
0875E:  BCF    FA6.6
08760:  BCF    FA6.7
08762:  BSF    FA6.2
08764:  MOVF   FF2,W
08766:  MOVWF  00
08768:  BCF    FF2.7
0876A:  MOVLB  F
0876C:  MOVLW  55
0876E:  MOVWF  FA7
08770:  MOVLW  AA
08772:  MOVWF  FA7
08774:  BSF    FA6.1
08776:  BTFSC  FA6.1
08778:  BRA    8776
0877A:  BCF    FA6.2
0877C:  MOVF   00,W
0877E:  IORWF  FF2,F
....................          delay_ms(20); 
08780:  MOVLW  14
08782:  MOVLB  5
08784:  MOVWF  xF7
08786:  MOVLB  0
08788:  CALL   1500
....................          write_eeprom(5,Tpurgap[1]); 
0878C:  CLRF   FAA
0878E:  MOVLW  05
08790:  MOVWF  FA9
08792:  MOVFF  4F0,FA8
08796:  BCF    FA6.6
08798:  BCF    FA6.7
0879A:  BSF    FA6.2
0879C:  MOVF   FF2,W
0879E:  MOVWF  00
087A0:  BCF    FF2.7
087A2:  MOVLB  F
087A4:  MOVLW  55
087A6:  MOVWF  FA7
087A8:  MOVLW  AA
087AA:  MOVWF  FA7
087AC:  BSF    FA6.1
087AE:  BTFSC  FA6.1
087B0:  BRA    87AE
087B2:  BCF    FA6.2
087B4:  MOVF   00,W
087B6:  IORWF  FF2,F
....................          delay_ms(20); 
087B8:  MOVLW  14
087BA:  MOVLB  5
087BC:  MOVWF  xF7
087BE:  MOVLB  0
087C0:  CALL   1500
....................          write_eeprom(6,Tpurgap[2]); 
087C4:  CLRF   FAA
087C6:  MOVLW  06
087C8:  MOVWF  FA9
087CA:  MOVFF  4F1,FA8
087CE:  BCF    FA6.6
087D0:  BCF    FA6.7
087D2:  BSF    FA6.2
087D4:  MOVF   FF2,W
087D6:  MOVWF  00
087D8:  BCF    FF2.7
087DA:  MOVLB  F
087DC:  MOVLW  55
087DE:  MOVWF  FA7
087E0:  MOVLW  AA
087E2:  MOVWF  FA7
087E4:  BSF    FA6.1
087E6:  BTFSC  FA6.1
087E8:  BRA    87E6
087EA:  BCF    FA6.2
087EC:  MOVF   00,W
087EE:  IORWF  FF2,F
....................          delay_ms(20); 
087F0:  MOVLW  14
087F2:  MOVLB  5
087F4:  MOVWF  xF7
087F6:  MOVLB  0
087F8:  CALL   1500
....................          write_eeprom(7,Tpurgap[3]); 
087FC:  CLRF   FAA
087FE:  MOVLW  07
08800:  MOVWF  FA9
08802:  MOVFF  4F2,FA8
08806:  BCF    FA6.6
08808:  BCF    FA6.7
0880A:  BSF    FA6.2
0880C:  MOVF   FF2,W
0880E:  MOVWF  00
08810:  BCF    FF2.7
08812:  MOVLB  F
08814:  MOVLW  55
08816:  MOVWF  FA7
08818:  MOVLW  AA
0881A:  MOVWF  FA7
0881C:  BSF    FA6.1
0881E:  BTFSC  FA6.1
08820:  BRA    881E
08822:  BCF    FA6.2
08824:  MOVF   00,W
08826:  IORWF  FF2,F
....................          delay_ms(20); 
08828:  MOVLW  14
0882A:  MOVLB  5
0882C:  MOVWF  xF7
0882E:  MOVLB  0
08830:  CALL   1500
....................       } 
....................        
....................       for(i=0;i<4;i++) 
08834:  MOVLB  5
08836:  CLRF   xD3
08838:  MOVF   xD3,W
0883A:  SUBLW  03
0883C:  BNC   8890
....................       { 
....................          if(Tpurgap[i]>9) 
0883E:  CLRF   03
08840:  MOVF   xD3,W
08842:  ADDLW  EF
08844:  MOVWF  FE9
08846:  MOVLW  04
08848:  ADDWFC 03,W
0884A:  MOVWF  FEA
0884C:  BTFSC  FEF.7
0884E:  BRA    8866
08850:  MOVF   FEF,W
08852:  SUBLW  09
08854:  BC    8866
....................          {Tpurgap[i]=0;} 
08856:  CLRF   03
08858:  MOVF   xD3,W
0885A:  ADDLW  EF
0885C:  MOVWF  FE9
0885E:  MOVLW  04
08860:  ADDWFC 03,W
08862:  MOVWF  FEA
08864:  CLRF   FEF
....................           
....................          if(Tpurgap[i]<0) 
08866:  CLRF   03
08868:  MOVF   xD3,W
0886A:  ADDLW  EF
0886C:  MOVWF  FE9
0886E:  MOVLW  04
08870:  ADDWFC 03,W
08872:  MOVWF  FEA
08874:  BTFSC  FEF.7
08876:  BRA    887A
08878:  BRA    888C
....................          {Tpurgap[i]=9;} 
0887A:  CLRF   03
0887C:  MOVF   xD3,W
0887E:  ADDLW  EF
08880:  MOVWF  FE9
08882:  MOVLW  04
08884:  ADDWFC 03,W
08886:  MOVWF  FEA
08888:  MOVLW  09
0888A:  MOVWF  FEF
....................       }       
0888C:  INCF   xD3,F
0888E:  BRA    8838
....................       for(i=1;i<4;i++) 
08890:  MOVLW  01
08892:  MOVWF  xD3
08894:  MOVF   xD3,W
08896:  SUBLW  03
08898:  BNC   88EE
....................       { 
....................          if(Tpurgap[i]>5) 
0889A:  CLRF   03
0889C:  MOVF   xD3,W
0889E:  ADDLW  EF
088A0:  MOVWF  FE9
088A2:  MOVLW  04
088A4:  ADDWFC 03,W
088A6:  MOVWF  FEA
088A8:  BTFSC  FEF.7
088AA:  BRA    88C2
088AC:  MOVF   FEF,W
088AE:  SUBLW  05
088B0:  BC    88C2
....................          {Tpurgap[i]=0;} 
088B2:  CLRF   03
088B4:  MOVF   xD3,W
088B6:  ADDLW  EF
088B8:  MOVWF  FE9
088BA:  MOVLW  04
088BC:  ADDWFC 03,W
088BE:  MOVWF  FEA
088C0:  CLRF   FEF
....................           
....................          if(Tpurgap[i]<0) 
088C2:  CLRF   03
088C4:  MOVF   xD3,W
088C6:  ADDLW  EF
088C8:  MOVWF  FE9
088CA:  MOVLW  04
088CC:  ADDWFC 03,W
088CE:  MOVWF  FEA
088D0:  BTFSC  FEF.7
088D2:  BRA    88D6
088D4:  BRA    88E8
....................          {Tpurgap[i]=5;} 
088D6:  CLRF   03
088D8:  MOVF   xD3,W
088DA:  ADDLW  EF
088DC:  MOVWF  FE9
088DE:  MOVLW  04
088E0:  ADDWFC 03,W
088E2:  MOVWF  FEA
088E4:  MOVLW  05
088E6:  MOVWF  FEF
....................         i++;  
088E8:  INCF   xD3,F
....................       } 
088EA:  INCF   xD3,F
088EC:  BRA    8894
....................       if(unidad<1) 
088EE:  MOVLB  4
088F0:  MOVF   xCE,F
088F2:  BNZ   88F8
....................       {unidad=4;} 
088F4:  MOVLW  04
088F6:  MOVWF  xCE
....................       if(Opcion<1) 
088F8:  MOVF   xCF,F
088FA:  BNZ   8900
....................       {Opcion=4;} 
088FC:  MOVLW  04
088FE:  MOVWF  xCF
....................      
....................     } 
.................... //_--------------------------------------------------------------------------------------------------------------------------------------------------------        
....................  
.................... //_-------------------------------------------------------------------------------------------------------------------------------------------------------- 
....................       if(Menu==12){ //Menu de Tempo UV. 
08900:  MOVF   xCD,W
08902:  SUBLW  0C
08904:  BTFSS  FD8.2
08906:  BRA    8CDE
....................        
....................       strcpy(Menus.Letra,"T. UV"); 
08908:  MOVLW  04
0890A:  MOVWF  FEA
0890C:  MOVLW  17
0890E:  MOVWF  FE9
08910:  MOVFF  FF2,5E3
08914:  BCF    FF2.7
08916:  MOVLW  00
08918:  MOVLB  0
0891A:  CALL   11DC
0891E:  TBLRD*-
08920:  TBLRD*+
08922:  MOVF   FF5,W
08924:  MOVWF  FEE
08926:  IORLW  00
08928:  BNZ   8920
0892A:  MOVLB  5
0892C:  BTFSC  xE3.7
0892E:  BSF    FF2.7
....................       displayMenu(Menus.Letra,30,0,1,2); 
08930:  MOVLW  04
08932:  MOVWF  xEC
08934:  MOVLW  17
08936:  MOVWF  xEB
08938:  MOVLW  1E
0893A:  MOVWF  xED
0893C:  CLRF   xEE
0893E:  MOVLW  01
08940:  MOVWF  xEF
08942:  MOVLW  02
08944:  MOVWF  xF0
08946:  MOVLB  0
08948:  CALL   4E36
....................        
....................       if(unidad==4) 
0894C:  MOVLB  4
0894E:  MOVF   xCE,W
08950:  SUBLW  04
08952:  BNZ   8972
....................       {displayTiempo(Tempouvp[3],20,40,1,2);} 
08954:  MOVFF  4FE,5E3
08958:  MOVLW  14
0895A:  MOVLB  5
0895C:  MOVWF  xE4
0895E:  MOVLW  28
08960:  MOVWF  xE5
08962:  MOVLW  01
08964:  MOVWF  xE6
08966:  MOVLW  02
08968:  MOVWF  xE7
0896A:  MOVLB  0
0896C:  CALL   55F4
....................       else 
08970:  BRA    898C
....................       {displayTiempo(Tempouvp[3],20,40,0,2);} 
08972:  MOVFF  4FE,5E3
08976:  MOVLW  14
08978:  MOVLB  5
0897A:  MOVWF  xE4
0897C:  MOVLW  28
0897E:  MOVWF  xE5
08980:  CLRF   xE6
08982:  MOVLW  02
08984:  MOVWF  xE7
08986:  MOVLB  0
08988:  CALL   55F4
....................        
....................       if(unidad==3) 
0898C:  MOVLB  4
0898E:  MOVF   xCE,W
08990:  SUBLW  03
08992:  BNZ   89B0
....................       {displayTiempo(Tempouvp[2],40,40,1,2);} 
08994:  MOVFF  4FD,5E3
08998:  MOVLW  28
0899A:  MOVLB  5
0899C:  MOVWF  xE4
0899E:  MOVWF  xE5
089A0:  MOVLW  01
089A2:  MOVWF  xE6
089A4:  MOVLW  02
089A6:  MOVWF  xE7
089A8:  MOVLB  0
089AA:  CALL   55F4
....................       else 
089AE:  BRA    89C8
....................       {displayTiempo(Tempouvp[2],40,40,0,2);} 
089B0:  MOVFF  4FD,5E3
089B4:  MOVLW  28
089B6:  MOVLB  5
089B8:  MOVWF  xE4
089BA:  MOVWF  xE5
089BC:  CLRF   xE6
089BE:  MOVLW  02
089C0:  MOVWF  xE7
089C2:  MOVLB  0
089C4:  CALL   55F4
....................        
....................       if(unidad==2) 
089C8:  MOVLB  4
089CA:  MOVF   xCE,W
089CC:  SUBLW  02
089CE:  BNZ   89EE
....................       {displayTiempo(Tempouvp[1],70,40,1,2);} 
089D0:  MOVFF  4FC,5E3
089D4:  MOVLW  46
089D6:  MOVLB  5
089D8:  MOVWF  xE4
089DA:  MOVLW  28
089DC:  MOVWF  xE5
089DE:  MOVLW  01
089E0:  MOVWF  xE6
089E2:  MOVLW  02
089E4:  MOVWF  xE7
089E6:  MOVLB  0
089E8:  CALL   55F4
....................       else 
089EC:  BRA    8A08
....................       {displayTiempo(Tempouvp[1],70,40,0,2);} 
089EE:  MOVFF  4FC,5E3
089F2:  MOVLW  46
089F4:  MOVLB  5
089F6:  MOVWF  xE4
089F8:  MOVLW  28
089FA:  MOVWF  xE5
089FC:  CLRF   xE6
089FE:  MOVLW  02
08A00:  MOVWF  xE7
08A02:  MOVLB  0
08A04:  CALL   55F4
....................        
....................       if(unidad==1) 
08A08:  MOVLB  4
08A0A:  DECFSZ xCE,W
08A0C:  BRA    8A2C
....................       {displayTiempo(Tempouvp[0],90,40,1,2);} 
08A0E:  MOVFF  4FB,5E3
08A12:  MOVLW  5A
08A14:  MOVLB  5
08A16:  MOVWF  xE4
08A18:  MOVLW  28
08A1A:  MOVWF  xE5
08A1C:  MOVLW  01
08A1E:  MOVWF  xE6
08A20:  MOVLW  02
08A22:  MOVWF  xE7
08A24:  MOVLB  0
08A26:  CALL   55F4
....................       else 
08A2A:  BRA    8A46
....................       {displayTiempo(Tempouvp[0],90,40,0,2);} 
08A2C:  MOVFF  4FB,5E3
08A30:  MOVLW  5A
08A32:  MOVLB  5
08A34:  MOVWF  xE4
08A36:  MOVLW  28
08A38:  MOVWF  xE5
08A3A:  CLRF   xE6
08A3C:  MOVLW  02
08A3E:  MOVWF  xE7
08A40:  MOVLB  0
08A42:  CALL   55F4
....................        
....................       glcd_text57(60, 42, Dos_puntos, 2, ON); 
08A46:  MOVLW  3C
08A48:  MOVLB  5
08A4A:  MOVWF  xFC
08A4C:  MOVLW  2A
08A4E:  MOVWF  xFD
08A50:  MOVLW  04
08A52:  MOVWF  xFF
08A54:  MOVLW  51
08A56:  MOVWF  xFE
08A58:  MOVLW  02
08A5A:  MOVLB  6
08A5C:  MOVWF  x00
08A5E:  MOVLW  01
08A60:  MOVWF  x01
08A62:  MOVLB  0
08A64:  CALL   1856
....................           
....................          
....................       if(UP)//Si oprime hacia arriba 
08A68:  BSF    F92.5
08A6A:  BTFSC  F80.5
08A6C:  BRA    8A98
....................       {  if(Flanco == 0)  
08A6E:  MOVLB  4
08A70:  BTFSC  x2D.0
08A72:  BRA    8A96
....................             {Flanco = 1;delay_ms(30);Tempouvp[unidad-1]++; 
08A74:  BSF    x2D.0
08A76:  MOVLW  1E
08A78:  MOVLB  5
08A7A:  MOVWF  xF7
08A7C:  MOVLB  0
08A7E:  CALL   1500
08A82:  MOVLW  01
08A84:  MOVLB  4
08A86:  SUBWF  xCE,W
08A88:  CLRF   03
08A8A:  ADDLW  FB
08A8C:  MOVWF  FE9
08A8E:  MOVLW  04
08A90:  ADDWFC 03,W
08A92:  MOVWF  FEA
08A94:  INCF   FEF,F
....................             } 
....................       } 
....................          else 
08A96:  BRA    8A9C
....................             {Flanco = 0;} 
08A98:  MOVLB  4
08A9A:  BCF    x2D.0
....................              
....................       if(DOWN )//Si oprime hacia abajo 
08A9C:  BSF    F96.0
08A9E:  BTFSC  F84.0
08AA0:  BRA    8ACA
....................       {  if(Flanco2 == 0)  
08AA2:  BTFSC  x2D.2
08AA4:  BRA    8AC8
....................             {Flanco2 = 1;delay_ms(30);Tempouvp[unidad-1]--; 
08AA6:  BSF    x2D.2
08AA8:  MOVLW  1E
08AAA:  MOVLB  5
08AAC:  MOVWF  xF7
08AAE:  MOVLB  0
08AB0:  CALL   1500
08AB4:  MOVLW  01
08AB6:  MOVLB  4
08AB8:  SUBWF  xCE,W
08ABA:  CLRF   03
08ABC:  ADDLW  FB
08ABE:  MOVWF  FE9
08AC0:  MOVLW  04
08AC2:  ADDWFC 03,W
08AC4:  MOVWF  FEA
08AC6:  DECF   FEF,F
....................             }      
....................       } 
....................          else 
08AC8:  BRA    8ACC
....................             {Flanco2 = 0;}   
08ACA:  BCF    x2D.2
....................              
....................       if(RIGHT)//Si oprime SET 
08ACC:  BSF    F96.1
08ACE:  BTFSC  F84.1
08AD0:  BRA    8AEA
....................       {  if(Flanco1 == 0)  
08AD2:  BTFSC  x2D.1
08AD4:  BRA    8AE8
....................             {Flanco1 = 1;delay_ms(30);unidad--; 
08AD6:  BSF    x2D.1
08AD8:  MOVLW  1E
08ADA:  MOVLB  5
08ADC:  MOVWF  xF7
08ADE:  MOVLB  0
08AE0:  CALL   1500
08AE4:  MOVLB  4
08AE6:  DECF   xCE,F
....................             } 
....................       } 
....................          else 
08AE8:  BRA    8AEC
....................             {Flanco1 = 0;}   
08AEA:  BCF    x2D.1
....................              
....................       if(LEFT)//Si oprime boton de Toma. 
08AEC:  BSF    F96.2
08AEE:  BTFSC  F84.2
08AF0:  BRA    8C10
....................       { 
....................          delay_ms(700);Menu=4;glcd_fillscreen(OFF);Opcion=1;unidad=1; 
08AF2:  MOVLW  04
08AF4:  MOVLB  5
08AF6:  MOVWF  xE3
08AF8:  MOVLW  AF
08AFA:  MOVWF  xF7
08AFC:  MOVLB  0
08AFE:  CALL   1500
08B02:  MOVLB  5
08B04:  DECFSZ xE3,F
08B06:  BRA    8AF8
08B08:  MOVLW  04
08B0A:  MOVLB  4
08B0C:  MOVWF  xCD
08B0E:  MOVLB  5
08B10:  CLRF   xEB
08B12:  MOVLB  0
08B14:  CALL   15E0
08B18:  MOVLW  01
08B1A:  MOVLB  4
08B1C:  MOVWF  xCF
08B1E:  MOVWF  xCE
....................          write_eeprom(21,Tempouvp[0]); 
08B20:  CLRF   FAA
08B22:  MOVLW  15
08B24:  MOVWF  FA9
08B26:  MOVFF  4FB,FA8
08B2A:  BCF    FA6.6
08B2C:  BCF    FA6.7
08B2E:  BSF    FA6.2
08B30:  MOVF   FF2,W
08B32:  MOVWF  00
08B34:  BCF    FF2.7
08B36:  MOVLB  F
08B38:  MOVLW  55
08B3A:  MOVWF  FA7
08B3C:  MOVLW  AA
08B3E:  MOVWF  FA7
08B40:  BSF    FA6.1
08B42:  BTFSC  FA6.1
08B44:  BRA    8B42
08B46:  BCF    FA6.2
08B48:  MOVF   00,W
08B4A:  IORWF  FF2,F
....................          delay_ms(20); 
08B4C:  MOVLW  14
08B4E:  MOVLB  5
08B50:  MOVWF  xF7
08B52:  MOVLB  0
08B54:  CALL   1500
....................          write_eeprom(22,Tempouvp[1]); 
08B58:  CLRF   FAA
08B5A:  MOVLW  16
08B5C:  MOVWF  FA9
08B5E:  MOVFF  4FC,FA8
08B62:  BCF    FA6.6
08B64:  BCF    FA6.7
08B66:  BSF    FA6.2
08B68:  MOVF   FF2,W
08B6A:  MOVWF  00
08B6C:  BCF    FF2.7
08B6E:  MOVLB  F
08B70:  MOVLW  55
08B72:  MOVWF  FA7
08B74:  MOVLW  AA
08B76:  MOVWF  FA7
08B78:  BSF    FA6.1
08B7A:  BTFSC  FA6.1
08B7C:  BRA    8B7A
08B7E:  BCF    FA6.2
08B80:  MOVF   00,W
08B82:  IORWF  FF2,F
....................          delay_ms(20); 
08B84:  MOVLW  14
08B86:  MOVLB  5
08B88:  MOVWF  xF7
08B8A:  MOVLB  0
08B8C:  CALL   1500
....................          write_eeprom(23,Tempouvp[2]); 
08B90:  CLRF   FAA
08B92:  MOVLW  17
08B94:  MOVWF  FA9
08B96:  MOVFF  4FD,FA8
08B9A:  BCF    FA6.6
08B9C:  BCF    FA6.7
08B9E:  BSF    FA6.2
08BA0:  MOVF   FF2,W
08BA2:  MOVWF  00
08BA4:  BCF    FF2.7
08BA6:  MOVLB  F
08BA8:  MOVLW  55
08BAA:  MOVWF  FA7
08BAC:  MOVLW  AA
08BAE:  MOVWF  FA7
08BB0:  BSF    FA6.1
08BB2:  BTFSC  FA6.1
08BB4:  BRA    8BB2
08BB6:  BCF    FA6.2
08BB8:  MOVF   00,W
08BBA:  IORWF  FF2,F
....................          delay_ms(20); 
08BBC:  MOVLW  14
08BBE:  MOVLB  5
08BC0:  MOVWF  xF7
08BC2:  MOVLB  0
08BC4:  CALL   1500
....................          write_eeprom(24,Tempouvp[3]); 
08BC8:  CLRF   FAA
08BCA:  MOVLW  18
08BCC:  MOVWF  FA9
08BCE:  MOVFF  4FE,FA8
08BD2:  BCF    FA6.6
08BD4:  BCF    FA6.7
08BD6:  BSF    FA6.2
08BD8:  MOVF   FF2,W
08BDA:  MOVWF  00
08BDC:  BCF    FF2.7
08BDE:  MOVLB  F
08BE0:  MOVLW  55
08BE2:  MOVWF  FA7
08BE4:  MOVLW  AA
08BE6:  MOVWF  FA7
08BE8:  BSF    FA6.1
08BEA:  BTFSC  FA6.1
08BEC:  BRA    8BEA
08BEE:  BCF    FA6.2
08BF0:  MOVF   00,W
08BF2:  IORWF  FF2,F
....................          delay_ms(20); 
08BF4:  MOVLW  14
08BF6:  MOVLB  5
08BF8:  MOVWF  xF7
08BFA:  MOVLB  0
08BFC:  CALL   1500
....................          Tempouv[0]=0;Tempouv[1]=0;Tempouv[2]=0;Tempouv[3]=0; 
08C00:  MOVLB  4
08C02:  CLRF   xFF
08C04:  MOVLB  5
08C06:  CLRF   x00
08C08:  CLRF   x01
08C0A:  CLRF   x02
....................          tiempocumplido=1; 
08C0C:  MOVLB  4
08C0E:  BSF    x2F.2
....................       } 
....................              
....................       for(i=0;i<3;i++) 
08C10:  MOVLB  5
08C12:  CLRF   xD3
08C14:  MOVF   xD3,W
08C16:  SUBLW  02
08C18:  BNC   8C6E
....................       { 
....................          if(Tempouvp[i]>9) 
08C1A:  CLRF   03
08C1C:  MOVF   xD3,W
08C1E:  ADDLW  FB
08C20:  MOVWF  FE9
08C22:  MOVLW  04
08C24:  ADDWFC 03,W
08C26:  MOVWF  FEA
08C28:  BTFSC  FEF.7
08C2A:  BRA    8C42
08C2C:  MOVF   FEF,W
08C2E:  SUBLW  09
08C30:  BC    8C42
....................          {Tempouvp[i]=0;} 
08C32:  CLRF   03
08C34:  MOVF   xD3,W
08C36:  ADDLW  FB
08C38:  MOVWF  FE9
08C3A:  MOVLW  04
08C3C:  ADDWFC 03,W
08C3E:  MOVWF  FEA
08C40:  CLRF   FEF
....................           
....................          if(Tempouvp[i]<0) 
08C42:  CLRF   03
08C44:  MOVF   xD3,W
08C46:  ADDLW  FB
08C48:  MOVWF  FE9
08C4A:  MOVLW  04
08C4C:  ADDWFC 03,W
08C4E:  MOVWF  FEA
08C50:  BTFSC  FEF.7
08C52:  BRA    8C56
08C54:  BRA    8C68
....................          {Tempouvp[i]=9;} 
08C56:  CLRF   03
08C58:  MOVF   xD3,W
08C5A:  ADDLW  FB
08C5C:  MOVWF  FE9
08C5E:  MOVLW  04
08C60:  ADDWFC 03,W
08C62:  MOVWF  FEA
08C64:  MOVLW  09
08C66:  MOVWF  FEF
....................          i++; 
08C68:  INCF   xD3,F
....................       }       
08C6A:  INCF   xD3,F
08C6C:  BRA    8C14
....................       for(i=1;i<4;i++) 
08C6E:  MOVLW  01
08C70:  MOVWF  xD3
08C72:  MOVF   xD3,W
08C74:  SUBLW  03
08C76:  BNC   8CCC
....................       { 
....................          if(Tempouvp[i]>5) 
08C78:  CLRF   03
08C7A:  MOVF   xD3,W
08C7C:  ADDLW  FB
08C7E:  MOVWF  FE9
08C80:  MOVLW  04
08C82:  ADDWFC 03,W
08C84:  MOVWF  FEA
08C86:  BTFSC  FEF.7
08C88:  BRA    8CA0
08C8A:  MOVF   FEF,W
08C8C:  SUBLW  05
08C8E:  BC    8CA0
....................          {Tempouvp[i]=0;} 
08C90:  CLRF   03
08C92:  MOVF   xD3,W
08C94:  ADDLW  FB
08C96:  MOVWF  FE9
08C98:  MOVLW  04
08C9A:  ADDWFC 03,W
08C9C:  MOVWF  FEA
08C9E:  CLRF   FEF
....................           
....................          if(Tempouvp[i]<0) 
08CA0:  CLRF   03
08CA2:  MOVF   xD3,W
08CA4:  ADDLW  FB
08CA6:  MOVWF  FE9
08CA8:  MOVLW  04
08CAA:  ADDWFC 03,W
08CAC:  MOVWF  FEA
08CAE:  BTFSC  FEF.7
08CB0:  BRA    8CB4
08CB2:  BRA    8CC6
....................          {Tempouvp[i]=5;} 
08CB4:  CLRF   03
08CB6:  MOVF   xD3,W
08CB8:  ADDLW  FB
08CBA:  MOVWF  FE9
08CBC:  MOVLW  04
08CBE:  ADDWFC 03,W
08CC0:  MOVWF  FEA
08CC2:  MOVLW  05
08CC4:  MOVWF  FEF
....................         i++;  
08CC6:  INCF   xD3,F
....................       }       
08CC8:  INCF   xD3,F
08CCA:  BRA    8C72
....................       if(unidad<1) 
08CCC:  MOVLB  4
08CCE:  MOVF   xCE,F
08CD0:  BNZ   8CD6
....................       {unidad=4;} 
08CD2:  MOVLW  04
08CD4:  MOVWF  xCE
....................       if(Opcion<1) 
08CD6:  MOVF   xCF,F
08CD8:  BNZ   8CDE
....................       {Opcion=4;} 
08CDA:  MOVLW  04
08CDC:  MOVWF  xCF
....................      
....................     } 
.................... //_--------------------------------------------------------------------------------------------------------------------------------------------------------        
....................  
.................... //_-------------------------------------------------------------------------------------------------------------------------------------------------------- 
....................       if(Menu==5){ //Menu de Clave. 
08CDE:  MOVF   xCD,W
08CE0:  SUBLW  05
08CE2:  BNZ   8D42
....................  
....................       PidePassword(3,5,211,Password[0],Password[1],Password[2],Password[3]); 
08CE4:  MOVLW  03
08CE6:  MOVLB  5
08CE8:  MOVWF  xE4
08CEA:  MOVLW  05
08CEC:  MOVWF  xE5
08CEE:  MOVLW  D3
08CF0:  MOVWF  xE6
08CF2:  MOVFF  50B,5E7
08CF6:  MOVFF  50C,5E8
08CFA:  MOVFF  50D,5E9
08CFE:  MOVFF  50E,5EA
08D02:  MOVLB  0
08D04:  CALL   4F0E
....................              
....................       if(LEFT)//Si oprime boton de Toma. 
08D08:  BSF    F96.2
08D0A:  BTFSC  F84.2
08D0C:  BRA    8D44
....................       { 
....................          delay_ms(200); 
08D0E:  MOVLW  C8
08D10:  MOVLB  5
08D12:  MOVWF  xF7
08D14:  MOVLB  0
08D16:  CALL   1500
....................          if(unidad==1){ 
08D1A:  MOVLB  4
08D1C:  DECFSZ xCE,W
08D1E:  BRA    8D42
....................             Menu=3;glcd_fillscreen(OFF);Opcion=1;unidad=1;Contrasena[0]=0;Contrasena[1]=0;Contrasena[2]=0;Contrasena[3]=0; 
08D20:  MOVLW  03
08D22:  MOVWF  xCD
08D24:  MOVLB  5
08D26:  CLRF   xEB
08D28:  MOVLB  0
08D2A:  CALL   15E0
08D2E:  MOVLW  01
08D30:  MOVLB  4
08D32:  MOVWF  xCF
08D34:  MOVWF  xCE
08D36:  MOVLB  5
08D38:  CLRF   x07
08D3A:  CLRF   x08
08D3C:  CLRF   x09
08D3E:  CLRF   x0A
08D40:  MOVLB  4
08D42:  MOVLB  0
....................          } 
....................       }  
....................     } 
.................... //_--------------------------------------------------------------------------------------------------------------------------------------------------------        
....................  
.................... //_-------------------------------------------------------------------------------------------------------------------------------------------------------- 
....................       if(Menu==211){ //Menu de Cambio Clave. 
08D44:  MOVLB  4
08D46:  MOVF   xCD,W
08D48:  SUBLW  D3
08D4A:  BTFSS  FD8.2
08D4C:  BRA    91EC
....................        
....................       if(n==0) 
08D4E:  BTFSC  x2F.5
08D50:  BRA    8DB0
....................       { 
....................          displayContrasena(Contrasena[0],20,30,1);displayContrasena(Contrasena[1],40,30,0); 
08D52:  MOVFF  507,5ED
08D56:  MOVLW  14
08D58:  MOVLB  5
08D5A:  MOVWF  xEE
08D5C:  MOVLW  1E
08D5E:  MOVWF  xEF
08D60:  MOVLW  01
08D62:  MOVWF  xF0
08D64:  MOVLB  0
08D66:  CALL   4D72
08D6A:  MOVFF  508,5ED
08D6E:  MOVLW  28
08D70:  MOVLB  5
08D72:  MOVWF  xEE
08D74:  MOVLW  1E
08D76:  MOVWF  xEF
08D78:  CLRF   xF0
08D7A:  MOVLB  0
08D7C:  CALL   4D72
....................          displayContrasena(Contrasena[2],60,30,0);displayContrasena(Contrasena[0],80,30,0); 
08D80:  MOVFF  509,5ED
08D84:  MOVLW  3C
08D86:  MOVLB  5
08D88:  MOVWF  xEE
08D8A:  MOVLW  1E
08D8C:  MOVWF  xEF
08D8E:  CLRF   xF0
08D90:  MOVLB  0
08D92:  CALL   4D72
08D96:  MOVFF  507,5ED
08D9A:  MOVLW  50
08D9C:  MOVLB  5
08D9E:  MOVWF  xEE
08DA0:  MOVLW  1E
08DA2:  MOVWF  xEF
08DA4:  CLRF   xF0
08DA6:  MOVLB  0
08DA8:  CALL   4D72
....................          n=1; 
08DAC:  MOVLB  4
08DAE:  BSF    x2F.5
....................       } 
....................       strcpy(Menus.Letra,"Clave Nueva"); 
08DB0:  MOVLW  04
08DB2:  MOVWF  FEA
08DB4:  MOVLW  17
08DB6:  MOVWF  FE9
08DB8:  MOVFF  FF2,5E3
08DBC:  BCF    FF2.7
08DBE:  MOVLW  00
08DC0:  MOVLB  0
08DC2:  CALL   1200
08DC6:  TBLRD*-
08DC8:  TBLRD*+
08DCA:  MOVF   FF5,W
08DCC:  MOVWF  FEE
08DCE:  IORLW  00
08DD0:  BNZ   8DC8
08DD2:  MOVLB  5
08DD4:  BTFSC  xE3.7
08DD6:  BSF    FF2.7
....................       displayMenu(Menus.Letra,0,0,1,2); 
08DD8:  MOVLW  04
08DDA:  MOVWF  xEC
08DDC:  MOVLW  17
08DDE:  MOVWF  xEB
08DE0:  CLRF   xED
08DE2:  CLRF   xEE
08DE4:  MOVLW  01
08DE6:  MOVWF  xEF
08DE8:  MOVLW  02
08DEA:  MOVWF  xF0
08DEC:  MOVLB  0
08DEE:  CALL   4E36
....................          
....................        
....................       if(UP)//Si oprime hacia arriba 
08DF2:  BSF    F92.5
08DF4:  BTFSC  F80.5
08DF6:  BRA    8ED0
....................       {  if(Flanco == 0)  
08DF8:  MOVLB  4
08DFA:  BTFSC  x2D.0
08DFC:  BRA    8ECE
....................             {Flanco = 1;delay_ms(30); 
08DFE:  BSF    x2D.0
08E00:  MOVLW  1E
08E02:  MOVLB  5
08E04:  MOVWF  xF7
08E06:  MOVLB  0
08E08:  CALL   1500
....................             for(i=1;i<=4;i++) 
08E0C:  MOVLW  01
08E0E:  MOVLB  5
08E10:  MOVWF  xD3
08E12:  MOVF   xD3,W
08E14:  SUBLW  04
08E16:  BNC   8ECC
....................                { 
....................                   if(unidad==i) 
08E18:  MOVF   xD3,W
08E1A:  MOVLB  4
08E1C:  SUBWF  xCE,W
08E1E:  BNZ   8E94
....................                   {Contrasena[i-1]++; 
08E20:  MOVLW  01
08E22:  MOVLB  5
08E24:  SUBWF  xD3,W
08E26:  CLRF   03
08E28:  ADDLW  07
08E2A:  MOVWF  FE9
08E2C:  MOVLW  05
08E2E:  ADDWFC 03,W
08E30:  MOVWF  FEA
08E32:  INCF   FEF,F
....................                   if(Contrasena[i-1]>9) 
08E34:  MOVLW  01
08E36:  SUBWF  xD3,W
08E38:  CLRF   03
08E3A:  ADDLW  07
08E3C:  MOVWF  FE9
08E3E:  MOVLW  05
08E40:  ADDWFC 03,W
08E42:  MOVWF  FEA
08E44:  BTFSC  FEF.7
08E46:  BRA    8E60
08E48:  MOVF   FEF,W
08E4A:  SUBLW  09
08E4C:  BC    8E60
....................                         {Contrasena[i-1]=0;} 
08E4E:  MOVLW  01
08E50:  SUBWF  xD3,W
08E52:  CLRF   03
08E54:  ADDLW  07
08E56:  MOVWF  FE9
08E58:  MOVLW  05
08E5A:  ADDWFC 03,W
08E5C:  MOVWF  FEA
08E5E:  CLRF   FEF
....................                   displayContrasena(Contrasena[i-1],i*20,30,1);} 
08E60:  MOVLW  01
08E62:  SUBWF  xD3,W
08E64:  CLRF   03
08E66:  ADDLW  07
08E68:  MOVWF  FE9
08E6A:  MOVLW  05
08E6C:  ADDWFC 03,W
08E6E:  MOVWF  FEA
08E70:  MOVFF  FEF,5E3
08E74:  MOVF   xD3,W
08E76:  MULLW  14
08E78:  MOVFF  FF3,5E4
08E7C:  MOVFF  5E3,5ED
08E80:  MOVFF  5E4,5EE
08E84:  MOVLW  1E
08E86:  MOVWF  xEF
08E88:  MOVLW  01
08E8A:  MOVWF  xF0
08E8C:  MOVLB  0
08E8E:  CALL   4D72
....................                   else 
08E92:  BRA    8EC6
....................                   {displayContrasena(Contrasena[i-1],i*20,30,0);} 
08E94:  MOVLW  01
08E96:  MOVLB  5
08E98:  SUBWF  xD3,W
08E9A:  CLRF   03
08E9C:  ADDLW  07
08E9E:  MOVWF  FE9
08EA0:  MOVLW  05
08EA2:  ADDWFC 03,W
08EA4:  MOVWF  FEA
08EA6:  MOVFF  FEF,5E3
08EAA:  MOVF   xD3,W
08EAC:  MULLW  14
08EAE:  MOVFF  FF3,5E4
08EB2:  MOVFF  5E3,5ED
08EB6:  MOVFF  5E4,5EE
08EBA:  MOVLW  1E
08EBC:  MOVWF  xEF
08EBE:  CLRF   xF0
08EC0:  MOVLB  0
08EC2:  CALL   4D72
....................                } 
08EC6:  MOVLB  5
08EC8:  INCF   xD3,F
08ECA:  BRA    8E12
08ECC:  MOVLB  4
....................             } 
....................       } 
....................          else 
08ECE:  BRA    8ED4
....................             {Flanco = 0;} 
08ED0:  MOVLB  4
08ED2:  BCF    x2D.0
....................              
....................       if(DOWN )//Si oprime hacia abajo 
08ED4:  BSF    F96.0
08ED6:  BTFSC  F84.0
08ED8:  BRA    8FAE
....................       {  if(Flanco2 == 0)  
08EDA:  BTFSC  x2D.2
08EDC:  BRA    8FAC
....................             {Flanco2 = 1;delay_ms(30); 
08EDE:  BSF    x2D.2
08EE0:  MOVLW  1E
08EE2:  MOVLB  5
08EE4:  MOVWF  xF7
08EE6:  MOVLB  0
08EE8:  CALL   1500
....................                for(i=1;i<=4;i++) 
08EEC:  MOVLW  01
08EEE:  MOVLB  5
08EF0:  MOVWF  xD3
08EF2:  MOVF   xD3,W
08EF4:  SUBLW  04
08EF6:  BNC   8FAA
....................                { 
....................                   if(unidad==i) 
08EF8:  MOVF   xD3,W
08EFA:  MOVLB  4
08EFC:  SUBWF  xCE,W
08EFE:  BNZ   8F72
....................                   {Contrasena[i-1]--;  
08F00:  MOVLW  01
08F02:  MOVLB  5
08F04:  SUBWF  xD3,W
08F06:  CLRF   03
08F08:  ADDLW  07
08F0A:  MOVWF  FE9
08F0C:  MOVLW  05
08F0E:  ADDWFC 03,W
08F10:  MOVWF  FEA
08F12:  DECF   FEF,F
....................                      if(Contrasena[i-1]<0) 
08F14:  MOVLW  01
08F16:  SUBWF  xD3,W
08F18:  CLRF   03
08F1A:  ADDLW  07
08F1C:  MOVWF  FE9
08F1E:  MOVLW  05
08F20:  ADDWFC 03,W
08F22:  MOVWF  FEA
08F24:  BTFSC  FEF.7
08F26:  BRA    8F2A
08F28:  BRA    8F3E
....................                         {Contrasena[i-1]=9;} 
08F2A:  MOVLW  01
08F2C:  SUBWF  xD3,W
08F2E:  CLRF   03
08F30:  ADDLW  07
08F32:  MOVWF  FE9
08F34:  MOVLW  05
08F36:  ADDWFC 03,W
08F38:  MOVWF  FEA
08F3A:  MOVLW  09
08F3C:  MOVWF  FEF
....................                    displayContrasena(Contrasena[i-1],i*20,30,1);} 
08F3E:  MOVLW  01
08F40:  SUBWF  xD3,W
08F42:  CLRF   03
08F44:  ADDLW  07
08F46:  MOVWF  FE9
08F48:  MOVLW  05
08F4A:  ADDWFC 03,W
08F4C:  MOVWF  FEA
08F4E:  MOVFF  FEF,5E3
08F52:  MOVF   xD3,W
08F54:  MULLW  14
08F56:  MOVFF  FF3,5E4
08F5A:  MOVFF  5E3,5ED
08F5E:  MOVFF  5E4,5EE
08F62:  MOVLW  1E
08F64:  MOVWF  xEF
08F66:  MOVLW  01
08F68:  MOVWF  xF0
08F6A:  MOVLB  0
08F6C:  CALL   4D72
....................                   else 
08F70:  BRA    8FA4
....................                   {displayContrasena(Contrasena[i-1],i*20,30,0);} 
08F72:  MOVLW  01
08F74:  MOVLB  5
08F76:  SUBWF  xD3,W
08F78:  CLRF   03
08F7A:  ADDLW  07
08F7C:  MOVWF  FE9
08F7E:  MOVLW  05
08F80:  ADDWFC 03,W
08F82:  MOVWF  FEA
08F84:  MOVFF  FEF,5E3
08F88:  MOVF   xD3,W
08F8A:  MULLW  14
08F8C:  MOVFF  FF3,5E4
08F90:  MOVFF  5E3,5ED
08F94:  MOVFF  5E4,5EE
08F98:  MOVLW  1E
08F9A:  MOVWF  xEF
08F9C:  CLRF   xF0
08F9E:  MOVLB  0
08FA0:  CALL   4D72
....................                }       
08FA4:  MOVLB  5
08FA6:  INCF   xD3,F
08FA8:  BRA    8EF2
08FAA:  MOVLB  4
....................             }      
....................       } 
....................          else 
08FAC:  BRA    8FB0
....................             {Flanco2 = 0;}   
08FAE:  BCF    x2D.2
....................              
....................       if(RIGHT)//Si oprime SET 
08FB0:  BSF    F96.1
08FB2:  BTFSC  F84.1
08FB4:  BRA    9052
....................       {  if(Flanco1 == 0)  
08FB6:  BTFSC  x2D.1
08FB8:  BRA    9050
....................             {Flanco1 = 1;delay_ms(30);unidad++; 
08FBA:  BSF    x2D.1
08FBC:  MOVLW  1E
08FBE:  MOVLB  5
08FC0:  MOVWF  xF7
08FC2:  MOVLB  0
08FC4:  CALL   1500
08FC8:  MOVLB  4
08FCA:  INCF   xCE,F
....................                for(i=1;i<=4;i++) 
08FCC:  MOVLW  01
08FCE:  MOVLB  5
08FD0:  MOVWF  xD3
08FD2:  MOVF   xD3,W
08FD4:  SUBLW  04
08FD6:  BNC   904E
....................                { 
....................                   if(unidad==i) 
08FD8:  MOVF   xD3,W
08FDA:  MOVLB  4
08FDC:  SUBWF  xCE,W
08FDE:  BNZ   9016
....................                   {displayContrasena(Contrasena[i-1],i*20,30,1);} 
08FE0:  MOVLW  01
08FE2:  MOVLB  5
08FE4:  SUBWF  xD3,W
08FE6:  CLRF   03
08FE8:  ADDLW  07
08FEA:  MOVWF  FE9
08FEC:  MOVLW  05
08FEE:  ADDWFC 03,W
08FF0:  MOVWF  FEA
08FF2:  MOVFF  FEF,5E3
08FF6:  MOVF   xD3,W
08FF8:  MULLW  14
08FFA:  MOVFF  FF3,5E4
08FFE:  MOVFF  5E3,5ED
09002:  MOVFF  5E4,5EE
09006:  MOVLW  1E
09008:  MOVWF  xEF
0900A:  MOVLW  01
0900C:  MOVWF  xF0
0900E:  MOVLB  0
09010:  CALL   4D72
....................                   else 
09014:  BRA    9048
....................                   {displayContrasena(Contrasena[i-1],i*20,30,0);} 
09016:  MOVLW  01
09018:  MOVLB  5
0901A:  SUBWF  xD3,W
0901C:  CLRF   03
0901E:  ADDLW  07
09020:  MOVWF  FE9
09022:  MOVLW  05
09024:  ADDWFC 03,W
09026:  MOVWF  FEA
09028:  MOVFF  FEF,5E3
0902C:  MOVF   xD3,W
0902E:  MULLW  14
09030:  MOVFF  FF3,5E4
09034:  MOVFF  5E3,5ED
09038:  MOVFF  5E4,5EE
0903C:  MOVLW  1E
0903E:  MOVWF  xEF
09040:  CLRF   xF0
09042:  MOVLB  0
09044:  CALL   4D72
....................                } 
09048:  MOVLB  5
0904A:  INCF   xD3,F
0904C:  BRA    8FD2
0904E:  MOVLB  4
....................             } 
....................       } 
....................          else 
09050:  BRA    9054
....................             {Flanco1 = 0;}   
09052:  BCF    x2D.1
....................              
....................       if(LEFT)//Si oprime boton de Toma. 
09054:  BSF    F96.2
09056:  BTFSC  F84.2
09058:  BRA    9098
....................       { 
....................          
....................          delay_ms(700); 
0905A:  MOVLW  04
0905C:  MOVLB  5
0905E:  MOVWF  xE3
09060:  MOVLW  AF
09062:  MOVWF  xF7
09064:  MOVLB  0
09066:  CALL   1500
0906A:  MOVLB  5
0906C:  DECFSZ xE3,F
0906E:  BRA    9060
....................          if(unidad==1){ 
09070:  MOVLB  4
09072:  DECFSZ xCE,W
09074:  BRA    9098
....................             Menu=3;glcd_fillscreen(OFF);Opcion=1;unidad=1;Contrasena[0]=0;Contrasena[1]=0;Contrasena[2]=0;Contrasena[3]=0; 
09076:  MOVLW  03
09078:  MOVWF  xCD
0907A:  MOVLB  5
0907C:  CLRF   xEB
0907E:  MOVLB  0
09080:  CALL   15E0
09084:  MOVLW  01
09086:  MOVLB  4
09088:  MOVWF  xCF
0908A:  MOVWF  xCE
0908C:  MOVLB  5
0908E:  CLRF   x07
09090:  CLRF   x08
09092:  CLRF   x09
09094:  CLRF   x0A
09096:  MOVLB  4
....................          } 
....................       } 
....................        
....................       if(unidad>4) 
09098:  MOVF   xCE,W
0909A:  SUBLW  04
0909C:  BTFSC  FD8.0
0909E:  BRA    91EC
....................       { 
....................          Opcion=1;glcd_fillscreen(OFF);unidad=1;n=0; 
090A0:  MOVLW  01
090A2:  MOVWF  xCF
090A4:  MOVLB  5
090A6:  CLRF   xEB
090A8:  MOVLB  0
090AA:  CALL   15E0
090AE:  MOVLW  01
090B0:  MOVLB  4
090B2:  MOVWF  xCE
090B4:  BCF    x2F.5
....................          Password[0]=Contrasena[0];Password[1]=Contrasena[1];Password[2]=Contrasena[2];Password[3]=Contrasena[3]; 
090B6:  MOVFF  507,50B
090BA:  MOVFF  508,50C
090BE:  MOVFF  509,50D
090C2:  MOVFF  50A,50E
....................          write_eeprom(0,Password[0]); 
090C6:  CLRF   FAA
090C8:  CLRF   FA9
090CA:  MOVFF  50B,FA8
090CE:  BCF    FA6.6
090D0:  BCF    FA6.7
090D2:  BSF    FA6.2
090D4:  MOVF   FF2,W
090D6:  MOVWF  00
090D8:  BCF    FF2.7
090DA:  MOVLB  F
090DC:  MOVLW  55
090DE:  MOVWF  FA7
090E0:  MOVLW  AA
090E2:  MOVWF  FA7
090E4:  BSF    FA6.1
090E6:  BTFSC  FA6.1
090E8:  BRA    90E6
090EA:  BCF    FA6.2
090EC:  MOVF   00,W
090EE:  IORWF  FF2,F
....................          delay_ms(20); 
090F0:  MOVLW  14
090F2:  MOVLB  5
090F4:  MOVWF  xF7
090F6:  MOVLB  0
090F8:  CALL   1500
....................          write_eeprom(1,Password[1]); 
090FC:  CLRF   FAA
090FE:  MOVLW  01
09100:  MOVWF  FA9
09102:  MOVFF  50C,FA8
09106:  BCF    FA6.6
09108:  BCF    FA6.7
0910A:  BSF    FA6.2
0910C:  MOVF   FF2,W
0910E:  MOVWF  00
09110:  BCF    FF2.7
09112:  MOVLB  F
09114:  MOVLW  55
09116:  MOVWF  FA7
09118:  MOVLW  AA
0911A:  MOVWF  FA7
0911C:  BSF    FA6.1
0911E:  BTFSC  FA6.1
09120:  BRA    911E
09122:  BCF    FA6.2
09124:  MOVF   00,W
09126:  IORWF  FF2,F
....................          delay_ms(20); 
09128:  MOVLW  14
0912A:  MOVLB  5
0912C:  MOVWF  xF7
0912E:  MOVLB  0
09130:  CALL   1500
....................          write_eeprom(2,Password[2]); 
09134:  CLRF   FAA
09136:  MOVLW  02
09138:  MOVWF  FA9
0913A:  MOVFF  50D,FA8
0913E:  BCF    FA6.6
09140:  BCF    FA6.7
09142:  BSF    FA6.2
09144:  MOVF   FF2,W
09146:  MOVWF  00
09148:  BCF    FF2.7
0914A:  MOVLB  F
0914C:  MOVLW  55
0914E:  MOVWF  FA7
09150:  MOVLW  AA
09152:  MOVWF  FA7
09154:  BSF    FA6.1
09156:  BTFSC  FA6.1
09158:  BRA    9156
0915A:  BCF    FA6.2
0915C:  MOVF   00,W
0915E:  IORWF  FF2,F
....................          delay_ms(20); 
09160:  MOVLW  14
09162:  MOVLB  5
09164:  MOVWF  xF7
09166:  MOVLB  0
09168:  CALL   1500
....................          write_eeprom(3,Password[3]); 
0916C:  CLRF   FAA
0916E:  MOVLW  03
09170:  MOVWF  FA9
09172:  MOVFF  50E,FA8
09176:  BCF    FA6.6
09178:  BCF    FA6.7
0917A:  BSF    FA6.2
0917C:  MOVF   FF2,W
0917E:  MOVWF  00
09180:  BCF    FF2.7
09182:  MOVLB  F
09184:  MOVLW  55
09186:  MOVWF  FA7
09188:  MOVLW  AA
0918A:  MOVWF  FA7
0918C:  BSF    FA6.1
0918E:  BTFSC  FA6.1
09190:  BRA    918E
09192:  BCF    FA6.2
09194:  MOVF   00,W
09196:  IORWF  FF2,F
....................          delay_ms(20); 
09198:  MOVLW  14
0919A:  MOVLB  5
0919C:  MOVWF  xF7
0919E:  MOVLB  0
091A0:  CALL   1500
....................          glcd_imagen(1);glcd_update();Menu=211;delay_ms(1000);glcd_fillScreen(OFF);Menu=3; 
091A4:  MOVLW  01
091A6:  MOVLB  5
091A8:  MOVWF  xE3
091AA:  MOVLB  0
091AC:  CALL   5DBE
091B0:  CALL   163A
091B4:  MOVLW  D3
091B6:  MOVLB  4
091B8:  MOVWF  xCD
091BA:  MOVLW  04
091BC:  MOVLB  5
091BE:  MOVWF  xE3
091C0:  MOVLW  FA
091C2:  MOVWF  xF7
091C4:  MOVLB  0
091C6:  CALL   1500
091CA:  MOVLB  5
091CC:  DECFSZ xE3,F
091CE:  BRA    91C0
091D0:  CLRF   xEB
091D2:  MOVLB  0
091D4:  CALL   15E0
091D8:  MOVLW  03
091DA:  MOVLB  4
091DC:  MOVWF  xCD
....................          n=0; 
091DE:  BCF    x2F.5
....................          Contrasena[0]=0;Contrasena[1]=0;Contrasena[2]=0;Contrasena[3]=0; 
091E0:  MOVLB  5
091E2:  CLRF   x07
091E4:  CLRF   x08
091E6:  CLRF   x09
091E8:  CLRF   x0A
091EA:  MOVLB  4
....................       } 
....................      
....................     } 
.................... //_--------------------------------------------------------------------------------------------------------------------------------------------------------        
....................  
.................... //_-------------------------------------------------------------------------------------------------------------------------------------------------------- 
....................       if(Menu==31){ //Menu de Mantenimiento. 
091EC:  MOVF   xCD,W
091EE:  SUBLW  1F
091F0:  BTFSS  FD8.2
091F2:  BRA    9618
....................        
....................          strcpy(Menus.Letra,"Manteniento"); 
091F4:  MOVLW  04
091F6:  MOVWF  FEA
091F8:  MOVLW  17
091FA:  MOVWF  FE9
091FC:  MOVFF  FF2,5E3
09200:  BCF    FF2.7
09202:  MOVLW  00
09204:  MOVLB  0
09206:  CALL   122A
0920A:  TBLRD*-
0920C:  TBLRD*+
0920E:  MOVF   FF5,W
09210:  MOVWF  FEE
09212:  IORLW  00
09214:  BNZ   920C
09216:  MOVLB  5
09218:  BTFSC  xE3.7
0921A:  BSF    FF2.7
....................          displayMenu(Menus.Letra,0,0,1,2); 
0921C:  MOVLW  04
0921E:  MOVWF  xEC
09220:  MOVLW  17
09222:  MOVWF  xEB
09224:  CLRF   xED
09226:  CLRF   xEE
09228:  MOVLW  01
0922A:  MOVWF  xEF
0922C:  MOVLW  02
0922E:  MOVWF  xF0
09230:  MOVLB  0
09232:  CALL   4E36
....................           
....................          strcpy(Menus.Letra,"Trabajo Filtro(h):"); 
09236:  MOVLW  04
09238:  MOVWF  FEA
0923A:  MOVLW  17
0923C:  MOVWF  FE9
0923E:  MOVFF  FF2,5E3
09242:  BCF    FF2.7
09244:  MOVLW  00
09246:  CALL   1254
0924A:  TBLRD*-
0924C:  TBLRD*+
0924E:  MOVF   FF5,W
09250:  MOVWF  FEE
09252:  IORLW  00
09254:  BNZ   924C
09256:  MOVLB  5
09258:  BTFSC  xE3.7
0925A:  BSF    FF2.7
....................          displayMenu(Menus.Letra,10,20,1,1); 
0925C:  MOVLW  04
0925E:  MOVWF  xEC
09260:  MOVLW  17
09262:  MOVWF  xEB
09264:  MOVLW  0A
09266:  MOVWF  xED
09268:  MOVLW  14
0926A:  MOVWF  xEE
0926C:  MOVLW  01
0926E:  MOVWF  xEF
09270:  MOVWF  xF0
09272:  MOVLB  0
09274:  CALL   4E36
....................          glcd_text57(0, 31, Vida_Filtro, 1, ON); 
09278:  MOVLB  5
0927A:  CLRF   xFC
0927C:  MOVLW  1F
0927E:  MOVWF  xFD
09280:  MOVLW  04
09282:  MOVWF  xFF
09284:  MOVLW  93
09286:  MOVWF  xFE
09288:  MOVLW  01
0928A:  MOVLB  6
0928C:  MOVWF  x00
0928E:  MOVWF  x01
09290:  MOVLB  0
09292:  CALL   1856
....................          displayTiempo(Ttrabajo[3],60,30,0,1);displayTiempo(Ttrabajo[2],67,30,0,1);displayTiempo(Ttrabajo[1],74,30,0,1);displayTiempo(Ttrabajo[0],82,30,0,1); 
09296:  MOVFF  506,5E3
0929A:  MOVLW  3C
0929C:  MOVLB  5
0929E:  MOVWF  xE4
092A0:  MOVLW  1E
092A2:  MOVWF  xE5
092A4:  CLRF   xE6
092A6:  MOVLW  01
092A8:  MOVWF  xE7
092AA:  MOVLB  0
092AC:  CALL   55F4
092B0:  MOVFF  505,5E3
092B4:  MOVLW  43
092B6:  MOVLB  5
092B8:  MOVWF  xE4
092BA:  MOVLW  1E
092BC:  MOVWF  xE5
092BE:  CLRF   xE6
092C0:  MOVLW  01
092C2:  MOVWF  xE7
092C4:  MOVLB  0
092C6:  CALL   55F4
092CA:  MOVFF  504,5E3
092CE:  MOVLW  4A
092D0:  MOVLB  5
092D2:  MOVWF  xE4
092D4:  MOVLW  1E
092D6:  MOVWF  xE5
092D8:  CLRF   xE6
092DA:  MOVLW  01
092DC:  MOVWF  xE7
092DE:  MOVLB  0
092E0:  CALL   55F4
092E4:  MOVFF  503,5E3
092E8:  MOVLW  52
092EA:  MOVLB  5
092EC:  MOVWF  xE4
092EE:  MOVLW  1E
092F0:  MOVWF  xE5
092F2:  CLRF   xE6
092F4:  MOVLW  01
092F6:  MOVWF  xE7
092F8:  MOVLB  0
092FA:  CALL   55F4
....................           
....................          strcpy(Menus.Letra,"Trabajo Luz UV(h):"); 
092FE:  MOVLW  04
09300:  MOVWF  FEA
09302:  MOVLW  17
09304:  MOVWF  FE9
09306:  MOVFF  FF2,5E3
0930A:  BCF    FF2.7
0930C:  MOVLW  00
0930E:  CALL   1286
09312:  TBLRD*-
09314:  TBLRD*+
09316:  MOVF   FF5,W
09318:  MOVWF  FEE
0931A:  IORLW  00
0931C:  BNZ   9314
0931E:  MOVLB  5
09320:  BTFSC  xE3.7
09322:  BSF    FF2.7
....................          displayMenu(Menus.Letra,0,40,1,1); 
09324:  MOVLW  04
09326:  MOVWF  xEC
09328:  MOVLW  17
0932A:  MOVWF  xEB
0932C:  CLRF   xED
0932E:  MOVLW  28
09330:  MOVWF  xEE
09332:  MOVLW  01
09334:  MOVWF  xEF
09336:  MOVWF  xF0
09338:  MOVLB  0
0933A:  CALL   4E36
....................          glcd_text57(0, 53, Vida_UV, 1, ON); 
0933E:  MOVLB  5
09340:  CLRF   xFC
09342:  MOVLW  35
09344:  MOVWF  xFD
09346:  MOVLW  04
09348:  MOVWF  xFF
0934A:  MOVLW  C5
0934C:  MOVWF  xFE
0934E:  MOVLW  01
09350:  MOVLB  6
09352:  MOVWF  x00
09354:  MOVWF  x01
09356:  MOVLB  0
09358:  CALL   1856
....................          displayTiempo(Tuv[3],60,52,0,1);displayTiempo(Tuv[2],67,52,0,1);displayTiempo(Tuv[1],74,52,0,1);displayTiempo(Tuv[0],82,52,0,1);                  
0935C:  MOVFF  4FA,5E3
09360:  MOVLW  3C
09362:  MOVLB  5
09364:  MOVWF  xE4
09366:  MOVLW  34
09368:  MOVWF  xE5
0936A:  CLRF   xE6
0936C:  MOVLW  01
0936E:  MOVWF  xE7
09370:  MOVLB  0
09372:  CALL   55F4
09376:  MOVFF  4F9,5E3
0937A:  MOVLW  43
0937C:  MOVLB  5
0937E:  MOVWF  xE4
09380:  MOVLW  34
09382:  MOVWF  xE5
09384:  CLRF   xE6
09386:  MOVLW  01
09388:  MOVWF  xE7
0938A:  MOVLB  0
0938C:  CALL   55F4
09390:  MOVFF  4F8,5E3
09394:  MOVLW  4A
09396:  MOVLB  5
09398:  MOVWF  xE4
0939A:  MOVLW  34
0939C:  MOVWF  xE5
0939E:  CLRF   xE6
093A0:  MOVLW  01
093A2:  MOVWF  xE7
093A4:  MOVLB  0
093A6:  CALL   55F4
093AA:  MOVFF  4F7,5E3
093AE:  MOVLW  52
093B0:  MOVLB  5
093B2:  MOVWF  xE4
093B4:  MOVLW  34
093B6:  MOVWF  xE5
093B8:  CLRF   xE6
093BA:  MOVLW  01
093BC:  MOVWF  xE7
093BE:  MOVLB  0
093C0:  CALL   55F4
....................           
....................          LuzBlanca_on; 
093C4:  BSF    F8B.0
093C6:  BCF    F94.0
....................           
....................             if(UP && RIGHT) // Reinicia Tiempo de Luz UV 
093C8:  BSF    F92.5
093CA:  BTFSC  F80.5
093CC:  BRA    94DE
093CE:  BSF    F96.1
093D0:  BTFSC  F84.1
093D2:  BRA    94DE
....................             { 
....................                   delay_ms(2000); 
093D4:  MOVLW  08
093D6:  MOVLB  5
093D8:  MOVWF  xE3
093DA:  MOVLW  FA
093DC:  MOVWF  xF7
093DE:  MOVLB  0
093E0:  CALL   1500
093E4:  MOVLB  5
093E6:  DECFSZ xE3,F
093E8:  BRA    93DA
....................                   write_eeprom(12,0); 
093EA:  CLRF   FAA
093EC:  MOVLW  0C
093EE:  MOVWF  FA9
093F0:  CLRF   FA8
093F2:  BCF    FA6.6
093F4:  BCF    FA6.7
093F6:  BSF    FA6.2
093F8:  MOVF   FF2,W
093FA:  MOVWF  00
093FC:  BCF    FF2.7
093FE:  MOVLB  F
09400:  MOVLW  55
09402:  MOVWF  FA7
09404:  MOVLW  AA
09406:  MOVWF  FA7
09408:  BSF    FA6.1
0940A:  BTFSC  FA6.1
0940C:  BRA    940A
0940E:  BCF    FA6.2
09410:  MOVF   00,W
09412:  IORWF  FF2,F
....................                   delay_ms(20); 
09414:  MOVLW  14
09416:  MOVLB  5
09418:  MOVWF  xF7
0941A:  MOVLB  0
0941C:  CALL   1500
....................                   write_eeprom(13,0); 
09420:  CLRF   FAA
09422:  MOVLW  0D
09424:  MOVWF  FA9
09426:  CLRF   FA8
09428:  BCF    FA6.6
0942A:  BCF    FA6.7
0942C:  BSF    FA6.2
0942E:  MOVF   FF2,W
09430:  MOVWF  00
09432:  BCF    FF2.7
09434:  MOVLB  F
09436:  MOVLW  55
09438:  MOVWF  FA7
0943A:  MOVLW  AA
0943C:  MOVWF  FA7
0943E:  BSF    FA6.1
09440:  BTFSC  FA6.1
09442:  BRA    9440
09444:  BCF    FA6.2
09446:  MOVF   00,W
09448:  IORWF  FF2,F
....................                   delay_ms(20); 
0944A:  MOVLW  14
0944C:  MOVLB  5
0944E:  MOVWF  xF7
09450:  MOVLB  0
09452:  CALL   1500
....................                   write_eeprom(14,0); 
09456:  CLRF   FAA
09458:  MOVLW  0E
0945A:  MOVWF  FA9
0945C:  CLRF   FA8
0945E:  BCF    FA6.6
09460:  BCF    FA6.7
09462:  BSF    FA6.2
09464:  MOVF   FF2,W
09466:  MOVWF  00
09468:  BCF    FF2.7
0946A:  MOVLB  F
0946C:  MOVLW  55
0946E:  MOVWF  FA7
09470:  MOVLW  AA
09472:  MOVWF  FA7
09474:  BSF    FA6.1
09476:  BTFSC  FA6.1
09478:  BRA    9476
0947A:  BCF    FA6.2
0947C:  MOVF   00,W
0947E:  IORWF  FF2,F
....................                   delay_ms(20); 
09480:  MOVLW  14
09482:  MOVLB  5
09484:  MOVWF  xF7
09486:  MOVLB  0
09488:  CALL   1500
....................                   write_eeprom(15,0); 
0948C:  CLRF   FAA
0948E:  MOVLW  0F
09490:  MOVWF  FA9
09492:  CLRF   FA8
09494:  BCF    FA6.6
09496:  BCF    FA6.7
09498:  BSF    FA6.2
0949A:  MOVF   FF2,W
0949C:  MOVWF  00
0949E:  BCF    FF2.7
094A0:  MOVLB  F
094A2:  MOVLW  55
094A4:  MOVWF  FA7
094A6:  MOVLW  AA
094A8:  MOVWF  FA7
094AA:  BSF    FA6.1
094AC:  BTFSC  FA6.1
094AE:  BRA    94AC
094B0:  BCF    FA6.2
094B2:  MOVF   00,W
094B4:  IORWF  FF2,F
....................                   delay_ms(20); 
094B6:  MOVLW  14
094B8:  MOVLB  5
094BA:  MOVWF  xF7
094BC:  MOVLB  0
094BE:  CALL   1500
....................                   Tuv[3]=0;Tuv[2]=0;Tuv[1]=0;Tuv[0]=0; 
094C2:  MOVLB  4
094C4:  CLRF   xFA
094C6:  CLRF   xF9
094C8:  CLRF   xF8
094CA:  CLRF   xF7
....................                   Menu=3;glcd_fillscreen(OFF);LuzBlanca_off; 
094CC:  MOVLW  03
094CE:  MOVWF  xCD
094D0:  MOVLB  5
094D2:  CLRF   xEB
094D4:  MOVLB  0
094D6:  CALL   15E0
094DA:  BCF    F8B.0
094DC:  BCF    F94.0
....................                 
....................             } 
....................             if(DOWN && RIGHT) // Reinicia Tiempo de Trabajo 
094DE:  BSF    F96.0
094E0:  BTFSC  F84.0
094E2:  BRA    95F6
094E4:  BSF    F96.1
094E6:  BTFSC  F84.1
094E8:  BRA    95F6
....................             { 
....................                   delay_ms(2000); 
094EA:  MOVLW  08
094EC:  MOVLB  5
094EE:  MOVWF  xE3
094F0:  MOVLW  FA
094F2:  MOVWF  xF7
094F4:  MOVLB  0
094F6:  CALL   1500
094FA:  MOVLB  5
094FC:  DECFSZ xE3,F
094FE:  BRA    94F0
....................                   write_eeprom(16,0); 
09500:  CLRF   FAA
09502:  MOVLW  10
09504:  MOVWF  FA9
09506:  CLRF   FA8
09508:  BCF    FA6.6
0950A:  BCF    FA6.7
0950C:  BSF    FA6.2
0950E:  MOVF   FF2,W
09510:  MOVWF  00
09512:  BCF    FF2.7
09514:  MOVLB  F
09516:  MOVLW  55
09518:  MOVWF  FA7
0951A:  MOVLW  AA
0951C:  MOVWF  FA7
0951E:  BSF    FA6.1
09520:  BTFSC  FA6.1
09522:  BRA    9520
09524:  BCF    FA6.2
09526:  MOVF   00,W
09528:  IORWF  FF2,F
....................                   delay_ms(20); 
0952A:  MOVLW  14
0952C:  MOVLB  5
0952E:  MOVWF  xF7
09530:  MOVLB  0
09532:  CALL   1500
....................                   write_eeprom(17,0); 
09536:  CLRF   FAA
09538:  MOVLW  11
0953A:  MOVWF  FA9
0953C:  CLRF   FA8
0953E:  BCF    FA6.6
09540:  BCF    FA6.7
09542:  BSF    FA6.2
09544:  MOVF   FF2,W
09546:  MOVWF  00
09548:  BCF    FF2.7
0954A:  MOVLB  F
0954C:  MOVLW  55
0954E:  MOVWF  FA7
09550:  MOVLW  AA
09552:  MOVWF  FA7
09554:  BSF    FA6.1
09556:  BTFSC  FA6.1
09558:  BRA    9556
0955A:  BCF    FA6.2
0955C:  MOVF   00,W
0955E:  IORWF  FF2,F
....................                   delay_ms(20); 
09560:  MOVLW  14
09562:  MOVLB  5
09564:  MOVWF  xF7
09566:  MOVLB  0
09568:  CALL   1500
....................                   write_eeprom(18,0); 
0956C:  CLRF   FAA
0956E:  MOVLW  12
09570:  MOVWF  FA9
09572:  CLRF   FA8
09574:  BCF    FA6.6
09576:  BCF    FA6.7
09578:  BSF    FA6.2
0957A:  MOVF   FF2,W
0957C:  MOVWF  00
0957E:  BCF    FF2.7
09580:  MOVLB  F
09582:  MOVLW  55
09584:  MOVWF  FA7
09586:  MOVLW  AA
09588:  MOVWF  FA7
0958A:  BSF    FA6.1
0958C:  BTFSC  FA6.1
0958E:  BRA    958C
09590:  BCF    FA6.2
09592:  MOVF   00,W
09594:  IORWF  FF2,F
....................                   delay_ms(20); 
09596:  MOVLW  14
09598:  MOVLB  5
0959A:  MOVWF  xF7
0959C:  MOVLB  0
0959E:  CALL   1500
....................                   write_eeprom(19,0); 
095A2:  CLRF   FAA
095A4:  MOVLW  13
095A6:  MOVWF  FA9
095A8:  CLRF   FA8
095AA:  BCF    FA6.6
095AC:  BCF    FA6.7
095AE:  BSF    FA6.2
095B0:  MOVF   FF2,W
095B2:  MOVWF  00
095B4:  BCF    FF2.7
095B6:  MOVLB  F
095B8:  MOVLW  55
095BA:  MOVWF  FA7
095BC:  MOVLW  AA
095BE:  MOVWF  FA7
095C0:  BSF    FA6.1
095C2:  BTFSC  FA6.1
095C4:  BRA    95C2
095C6:  BCF    FA6.2
095C8:  MOVF   00,W
095CA:  IORWF  FF2,F
....................                   delay_ms(20); 
095CC:  MOVLW  14
095CE:  MOVLB  5
095D0:  MOVWF  xF7
095D2:  MOVLB  0
095D4:  CALL   1500
....................                   Ttrabajo[3]=0;Ttrabajo[2]=0;Ttrabajo[1]=0;Ttrabajo[0]=0; 
095D8:  MOVLB  5
095DA:  CLRF   x06
095DC:  CLRF   x05
095DE:  CLRF   x04
095E0:  CLRF   x03
....................                   Menu=3;glcd_fillscreen(OFF);LuzBlanca_off; 
095E2:  MOVLW  03
095E4:  MOVLB  4
095E6:  MOVWF  xCD
095E8:  MOVLB  5
095EA:  CLRF   xEB
095EC:  MOVLB  0
095EE:  CALL   15E0
095F2:  BCF    F8B.0
095F4:  BCF    F94.0
....................             } 
....................              
....................             if(LEFT) 
095F6:  BSF    F96.2
095F8:  BTFSC  F84.2
095FA:  BRA    961A
....................             { 
....................                Menu=6;glcd_fillscreen(OFF);LuzBlanca_off;Opcion=1;unidad=1; 
095FC:  MOVLW  06
095FE:  MOVLB  4
09600:  MOVWF  xCD
09602:  MOVLB  5
09604:  CLRF   xEB
09606:  MOVLB  0
09608:  CALL   15E0
0960C:  BCF    F8B.0
0960E:  BCF    F94.0
09610:  MOVLW  01
09612:  MOVLB  4
09614:  MOVWF  xCF
09616:  MOVWF  xCE
09618:  MOVLB  0
....................             } 
....................     } 
.................... //_--------------------------------------------------------------------------------------------------------------------------------------------------------        
....................  
.................... //_-------------------------------------------------------------------------------------------------------------------------------------------------------- 
....................       if(Menu==32){ //Menu de Servicio 
0961A:  MOVLB  4
0961C:  MOVF   xCD,W
0961E:  SUBLW  20
09620:  BTFSS  FD8.2
09622:  BRA    993A
....................        
....................       strcpy(Menus.Letra,"Servicio"); 
09624:  MOVLW  04
09626:  MOVWF  FEA
09628:  MOVLW  17
0962A:  MOVWF  FE9
0962C:  MOVFF  FF2,5E3
09630:  BCF    FF2.7
09632:  MOVLW  00
09634:  MOVLB  0
09636:  CALL   118C
0963A:  TBLRD*-
0963C:  TBLRD*+
0963E:  MOVF   FF5,W
09640:  MOVWF  FEE
09642:  IORLW  00
09644:  BNZ   963C
09646:  MOVLB  5
09648:  BTFSC  xE3.7
0964A:  BSF    FF2.7
....................       displayMenu(Menus.Letra,10,0,1,2); 
0964C:  MOVLW  04
0964E:  MOVWF  xEC
09650:  MOVLW  17
09652:  MOVWF  xEB
09654:  MOVLW  0A
09656:  MOVWF  xED
09658:  CLRF   xEE
0965A:  MOVLW  01
0965C:  MOVWF  xEF
0965E:  MOVLW  02
09660:  MOVWF  xF0
09662:  MOVLB  0
09664:  CALL   4E36
....................        
....................       if(Opcion==1)    
09668:  MOVLB  4
0966A:  DECFSZ xCF,W
0966C:  BRA    96B4
....................          {strcpy(Menus.Letra,"Sensor de Flujo"); 
0966E:  MOVLW  04
09670:  MOVWF  FEA
09672:  MOVLW  17
09674:  MOVWF  FE9
09676:  MOVFF  FF2,5E3
0967A:  BCF    FF2.7
0967C:  MOVLW  00
0967E:  MOVLB  0
09680:  CALL   12B8
09684:  TBLRD*-
09686:  TBLRD*+
09688:  MOVF   FF5,W
0968A:  MOVWF  FEE
0968C:  IORLW  00
0968E:  BNZ   9686
09690:  MOVLB  5
09692:  BTFSC  xE3.7
09694:  BSF    FF2.7
....................          displayMenu(Menus.Letra,0,18,1,1);} 
09696:  MOVLW  04
09698:  MOVWF  xEC
0969A:  MOVLW  17
0969C:  MOVWF  xEB
0969E:  CLRF   xED
096A0:  MOVLW  12
096A2:  MOVWF  xEE
096A4:  MOVLW  01
096A6:  MOVWF  xEF
096A8:  MOVWF  xF0
096AA:  MOVLB  0
096AC:  CALL   4E36
....................       else 
096B0:  BRA    96F6
096B2:  MOVLB  4
....................          {strcpy(Menus.Letra,"Sensor de Flujo"); 
096B4:  MOVLW  04
096B6:  MOVWF  FEA
096B8:  MOVLW  17
096BA:  MOVWF  FE9
096BC:  MOVFF  FF2,5E3
096C0:  BCF    FF2.7
096C2:  MOVLW  00
096C4:  MOVLB  0
096C6:  CALL   12B8
096CA:  TBLRD*-
096CC:  TBLRD*+
096CE:  MOVF   FF5,W
096D0:  MOVWF  FEE
096D2:  IORLW  00
096D4:  BNZ   96CC
096D6:  MOVLB  5
096D8:  BTFSC  xE3.7
096DA:  BSF    FF2.7
....................          displayMenu(Menus.Letra,0,18,0,1);}  
096DC:  MOVLW  04
096DE:  MOVWF  xEC
096E0:  MOVLW  17
096E2:  MOVWF  xEB
096E4:  CLRF   xED
096E6:  MOVLW  12
096E8:  MOVWF  xEE
096EA:  CLRF   xEF
096EC:  MOVLW  01
096EE:  MOVWF  xF0
096F0:  MOVLB  0
096F2:  CALL   4E36
....................           
....................       if(Opcion==2)    
096F6:  MOVLB  4
096F8:  MOVF   xCF,W
096FA:  SUBLW  02
096FC:  BNZ   9744
....................          {strcpy(Menus.Letra,"Sensor de Presion"); 
096FE:  MOVLW  04
09700:  MOVWF  FEA
09702:  MOVLW  17
09704:  MOVWF  FE9
09706:  MOVFF  FF2,5E3
0970A:  BCF    FF2.7
0970C:  MOVLW  00
0970E:  MOVLB  0
09710:  CALL   12E6
09714:  TBLRD*-
09716:  TBLRD*+
09718:  MOVF   FF5,W
0971A:  MOVWF  FEE
0971C:  IORLW  00
0971E:  BNZ   9716
09720:  MOVLB  5
09722:  BTFSC  xE3.7
09724:  BSF    FF2.7
....................          displayMenu(Menus.Letra,0,29,1,1);} 
09726:  MOVLW  04
09728:  MOVWF  xEC
0972A:  MOVLW  17
0972C:  MOVWF  xEB
0972E:  CLRF   xED
09730:  MOVLW  1D
09732:  MOVWF  xEE
09734:  MOVLW  01
09736:  MOVWF  xEF
09738:  MOVWF  xF0
0973A:  MOVLB  0
0973C:  CALL   4E36
....................       else 
09740:  BRA    9786
09742:  MOVLB  4
....................          {strcpy(Menus.Letra,"Sensor de Presion"); 
09744:  MOVLW  04
09746:  MOVWF  FEA
09748:  MOVLW  17
0974A:  MOVWF  FE9
0974C:  MOVFF  FF2,5E3
09750:  BCF    FF2.7
09752:  MOVLW  00
09754:  MOVLB  0
09756:  CALL   12E6
0975A:  TBLRD*-
0975C:  TBLRD*+
0975E:  MOVF   FF5,W
09760:  MOVWF  FEE
09762:  IORLW  00
09764:  BNZ   975C
09766:  MOVLB  5
09768:  BTFSC  xE3.7
0976A:  BSF    FF2.7
....................          displayMenu(Menus.Letra,0,29,0,1);}   
0976C:  MOVLW  04
0976E:  MOVWF  xEC
09770:  MOVLW  17
09772:  MOVWF  xEB
09774:  CLRF   xED
09776:  MOVLW  1D
09778:  MOVWF  xEE
0977A:  CLRF   xEF
0977C:  MOVLW  01
0977E:  MOVWF  xF0
09780:  MOVLB  0
09782:  CALL   4E36
....................        
....................       if(Opcion==3)    
09786:  MOVLB  4
09788:  MOVF   xCF,W
0978A:  SUBLW  03
0978C:  BNZ   97D4
....................          {strcpy(Menus.Letra,"Velocidad Ventilador"); 
0978E:  MOVLW  04
09790:  MOVWF  FEA
09792:  MOVLW  17
09794:  MOVWF  FE9
09796:  MOVFF  FF2,5E3
0979A:  BCF    FF2.7
0979C:  MOVLW  00
0979E:  MOVLB  0
097A0:  CALL   1316
097A4:  TBLRD*-
097A6:  TBLRD*+
097A8:  MOVF   FF5,W
097AA:  MOVWF  FEE
097AC:  IORLW  00
097AE:  BNZ   97A6
097B0:  MOVLB  5
097B2:  BTFSC  xE3.7
097B4:  BSF    FF2.7
....................          displayMenu(Menus.Letra,0,40,1,1);} 
097B6:  MOVLW  04
097B8:  MOVWF  xEC
097BA:  MOVLW  17
097BC:  MOVWF  xEB
097BE:  CLRF   xED
097C0:  MOVLW  28
097C2:  MOVWF  xEE
097C4:  MOVLW  01
097C6:  MOVWF  xEF
097C8:  MOVWF  xF0
097CA:  MOVLB  0
097CC:  CALL   4E36
....................       else 
097D0:  BRA    9816
097D2:  MOVLB  4
....................          {strcpy(Menus.Letra,"Velocidad Ventilador"); 
097D4:  MOVLW  04
097D6:  MOVWF  FEA
097D8:  MOVLW  17
097DA:  MOVWF  FE9
097DC:  MOVFF  FF2,5E3
097E0:  BCF    FF2.7
097E2:  MOVLW  00
097E4:  MOVLB  0
097E6:  CALL   1316
097EA:  TBLRD*-
097EC:  TBLRD*+
097EE:  MOVF   FF5,W
097F0:  MOVWF  FEE
097F2:  IORLW  00
097F4:  BNZ   97EC
097F6:  MOVLB  5
097F8:  BTFSC  xE3.7
097FA:  BSF    FF2.7
....................          displayMenu(Menus.Letra,0,40,0,1);}  
097FC:  MOVLW  04
097FE:  MOVWF  xEC
09800:  MOVLW  17
09802:  MOVWF  xEB
09804:  CLRF   xED
09806:  MOVLW  28
09808:  MOVWF  xEE
0980A:  CLRF   xEF
0980C:  MOVLW  01
0980E:  MOVWF  xF0
09810:  MOVLB  0
09812:  CALL   4E36
....................        
....................          
....................       if(UP)//Si oprime hacia arriba 
09816:  BSF    F92.5
09818:  BTFSC  F80.5
0981A:  BRA    9836
....................       {  if(Flanco == 0)  
0981C:  MOVLB  4
0981E:  BTFSC  x2D.0
09820:  BRA    9834
....................             {Flanco = 1;delay_ms(30);Opcion--; 
09822:  BSF    x2D.0
09824:  MOVLW  1E
09826:  MOVLB  5
09828:  MOVWF  xF7
0982A:  MOVLB  0
0982C:  CALL   1500
09830:  MOVLB  4
09832:  DECF   xCF,F
....................             } 
....................       } 
....................          else 
09834:  BRA    983A
....................             {Flanco = 0;} 
09836:  MOVLB  4
09838:  BCF    x2D.0
....................              
....................       if(DOWN)//Si oprime hacia abajo 
0983A:  BSF    F96.0
0983C:  BTFSC  F84.0
0983E:  BRA    9858
....................       {  if(Flanco2 == 0)  
09840:  BTFSC  x2D.2
09842:  BRA    9856
....................             {Flanco2 = 1;delay_ms(30);Opcion++; 
09844:  BSF    x2D.2
09846:  MOVLW  1E
09848:  MOVLB  5
0984A:  MOVWF  xF7
0984C:  MOVLB  0
0984E:  CALL   1500
09852:  MOVLB  4
09854:  INCF   xCF,F
....................             }      
....................       } 
....................          else 
09856:  BRA    985A
....................             {Flanco2 = 0;}   
09858:  BCF    x2D.2
....................              
....................       if(RIGHT)//Si oprime SET 
0985A:  BSF    F96.1
0985C:  BTFSC  F84.1
0985E:  BRA    98F0
....................       {   
....................          delay_ms(20); 
09860:  MOVLW  14
09862:  MOVLB  5
09864:  MOVWF  xF7
09866:  MOVLB  0
09868:  CALL   1500
....................          if(RIGHT){ 
0986C:  BSF    F96.1
0986E:  BTFSC  F84.1
09870:  BRA    98F2
....................             delay_ms(100); 
09872:  MOVLW  64
09874:  MOVLB  5
09876:  MOVWF  xF7
09878:  MOVLB  0
0987A:  CALL   1500
....................             glcd_fillScreen(OFF); 
0987E:  MOVLB  5
09880:  CLRF   xEB
09882:  MOVLB  0
09884:  CALL   15E0
....................             while(!PidePassword(6,32,Opcion+40,4,4,4,4)){ 
09888:  MOVLW  28
0988A:  MOVLB  4
0988C:  ADDWF  xCF,W
0988E:  MOVLB  5
09890:  MOVWF  xE3
09892:  MOVLW  06
09894:  MOVWF  xE4
09896:  MOVLW  20
09898:  MOVWF  xE5
0989A:  MOVFF  5E3,5E6
0989E:  MOVLW  04
098A0:  MOVWF  xE7
098A2:  MOVWF  xE8
098A4:  MOVWF  xE9
098A6:  MOVWF  xEA
098A8:  MOVLB  0
098AA:  CALL   4F0E
098AE:  MOVF   01,F
098B0:  BNZ   98DE
....................                PidePassword(6,32,Opcion+40,4,4,4,4);glcd_update(); 
098B2:  MOVLW  28
098B4:  MOVLB  4
098B6:  ADDWF  xCF,W
098B8:  MOVLB  5
098BA:  MOVWF  xE3
098BC:  MOVLW  06
098BE:  MOVWF  xE4
098C0:  MOVLW  20
098C2:  MOVWF  xE5
098C4:  MOVFF  5E3,5E6
098C8:  MOVLW  04
098CA:  MOVWF  xE7
098CC:  MOVWF  xE8
098CE:  MOVWF  xE9
098D0:  MOVWF  xEA
098D2:  MOVLB  0
098D4:  CALL   4F0E
098D8:  CALL   163A
....................             }             
098DC:  BRA    9888
....................             glcd_fillScreen(OFF);Opcion=1;unidad=1; 
098DE:  MOVLB  5
098E0:  CLRF   xEB
098E2:  MOVLB  0
098E4:  CALL   15E0
098E8:  MOVLW  01
098EA:  MOVLB  4
098EC:  MOVWF  xCF
098EE:  MOVWF  xCE
098F0:  MOVLB  0
....................          } 
....................       } 
....................              
....................       if(LEFT)//Si oprime boton de Toma. 
098F2:  BSF    F96.2
098F4:  BTFSC  F84.2
098F6:  BRA    9926
....................         {delay_ms(700);Menu=6;glcd_fillscreen(OFF);Opcion=1;unidad=1;} 
098F8:  MOVLW  04
098FA:  MOVLB  5
098FC:  MOVWF  xE3
098FE:  MOVLW  AF
09900:  MOVWF  xF7
09902:  MOVLB  0
09904:  CALL   1500
09908:  MOVLB  5
0990A:  DECFSZ xE3,F
0990C:  BRA    98FE
0990E:  MOVLW  06
09910:  MOVLB  4
09912:  MOVWF  xCD
09914:  MOVLB  5
09916:  CLRF   xEB
09918:  MOVLB  0
0991A:  CALL   15E0
0991E:  MOVLW  01
09920:  MOVLB  4
09922:  MOVWF  xCF
09924:  MOVWF  xCE
....................          
....................       if(Opcion>3) 
09926:  MOVLB  4
09928:  MOVF   xCF,W
0992A:  SUBLW  03
0992C:  BC    9932
....................       {Opcion=1;} 
0992E:  MOVLW  01
09930:  MOVWF  xCF
....................       if(Opcion<1) 
09932:  MOVF   xCF,F
09934:  BNZ   993A
....................       {Opcion=3;} 
09936:  MOVLW  03
09938:  MOVWF  xCF
....................     } 
.................... //_--------------------------------------------------------------------------------------------------------------------------------------------------------        
....................  
.................... //_-------------------------------------------------------------------------------------------------------------------------------------------------------- 
....................       if(Menu==41){ //Menu de Sensor de Flujo. 
0993A:  MOVF   xCD,W
0993C:  SUBLW  29
0993E:  BTFSS  FD8.2
09940:  BRA    9F0A
....................        
....................       if(Ajuste1>10.0) 
09942:  MOVLB  6
09944:  CLRF   x17
09946:  CLRF   x16
09948:  MOVLW  20
0994A:  MOVWF  x15
0994C:  MOVLW  82
0994E:  MOVWF  x14
09950:  MOVFF  53A,61B
09954:  MOVFF  539,61A
09958:  MOVFF  538,619
0995C:  MOVFF  537,618
09960:  MOVLB  0
09962:  CALL   25C4
09966:  BNC   9974
....................          Ajuste1=0.0; 
09968:  MOVLB  5
0996A:  CLRF   x3A
0996C:  CLRF   x39
0996E:  CLRF   x38
09970:  CLRF   x37
09972:  MOVLB  0
....................        
....................       strcpy(Menus.Letra,"Sensor de Flujo"); 
09974:  MOVLW  04
09976:  MOVWF  FEA
09978:  MOVLW  17
0997A:  MOVWF  FE9
0997C:  MOVFF  FF2,5E3
09980:  BCF    FF2.7
09982:  MOVLW  00
09984:  CALL   12B8
09988:  TBLRD*-
0998A:  TBLRD*+
0998C:  MOVF   FF5,W
0998E:  MOVWF  FEE
09990:  IORLW  00
09992:  BNZ   998A
09994:  MOVLB  5
09996:  BTFSC  xE3.7
09998:  BSF    FF2.7
....................       displayMenu(Menus.Letra,10,0,1,1); 
0999A:  MOVLW  04
0999C:  MOVWF  xEC
0999E:  MOVLW  17
099A0:  MOVWF  xEB
099A2:  MOVLW  0A
099A4:  MOVWF  xED
099A6:  CLRF   xEE
099A8:  MOVLW  01
099AA:  MOVWF  xEF
099AC:  MOVWF  xF0
099AE:  MOVLB  0
099B0:  CALL   4E36
....................        
....................       glcd_text57(0, 12, ZF, 1, ON); 
099B4:  MOVLB  5
099B6:  CLRF   xFC
099B8:  MOVLW  0C
099BA:  MOVWF  xFD
099BC:  MOVLW  04
099BE:  MOVWF  xFF
099C0:  MOVLW  75
099C2:  MOVWF  xFE
099C4:  MOVLW  01
099C6:  MOVLB  6
099C8:  MOVWF  x00
099CA:  MOVWF  x01
099CC:  MOVLB  0
099CE:  CALL   1856
....................        
....................       glcd_text57(0, 20, ZA, 1, ON); 
099D2:  MOVLB  5
099D4:  CLRF   xFC
099D6:  MOVLW  14
099D8:  MOVWF  xFD
099DA:  MOVLW  04
099DC:  MOVWF  xFF
099DE:  MOVLW  83
099E0:  MOVWF  xFE
099E2:  MOVLW  01
099E4:  MOVLB  6
099E6:  MOVWF  x00
099E8:  MOVWF  x01
099EA:  MOVLB  0
099EC:  CALL   1856
....................        
....................       glcd_text57(0, 30, AJ, 1, ON);            
099F0:  MOVLB  5
099F2:  CLRF   xFC
099F4:  MOVLW  1E
099F6:  MOVWF  xFD
099F8:  MOVLW  04
099FA:  MOVWF  xFF
099FC:  MOVLW  8B
099FE:  MOVWF  xFE
09A00:  MOVLW  01
09A02:  MOVLB  6
09A04:  MOVWF  x00
09A06:  MOVWF  x01
09A08:  MOVLB  0
09A0A:  CALL   1856
....................        
....................       displayfloat(zero_actual,44,20,0,1); 
09A0E:  MOVFF  5C2,5EA
09A12:  MOVFF  5C1,5E9
09A16:  MOVFF  5C0,5E8
09A1A:  MOVFF  5BF,5E7
09A1E:  MOVLW  2C
09A20:  MOVLB  5
09A22:  MOVWF  xEB
09A24:  MOVLW  14
09A26:  MOVWF  xEC
09A28:  CLRF   xED
09A2A:  MOVLW  01
09A2C:  MOVWF  xEE
09A2E:  MOVLB  0
09A30:  CALL   5FC8
....................       displayfloat(Ajuste1,44,30,0,1); 
09A34:  MOVFF  53A,5EA
09A38:  MOVFF  539,5E9
09A3C:  MOVFF  538,5E8
09A40:  MOVFF  537,5E7
09A44:  MOVLW  2C
09A46:  MOVLB  5
09A48:  MOVWF  xEB
09A4A:  MOVLW  1E
09A4C:  MOVWF  xEC
09A4E:  CLRF   xED
09A50:  MOVLW  01
09A52:  MOVWF  xEE
09A54:  MOVLB  0
09A56:  CALL   5FC8
....................       displayfloat(Inflow_adc,0,40,0,1); 
09A5A:  MOVFF  4DC,619
09A5E:  MOVFF  4DB,618
09A62:  CALL   1A2C
09A66:  MOVFF  00,5E3
09A6A:  MOVFF  01,5E4
09A6E:  MOVFF  02,5E5
09A72:  MOVFF  03,5E6
09A76:  MOVFF  03,5EA
09A7A:  MOVFF  02,5E9
09A7E:  MOVFF  01,5E8
09A82:  MOVFF  00,5E7
09A86:  MOVLB  5
09A88:  CLRF   xEB
09A8A:  MOVLW  28
09A8C:  MOVWF  xEC
09A8E:  CLRF   xED
09A90:  MOVLW  01
09A92:  MOVWF  xEE
09A94:  MOVLB  0
09A96:  CALL   5FC8
.................... //      displayfloat(Diferencia,0,50,0,1); 
....................        
....................       if(UP)//Si oprime hacia arriba 
09A9A:  BSF    F92.5
09A9C:  BTFSC  F80.5
09A9E:  BRA    9AE6
....................       {   
....................          delay_ms(30);Ajuste1+=0.01; 
09AA0:  MOVLW  1E
09AA2:  MOVLB  5
09AA4:  MOVWF  xF7
09AA6:  MOVLB  0
09AA8:  CALL   1500
09AAC:  BCF    FD8.1
09AAE:  MOVFF  53A,61B
09AB2:  MOVFF  539,61A
09AB6:  MOVFF  538,619
09ABA:  MOVFF  537,618
09ABE:  MOVLW  0A
09AC0:  MOVLB  6
09AC2:  MOVWF  x1F
09AC4:  MOVLW  D7
09AC6:  MOVWF  x1E
09AC8:  MOVLW  23
09ACA:  MOVWF  x1D
09ACC:  MOVLW  78
09ACE:  MOVWF  x1C
09AD0:  MOVLB  0
09AD2:  CALL   1BC0
09AD6:  MOVFF  03,53A
09ADA:  MOVFF  02,539
09ADE:  MOVFF  01,538
09AE2:  MOVFF  00,537
....................       } 
....................              
....................       if(DOWN)//Si oprime hacia abajo 
09AE6:  BSF    F96.0
09AE8:  BTFSC  F84.0
09AEA:  BRA    9B32
....................       {    
....................          delay_ms(30);Ajuste1-=0.01; 
09AEC:  MOVLW  1E
09AEE:  MOVLB  5
09AF0:  MOVWF  xF7
09AF2:  MOVLB  0
09AF4:  CALL   1500
09AF8:  BSF    FD8.1
09AFA:  MOVFF  53A,61B
09AFE:  MOVFF  539,61A
09B02:  MOVFF  538,619
09B06:  MOVFF  537,618
09B0A:  MOVLW  0A
09B0C:  MOVLB  6
09B0E:  MOVWF  x1F
09B10:  MOVLW  D7
09B12:  MOVWF  x1E
09B14:  MOVLW  23
09B16:  MOVWF  x1D
09B18:  MOVLW  78
09B1A:  MOVWF  x1C
09B1C:  MOVLB  0
09B1E:  CALL   1BC0
09B22:  MOVFF  03,53A
09B26:  MOVFF  02,539
09B2A:  MOVFF  01,538
09B2E:  MOVFF  00,537
....................       } 
....................              
....................       if(RIGHT)//Si oprime SET 
09B32:  BSF    F96.1
09B34:  BTFSC  F84.1
09B36:  BRA    9DA4
....................       {   
....................          zero_actual=Inflow_adc; 
09B38:  MOVFF  4DC,619
09B3C:  MOVFF  4DB,618
09B40:  CALL   1A2C
09B44:  MOVFF  03,5C2
09B48:  MOVFF  02,5C1
09B4C:  MOVFF  01,5C0
09B50:  MOVFF  00,5BF
....................          Diferencia=zero_fabrica-Inflow_adc; 
09B54:  MOVFF  4DC,619
09B58:  MOVFF  4DB,618
09B5C:  CALL   1A2C
09B60:  BSF    FD8.1
09B62:  MOVFF  5BE,61B
09B66:  MOVFF  5BD,61A
09B6A:  MOVFF  5BC,619
09B6E:  MOVFF  5BB,618
09B72:  MOVFF  03,61F
09B76:  MOVFF  02,61E
09B7A:  MOVFF  01,61D
09B7E:  MOVFF  00,61C
09B82:  CALL   1BC0
09B86:  MOVFF  03,51E
09B8A:  MOVFF  02,51D
09B8E:  MOVFF  01,51C
09B92:  MOVFF  00,51B
....................              
....................          if(Diferencia>=0) 
09B96:  MOVLB  6
09B98:  CLRF   x17
09B9A:  CLRF   x16
09B9C:  CLRF   x15
09B9E:  CLRF   x14
09BA0:  MOVFF  51E,61B
09BA4:  MOVFF  51D,61A
09BA8:  MOVFF  51C,619
09BAC:  MOVFF  51B,618
09BB0:  MOVLB  0
09BB2:  CALL   25C4
09BB6:  BC    9BBA
09BB8:  BNZ   9BF8
....................          { 
....................             negativo=10;write_eeprom(50,negativo);delay_ms(20); 
09BBA:  MOVLW  0A
09BBC:  MOVLB  4
09BBE:  MOVWF  xD0
09BC0:  CLRF   FAA
09BC2:  MOVLW  32
09BC4:  MOVWF  FA9
09BC6:  MOVFF  4D0,FA8
09BCA:  BCF    FA6.6
09BCC:  BCF    FA6.7
09BCE:  BSF    FA6.2
09BD0:  MOVF   FF2,W
09BD2:  MOVWF  00
09BD4:  BCF    FF2.7
09BD6:  MOVLB  F
09BD8:  MOVLW  55
09BDA:  MOVWF  FA7
09BDC:  MOVLW  AA
09BDE:  MOVWF  FA7
09BE0:  BSF    FA6.1
09BE2:  BTFSC  FA6.1
09BE4:  BRA    9BE2
09BE6:  BCF    FA6.2
09BE8:  MOVF   00,W
09BEA:  IORWF  FF2,F
09BEC:  MOVLW  14
09BEE:  MOVLB  5
09BF0:  MOVWF  xF7
09BF2:  MOVLB  0
09BF4:  CALL   1500
....................          } 
....................          if(Diferencia<0) 
09BF8:  MOVFF  51E,617
09BFC:  MOVFF  51D,616
09C00:  MOVFF  51C,615
09C04:  MOVFF  51B,614
09C08:  MOVLB  6
09C0A:  CLRF   x1B
09C0C:  CLRF   x1A
09C0E:  CLRF   x19
09C10:  CLRF   x18
09C12:  MOVLB  0
09C14:  CALL   25C4
09C18:  BNC   9C58
....................          { 
....................             negativo=20;write_eeprom(50,negativo);delay_ms(20); 
09C1A:  MOVLW  14
09C1C:  MOVLB  4
09C1E:  MOVWF  xD0
09C20:  CLRF   FAA
09C22:  MOVLW  32
09C24:  MOVWF  FA9
09C26:  MOVFF  4D0,FA8
09C2A:  BCF    FA6.6
09C2C:  BCF    FA6.7
09C2E:  BSF    FA6.2
09C30:  MOVF   FF2,W
09C32:  MOVWF  00
09C34:  BCF    FF2.7
09C36:  MOVLB  F
09C38:  MOVLW  55
09C3A:  MOVWF  FA7
09C3C:  MOVLW  AA
09C3E:  MOVWF  FA7
09C40:  BSF    FA6.1
09C42:  BTFSC  FA6.1
09C44:  BRA    9C42
09C46:  BCF    FA6.2
09C48:  MOVF   00,W
09C4A:  IORWF  FF2,F
09C4C:  MOVLW  14
09C4E:  MOVLB  5
09C50:  MOVWF  xF7
09C52:  MOVLB  0
09C54:  CALL   1500
....................          } 
....................          Diferencia=abs(Diferencia); 
09C58:  MOVFF  51B,00
09C5C:  MOVFF  51C,01
09C60:  MOVFF  51D,02
09C64:  MOVFF  51E,03
09C68:  BCF    01.7
09C6A:  MOVFF  51E,51E
09C6E:  MOVFF  51D,51D
09C72:  MOVFF  01,51C
09C76:  MOVFF  51B,51B
....................          Temporal1=(int16)Diferencia; 
09C7A:  MOVFF  51E,617
09C7E:  MOVFF  51D,616
09C82:  MOVFF  51C,615
09C86:  MOVFF  51B,614
09C8A:  CALL   3008
09C8E:  MOVFF  02,4E0
09C92:  MOVFF  01,4DF
....................          write_eeprom(60,make8(Temporal1,0)); 
09C96:  MOVFF  4DF,5E3
09C9A:  CLRF   FAA
09C9C:  MOVLW  3C
09C9E:  MOVWF  FA9
09CA0:  MOVFF  5E3,FA8
09CA4:  BCF    FA6.6
09CA6:  BCF    FA6.7
09CA8:  BSF    FA6.2
09CAA:  MOVF   FF2,W
09CAC:  MOVWF  00
09CAE:  BCF    FF2.7
09CB0:  MOVLB  F
09CB2:  MOVLW  55
09CB4:  MOVWF  FA7
09CB6:  MOVLW  AA
09CB8:  MOVWF  FA7
09CBA:  BSF    FA6.1
09CBC:  BTFSC  FA6.1
09CBE:  BRA    9CBC
09CC0:  BCF    FA6.2
09CC2:  MOVF   00,W
09CC4:  IORWF  FF2,F
....................          delay_ms(20); 
09CC6:  MOVLW  14
09CC8:  MOVLB  5
09CCA:  MOVWF  xF7
09CCC:  MOVLB  0
09CCE:  CALL   1500
....................          write_eeprom(61,make8(Temporal1,1));//Guardar valor de Setpoint en eeprom 
09CD2:  MOVFF  4E0,5E3
09CD6:  CLRF   FAA
09CD8:  MOVLW  3D
09CDA:  MOVWF  FA9
09CDC:  MOVFF  5E3,FA8
09CE0:  BCF    FA6.6
09CE2:  BCF    FA6.7
09CE4:  BSF    FA6.2
09CE6:  MOVF   FF2,W
09CE8:  MOVWF  00
09CEA:  BCF    FF2.7
09CEC:  MOVLB  F
09CEE:  MOVLW  55
09CF0:  MOVWF  FA7
09CF2:  MOVLW  AA
09CF4:  MOVWF  FA7
09CF6:  BSF    FA6.1
09CF8:  BTFSC  FA6.1
09CFA:  BRA    9CF8
09CFC:  BCF    FA6.2
09CFE:  MOVF   00,W
09D00:  IORWF  FF2,F
....................          delay_ms(20); 
09D02:  MOVLW  14
09D04:  MOVLB  5
09D06:  MOVWF  xF7
09D08:  MOVLB  0
09D0A:  CALL   1500
....................  
....................          Temporal1=(int16)zero_actual; 
09D0E:  MOVFF  5C2,617
09D12:  MOVFF  5C1,616
09D16:  MOVFF  5C0,615
09D1A:  MOVFF  5BF,614
09D1E:  CALL   3008
09D22:  MOVFF  02,4E0
09D26:  MOVFF  01,4DF
....................          write_eeprom(29,make8(Temporal1,0)); 
09D2A:  MOVFF  4DF,5E3
09D2E:  CLRF   FAA
09D30:  MOVLW  1D
09D32:  MOVWF  FA9
09D34:  MOVFF  5E3,FA8
09D38:  BCF    FA6.6
09D3A:  BCF    FA6.7
09D3C:  BSF    FA6.2
09D3E:  MOVF   FF2,W
09D40:  MOVWF  00
09D42:  BCF    FF2.7
09D44:  MOVLB  F
09D46:  MOVLW  55
09D48:  MOVWF  FA7
09D4A:  MOVLW  AA
09D4C:  MOVWF  FA7
09D4E:  BSF    FA6.1
09D50:  BTFSC  FA6.1
09D52:  BRA    9D50
09D54:  BCF    FA6.2
09D56:  MOVF   00,W
09D58:  IORWF  FF2,F
....................          delay_ms(20); 
09D5A:  MOVLW  14
09D5C:  MOVLB  5
09D5E:  MOVWF  xF7
09D60:  MOVLB  0
09D62:  CALL   1500
....................          write_eeprom(30,make8(Temporal1,1));//Guardar valor de Setpoint en eeprom 
09D66:  MOVFF  4E0,5E3
09D6A:  CLRF   FAA
09D6C:  MOVLW  1E
09D6E:  MOVWF  FA9
09D70:  MOVFF  5E3,FA8
09D74:  BCF    FA6.6
09D76:  BCF    FA6.7
09D78:  BSF    FA6.2
09D7A:  MOVF   FF2,W
09D7C:  MOVWF  00
09D7E:  BCF    FF2.7
09D80:  MOVLB  F
09D82:  MOVLW  55
09D84:  MOVWF  FA7
09D86:  MOVLW  AA
09D88:  MOVWF  FA7
09D8A:  BSF    FA6.1
09D8C:  BTFSC  FA6.1
09D8E:  BRA    9D8C
09D90:  BCF    FA6.2
09D92:  MOVF   00,W
09D94:  IORWF  FF2,F
....................          delay_ms(20); 
09D96:  MOVLW  14
09D98:  MOVLB  5
09D9A:  MOVWF  xF7
09D9C:  MOVLB  0
09D9E:  CALL   1500
....................       } 
....................          else 
09DA2:  BRA    9DAA
....................             {Flanco1 = 0;}   
09DA4:  MOVLB  4
09DA6:  BCF    x2D.1
09DA8:  MOVLB  0
....................              
....................       if(LEFT)//Si oprime boton de Toma. 
09DAA:  BSF    F96.2
09DAC:  BTFSC  F84.2
09DAE:  BRA    9F08
....................       { 
....................          delay_ms(700);Menu=32;glcd_fillscreen(OFF);Opcion=1;unidad=1; 
09DB0:  MOVLW  04
09DB2:  MOVLB  5
09DB4:  MOVWF  xE3
09DB6:  MOVLW  AF
09DB8:  MOVWF  xF7
09DBA:  MOVLB  0
09DBC:  CALL   1500
09DC0:  MOVLB  5
09DC2:  DECFSZ xE3,F
09DC4:  BRA    9DB6
09DC6:  MOVLW  20
09DC8:  MOVLB  4
09DCA:  MOVWF  xCD
09DCC:  MOVLB  5
09DCE:  CLRF   xEB
09DD0:  MOVLB  0
09DD2:  CALL   15E0
09DD6:  MOVLW  01
09DD8:  MOVLB  4
09DDA:  MOVWF  xCF
09DDC:  MOVWF  xCE
....................          Temporal=Ajuste1; 
09DDE:  MOVFF  53A,542
09DE2:  MOVFF  539,541
09DE6:  MOVFF  538,540
09DEA:  MOVFF  537,53F
....................          Entero=(int)Ajuste1; 
09DEE:  MOVFF  53A,617
09DF2:  MOVFF  539,616
09DF6:  MOVFF  538,615
09DFA:  MOVFF  537,614
09DFE:  MOVLB  0
09E00:  CALL   3008
09E04:  MOVFF  01,4D8
....................          Temporal=Temporal-Entero; 
09E08:  MOVLB  6
09E0A:  CLRF   x19
09E0C:  MOVFF  4D8,618
09E10:  MOVLB  0
09E12:  CALL   1A2C
09E16:  BSF    FD8.1
09E18:  MOVFF  542,61B
09E1C:  MOVFF  541,61A
09E20:  MOVFF  540,619
09E24:  MOVFF  53F,618
09E28:  MOVFF  03,61F
09E2C:  MOVFF  02,61E
09E30:  MOVFF  01,61D
09E34:  MOVFF  00,61C
09E38:  CALL   1BC0
09E3C:  MOVFF  03,542
09E40:  MOVFF  02,541
09E44:  MOVFF  01,540
09E48:  MOVFF  00,53F
....................          Temporal2=Temporal*10.0; 
09E4C:  MOVFF  542,617
09E50:  MOVFF  541,616
09E54:  MOVFF  540,615
09E58:  MOVFF  53F,614
09E5C:  MOVLB  6
09E5E:  CLRF   x1B
09E60:  CLRF   x1A
09E62:  MOVLW  20
09E64:  MOVWF  x19
09E66:  MOVLW  82
09E68:  MOVWF  x18
09E6A:  MOVLB  0
09E6C:  CALL   3044
09E70:  MOVFF  03,546
09E74:  MOVFF  02,545
09E78:  MOVFF  01,544
09E7C:  MOVFF  00,543
....................          Decimal1=(int8)Temporal2; 
09E80:  MOVFF  546,617
09E84:  MOVFF  545,616
09E88:  MOVFF  544,615
09E8C:  MOVFF  543,614
09E90:  CALL   3008
09E94:  MOVFF  01,4D9
....................          write_eeprom(25,Entero); 
09E98:  CLRF   FAA
09E9A:  MOVLW  19
09E9C:  MOVWF  FA9
09E9E:  MOVFF  4D8,FA8
09EA2:  BCF    FA6.6
09EA4:  BCF    FA6.7
09EA6:  BSF    FA6.2
09EA8:  MOVF   FF2,W
09EAA:  MOVWF  00
09EAC:  BCF    FF2.7
09EAE:  MOVLB  F
09EB0:  MOVLW  55
09EB2:  MOVWF  FA7
09EB4:  MOVLW  AA
09EB6:  MOVWF  FA7
09EB8:  BSF    FA6.1
09EBA:  BTFSC  FA6.1
09EBC:  BRA    9EBA
09EBE:  BCF    FA6.2
09EC0:  MOVF   00,W
09EC2:  IORWF  FF2,F
....................          delay_ms(20); 
09EC4:  MOVLW  14
09EC6:  MOVLB  5
09EC8:  MOVWF  xF7
09ECA:  MOVLB  0
09ECC:  CALL   1500
....................          write_eeprom(26,Decimal1); 
09ED0:  CLRF   FAA
09ED2:  MOVLW  1A
09ED4:  MOVWF  FA9
09ED6:  MOVFF  4D9,FA8
09EDA:  BCF    FA6.6
09EDC:  BCF    FA6.7
09EDE:  BSF    FA6.2
09EE0:  MOVF   FF2,W
09EE2:  MOVWF  00
09EE4:  BCF    FF2.7
09EE6:  MOVLB  F
09EE8:  MOVLW  55
09EEA:  MOVWF  FA7
09EEC:  MOVLW  AA
09EEE:  MOVWF  FA7
09EF0:  BSF    FA6.1
09EF2:  BTFSC  FA6.1
09EF4:  BRA    9EF2
09EF6:  BCF    FA6.2
09EF8:  MOVF   00,W
09EFA:  IORWF  FF2,F
....................          delay_ms(20); 
09EFC:  MOVLW  14
09EFE:  MOVLB  5
09F00:  MOVWF  xF7
09F02:  MOVLB  0
09F04:  CALL   1500
09F08:  MOVLB  4
....................       } 
....................     } 
.................... //_--------------------------------------------------------------------------------------------------------------------------------------------------------        
....................  
.................... //_-------------------------------------------------------------------------------------------------------------------------------------------------------- 
....................       if(Menu==42){ //Menu de Sensor de Presin. 
09F0A:  MOVF   xCD,W
09F0C:  SUBLW  2A
09F0E:  BTFSS  FD8.2
09F10:  BRA    A344
....................        
....................       if(Ajuste2>10.0) 
09F12:  MOVLB  6
09F14:  CLRF   x17
09F16:  CLRF   x16
09F18:  MOVLW  20
09F1A:  MOVWF  x15
09F1C:  MOVLW  82
09F1E:  MOVWF  x14
09F20:  MOVFF  53E,61B
09F24:  MOVFF  53D,61A
09F28:  MOVFF  53C,619
09F2C:  MOVFF  53B,618
09F30:  MOVLB  0
09F32:  CALL   25C4
09F36:  BNC   9F44
....................          Ajuste2=0.0; 
09F38:  MOVLB  5
09F3A:  CLRF   x3E
09F3C:  CLRF   x3D
09F3E:  CLRF   x3C
09F40:  CLRF   x3B
09F42:  MOVLB  0
....................        
....................       strcpy(Menus.Letra,"Sensor de Presion"); 
09F44:  MOVLW  04
09F46:  MOVWF  FEA
09F48:  MOVLW  17
09F4A:  MOVWF  FE9
09F4C:  MOVFF  FF2,5E3
09F50:  BCF    FF2.7
09F52:  MOVLW  00
09F54:  CALL   12E6
09F58:  TBLRD*-
09F5A:  TBLRD*+
09F5C:  MOVF   FF5,W
09F5E:  MOVWF  FEE
09F60:  IORLW  00
09F62:  BNZ   9F5A
09F64:  MOVLB  5
09F66:  BTFSC  xE3.7
09F68:  BSF    FF2.7
....................       displayMenu(Menus.Letra,10,0,1,1); 
09F6A:  MOVLW  04
09F6C:  MOVWF  xEC
09F6E:  MOVLW  17
09F70:  MOVWF  xEB
09F72:  MOVLW  0A
09F74:  MOVWF  xED
09F76:  CLRF   xEE
09F78:  MOVLW  01
09F7A:  MOVWF  xEF
09F7C:  MOVWF  xF0
09F7E:  MOVLB  0
09F80:  CALL   4E36
....................        
....................       glcd_text57(0, 12, ZFP, 1, ON); 
09F84:  MOVLB  5
09F86:  CLRF   xFC
09F88:  MOVLW  0C
09F8A:  MOVWF  xFD
09F8C:  MOVLW  04
09F8E:  MOVWF  xFF
09F90:  MOVLW  9B
09F92:  MOVWF  xFE
09F94:  MOVLW  01
09F96:  MOVLB  6
09F98:  MOVWF  x00
09F9A:  MOVWF  x01
09F9C:  MOVLB  0
09F9E:  CALL   1856
....................        
....................       glcd_text57(0, 20, ZA, 1, ON); 
09FA2:  MOVLB  5
09FA4:  CLRF   xFC
09FA6:  MOVLW  14
09FA8:  MOVWF  xFD
09FAA:  MOVLW  04
09FAC:  MOVWF  xFF
09FAE:  MOVLW  83
09FB0:  MOVWF  xFE
09FB2:  MOVLW  01
09FB4:  MOVLB  6
09FB6:  MOVWF  x00
09FB8:  MOVWF  x01
09FBA:  MOVLB  0
09FBC:  CALL   1856
....................        
....................       glcd_text57(0, 30, AJ, 1, ON);            
09FC0:  MOVLB  5
09FC2:  CLRF   xFC
09FC4:  MOVLW  1E
09FC6:  MOVWF  xFD
09FC8:  MOVLW  04
09FCA:  MOVWF  xFF
09FCC:  MOVLW  8B
09FCE:  MOVWF  xFE
09FD0:  MOVLW  01
09FD2:  MOVLB  6
09FD4:  MOVWF  x00
09FD6:  MOVWF  x01
09FD8:  MOVLB  0
09FDA:  CALL   1856
....................        
....................       displayfloat(G,44,20,0,1); 
09FDE:  MOVFF  5CE,5EA
09FE2:  MOVFF  5CD,5E9
09FE6:  MOVFF  5CC,5E8
09FEA:  MOVFF  5CB,5E7
09FEE:  MOVLW  2C
09FF0:  MOVLB  5
09FF2:  MOVWF  xEB
09FF4:  MOVLW  14
09FF6:  MOVWF  xEC
09FF8:  CLRF   xED
09FFA:  MOVLW  01
09FFC:  MOVWF  xEE
09FFE:  MOVLB  0
0A000:  CALL   5FC8
....................       displayfloat(Ajuste2,44,30,0,1); 
0A004:  MOVFF  53E,5EA
0A008:  MOVFF  53D,5E9
0A00C:  MOVFF  53C,5E8
0A010:  MOVFF  53B,5E7
0A014:  MOVLW  2C
0A016:  MOVLB  5
0A018:  MOVWF  xEB
0A01A:  MOVLW  1E
0A01C:  MOVWF  xEC
0A01E:  CLRF   xED
0A020:  MOVLW  01
0A022:  MOVWF  xEE
0A024:  MOVLB  0
0A026:  CALL   5FC8
....................       displayfloat(Filtro_DownFlow_adc,0,40,0,1); 
0A02A:  MOVFF  4DE,619
0A02E:  MOVFF  4DD,618
0A032:  CALL   1A2C
0A036:  MOVFF  00,5E3
0A03A:  MOVFF  01,5E4
0A03E:  MOVFF  02,5E5
0A042:  MOVFF  03,5E6
0A046:  MOVFF  03,5EA
0A04A:  MOVFF  02,5E9
0A04E:  MOVFF  01,5E8
0A052:  MOVFF  00,5E7
0A056:  MOVLB  5
0A058:  CLRF   xEB
0A05A:  MOVLW  28
0A05C:  MOVWF  xEC
0A05E:  CLRF   xED
0A060:  MOVLW  01
0A062:  MOVWF  xEE
0A064:  MOVLB  0
0A066:  CALL   5FC8
....................       displayfloat(Filtro_DownFlow,0,50,0,1); 
0A06A:  MOVFF  51A,5EA
0A06E:  MOVFF  519,5E9
0A072:  MOVFF  518,5E8
0A076:  MOVFF  517,5E7
0A07A:  MOVLB  5
0A07C:  CLRF   xEB
0A07E:  MOVLW  32
0A080:  MOVWF  xEC
0A082:  CLRF   xED
0A084:  MOVLW  01
0A086:  MOVWF  xEE
0A088:  MOVLB  0
0A08A:  CALL   5FC8
....................        
....................       if(UP)//Si oprime hacia arriba 
0A08E:  BSF    F92.5
0A090:  BTFSC  F80.5
0A092:  BRA    A0DA
....................       {   
....................          delay_ms(30);Ajuste2+=0.01; 
0A094:  MOVLW  1E
0A096:  MOVLB  5
0A098:  MOVWF  xF7
0A09A:  MOVLB  0
0A09C:  CALL   1500
0A0A0:  BCF    FD8.1
0A0A2:  MOVFF  53E,61B
0A0A6:  MOVFF  53D,61A
0A0AA:  MOVFF  53C,619
0A0AE:  MOVFF  53B,618
0A0B2:  MOVLW  0A
0A0B4:  MOVLB  6
0A0B6:  MOVWF  x1F
0A0B8:  MOVLW  D7
0A0BA:  MOVWF  x1E
0A0BC:  MOVLW  23
0A0BE:  MOVWF  x1D
0A0C0:  MOVLW  78
0A0C2:  MOVWF  x1C
0A0C4:  MOVLB  0
0A0C6:  CALL   1BC0
0A0CA:  MOVFF  03,53E
0A0CE:  MOVFF  02,53D
0A0D2:  MOVFF  01,53C
0A0D6:  MOVFF  00,53B
....................       } 
....................              
....................       if(DOWN)//Si oprime hacia abajo 
0A0DA:  BSF    F96.0
0A0DC:  BTFSC  F84.0
0A0DE:  BRA    A126
....................       {   
....................          delay_ms(30);Ajuste2-=0.01; 
0A0E0:  MOVLW  1E
0A0E2:  MOVLB  5
0A0E4:  MOVWF  xF7
0A0E6:  MOVLB  0
0A0E8:  CALL   1500
0A0EC:  BSF    FD8.1
0A0EE:  MOVFF  53E,61B
0A0F2:  MOVFF  53D,61A
0A0F6:  MOVFF  53C,619
0A0FA:  MOVFF  53B,618
0A0FE:  MOVLW  0A
0A100:  MOVLB  6
0A102:  MOVWF  x1F
0A104:  MOVLW  D7
0A106:  MOVWF  x1E
0A108:  MOVLW  23
0A10A:  MOVWF  x1D
0A10C:  MOVLW  78
0A10E:  MOVWF  x1C
0A110:  MOVLB  0
0A112:  CALL   1BC0
0A116:  MOVFF  03,53E
0A11A:  MOVFF  02,53D
0A11E:  MOVFF  01,53C
0A122:  MOVFF  00,53B
....................       } 
....................              
....................       if(RIGHT)//Si oprime SET 
0A126:  BSF    F96.1
0A128:  BTFSC  F84.1
0A12A:  BRA    A1DE
....................       {            
....................          G=Filtro_Downflow_adc; 
0A12C:  MOVFF  4DE,619
0A130:  MOVFF  4DD,618
0A134:  CALL   1A2C
0A138:  MOVFF  03,5CE
0A13C:  MOVFF  02,5CD
0A140:  MOVFF  01,5CC
0A144:  MOVFF  00,5CB
....................          G16=(int16)G; 
0A148:  MOVFF  5CE,617
0A14C:  MOVFF  5CD,616
0A150:  MOVFF  5CC,615
0A154:  MOVFF  5CB,614
0A158:  CALL   3008
0A15C:  MOVFF  02,4EA
0A160:  MOVFF  01,4E9
....................          G_l=G16; G_h=(G16>>8); 
0A164:  MOVFF  4E9,4D1
0A168:  MOVFF  4EA,4D2
....................              
....................          write_eeprom(62,G_l); 
0A16C:  CLRF   FAA
0A16E:  MOVLW  3E
0A170:  MOVWF  FA9
0A172:  MOVFF  4D1,FA8
0A176:  BCF    FA6.6
0A178:  BCF    FA6.7
0A17A:  BSF    FA6.2
0A17C:  MOVF   FF2,W
0A17E:  MOVWF  00
0A180:  BCF    FF2.7
0A182:  MOVLB  F
0A184:  MOVLW  55
0A186:  MOVWF  FA7
0A188:  MOVLW  AA
0A18A:  MOVWF  FA7
0A18C:  BSF    FA6.1
0A18E:  BTFSC  FA6.1
0A190:  BRA    A18E
0A192:  BCF    FA6.2
0A194:  MOVF   00,W
0A196:  IORWF  FF2,F
....................          delay_ms(20); 
0A198:  MOVLW  14
0A19A:  MOVLB  5
0A19C:  MOVWF  xF7
0A19E:  MOVLB  0
0A1A0:  CALL   1500
....................          write_eeprom(63,G_h);//Guardar valor de Setpoint en eeprom 
0A1A4:  CLRF   FAA
0A1A6:  MOVLW  3F
0A1A8:  MOVWF  FA9
0A1AA:  MOVFF  4D2,FA8
0A1AE:  BCF    FA6.6
0A1B0:  BCF    FA6.7
0A1B2:  BSF    FA6.2
0A1B4:  MOVF   FF2,W
0A1B6:  MOVWF  00
0A1B8:  BCF    FF2.7
0A1BA:  MOVLB  F
0A1BC:  MOVLW  55
0A1BE:  MOVWF  FA7
0A1C0:  MOVLW  AA
0A1C2:  MOVWF  FA7
0A1C4:  BSF    FA6.1
0A1C6:  BTFSC  FA6.1
0A1C8:  BRA    A1C6
0A1CA:  BCF    FA6.2
0A1CC:  MOVF   00,W
0A1CE:  IORWF  FF2,F
....................          delay_ms(20); 
0A1D0:  MOVLW  14
0A1D2:  MOVLB  5
0A1D4:  MOVWF  xF7
0A1D6:  MOVLB  0
0A1D8:  CALL   1500
....................       } 
....................          else 
0A1DC:  BRA    A1E4
....................             {Flanco1 = 0;}   
0A1DE:  MOVLB  4
0A1E0:  BCF    x2D.1
0A1E2:  MOVLB  0
....................              
....................       if(LEFT)//Si oprime boton de Toma. 
0A1E4:  BSF    F96.2
0A1E6:  BTFSC  F84.2
0A1E8:  BRA    A342
....................       {                   
....................          delay_ms(700);Menu=32;glcd_fillscreen(OFF);Opcion=1;unidad=1; 
0A1EA:  MOVLW  04
0A1EC:  MOVLB  5
0A1EE:  MOVWF  xE3
0A1F0:  MOVLW  AF
0A1F2:  MOVWF  xF7
0A1F4:  MOVLB  0
0A1F6:  CALL   1500
0A1FA:  MOVLB  5
0A1FC:  DECFSZ xE3,F
0A1FE:  BRA    A1F0
0A200:  MOVLW  20
0A202:  MOVLB  4
0A204:  MOVWF  xCD
0A206:  MOVLB  5
0A208:  CLRF   xEB
0A20A:  MOVLB  0
0A20C:  CALL   15E0
0A210:  MOVLW  01
0A212:  MOVLB  4
0A214:  MOVWF  xCF
0A216:  MOVWF  xCE
....................          Temporal=Ajuste2; 
0A218:  MOVFF  53E,542
0A21C:  MOVFF  53D,541
0A220:  MOVFF  53C,540
0A224:  MOVFF  53B,53F
....................          Entero=(int)Ajuste2; 
0A228:  MOVFF  53E,617
0A22C:  MOVFF  53D,616
0A230:  MOVFF  53C,615
0A234:  MOVFF  53B,614
0A238:  MOVLB  0
0A23A:  CALL   3008
0A23E:  MOVFF  01,4D8
....................          Temporal=Temporal-Entero; 
0A242:  MOVLB  6
0A244:  CLRF   x19
0A246:  MOVFF  4D8,618
0A24A:  MOVLB  0
0A24C:  CALL   1A2C
0A250:  BSF    FD8.1
0A252:  MOVFF  542,61B
0A256:  MOVFF  541,61A
0A25A:  MOVFF  540,619
0A25E:  MOVFF  53F,618
0A262:  MOVFF  03,61F
0A266:  MOVFF  02,61E
0A26A:  MOVFF  01,61D
0A26E:  MOVFF  00,61C
0A272:  CALL   1BC0
0A276:  MOVFF  03,542
0A27A:  MOVFF  02,541
0A27E:  MOVFF  01,540
0A282:  MOVFF  00,53F
....................          Temporal2=Temporal*10.0; 
0A286:  MOVFF  542,617
0A28A:  MOVFF  541,616
0A28E:  MOVFF  540,615
0A292:  MOVFF  53F,614
0A296:  MOVLB  6
0A298:  CLRF   x1B
0A29A:  CLRF   x1A
0A29C:  MOVLW  20
0A29E:  MOVWF  x19
0A2A0:  MOVLW  82
0A2A2:  MOVWF  x18
0A2A4:  MOVLB  0
0A2A6:  CALL   3044
0A2AA:  MOVFF  03,546
0A2AE:  MOVFF  02,545
0A2B2:  MOVFF  01,544
0A2B6:  MOVFF  00,543
....................          Decimal1=(int8)Temporal2; 
0A2BA:  MOVFF  546,617
0A2BE:  MOVFF  545,616
0A2C2:  MOVFF  544,615
0A2C6:  MOVFF  543,614
0A2CA:  CALL   3008
0A2CE:  MOVFF  01,4D9
....................          write_eeprom(27,Entero); 
0A2D2:  CLRF   FAA
0A2D4:  MOVLW  1B
0A2D6:  MOVWF  FA9
0A2D8:  MOVFF  4D8,FA8
0A2DC:  BCF    FA6.6
0A2DE:  BCF    FA6.7
0A2E0:  BSF    FA6.2
0A2E2:  MOVF   FF2,W
0A2E4:  MOVWF  00
0A2E6:  BCF    FF2.7
0A2E8:  MOVLB  F
0A2EA:  MOVLW  55
0A2EC:  MOVWF  FA7
0A2EE:  MOVLW  AA
0A2F0:  MOVWF  FA7
0A2F2:  BSF    FA6.1
0A2F4:  BTFSC  FA6.1
0A2F6:  BRA    A2F4
0A2F8:  BCF    FA6.2
0A2FA:  MOVF   00,W
0A2FC:  IORWF  FF2,F
....................          delay_ms(20); 
0A2FE:  MOVLW  14
0A300:  MOVLB  5
0A302:  MOVWF  xF7
0A304:  MOVLB  0
0A306:  CALL   1500
....................          write_eeprom(28,Decimal1); 
0A30A:  CLRF   FAA
0A30C:  MOVLW  1C
0A30E:  MOVWF  FA9
0A310:  MOVFF  4D9,FA8
0A314:  BCF    FA6.6
0A316:  BCF    FA6.7
0A318:  BSF    FA6.2
0A31A:  MOVF   FF2,W
0A31C:  MOVWF  00
0A31E:  BCF    FF2.7
0A320:  MOVLB  F
0A322:  MOVLW  55
0A324:  MOVWF  FA7
0A326:  MOVLW  AA
0A328:  MOVWF  FA7
0A32A:  BSF    FA6.1
0A32C:  BTFSC  FA6.1
0A32E:  BRA    A32C
0A330:  BCF    FA6.2
0A332:  MOVF   00,W
0A334:  IORWF  FF2,F
....................          delay_ms(20); 
0A336:  MOVLW  14
0A338:  MOVLB  5
0A33A:  MOVWF  xF7
0A33C:  MOVLB  0
0A33E:  CALL   1500
0A342:  MOVLB  4
....................       } 
....................     } 
.................... //_--------------------------------------------------------------------------------------------------------------------------------------------------------        
....................  
.................... //_-------------------------------------------------------------------------------------------------------------------------------------------------------- 
....................       if(Menu==43){ //Menu de Velocidad de Motor 
0A344:  MOVF   xCD,W
0A346:  SUBLW  2B
0A348:  BTFSS  FD8.2
0A34A:  BRA    A516
....................        
....................       if(VelMotor>6)VelMotor=6; 
0A34C:  MOVLB  5
0A34E:  MOVF   xDA,W
0A350:  SUBLW  06
0A352:  BC    A358
0A354:  MOVLW  06
0A356:  MOVWF  xDA
....................        
....................       strcpy(Menus.Letra,"Seleccion Vel"); 
0A358:  MOVLW  04
0A35A:  MOVWF  FEA
0A35C:  MOVLW  17
0A35E:  MOVWF  FE9
0A360:  MOVFF  FF2,5E3
0A364:  BCF    FF2.7
0A366:  MOVLW  00
0A368:  MOVLB  0
0A36A:  CALL   134A
0A36E:  TBLRD*-
0A370:  TBLRD*+
0A372:  MOVF   FF5,W
0A374:  MOVWF  FEE
0A376:  IORLW  00
0A378:  BNZ   A370
0A37A:  MOVLB  5
0A37C:  BTFSC  xE3.7
0A37E:  BSF    FF2.7
....................       displayMenu(Menus.Letra,10,0,1,1); 
0A380:  MOVLW  04
0A382:  MOVWF  xEC
0A384:  MOVLW  17
0A386:  MOVWF  xEB
0A388:  MOVLW  0A
0A38A:  MOVWF  xED
0A38C:  CLRF   xEE
0A38E:  MOVLW  01
0A390:  MOVWF  xEF
0A392:  MOVWF  xF0
0A394:  MOVLB  0
0A396:  CALL   4E36
....................        
....................       displayTiempo(VelMotor,50,40,1,2); 
0A39A:  MOVFF  5DA,5E3
0A39E:  MOVLW  32
0A3A0:  MOVLB  5
0A3A2:  MOVWF  xE4
0A3A4:  MOVLW  28
0A3A6:  MOVWF  xE5
0A3A8:  MOVLW  01
0A3AA:  MOVWF  xE6
0A3AC:  MOVLW  02
0A3AE:  MOVWF  xE7
0A3B0:  MOVLB  0
0A3B2:  CALL   55F4
....................        
....................       if(UP && VelMotor<6)//Si oprime hacia arriba 
0A3B6:  BSF    F92.5
0A3B8:  BTFSC  F80.5
0A3BA:  BRA    A3DA
0A3BC:  MOVLB  5
0A3BE:  MOVF   xDA,W
0A3C0:  SUBLW  05
0A3C2:  BTFSC  FD8.0
0A3C4:  BRA    A3CA
0A3C6:  MOVLB  0
0A3C8:  BRA    A3DA
....................       {   
....................          delay_ms(200);VelMotor++; 
0A3CA:  MOVLW  C8
0A3CC:  MOVWF  xF7
0A3CE:  MOVLB  0
0A3D0:  CALL   1500
0A3D4:  MOVLB  5
0A3D6:  INCF   xDA,F
0A3D8:  MOVLB  0
....................       } 
....................              
....................       if(DOWN && VelMotor>0)//Si oprime hacia abajo 
0A3DA:  BSF    F96.0
0A3DC:  BTFSC  F84.0
0A3DE:  BRA    A3FC
0A3E0:  MOVLB  5
0A3E2:  MOVF   xDA,F
0A3E4:  BTFSS  FD8.2
0A3E6:  BRA    A3EC
0A3E8:  MOVLB  0
0A3EA:  BRA    A3FC
....................       {   
....................          delay_ms(200);VelMotor--; 
0A3EC:  MOVLW  C8
0A3EE:  MOVWF  xF7
0A3F0:  MOVLB  0
0A3F2:  CALL   1500
0A3F6:  MOVLB  5
0A3F8:  DECF   xDA,F
0A3FA:  MOVLB  0
....................       } 
....................              
....................       if(RIGHT)//Si oprime SET 
0A3FC:  BSF    F96.1
0A3FE:  BTFSC  F84.1
0A400:  BRA    A40A
....................       {            
....................          VelocidadMotor(VelMotor); 
0A402:  MOVFF  5DA,5E3
0A406:  CALL   1528
....................       }  
....................              
....................       if(LEFT)//Si oprime boton de Toma. 
0A40A:  BSF    F96.2
0A40C:  BTFSC  F84.2
0A40E:  BRA    A518
....................       {                   
....................          delay_ms(100);glcd_fillscreen(OFF);Opcion=1;unidad=1; 
0A410:  MOVLW  64
0A412:  MOVLB  5
0A414:  MOVWF  xF7
0A416:  MOVLB  0
0A418:  CALL   1500
0A41C:  MOVLB  5
0A41E:  CLRF   xEB
0A420:  MOVLB  0
0A422:  CALL   15E0
0A426:  MOVLW  01
0A428:  MOVLB  4
0A42A:  MOVWF  xCF
0A42C:  MOVWF  xCE
....................          write_eeprom(32,VelMotor);//Guardar valor de Setpoint en eeprom 
0A42E:  CLRF   FAA
0A430:  MOVLW  20
0A432:  MOVWF  FA9
0A434:  MOVFF  5DA,FA8
0A438:  BCF    FA6.6
0A43A:  BCF    FA6.7
0A43C:  BSF    FA6.2
0A43E:  MOVF   FF2,W
0A440:  MOVWF  00
0A442:  BCF    FF2.7
0A444:  MOVLB  F
0A446:  MOVLW  55
0A448:  MOVWF  FA7
0A44A:  MOVLW  AA
0A44C:  MOVWF  FA7
0A44E:  BSF    FA6.1
0A450:  BTFSC  FA6.1
0A452:  BRA    A450
0A454:  BCF    FA6.2
0A456:  MOVF   00,W
0A458:  IORWF  FF2,F
....................          delay_ms(20); 
0A45A:  MOVLW  14
0A45C:  MOVLB  5
0A45E:  MOVWF  xF7
0A460:  MOVLB  0
0A462:  CALL   1500
....................          glcd_fillScreen(OFF); 
0A466:  MOVLB  5
0A468:  CLRF   xEB
0A46A:  MOVLB  0
0A46C:  CALL   15E0
....................          strcpy(Menus.Letra,"Velocidad"); 
0A470:  MOVLW  04
0A472:  MOVWF  FEA
0A474:  MOVLW  17
0A476:  MOVWF  FE9
0A478:  MOVFF  FF2,5E3
0A47C:  BCF    FF2.7
0A47E:  MOVLW  00
0A480:  CALL   1376
0A484:  TBLRD*-
0A486:  TBLRD*+
0A488:  MOVF   FF5,W
0A48A:  MOVWF  FEE
0A48C:  IORLW  00
0A48E:  BNZ   A486
0A490:  MOVLB  5
0A492:  BTFSC  xE3.7
0A494:  BSF    FF2.7
....................          displayMenu(Menus.Letra,0,0,0,2); 
0A496:  MOVLW  04
0A498:  MOVWF  xEC
0A49A:  MOVLW  17
0A49C:  MOVWF  xEB
0A49E:  CLRF   xED
0A4A0:  CLRF   xEE
0A4A2:  CLRF   xEF
0A4A4:  MOVLW  02
0A4A6:  MOVWF  xF0
0A4A8:  MOVLB  0
0A4AA:  CALL   4E36
....................          strcpy(Menus.Letra,"Guardada"); 
0A4AE:  MOVLW  04
0A4B0:  MOVWF  FEA
0A4B2:  MOVLW  17
0A4B4:  MOVWF  FE9
0A4B6:  MOVFF  FF2,5E3
0A4BA:  BCF    FF2.7
0A4BC:  MOVLW  00
0A4BE:  CALL   139E
0A4C2:  TBLRD*-
0A4C4:  TBLRD*+
0A4C6:  MOVF   FF5,W
0A4C8:  MOVWF  FEE
0A4CA:  IORLW  00
0A4CC:  BNZ   A4C4
0A4CE:  MOVLB  5
0A4D0:  BTFSC  xE3.7
0A4D2:  BSF    FF2.7
....................          displayMenu(Menus.Letra,0,30,0,2); 
0A4D4:  MOVLW  04
0A4D6:  MOVWF  xEC
0A4D8:  MOVLW  17
0A4DA:  MOVWF  xEB
0A4DC:  CLRF   xED
0A4DE:  MOVLW  1E
0A4E0:  MOVWF  xEE
0A4E2:  CLRF   xEF
0A4E4:  MOVLW  02
0A4E6:  MOVWF  xF0
0A4E8:  MOVLB  0
0A4EA:  CALL   4E36
....................          glcd_update(); 
0A4EE:  CALL   163A
....................          delay_ms(1000); 
0A4F2:  MOVLW  04
0A4F4:  MOVLB  5
0A4F6:  MOVWF  xE3
0A4F8:  MOVLW  FA
0A4FA:  MOVWF  xF7
0A4FC:  MOVLB  0
0A4FE:  CALL   1500
0A502:  MOVLB  5
0A504:  DECFSZ xE3,F
0A506:  BRA    A4F8
....................          glcd_fillScreen(OFF); 
0A508:  CLRF   xEB
0A50A:  MOVLB  0
0A50C:  CALL   15E0
....................          Menu=32; 
0A510:  MOVLW  20
0A512:  MOVLB  4
0A514:  MOVWF  xCD
0A516:  MOVLB  0
....................       } 
....................     } 
.................... //_--------------------------------------------------------------------------------------------------------------------------------------------------------        
....................  
....................    if(tiemporeset>=60) 
0A518:  MOVLB  4
0A51A:  MOVF   xD3,W
0A51C:  SUBLW  3B
0A51E:  BC    A536
....................    { 
....................       if(Menu!=200){ 
0A520:  MOVF   xCD,W
0A522:  SUBLW  C8
0A524:  BZ    A536
....................          glcd_init(ON); 
0A526:  MOVLW  01
0A528:  MOVLB  5
0A52A:  MOVWF  xE3
0A52C:  MOVLB  0
0A52E:  CALL   16F2
....................          tiemporeset=0; 
0A532:  MOVLB  4
0A534:  CLRF   xD3
....................       } 
....................    }  
.................... } 
0A536:  MOVLB  0
0A538:  GOTO   66EC
....................  
.................... } 
....................  
0A53C:  SLEEP 

Configuration Fuses:
   Word  1: 0200   HS NOIESO NOFCMEN
   Word  2: 1E1F   BROWNOUT NOWDT BORV20 NOPUT WDT32768
   Word  3: 0000   NOPBADEN NOLPT1OSC NOMCLR
   Word  4: 00B0   NOSTVREN NODEBUG NOLVP NOXINST BBSIZ4K
   Word  5: C03F   NOPROTECT NOCPD NOCPB
   Word  6: E03F   NOWRT NOWRTD NOWRTC NOWRTB
   Word  7: 403F   NOEBTR NOEBTRB
