CCS PCH C Compiler, Version 4.104, 5967               27-oct.-20 09:49

               Filename: D:\Laboratorio\Cabina de PCR\2020\CPCR90 GLCD Biodiz Peru  #004588396 OP2020356\Firmware - 18F4685 -MPXV5004DP\Maestro_v2.lst

               ROM used: 42248 bytes (43%)
                         Largest free fragment is 32768
               RAM used: 1521 (46%) at main() level
                         1592 (48%) worst case
               Stack:    8 worst case (6 in main + 2 for interrupts)

*
00000:  GOTO   6100
*
00008:  MOVWF  04
0000A:  MOVFF  FD8,05
0000E:  MOVFF  FE0,06
00012:  MOVLB  0
00014:  MOVFF  FE9,0C
00018:  MOVFF  FEA,07
0001C:  MOVFF  FE1,08
00020:  MOVFF  FE2,09
00024:  MOVFF  FD9,0A
00028:  MOVFF  FDA,0B
0002C:  MOVFF  FF3,12
00030:  MOVFF  FF4,13
00034:  MOVFF  FFA,14
00038:  MOVFF  FFB,15
0003C:  MOVFF  00,0E
00040:  MOVFF  01,0F
00044:  MOVFF  02,10
00048:  MOVFF  03,11
0004C:  BTFSS  FF2.4
0004E:  GOTO   0058
00052:  BTFSC  FF2.1
00054:  GOTO   13E6
00058:  MOVFF  0E,00
0005C:  MOVFF  0F,01
00060:  MOVFF  10,02
00064:  MOVFF  11,03
00068:  MOVFF  0C,FE9
0006C:  MOVFF  07,FEA
00070:  BSF    07.7
00072:  MOVFF  08,FE1
00076:  MOVFF  09,FE2
0007A:  MOVFF  0A,FD9
0007E:  MOVFF  0B,FDA
00082:  MOVFF  12,FF3
00086:  MOVFF  13,FF4
0008A:  MOVFF  14,FFA
0008E:  MOVFF  15,FFB
00092:  MOVF   04,W
00094:  MOVFF  06,FE0
00098:  MOVFF  05,FD8
0009C:  RETFIE 0
.................... //Programa para Cabina de Bioseguridad 
....................  
.................... #include <18F4685.h> 
.................... //////// Standard Header file for the PIC18F4685 device //////////////// 
.................... #device PIC18F4685 
.................... #list 
....................  
.................... #device adc=10 
.................... #fuses HS,NOWDT,NOPROTECT,NOLVP,NODEBUG,NOSTVREN,NOPUT,NOCPD,NOWRT,NOIESO,NOFCMEN,NOPBADEN,NOWRTC,NOWRTB,NOEBTR,NOEBTRB,NOCPB,NOXINST,NOLPT1OSC,NOMCLR 
.................... #use delay(clock=20000000) 
*
013C6:  MOVLW  03
013C8:  MOVLB  6
013CA:  SUBWF  x37,F
013CC:  BNC   13E2
013CE:  MOVLW  06
013D0:  MOVWF  FEA
013D2:  MOVLW  37
013D4:  MOVWF  FE9
013D6:  MOVF   FEF,W
013D8:  BZ    13E2
013DA:  BRA    13DE
013DC:  BRA    13DE
013DE:  DECFSZ FEF,F
013E0:  BRA    13DC
013E2:  MOVLB  0
013E4:  RETLW  00
*
01568:  MOVLW  06
0156A:  MOVWF  FEA
0156C:  MOVLW  01
0156E:  MOVWF  FE9
01570:  MOVF   FEF,W
01572:  BZ    158E
01574:  MOVLW  06
01576:  MOVWF  01
01578:  CLRF   00
0157A:  DECFSZ 00,F
0157C:  BRA    157A
0157E:  DECFSZ 01,F
01580:  BRA    1578
01582:  MOVLW  7B
01584:  MOVWF  00
01586:  DECFSZ 00,F
01588:  BRA    1586
0158A:  DECFSZ FEF,F
0158C:  BRA    1574
0158E:  RETLW  00
.................... #include <MATH.h> 
.................... //////////////////////////////////////////////////////////////////////////// 
.................... ////        (C) Copyright 1996,2008 Custom Computer Services            //// 
.................... //// This source code may only be used by licensed users of the CCS C   //// 
.................... //// compiler.  This source code may only be distributed to other       //// 
.................... //// licensed users of the CCS C compiler.  No other use, reproduction  //// 
.................... //// or distribution is permitted without written permission.           //// 
.................... //// Derivative programs created using this software in object code     //// 
.................... //// form are not restricted in any way.                                //// 
.................... //////////////////////////////////////////////////////////////////////////// 
.................... ////                                                                    //// 
.................... //// History:                                                           //// 
.................... ////  * 9/20/2001 :  Improvments are made to sin/cos code.              //// 
.................... ////                 The code now is small, much faster,                //// 
.................... ////                 and more accurate.                                 //// 
.................... ////  * 2/21/2007 :  Compiler handles & operator differently and does 
.................... ////                 not return generic (int8 *) so type cast is done   //// 
.................... ////                                                                    //// 
.................... //////////////////////////////////////////////////////////////////////////// 
....................  
.................... #ifndef MATH_H 
.................... #define MATH_H 
....................  
.................... #ifdef PI 
.................... #undef  PI 
.................... #endif 
.................... #define PI     3.1415926535897932 
....................  
....................  
.................... #define SQRT2  1.4142135623730950 
....................  
.................... //float const ps[4] = {5.9304945, 21.125224, 8.9403076, 0.29730279}; 
.................... //float const qs[4] = {1.0000000, 15.035723, 17.764134, 2.4934718}; 
....................  
.................... ///////////////////////////// Round Functions ////////////////////////////// 
....................  
.................... float32 CEIL_FLOOR(float32 x, unsigned int8 n) 
.................... { 
....................    float32 y, res; 
....................    unsigned int16 l; 
....................    int1 s; 
....................  
....................    s = 0; 
*
031AE:  MOVLB  6
031B0:  BCF    x1D.0
....................    y = x; 
031B2:  MOVFF  611,616
031B6:  MOVFF  610,615
031BA:  MOVFF  60F,614
031BE:  MOVFF  60E,613
....................  
....................    if (x < 0) 
031C2:  MOVFF  611,621
031C6:  MOVFF  610,620
031CA:  MOVFF  60F,61F
031CE:  MOVFF  60E,61E
031D2:  CLRF   x25
031D4:  CLRF   x24
031D6:  CLRF   x23
031D8:  CLRF   x22
031DA:  MOVLB  0
031DC:  CALL   2610
031E0:  BNC   31EC
....................    { 
....................       s = 1; 
031E2:  MOVLB  6
031E4:  BSF    x1D.0
....................       y = -y; 
031E6:  MOVF   x14,W
031E8:  XORLW  80
031EA:  MOVWF  x14
....................    } 
....................  
....................    if (y <= 32768.0) 
031EC:  MOVFF  616,621
031F0:  MOVFF  615,620
031F4:  MOVFF  614,61F
031F8:  MOVFF  613,61E
031FC:  MOVLB  6
031FE:  CLRF   x25
03200:  CLRF   x24
03202:  CLRF   x23
03204:  MOVLW  8E
03206:  MOVWF  x22
03208:  MOVLB  0
0320A:  CALL   2610
0320E:  BC    3212
03210:  BNZ   3242
....................   res = (float32)(unsigned int16)y; 
03212:  MOVFF  616,621
03216:  MOVFF  615,620
0321A:  MOVFF  614,61F
0321E:  MOVFF  613,61E
03222:  RCALL  307C
03224:  MOVFF  02,623
03228:  MOVFF  01,622
0322C:  CALL   1A76
03230:  MOVFF  03,61A
03234:  MOVFF  02,619
03238:  MOVFF  01,618
0323C:  MOVFF  00,617
....................  
....................  else if (y < 10000000.0) 
03240:  BRA    33E0
03242:  MOVFF  616,621
03246:  MOVFF  615,620
0324A:  MOVFF  614,61F
0324E:  MOVFF  613,61E
03252:  MOVLW  80
03254:  MOVLB  6
03256:  MOVWF  x25
03258:  MOVLW  96
0325A:  MOVWF  x24
0325C:  MOVLW  18
0325E:  MOVWF  x23
03260:  MOVLW  96
03262:  MOVWF  x22
03264:  MOVLB  0
03266:  CALL   2610
0326A:  BTFSS  FD8.0
0326C:  BRA    33D0
....................    { 
....................   l = (unsigned int16)(y/32768.0); 
0326E:  MOVFF  616,621
03272:  MOVFF  615,620
03276:  MOVFF  614,61F
0327A:  MOVFF  613,61E
0327E:  MOVLB  6
03280:  CLRF   x25
03282:  CLRF   x24
03284:  CLRF   x23
03286:  MOVLW  8E
03288:  MOVWF  x22
0328A:  MOVLB  0
0328C:  CALL   1AAC
03290:  MOVFF  03,621
03294:  MOVFF  02,620
03298:  MOVFF  01,61F
0329C:  MOVFF  00,61E
032A0:  RCALL  307C
032A2:  MOVFF  02,61C
032A6:  MOVFF  01,61B
....................       y = 32768.0*(y/32768.0 - (float32)l); 
032AA:  MOVFF  616,621
032AE:  MOVFF  615,620
032B2:  MOVFF  614,61F
032B6:  MOVFF  613,61E
032BA:  MOVLB  6
032BC:  CLRF   x25
032BE:  CLRF   x24
032C0:  CLRF   x23
032C2:  MOVLW  8E
032C4:  MOVWF  x22
032C6:  MOVLB  0
032C8:  CALL   1AAC
032CC:  MOVFF  00,61E
032D0:  MOVFF  01,61F
032D4:  MOVFF  02,620
032D8:  MOVFF  03,621
032DC:  MOVFF  61C,623
032E0:  MOVFF  61B,622
032E4:  CALL   1A76
032E8:  BSF    FD8.1
032EA:  MOVFF  621,625
032EE:  MOVFF  620,624
032F2:  MOVFF  61F,623
032F6:  MOVFF  61E,622
032FA:  MOVFF  03,629
032FE:  MOVFF  02,628
03302:  MOVFF  01,627
03306:  MOVFF  00,626
0330A:  CALL   1C0A
0330E:  MOVLB  6
03310:  CLRF   x21
03312:  CLRF   x20
03314:  CLRF   x1F
03316:  MOVLW  8E
03318:  MOVWF  x1E
0331A:  MOVFF  03,625
0331E:  MOVFF  02,624
03322:  MOVFF  01,623
03326:  MOVFF  00,622
0332A:  MOVLB  0
0332C:  RCALL  30B8
0332E:  MOVFF  03,616
03332:  MOVFF  02,615
03336:  MOVFF  01,614
0333A:  MOVFF  00,613
....................   res = 32768.0*(float32)l; 
0333E:  MOVFF  61C,623
03342:  MOVFF  61B,622
03346:  CALL   1A76
0334A:  MOVLB  6
0334C:  CLRF   x21
0334E:  CLRF   x20
03350:  CLRF   x1F
03352:  MOVLW  8E
03354:  MOVWF  x1E
03356:  MOVFF  03,625
0335A:  MOVFF  02,624
0335E:  MOVFF  01,623
03362:  MOVFF  00,622
03366:  MOVLB  0
03368:  RCALL  30B8
0336A:  MOVFF  03,61A
0336E:  MOVFF  02,619
03372:  MOVFF  01,618
03376:  MOVFF  00,617
....................   res += (float32)(unsigned int16)y; 
0337A:  MOVFF  616,621
0337E:  MOVFF  615,620
03382:  MOVFF  614,61F
03386:  MOVFF  613,61E
0338A:  RCALL  307C
0338C:  MOVFF  02,623
03390:  MOVFF  01,622
03394:  CALL   1A76
03398:  BCF    FD8.1
0339A:  MOVFF  61A,625
0339E:  MOVFF  619,624
033A2:  MOVFF  618,623
033A6:  MOVFF  617,622
033AA:  MOVFF  03,629
033AE:  MOVFF  02,628
033B2:  MOVFF  01,627
033B6:  MOVFF  00,626
033BA:  CALL   1C0A
033BE:  MOVFF  03,61A
033C2:  MOVFF  02,619
033C6:  MOVFF  01,618
033CA:  MOVFF  00,617
....................  } 
....................  
....................  else 
033CE:  BRA    33E0
....................   res = y; 
033D0:  MOVFF  616,61A
033D4:  MOVFF  615,619
033D8:  MOVFF  614,618
033DC:  MOVFF  613,617
....................  
....................  y = y - (float32)(unsigned int16)y; 
033E0:  MOVFF  616,621
033E4:  MOVFF  615,620
033E8:  MOVFF  614,61F
033EC:  MOVFF  613,61E
033F0:  RCALL  307C
033F2:  MOVFF  02,623
033F6:  MOVFF  01,622
033FA:  CALL   1A76
033FE:  BSF    FD8.1
03400:  MOVFF  616,625
03404:  MOVFF  615,624
03408:  MOVFF  614,623
0340C:  MOVFF  613,622
03410:  MOVFF  03,629
03414:  MOVFF  02,628
03418:  MOVFF  01,627
0341C:  MOVFF  00,626
03420:  CALL   1C0A
03424:  MOVFF  03,616
03428:  MOVFF  02,615
0342C:  MOVFF  01,614
03430:  MOVFF  00,613
....................  
....................  if (s) 
03434:  MOVLB  6
03436:  BTFSS  x1D.0
03438:  BRA    3440
....................   res = -res; 
0343A:  MOVF   x18,W
0343C:  XORLW  80
0343E:  MOVWF  x18
....................  
....................  if (y != 0) 
03440:  MOVFF  616,621
03444:  MOVFF  615,620
03448:  MOVFF  614,61F
0344C:  MOVFF  613,61E
03450:  CLRF   x25
03452:  CLRF   x24
03454:  CLRF   x23
03456:  CLRF   x22
03458:  MOVLB  0
0345A:  CALL   2610
0345E:  BZ    34D8
....................  { 
....................   if (s == 1 && n == 0) 
03460:  MOVLB  6
03462:  BTFSS  x1D.0
03464:  BRA    349E
03466:  MOVF   x12,F
03468:  BNZ   349E
....................    res -= 1.0; 
0346A:  BSF    FD8.1
0346C:  MOVFF  61A,625
03470:  MOVFF  619,624
03474:  MOVFF  618,623
03478:  MOVFF  617,622
0347C:  CLRF   x29
0347E:  CLRF   x28
03480:  CLRF   x27
03482:  MOVLW  7F
03484:  MOVWF  x26
03486:  MOVLB  0
03488:  CALL   1C0A
0348C:  MOVFF  03,61A
03490:  MOVFF  02,619
03494:  MOVFF  01,618
03498:  MOVFF  00,617
0349C:  MOVLB  6
....................  
....................   if (s == 0 && n == 1) 
0349E:  BTFSC  x1D.0
034A0:  BRA    34DA
034A2:  DECFSZ x12,W
034A4:  BRA    34DA
....................    res += 1.0; 
034A6:  BCF    FD8.1
034A8:  MOVFF  61A,625
034AC:  MOVFF  619,624
034B0:  MOVFF  618,623
034B4:  MOVFF  617,622
034B8:  CLRF   x29
034BA:  CLRF   x28
034BC:  CLRF   x27
034BE:  MOVLW  7F
034C0:  MOVWF  x26
034C2:  MOVLB  0
034C4:  CALL   1C0A
034C8:  MOVFF  03,61A
034CC:  MOVFF  02,619
034D0:  MOVFF  01,618
034D4:  MOVFF  00,617
034D8:  MOVLB  6
....................  } 
....................  if (x == 0) 
034DA:  MOVFF  611,621
034DE:  MOVFF  610,620
034E2:  MOVFF  60F,61F
034E6:  MOVFF  60E,61E
034EA:  CLRF   x25
034EC:  CLRF   x24
034EE:  CLRF   x23
034F0:  CLRF   x22
034F2:  MOVLB  0
034F4:  CALL   2610
034F8:  BNZ   3506
....................     res = 0; 
034FA:  MOVLB  6
034FC:  CLRF   x1A
034FE:  CLRF   x19
03500:  CLRF   x18
03502:  CLRF   x17
03504:  MOVLB  0
....................  
....................  return (res); 
03506:  MOVFF  617,00
0350A:  MOVFF  618,01
0350E:  MOVFF  619,02
03512:  MOVFF  61A,03
.................... } 
03516:  RETLW  00
....................  
.................... // Overloaded Functions to take care for new Data types in PCD 
.................... // Overloaded function CEIL_FLOOR() for data type - Float48 
.................... #if defined(__PCD__) 
.................... float48 CEIL_FLOOR(float48 x, unsigned int8 n) 
.................... { 
....................    float48 y, res; 
....................    unsigned int16 l; 
....................    int1 s; 
....................  
....................    s = 0; 
....................    y = x; 
....................  
....................    if (x < 0) 
....................    { 
....................       s = 1; 
....................       y = -y; 
....................    } 
....................  
....................    if (y <= 32768.0) 
....................   res = (float48)(unsigned int16)y; 
....................  
....................  else if (y < 10000000.0) 
....................    { 
....................   l = (unsigned int16)(y/32768.0); 
....................       y = 32768.0*(y/32768.0 - (float48)l); 
....................   res = 32768.0*(float32)l; 
....................   res += (float48)(unsigned int16)y; 
....................  } 
....................  
....................  else 
....................   res = y; 
....................  
....................  y = y - (float48)(unsigned int16)y; 
....................  
....................  if (s) 
....................   res = -res; 
....................  
....................  if (y != 0) 
....................  { 
....................   if (s == 1 && n == 0) 
....................    res -= 1.0; 
....................  
....................   if (s == 0 && n == 1) 
....................    res += 1.0; 
....................  } 
....................  if (x == 0) 
....................     res = 0; 
....................  
....................  return (res); 
.................... } 
....................  
....................  
.................... // Overloaded function CEIL_FLOOR() for data type - Float64 
.................... float64 CEIL_FLOOR(float64 x, unsigned int8 n) 
.................... { 
....................    float64 y, res; 
....................    unsigned int16 l; 
....................    int1 s; 
....................  
....................    s = 0; 
....................    y = x; 
....................  
....................    if (x < 0) 
....................    { 
....................       s = 1; 
....................       y = -y; 
....................    } 
....................  
....................    if (y <= 32768.0) 
....................   res = (float64)(unsigned int16)y; 
....................  
....................  else if (y < 10000000.0) 
....................    { 
....................   l = (unsigned int16)(y/32768.0); 
....................       y = 32768.0*(y/32768.0 - (float64)l); 
....................   res = 32768.0*(float64)l; 
....................   res += (float64)(unsigned int16)y; 
....................  } 
....................  
....................  else 
....................   res = y; 
....................  
....................  y = y - (float64)(unsigned int16)y; 
....................  
....................  if (s) 
....................   res = -res; 
....................  
....................  if (y != 0) 
....................  { 
....................   if (s == 1 && n == 0) 
....................    res -= 1.0; 
....................  
....................   if (s == 0 && n == 1) 
....................    res += 1.0; 
....................  } 
....................  if (x == 0) 
....................     res = 0; 
....................  
....................  return (res); 
.................... } 
.................... #endif 
....................  
.................... //////////////////////////////////////////////////////////////////////////// 
.................... //   float floor(float x) 
.................... //////////////////////////////////////////////////////////////////////////// 
.................... // Description : rounds down the number x. 
.................... // Date : N/A 
.................... // 
.................... float32 floor(float32 x) 
.................... { 
....................    return CEIL_FLOOR(x, 0); 
*
03536:  MOVFF  60D,611
0353A:  MOVFF  60C,610
0353E:  MOVFF  60B,60F
03542:  MOVFF  60A,60E
03546:  MOVLB  6
03548:  CLRF   x12
0354A:  MOVLB  0
0354C:  RCALL  31AE
.................... } 
0354E:  GOTO   365A (RETURN)
.................... // Following 2 functions are overloaded functions of floor() for PCD 
.................... // Overloaded function floor() for data type - Float48 
.................... #if defined(__PCD__) 
.................... float48 floor(float48 x) 
.................... { 
....................    return CEIL_FLOOR(x, 0); 
.................... } 
....................  
.................... // Overloaded function floor() for data type - Float64 
.................... float64 floor(float64 x) 
.................... { 
....................    return CEIL_FLOOR(x, 0); 
.................... } 
.................... #endif 
....................  
....................  
.................... //////////////////////////////////////////////////////////////////////////// 
.................... //   float ceil(float x) 
.................... //////////////////////////////////////////////////////////////////////////// 
.................... // Description : rounds up the number x. 
.................... // Date : N/A 
.................... // 
.................... float32 ceil(float32 x) 
.................... { 
....................    return CEIL_FLOOR(x, 1); 
*
03518:  MOVFF  60D,611
0351C:  MOVFF  60C,610
03520:  MOVFF  60B,60F
03524:  MOVFF  60A,60E
03528:  MOVLW  01
0352A:  MOVLB  6
0352C:  MOVWF  x12
0352E:  MOVLB  0
03530:  RCALL  31AE
.................... } 
03532:  GOTO   3612 (RETURN)
.................... // Following 2 functions are overloaded functions of ceil() for PCD 
.................... // Overloaded function ceil() for data type - Float48 
.................... #if defined(__PCD__) 
.................... float48 ceil(float48 x) 
.................... { 
....................    return CEIL_FLOOR(x, 1); 
.................... } 
....................  
.................... // Overloaded function ceil() for data type - Float64 
.................... float64 ceil(float64 x) 
.................... { 
....................    return CEIL_FLOOR(x, 1); 
.................... } 
.................... #endif 
....................  
....................  //////////////////////////////////////////////////////////////////////////// 
.................... //   float fabs(float x) 
.................... //////////////////////////////////////////////////////////////////////////// 
.................... // Description : Computes the absolute value of floating point number x 
.................... // Returns : returns the absolute value of x 
.................... // Date : N/A 
.................... // 
.................... #define fabs abs 
....................  
.................... //////////////////////////////////////////////////////////////////////////// 
.................... //   float fmod(float x) 
.................... //////////////////////////////////////////////////////////////////////////// 
.................... // Description : Computes the floating point remainder of x/y 
.................... // Returns : returns the value of x= i*y, for some integer i such that, if y 
.................... // is non zero, the result has the same isgn of x na dmagnitude less than the 
.................... // magnitude of y. If y is zero then a domain error occurs. 
.................... // Date : N/A 
.................... // 
....................  
.................... float fmod(float32 x,float32 y) 
.................... { 
....................    float32 i; 
....................    if (y!=0.0) 
*
03552:  MOVFF  601,621
03556:  MOVFF  600,620
0355A:  MOVFF  5FF,61F
0355E:  MOVFF  5FE,61E
03562:  MOVLB  6
03564:  CLRF   x25
03566:  CLRF   x24
03568:  CLRF   x23
0356A:  CLRF   x22
0356C:  MOVLB  0
0356E:  CALL   2610
03572:  BTFSC  FD8.2
03574:  BRA    36B6
....................    { 
....................       i=(x/y < 0.0)? ceil(x/y): floor(x/y); 
03576:  MOVFF  5FD,621
0357A:  MOVFF  5FC,620
0357E:  MOVFF  5FB,61F
03582:  MOVFF  5FA,61E
03586:  MOVFF  601,625
0358A:  MOVFF  600,624
0358E:  MOVFF  5FF,623
03592:  MOVFF  5FE,622
03596:  CALL   1AAC
0359A:  MOVFF  00,606
0359E:  MOVFF  01,607
035A2:  MOVFF  02,608
035A6:  MOVFF  03,609
035AA:  MOVFF  03,621
035AE:  MOVFF  02,620
035B2:  MOVFF  01,61F
035B6:  MOVFF  00,61E
035BA:  MOVLB  6
035BC:  CLRF   x25
035BE:  CLRF   x24
035C0:  CLRF   x23
035C2:  CLRF   x22
035C4:  MOVLB  0
035C6:  CALL   2610
035CA:  BNC   3614
035CC:  MOVFF  5FD,621
035D0:  MOVFF  5FC,620
035D4:  MOVFF  5FB,61F
035D8:  MOVFF  5FA,61E
035DC:  MOVFF  601,625
035E0:  MOVFF  600,624
035E4:  MOVFF  5FF,623
035E8:  MOVFF  5FE,622
035EC:  CALL   1AAC
035F0:  MOVFF  00,606
035F4:  MOVFF  01,607
035F8:  MOVFF  02,608
035FC:  MOVFF  03,609
03600:  MOVFF  03,60D
03604:  MOVFF  02,60C
03608:  MOVFF  01,60B
0360C:  MOVFF  00,60A
03610:  BRA    3518
03612:  BRA    365A
03614:  MOVFF  5FD,621
03618:  MOVFF  5FC,620
0361C:  MOVFF  5FB,61F
03620:  MOVFF  5FA,61E
03624:  MOVFF  601,625
03628:  MOVFF  600,624
0362C:  MOVFF  5FF,623
03630:  MOVFF  5FE,622
03634:  CALL   1AAC
03638:  MOVFF  00,606
0363C:  MOVFF  01,607
03640:  MOVFF  02,608
03644:  MOVFF  03,609
03648:  MOVFF  03,60D
0364C:  MOVFF  02,60C
03650:  MOVFF  01,60B
03654:  MOVFF  00,60A
03658:  BRA    3536
0365A:  MOVFF  03,605
0365E:  MOVFF  02,604
03662:  MOVFF  01,603
03666:  MOVFF  00,602
....................       return(x-(i*y)); 
0366A:  MOVFF  605,621
0366E:  MOVFF  604,620
03672:  MOVFF  603,61F
03676:  MOVFF  602,61E
0367A:  MOVFF  601,625
0367E:  MOVFF  600,624
03682:  MOVFF  5FF,623
03686:  MOVFF  5FE,622
0368A:  RCALL  30B8
0368C:  BSF    FD8.1
0368E:  MOVFF  5FD,625
03692:  MOVFF  5FC,624
03696:  MOVFF  5FB,623
0369A:  MOVFF  5FA,622
0369E:  MOVFF  03,629
036A2:  MOVFF  02,628
036A6:  MOVFF  01,627
036AA:  MOVFF  00,626
036AE:  CALL   1C0A
036B2:  BRA    36B6
....................    } 
....................    else 
036B4:  BRA    36B6
....................    { 
....................    #ifdef _ERRNO 
....................    { 
....................       errno=EDOM; 
....................    } 
....................    #endif 
....................    } 
.................... } 
036B6:  RETLW  00
.................... //Overloaded function for fmod() for PCD 
.................... // Overloaded function fmod() for data type - Float48 
.................... #if defined(__PCD__) 
.................... float48 fmod(float48 x,float48 y) 
.................... { 
....................    float48 i; 
....................    if (y!=0.0) 
....................    { 
....................       i=(x/y < 0.0)? ceil(x/y): floor(x/y); 
....................       return(x-(i*y)); 
....................    } 
....................    else 
....................    { 
....................    #ifdef _ERRNO 
....................    { 
....................       errno=EDOM; 
....................    } 
....................    #endif 
....................    } 
.................... } 
.................... // Overloaded function fmod() for data type - Float64 
.................... float64 fmod(float64 x,float64 y) 
.................... { 
....................    float64 i; 
....................    if (y!=0.0) 
....................    { 
....................       i=(x/y < 0.0)? ceil(x/y): floor(x/y); 
....................       return(x-(i*y)); 
....................    } 
....................    else 
....................    { 
....................    #ifdef _ERRNO 
....................    { 
....................       errno=EDOM; 
....................    } 
....................    #endif 
....................    } 
.................... } 
.................... #endif 
.................... //////////////////// Exponential and logarithmic functions //////////////////// 
.................... //////////////////////////////////////////////////////////////////////////// 
.................... //   float exp(float x) 
.................... //////////////////////////////////////////////////////////////////////////// 
.................... // Description : returns the value (e^x) 
.................... // Date : N/A 
.................... // 
.................... #define LN2 0.6931471805599453 
....................  
.................... float const pe[6] = {0.000207455774, 0.00127100575, 0.00965065093, 
....................                      0.0554965651,  0.240227138,  0.693147172}; 
....................  
....................  
.................... float32 exp(float32 x) 
.................... { 
....................    float32 y, res, r; 
....................    #if defined(__PCD__) 
....................    int8 data1; 
....................    #endif 
....................    signed int8 n; 
....................    int1 s; 
....................    #ifdef _ERRNO 
....................    if(x > 88.722838) 
....................    { 
....................       errno=ERANGE; 
....................       return(0); 
....................    } 
....................    #endif 
....................    n = (signed int16)(x/LN2); 
*
03BE2:  MOVFF  601,621
03BE6:  MOVFF  600,620
03BEA:  MOVFF  5FF,61F
03BEE:  MOVFF  5FE,61E
03BF2:  MOVLW  18
03BF4:  MOVLB  6
03BF6:  MOVWF  x25
03BF8:  MOVLW  72
03BFA:  MOVWF  x24
03BFC:  MOVLW  31
03BFE:  MOVWF  x23
03C00:  MOVLW  7E
03C02:  MOVWF  x22
03C04:  MOVLB  0
03C06:  CALL   1AAC
03C0A:  MOVFF  03,621
03C0E:  MOVFF  02,620
03C12:  MOVFF  01,61F
03C16:  MOVFF  00,61E
03C1A:  CALL   307C
03C1E:  MOVFF  01,60E
....................    s = 0; 
03C22:  MOVLB  6
03C24:  BCF    x0F.0
....................    y = x; 
03C26:  MOVFF  601,605
03C2A:  MOVFF  600,604
03C2E:  MOVFF  5FF,603
03C32:  MOVFF  5FE,602
....................  
....................    if (x < 0) 
03C36:  MOVFF  601,621
03C3A:  MOVFF  600,620
03C3E:  MOVFF  5FF,61F
03C42:  MOVFF  5FE,61E
03C46:  CLRF   x25
03C48:  CLRF   x24
03C4A:  CLRF   x23
03C4C:  CLRF   x22
03C4E:  MOVLB  0
03C50:  CALL   2610
03C54:  BNC   3C62
....................    { 
....................       s = 1; 
03C56:  MOVLB  6
03C58:  BSF    x0F.0
....................       n = -n; 
03C5A:  NEGF   x0E
....................       y = -y; 
03C5C:  MOVF   x03,W
03C5E:  XORLW  80
03C60:  MOVWF  x03
....................    } 
....................  
....................    res = 0.0; 
03C62:  MOVLB  6
03C64:  CLRF   x09
03C66:  CLRF   x08
03C68:  CLRF   x07
03C6A:  CLRF   x06
.................... #if !defined(__PCD__) 
....................    *((unsigned int8 *)(&res)) = n + 0x7F; 
03C6C:  MOVLW  06
03C6E:  MOVWF  FE9
03C70:  MOVWF  FEA
03C72:  MOVLW  7F
03C74:  ADDWF  x0E,W
03C76:  MOVWF  FEF
.................... #endif 
....................  
.................... #if defined(__PCD__)  // Takes care of IEEE format for PCD 
....................    data1 = n+0x7F; 
....................    if(bit_test(data1,0)) 
....................    bit_set(*(((unsigned int8 *)(&res)+2)),7); 
....................    rotate_right(&data1,1); 
....................    bit_clear(data1,7); 
....................    *(((unsigned int8 *)(&res)+3)) = data1; 
.................... #endif 
....................  
....................    y = y/LN2 - (float32)n; 
03C78:  MOVFF  605,621
03C7C:  MOVFF  604,620
03C80:  MOVFF  603,61F
03C84:  MOVFF  602,61E
03C88:  MOVLW  18
03C8A:  MOVWF  x25
03C8C:  MOVLW  72
03C8E:  MOVWF  x24
03C90:  MOVLW  31
03C92:  MOVWF  x23
03C94:  MOVLW  7E
03C96:  MOVWF  x22
03C98:  MOVLB  0
03C9A:  CALL   1AAC
03C9E:  MOVFF  00,610
03CA2:  MOVFF  01,611
03CA6:  MOVFF  02,612
03CAA:  MOVFF  03,613
03CAE:  MOVLB  6
03CB0:  CLRF   x17
03CB2:  MOVFF  60E,616
03CB6:  BTFSC  x16.7
03CB8:  DECF   x17,F
03CBA:  MOVLB  0
03CBC:  RCALL  36B8
03CBE:  BSF    FD8.1
03CC0:  MOVFF  613,625
03CC4:  MOVFF  612,624
03CC8:  MOVFF  611,623
03CCC:  MOVFF  610,622
03CD0:  MOVFF  03,629
03CD4:  MOVFF  02,628
03CD8:  MOVFF  01,627
03CDC:  MOVFF  00,626
03CE0:  CALL   1C0A
03CE4:  MOVFF  03,605
03CE8:  MOVFF  02,604
03CEC:  MOVFF  01,603
03CF0:  MOVFF  00,602
....................  
....................    r = pe[0]*y + pe[1]; 
03CF4:  MOVLW  7C
03CF6:  MOVLB  6
03CF8:  MOVWF  x21
03CFA:  MOVLW  88
03CFC:  MOVWF  x20
03CFE:  MOVLW  59
03D00:  MOVWF  x1F
03D02:  MOVLW  72
03D04:  MOVWF  x1E
03D06:  MOVFF  605,625
03D0A:  MOVFF  604,624
03D0E:  MOVFF  603,623
03D12:  MOVFF  602,622
03D16:  MOVLB  0
03D18:  CALL   30B8
03D1C:  MOVFF  00,610
03D20:  MOVFF  01,611
03D24:  MOVFF  02,612
03D28:  MOVFF  03,613
03D2C:  BCF    FD8.1
03D2E:  MOVFF  03,625
03D32:  MOVFF  02,624
03D36:  MOVFF  01,623
03D3A:  MOVFF  00,622
03D3E:  MOVLW  E0
03D40:  MOVLB  6
03D42:  MOVWF  x29
03D44:  MOVLW  97
03D46:  MOVWF  x28
03D48:  MOVLW  26
03D4A:  MOVWF  x27
03D4C:  MOVLW  75
03D4E:  MOVWF  x26
03D50:  MOVLB  0
03D52:  CALL   1C0A
03D56:  MOVFF  03,60D
03D5A:  MOVFF  02,60C
03D5E:  MOVFF  01,60B
03D62:  MOVFF  00,60A
....................    r = r*y + pe[2]; 
03D66:  MOVFF  60D,621
03D6A:  MOVFF  60C,620
03D6E:  MOVFF  60B,61F
03D72:  MOVFF  60A,61E
03D76:  MOVFF  605,625
03D7A:  MOVFF  604,624
03D7E:  MOVFF  603,623
03D82:  MOVFF  602,622
03D86:  CALL   30B8
03D8A:  MOVFF  00,610
03D8E:  MOVFF  01,611
03D92:  MOVFF  02,612
03D96:  MOVFF  03,613
03D9A:  BCF    FD8.1
03D9C:  MOVFF  03,625
03DA0:  MOVFF  02,624
03DA4:  MOVFF  01,623
03DA8:  MOVFF  00,622
03DAC:  MOVLW  C4
03DAE:  MOVLB  6
03DB0:  MOVWF  x29
03DB2:  MOVLW  1D
03DB4:  MOVWF  x28
03DB6:  MOVLW  1E
03DB8:  MOVWF  x27
03DBA:  MOVLW  78
03DBC:  MOVWF  x26
03DBE:  MOVLB  0
03DC0:  CALL   1C0A
03DC4:  MOVFF  03,60D
03DC8:  MOVFF  02,60C
03DCC:  MOVFF  01,60B
03DD0:  MOVFF  00,60A
....................    r = r*y + pe[3]; 
03DD4:  MOVFF  60D,621
03DD8:  MOVFF  60C,620
03DDC:  MOVFF  60B,61F
03DE0:  MOVFF  60A,61E
03DE4:  MOVFF  605,625
03DE8:  MOVFF  604,624
03DEC:  MOVFF  603,623
03DF0:  MOVFF  602,622
03DF4:  CALL   30B8
03DF8:  MOVFF  00,610
03DFC:  MOVFF  01,611
03E00:  MOVFF  02,612
03E04:  MOVFF  03,613
03E08:  BCF    FD8.1
03E0A:  MOVFF  03,625
03E0E:  MOVFF  02,624
03E12:  MOVFF  01,623
03E16:  MOVFF  00,622
03E1A:  MOVLW  5E
03E1C:  MOVLB  6
03E1E:  MOVWF  x29
03E20:  MOVLW  50
03E22:  MOVWF  x28
03E24:  MOVLW  63
03E26:  MOVWF  x27
03E28:  MOVLW  7A
03E2A:  MOVWF  x26
03E2C:  MOVLB  0
03E2E:  CALL   1C0A
03E32:  MOVFF  03,60D
03E36:  MOVFF  02,60C
03E3A:  MOVFF  01,60B
03E3E:  MOVFF  00,60A
....................    r = r*y + pe[4]; 
03E42:  MOVFF  60D,621
03E46:  MOVFF  60C,620
03E4A:  MOVFF  60B,61F
03E4E:  MOVFF  60A,61E
03E52:  MOVFF  605,625
03E56:  MOVFF  604,624
03E5A:  MOVFF  603,623
03E5E:  MOVFF  602,622
03E62:  CALL   30B8
03E66:  MOVFF  00,610
03E6A:  MOVFF  01,611
03E6E:  MOVFF  02,612
03E72:  MOVFF  03,613
03E76:  BCF    FD8.1
03E78:  MOVFF  03,625
03E7C:  MOVFF  02,624
03E80:  MOVFF  01,623
03E84:  MOVFF  00,622
03E88:  MOVLW  1A
03E8A:  MOVLB  6
03E8C:  MOVWF  x29
03E8E:  MOVLW  FE
03E90:  MOVWF  x28
03E92:  MOVLW  75
03E94:  MOVWF  x27
03E96:  MOVLW  7C
03E98:  MOVWF  x26
03E9A:  MOVLB  0
03E9C:  CALL   1C0A
03EA0:  MOVFF  03,60D
03EA4:  MOVFF  02,60C
03EA8:  MOVFF  01,60B
03EAC:  MOVFF  00,60A
....................    r = r*y + pe[5]; 
03EB0:  MOVFF  60D,621
03EB4:  MOVFF  60C,620
03EB8:  MOVFF  60B,61F
03EBC:  MOVFF  60A,61E
03EC0:  MOVFF  605,625
03EC4:  MOVFF  604,624
03EC8:  MOVFF  603,623
03ECC:  MOVFF  602,622
03ED0:  CALL   30B8
03ED4:  MOVFF  00,610
03ED8:  MOVFF  01,611
03EDC:  MOVFF  02,612
03EE0:  MOVFF  03,613
03EE4:  BCF    FD8.1
03EE6:  MOVFF  03,625
03EEA:  MOVFF  02,624
03EEE:  MOVFF  01,623
03EF2:  MOVFF  00,622
03EF6:  MOVLW  18
03EF8:  MOVLB  6
03EFA:  MOVWF  x29
03EFC:  MOVLW  72
03EFE:  MOVWF  x28
03F00:  MOVLW  31
03F02:  MOVWF  x27
03F04:  MOVLW  7E
03F06:  MOVWF  x26
03F08:  MOVLB  0
03F0A:  CALL   1C0A
03F0E:  MOVFF  03,60D
03F12:  MOVFF  02,60C
03F16:  MOVFF  01,60B
03F1A:  MOVFF  00,60A
....................  
....................    res = res*(1.0 + y*r); 
03F1E:  MOVFF  605,621
03F22:  MOVFF  604,620
03F26:  MOVFF  603,61F
03F2A:  MOVFF  602,61E
03F2E:  MOVFF  60D,625
03F32:  MOVFF  60C,624
03F36:  MOVFF  60B,623
03F3A:  MOVFF  60A,622
03F3E:  CALL   30B8
03F42:  BCF    FD8.1
03F44:  MOVLB  6
03F46:  CLRF   x25
03F48:  CLRF   x24
03F4A:  CLRF   x23
03F4C:  MOVLW  7F
03F4E:  MOVWF  x22
03F50:  MOVFF  03,629
03F54:  MOVFF  02,628
03F58:  MOVFF  01,627
03F5C:  MOVFF  00,626
03F60:  MOVLB  0
03F62:  CALL   1C0A
03F66:  MOVFF  609,621
03F6A:  MOVFF  608,620
03F6E:  MOVFF  607,61F
03F72:  MOVFF  606,61E
03F76:  MOVFF  03,625
03F7A:  MOVFF  02,624
03F7E:  MOVFF  01,623
03F82:  MOVFF  00,622
03F86:  CALL   30B8
03F8A:  MOVFF  03,609
03F8E:  MOVFF  02,608
03F92:  MOVFF  01,607
03F96:  MOVFF  00,606
....................  
....................    if (s) 
03F9A:  MOVLB  6
03F9C:  BTFSS  x0F.0
03F9E:  BRA    3FD2
....................       res = 1.0/res; 
03FA0:  CLRF   x21
03FA2:  CLRF   x20
03FA4:  CLRF   x1F
03FA6:  MOVLW  7F
03FA8:  MOVWF  x1E
03FAA:  MOVFF  609,625
03FAE:  MOVFF  608,624
03FB2:  MOVFF  607,623
03FB6:  MOVFF  606,622
03FBA:  MOVLB  0
03FBC:  CALL   1AAC
03FC0:  MOVFF  03,609
03FC4:  MOVFF  02,608
03FC8:  MOVFF  01,607
03FCC:  MOVFF  00,606
03FD0:  MOVLB  6
....................    return(res); 
03FD2:  MOVFF  606,00
03FD6:  MOVFF  607,01
03FDA:  MOVFF  608,02
03FDE:  MOVFF  609,03
.................... } 
03FE2:  MOVLB  0
03FE4:  RETLW  00
....................  
....................  
.................... //Overloaded function for exp() for PCD 
.................... // Overloaded function exp() for data type - Float48 
.................... #if defined(__PCD__) 
.................... float48 exp(float48 x) 
.................... { 
....................    float48 y, res, r; 
....................    int8 data1; 
....................    signed int8 n; 
....................    int1 s; 
....................    #ifdef _ERRNO 
....................    if(x > 88.722838) 
....................    { 
....................       errno=ERANGE; 
....................       return(0); 
....................    } 
....................    #endif 
....................    n = (signed int16)(x/LN2); 
....................    s = 0; 
....................    y = x; 
....................  
....................    if (x < 0) 
....................    { 
....................       s = 1; 
....................       n = -n; 
....................       y = -y; 
....................    } 
....................  
....................    res = 0.0; 
....................  
....................    data1 = n+0x7F; 
....................    if(bit_test(data1,0)) 
....................    bit_set(*(((unsigned int8 *)(&res)+4)),7); 
....................    rotate_right(&data1,1); 
....................    bit_clear(data1,7); 
....................    *(((unsigned int8 *)(&res)+5)) = data1; 
....................  
....................    y = y/LN2 - (float48)n; 
....................  
....................    r = pe[0]*y + pe[1]; 
....................    r = r*y + pe[2]; 
....................    r = r*y + pe[3]; 
....................    r = r*y + pe[4]; 
....................    r = r*y + pe[5]; 
....................  
....................    res = res*(1.0 + y*r); 
....................  
....................    if (s) 
....................       res = 1.0/res; 
....................    return(res); 
.................... } 
....................  
.................... // Overloaded function exp() for data type - Float64 
.................... float64 exp(float64 x) 
.................... { 
....................    float64 y, res, r; 
....................    unsigned int16 data1, data2; 
....................    unsigned int16 *p; 
....................    signed int16 n; 
....................    int1 s; 
....................    #ifdef _ERRNO 
....................    if(x > 709.7827128) 
....................    { 
....................       errno=ERANGE; 
....................       return(0); 
....................    } 
....................    #endif 
....................    n = (signed int16)(x/LN2); 
....................    s = 0; 
....................    y = x; 
....................  
....................    if (x < 0) 
....................    { 
....................       s = 1; 
....................       n = -n; 
....................       y = -y; 
....................    } 
....................  
....................    res = 0.0; 
....................  
.................... #if !defined(__PCD__) 
....................    *((unsigned int16 *)(&res)) = n + 0x7F; 
.................... #endif 
....................    p= (((unsigned int16 *)(&res))+3); 
....................    data1 = *p; 
....................    data2 = *p;    
....................    data1 = n + 0x3FF; 
....................    data1 = data1 <<4; 
....................    if(bit_test(data2,15)) 
....................    bit_set(data1,15); 
....................    data2 = data2 & 0x000F; 
....................    data1 ^= data2; 
....................  
....................    *(((unsigned int16 *)(&res)+3)) = data1; 
....................  
....................  
....................    y = y/LN2 - (float64)n; 
....................  
....................    r = pe[0]*y + pe[1]; 
....................    r = r*y + pe[2]; 
....................    r = r*y + pe[3]; 
....................    r = r*y + pe[4]; 
....................    r = r*y + pe[5]; 
....................  
....................    res = res*(1.0 + y*r); 
....................  
....................    if (s) 
....................       res = 1.0/res; 
....................    return(res); 
.................... } 
....................  
.................... #ENDIF 
....................  
....................  
.................... /************************************************************/ 
....................  
.................... float32 const pl[4] = {0.45145214, -9.0558803, 26.940971, -19.860189}; 
.................... float32 const ql[4] = {1.0000000,  -8.1354259, 16.780517, -9.9300943}; 
....................  
.................... //////////////////////////////////////////////////////////////////////////// 
.................... //   float log(float x) 
.................... //////////////////////////////////////////////////////////////////////////// 
.................... // Description : returns the the natural log of x 
.................... // Date : N/A 
.................... // 
.................... float32 log(float32 x) 
.................... { 
....................    float32 y, res, r, y2; 
....................    #if defined(__PCD__) 
....................    unsigned int8  data1,data2; 
....................    #endif 
....................    signed int8 n; 
....................    #ifdef _ERRNO 
....................    if(x <0) 
....................    { 
....................       errno=EDOM; 
....................    } 
....................    if(x ==0) 
....................    { 
....................       errno=ERANGE; 
....................       return(0); 
....................    } 
....................    #endif 
....................    y = x; 
*
03708:  MOVFF  601,605
0370C:  MOVFF  600,604
03710:  MOVFF  5FF,603
03714:  MOVFF  5FE,602
....................  
....................    if (y != 1.0) 
03718:  MOVFF  605,621
0371C:  MOVFF  604,620
03720:  MOVFF  603,61F
03724:  MOVFF  602,61E
03728:  MOVLB  6
0372A:  CLRF   x25
0372C:  CLRF   x24
0372E:  CLRF   x23
03730:  MOVLW  7F
03732:  MOVWF  x22
03734:  MOVLB  0
03736:  CALL   2610
0373A:  BTFSC  FD8.2
0373C:  BRA    3BC4
....................    { 
.................... #if !defined(__PCD__) 
....................     *((unsigned int8 *)(&y)) = 0x7E;  
0373E:  MOVLW  06
03740:  MOVLB  6
03742:  MOVWF  x14
03744:  MOVLW  02
03746:  MOVWF  FE9
03748:  MOVFF  614,FEA
0374C:  MOVLW  7E
0374E:  MOVWF  FEF
.................... #endif 
....................  
.................... #if defined(__PCD__) // Takes care of IEEE format 
....................    data2 = *(((unsigned int8 *)(&y))+3); 
....................    *(((unsigned int8 *)(&y))+3) = 0x3F; 
....................    data1 = *(((unsigned int8 *)(&y))+2); 
....................    bit_clear(data1,7); 
....................    *(((unsigned int8 *)(&y))+2) = data1; 
....................    if(bit_test(data2,7)) 
....................    bit_set(*(((unsigned int8 *)(&y))+3),7); 
.................... #endif 
....................  
....................       y = (y - 1.0)/(y + 1.0); 
03750:  BSF    FD8.1
03752:  MOVFF  605,625
03756:  MOVFF  604,624
0375A:  MOVFF  603,623
0375E:  MOVFF  602,622
03762:  CLRF   x29
03764:  CLRF   x28
03766:  CLRF   x27
03768:  MOVLW  7F
0376A:  MOVWF  x26
0376C:  MOVLB  0
0376E:  CALL   1C0A
03772:  MOVFF  00,613
03776:  MOVFF  01,614
0377A:  MOVFF  02,615
0377E:  MOVFF  03,616
03782:  BCF    FD8.1
03784:  MOVFF  605,625
03788:  MOVFF  604,624
0378C:  MOVFF  603,623
03790:  MOVFF  602,622
03794:  MOVLB  6
03796:  CLRF   x29
03798:  CLRF   x28
0379A:  CLRF   x27
0379C:  MOVLW  7F
0379E:  MOVWF  x26
037A0:  MOVLB  0
037A2:  CALL   1C0A
037A6:  MOVFF  616,621
037AA:  MOVFF  615,620
037AE:  MOVFF  614,61F
037B2:  MOVFF  613,61E
037B6:  MOVFF  03,625
037BA:  MOVFF  02,624
037BE:  MOVFF  01,623
037C2:  MOVFF  00,622
037C6:  CALL   1AAC
037CA:  MOVFF  03,605
037CE:  MOVFF  02,604
037D2:  MOVFF  01,603
037D6:  MOVFF  00,602
....................  
....................       y2=y*y; 
037DA:  MOVFF  605,621
037DE:  MOVFF  604,620
037E2:  MOVFF  603,61F
037E6:  MOVFF  602,61E
037EA:  MOVFF  605,625
037EE:  MOVFF  604,624
037F2:  MOVFF  603,623
037F6:  MOVFF  602,622
037FA:  RCALL  30B8
037FC:  MOVFF  03,611
03800:  MOVFF  02,610
03804:  MOVFF  01,60F
03808:  MOVFF  00,60E
....................  
....................       res = pl[0]*y2 + pl[1]; 
0380C:  MOVLW  BC
0380E:  MOVLB  6
03810:  MOVWF  x21
03812:  MOVLW  24
03814:  MOVWF  x20
03816:  MOVLW  67
03818:  MOVWF  x1F
0381A:  MOVLW  7D
0381C:  MOVWF  x1E
0381E:  MOVFF  611,625
03822:  MOVFF  610,624
03826:  MOVFF  60F,623
0382A:  MOVFF  60E,622
0382E:  MOVLB  0
03830:  RCALL  30B8
03832:  MOVFF  00,613
03836:  MOVFF  01,614
0383A:  MOVFF  02,615
0383E:  MOVFF  03,616
03842:  BCF    FD8.1
03844:  MOVFF  03,625
03848:  MOVFF  02,624
0384C:  MOVFF  01,623
03850:  MOVFF  00,622
03854:  MOVLW  E3
03856:  MOVLB  6
03858:  MOVWF  x29
0385A:  MOVLW  E4
0385C:  MOVWF  x28
0385E:  MOVLW  90
03860:  MOVWF  x27
03862:  MOVLW  82
03864:  MOVWF  x26
03866:  MOVLB  0
03868:  CALL   1C0A
0386C:  MOVFF  03,609
03870:  MOVFF  02,608
03874:  MOVFF  01,607
03878:  MOVFF  00,606
....................       res = res*y2 + pl[2]; 
0387C:  MOVFF  609,621
03880:  MOVFF  608,620
03884:  MOVFF  607,61F
03888:  MOVFF  606,61E
0388C:  MOVFF  611,625
03890:  MOVFF  610,624
03894:  MOVFF  60F,623
03898:  MOVFF  60E,622
0389C:  RCALL  30B8
0389E:  MOVFF  00,613
038A2:  MOVFF  01,614
038A6:  MOVFF  02,615
038AA:  MOVFF  03,616
038AE:  BCF    FD8.1
038B0:  MOVFF  03,625
038B4:  MOVFF  02,624
038B8:  MOVFF  01,623
038BC:  MOVFF  00,622
038C0:  MOVLW  1C
038C2:  MOVLB  6
038C4:  MOVWF  x29
038C6:  MOVLW  87
038C8:  MOVWF  x28
038CA:  MOVLW  57
038CC:  MOVWF  x27
038CE:  MOVLW  83
038D0:  MOVWF  x26
038D2:  MOVLB  0
038D4:  CALL   1C0A
038D8:  MOVFF  03,609
038DC:  MOVFF  02,608
038E0:  MOVFF  01,607
038E4:  MOVFF  00,606
....................       res = res*y2 + pl[3]; 
038E8:  MOVFF  609,621
038EC:  MOVFF  608,620
038F0:  MOVFF  607,61F
038F4:  MOVFF  606,61E
038F8:  MOVFF  611,625
038FC:  MOVFF  610,624
03900:  MOVFF  60F,623
03904:  MOVFF  60E,622
03908:  CALL   30B8
0390C:  MOVFF  00,613
03910:  MOVFF  01,614
03914:  MOVFF  02,615
03918:  MOVFF  03,616
0391C:  BCF    FD8.1
0391E:  MOVFF  03,625
03922:  MOVFF  02,624
03926:  MOVFF  01,623
0392A:  MOVFF  00,622
0392E:  MOVLW  AB
03930:  MOVLB  6
03932:  MOVWF  x29
03934:  MOVLW  E1
03936:  MOVWF  x28
03938:  MOVLW  9E
0393A:  MOVWF  x27
0393C:  MOVLW  83
0393E:  MOVWF  x26
03940:  MOVLB  0
03942:  CALL   1C0A
03946:  MOVFF  03,609
0394A:  MOVFF  02,608
0394E:  MOVFF  01,607
03952:  MOVFF  00,606
....................  
....................       r = ql[0]*y2 + ql[1]; 
03956:  MOVLB  6
03958:  CLRF   x21
0395A:  CLRF   x20
0395C:  CLRF   x1F
0395E:  MOVLW  7F
03960:  MOVWF  x1E
03962:  MOVFF  611,625
03966:  MOVFF  610,624
0396A:  MOVFF  60F,623
0396E:  MOVFF  60E,622
03972:  MOVLB  0
03974:  CALL   30B8
03978:  MOVFF  00,613
0397C:  MOVFF  01,614
03980:  MOVFF  02,615
03984:  MOVFF  03,616
03988:  BCF    FD8.1
0398A:  MOVFF  03,625
0398E:  MOVFF  02,624
03992:  MOVFF  01,623
03996:  MOVFF  00,622
0399A:  MOVLW  B4
0399C:  MOVLB  6
0399E:  MOVWF  x29
039A0:  MOVLW  2A
039A2:  MOVWF  x28
039A4:  MOVLW  82
039A6:  MOVWF  x27
039A8:  MOVWF  x26
039AA:  MOVLB  0
039AC:  CALL   1C0A
039B0:  MOVFF  03,60D
039B4:  MOVFF  02,60C
039B8:  MOVFF  01,60B
039BC:  MOVFF  00,60A
....................       r = r*y2 + ql[2]; 
039C0:  MOVFF  60D,621
039C4:  MOVFF  60C,620
039C8:  MOVFF  60B,61F
039CC:  MOVFF  60A,61E
039D0:  MOVFF  611,625
039D4:  MOVFF  610,624
039D8:  MOVFF  60F,623
039DC:  MOVFF  60E,622
039E0:  CALL   30B8
039E4:  MOVFF  00,613
039E8:  MOVFF  01,614
039EC:  MOVFF  02,615
039F0:  MOVFF  03,616
039F4:  BCF    FD8.1
039F6:  MOVFF  03,625
039FA:  MOVFF  02,624
039FE:  MOVFF  01,623
03A02:  MOVFF  00,622
03A06:  MOVLW  80
03A08:  MOVLB  6
03A0A:  MOVWF  x29
03A0C:  MOVLW  3E
03A0E:  MOVWF  x28
03A10:  MOVLW  06
03A12:  MOVWF  x27
03A14:  MOVLW  83
03A16:  MOVWF  x26
03A18:  MOVLB  0
03A1A:  CALL   1C0A
03A1E:  MOVFF  03,60D
03A22:  MOVFF  02,60C
03A26:  MOVFF  01,60B
03A2A:  MOVFF  00,60A
....................       r = r*y2 + ql[3]; 
03A2E:  MOVFF  60D,621
03A32:  MOVFF  60C,620
03A36:  MOVFF  60B,61F
03A3A:  MOVFF  60A,61E
03A3E:  MOVFF  611,625
03A42:  MOVFF  610,624
03A46:  MOVFF  60F,623
03A4A:  MOVFF  60E,622
03A4E:  CALL   30B8
03A52:  MOVFF  00,613
03A56:  MOVFF  01,614
03A5A:  MOVFF  02,615
03A5E:  MOVFF  03,616
03A62:  BCF    FD8.1
03A64:  MOVFF  03,625
03A68:  MOVFF  02,624
03A6C:  MOVFF  01,623
03A70:  MOVFF  00,622
03A74:  MOVLW  AB
03A76:  MOVLB  6
03A78:  MOVWF  x29
03A7A:  MOVLW  E1
03A7C:  MOVWF  x28
03A7E:  MOVLW  9E
03A80:  MOVWF  x27
03A82:  MOVLW  82
03A84:  MOVWF  x26
03A86:  MOVLB  0
03A88:  CALL   1C0A
03A8C:  MOVFF  03,60D
03A90:  MOVFF  02,60C
03A94:  MOVFF  01,60B
03A98:  MOVFF  00,60A
....................  
....................       res = y*res/r; 
03A9C:  MOVFF  605,621
03AA0:  MOVFF  604,620
03AA4:  MOVFF  603,61F
03AA8:  MOVFF  602,61E
03AAC:  MOVFF  609,625
03AB0:  MOVFF  608,624
03AB4:  MOVFF  607,623
03AB8:  MOVFF  606,622
03ABC:  CALL   30B8
03AC0:  MOVFF  00,613
03AC4:  MOVFF  01,614
03AC8:  MOVFF  02,615
03ACC:  MOVFF  03,616
03AD0:  MOVFF  03,621
03AD4:  MOVFF  02,620
03AD8:  MOVFF  01,61F
03ADC:  MOVFF  00,61E
03AE0:  MOVFF  60D,625
03AE4:  MOVFF  60C,624
03AE8:  MOVFF  60B,623
03AEC:  MOVFF  60A,622
03AF0:  CALL   1AAC
03AF4:  MOVFF  03,609
03AF8:  MOVFF  02,608
03AFC:  MOVFF  01,607
03B00:  MOVFF  00,606
.................... #if !defined(__PCD__) 
....................       n = *((unsigned int8 *)(&x)) - 0x7E; 
03B04:  MOVLW  05
03B06:  MOVLB  6
03B08:  MOVWF  x14
03B0A:  MOVLW  FE
03B0C:  MOVWF  FE9
03B0E:  MOVFF  614,FEA
03B12:  MOVLW  7E
03B14:  SUBWF  FEF,W
03B16:  MOVWF  x12
.................... #endif 
.................... #if defined(__PCD__)  
....................     data1 = *(((unsigned int8 *)(&x)+3)); 
....................     rotate_left(&data1,1); 
....................     data2 = *(((unsigned int8 *)(&x)+2)); 
....................     if(bit_test (data2,7)) 
....................       bit_set(data1,0); 
....................     n = data1 - 0x7E; 
.................... #endif 
....................  
....................       if (n<0)  
03B18:  BTFSC  x12.7
03B1A:  BRA    3B1E
03B1C:  BRA    3B46
....................          r = -(float32)-n; 
03B1E:  MOVLW  00
03B20:  BSF    FD8.0
03B22:  SUBFWB x12,W
03B24:  CLRF   x17
03B26:  MOVWF  x16
03B28:  BTFSC  x16.7
03B2A:  DECF   x17,F
03B2C:  MOVLB  0
03B2E:  RCALL  36B8
03B30:  MOVFF  00,60A
03B34:  MOVF   01,W
03B36:  XORLW  80
03B38:  MOVLB  6
03B3A:  MOVWF  x0B
03B3C:  MOVFF  02,60C
03B40:  MOVFF  03,60D
....................       else 
03B44:  BRA    3B66
....................          r = (float32)n; 
03B46:  CLRF   x17
03B48:  MOVFF  612,616
03B4C:  BTFSC  x16.7
03B4E:  DECF   x17,F
03B50:  MOVLB  0
03B52:  RCALL  36B8
03B54:  MOVFF  03,60D
03B58:  MOVFF  02,60C
03B5C:  MOVFF  01,60B
03B60:  MOVFF  00,60A
03B64:  MOVLB  6
....................  
....................       res += r*LN2; 
03B66:  MOVFF  60D,621
03B6A:  MOVFF  60C,620
03B6E:  MOVFF  60B,61F
03B72:  MOVFF  60A,61E
03B76:  MOVLW  18
03B78:  MOVWF  x25
03B7A:  MOVLW  72
03B7C:  MOVWF  x24
03B7E:  MOVLW  31
03B80:  MOVWF  x23
03B82:  MOVLW  7E
03B84:  MOVWF  x22
03B86:  MOVLB  0
03B88:  CALL   30B8
03B8C:  BCF    FD8.1
03B8E:  MOVFF  609,625
03B92:  MOVFF  608,624
03B96:  MOVFF  607,623
03B9A:  MOVFF  606,622
03B9E:  MOVFF  03,629
03BA2:  MOVFF  02,628
03BA6:  MOVFF  01,627
03BAA:  MOVFF  00,626
03BAE:  CALL   1C0A
03BB2:  MOVFF  03,609
03BB6:  MOVFF  02,608
03BBA:  MOVFF  01,607
03BBE:  MOVFF  00,606
....................    } 
....................  
....................    else 
03BC2:  BRA    3BD0
....................       res = 0.0; 
03BC4:  MOVLB  6
03BC6:  CLRF   x09
03BC8:  CLRF   x08
03BCA:  CLRF   x07
03BCC:  CLRF   x06
03BCE:  MOVLB  0
....................  
....................    return(res); 
03BD0:  MOVFF  606,00
03BD4:  MOVFF  607,01
03BD8:  MOVFF  608,02
03BDC:  MOVFF  609,03
.................... } 
03BE0:  RETLW  00
....................  
.................... //Overloaded function for log() for PCD 
.................... // Overloaded function log() for data type - Float48 
.................... #if defined(__PCD__) 
.................... float48 log(float48 x) 
.................... { 
....................    float48 y, res, r, y2; 
....................    unsigned int8  data1,data2; 
....................    signed int8 n; 
....................    #ifdef _ERRNO 
....................    if(x <0) 
....................    { 
....................       errno=EDOM; 
....................    } 
....................    if(x ==0) 
....................    { 
....................       errno=ERANGE; 
....................       return(0); 
....................    } 
....................    #endif 
....................    y = x; 
....................  
....................    if (y != 1.0) 
....................    { 
....................     
....................    #if !defined(__PCD__) 
....................        *((unsigned int8 *)(&y)) = 0x7E;  
....................    #endif 
....................       data2 = *(((unsigned int8 *)(&y))+5); 
....................       *(((unsigned int8 *)(&y))+5) = 0x3F; 
....................       data1 = *(((unsigned int8 *)(&y))+4); 
....................       bit_clear(data1,7); 
....................       *(((unsigned int8 *)(&y))+4) = data1; 
....................    
....................       if(bit_test(data2,7)) 
....................          bit_set(*(((unsigned int8 *)(&y))+4),7); 
....................       y = (y - 1.0)/(y + 1.0); 
....................  
....................       y2=y*y; 
....................  
....................       res = pl[0]*y2 + pl[1]; 
....................       res = res*y2 + pl[2]; 
....................       res = res*y2 + pl[3]; 
....................  
....................       r = ql[0]*y2 + ql[1]; 
....................       r = r*y2 + ql[2]; 
....................       r = r*y2 + ql[3]; 
....................  
....................       res = y*res/r; 
....................  
....................     data1 = *(((unsigned int8 *)(&x)+5)); 
....................     rotate_left(&data1,1); 
....................     data2 = *(((unsigned int8 *)(&x)+4)); 
....................     if(bit_test (data2,7)) 
....................        bit_set(data1,0); 
....................       
....................     n = data1 - 0x7E; 
....................  
....................       if (n<0) 
....................          r = -(float48)-n; 
....................       else 
....................          r = (float48)n; 
....................  
....................       res += r*LN2; 
....................    } 
....................  
....................    else 
....................       res = 0.0; 
....................  
....................    return(res); 
.................... } 
....................  
.................... // Overloaded function log() for data type - Float48 
.................... #if defined(__PCD__) 
.................... float32 const pl_64[4] = {0.45145214, -9.0558803, 26.940971, -19.860189}; 
.................... float32 const ql_64[4] = {1.0000000,  -8.1354259, 16.780517, -9.9300943}; 
.................... #endif 
.................... float64 log(float64 x) 
.................... { 
....................    float64 y, res, r, y2; 
....................    unsigned int16  data1,data2; 
....................    unsigned int16 *p; 
....................    signed int16 n; 
....................    #ifdef _ERRNO 
....................    if(x <0) 
....................    { 
....................       errno=EDOM; 
....................    } 
....................    if(x ==0) 
....................    { 
....................       errno=ERANGE; 
....................       return(0); 
....................    } 
....................    #endif 
....................    y = x; 
....................  
....................    if (y != 1.0) 
....................    { 
....................    #if !defined(__PCD__) 
....................        *((unsigned int8 *)(&y)) = 0x7E;  
....................    #endif 
....................       p= (((unsigned int16 *)(&y))+3); 
....................       data1 = *p; 
....................       data2 = *p; 
....................       data1 = 0x3FE; 
....................       data1 = data1 <<4; 
....................       if(bit_test (data2,15)) 
....................       bit_set(data1,15); 
....................       data2 = data2 & 0x000F; 
....................       data1 ^=data2; 
....................  
....................       *p = data1; 
....................  
....................       y = (y - 1.0)/(y + 1.0); 
....................  
....................       y2=y*y; 
....................  
....................       res = pl_64[0]*y2 + pl_64[1]; 
....................       res = res*y2 + pl_64[2]; 
....................       res = res*y2 + pl_64[3]; 
....................  
....................       r = ql_64[0]*y2 + ql_64[1]; 
....................       r = r*y2 + ql_64[2]; 
....................       r = r*y2 + ql_64[3]; 
....................  
....................       res = y*res/r; 
....................   
....................       p= (((unsigned int16 *)(&x))+3); 
....................       data1 = *p; 
....................       bit_clear(data1,15); 
....................       data1 = data1 >>4;     
....................       n = data1 - 0x3FE; 
....................  
....................  
....................       if (n<0) 
....................          r = -(float64)-n; 
....................       else 
....................          r = (float64)n; 
....................  
....................       res += r*LN2; 
....................    } 
....................  
....................    else 
....................       res = 0.0; 
....................  
....................    return(res); 
.................... } 
.................... #endif 
....................  
....................  
.................... #define LN10 2.3025850929940456 
....................  
.................... //////////////////////////////////////////////////////////////////////////// 
.................... //   float log10(float x) 
.................... //////////////////////////////////////////////////////////////////////////// 
.................... // Description : returns the the log base 10 of x 
.................... // Date : N/A 
.................... // 
.................... float32 log10(float32 x) 
.................... { 
....................    float32 r; 
....................  
....................    r = log(x); 
....................    r = r/LN10; 
....................    return(r); 
.................... } 
....................  
.................... //Overloaded functions for log10() for PCD 
.................... // Overloaded function log10() for data type - Float48 
.................... #if defined(__PCD__) 
.................... float48 log10(float48 x) 
.................... { 
....................    float48 r; 
....................  
....................    r = log(x); 
....................    r = r/LN10; 
....................    return(r); 
.................... } 
....................  
.................... // Overloaded function log10() for data type - Float64 
.................... float64 log10(float64 x) 
.................... { 
....................    float64 r; 
....................  
....................    r = log(x); 
....................    r = r/LN10; 
....................    return(r); 
.................... } 
.................... #endif 
.................... //////////////////////////////////////////////////////////////////////////// 
.................... //   float modf(float x) 
.................... //////////////////////////////////////////////////////////////////////////// 
.................... // Description :breaks the argument value int integral and fractional parts, 
.................... // ach of which have the same sign as the argument.  It stores the integral part 
.................... // as a float in the object pointed to by the iptr 
.................... // Returns : returns the signed fractional part of value. 
.................... // Date : N/A 
.................... // 
....................  
.................... float32 modf(float32 value,float32 *iptr) 
.................... { 
....................    *iptr=(value < 0.0)? ceil(value): floor(value); 
....................    return(value - *iptr); 
.................... } 
.................... //Overloaded functions for modf() for PCD 
.................... // Overloaded function modf() for data type - Float48 
.................... #if defined(__PCD__) 
.................... float48 modf(float48 value,float48 *iptr) 
.................... { 
....................    *iptr=(value < 0.0)? ceil(value): floor(value); 
....................    return(value - *iptr); 
.................... } 
.................... // Overloaded function modf() for data type - Float64 
.................... float64 modf(float64 value,float64 *iptr) 
.................... { 
....................    *iptr=(value < 0.0)? ceil(value): floor(value); 
....................    return(value - *iptr); 
.................... } 
.................... #endif 
....................  
.................... //////////////////////////////////////////////////////////////////////////// 
.................... //   float pwr(float x,float y) 
.................... //////////////////////////////////////////////////////////////////////////// 
.................... // Description : returns the value (x^y) 
.................... // Date : N/A 
.................... // Note : 0 is returned when the function will generate an imaginary number 
.................... // 
.................... float32 pwr(float32 x,float32 y) 
.................... { 
....................    if(0 > x && fmod(y, 1) == 0) { 
....................       if(fmod(y, 2) == 0) { 
....................          return (exp(log(-x) * y)); 
....................       } else { 
....................          return (-exp(log(-x) * y)); 
....................       } 
....................    } else if(0 > x && fmod(y, 1) != 0) { 
....................       return 0; 
....................    } else { 
....................       if(x != 0 || 0 >= y) { 
....................          return (exp(log(x) * y)); 
....................       } 
....................    } 
.................... } 
.................... //Overloaded functions for pwr() for PCD 
.................... // Overloaded function pwr() for data type - Float48 
.................... #if defined(__PCD__) 
.................... float48 pwr(float48 x,float48 y) 
.................... { 
....................    if(0 > x && fmod(y, 1) == 0) { 
....................       if(fmod(y, 2) == 0) { 
....................          return (exp(log(-x) * y)); 
....................       } else { 
....................          return (-exp(log(-x) * y)); 
....................       } 
....................    } else if(0 > x && fmod(y, 1) != 0) { 
....................       return 0; 
....................    } else { 
....................       if(x != 0 || 0 >= y) { 
....................          return (exp(log(x) * y)); 
....................       } 
....................    } 
.................... } 
.................... // Overloaded function pwr() for data type - Float64 
.................... float64 pwr(float64 x,float64 y) 
.................... { 
....................    if(0 > x && fmod(y, 1) == 0) { 
....................       if(fmod(y, 2) == 0) { 
....................          return (exp(log(-x) * y)); 
....................       } else { 
....................          return (-exp(log(-x) * y)); 
....................       } 
....................    } else if(0 > x && fmod(y, 1) != 0) { 
....................       return 0; 
....................    } else { 
....................       if(x != 0 || 0 >= y) { 
....................          return (exp(log(x) * y)); 
....................       } 
....................    } 
.................... } 
.................... #endif 
....................  
.................... //////////////////// Power functions //////////////////// 
....................  
.................... //////////////////////////////////////////////////////////////////////////// 
.................... //   float pow(float x,float y) 
.................... //////////////////////////////////////////////////////////////////////////// 
.................... // Description : returns the value (x^y) 
.................... // Date : N/A 
.................... // Note : 0 is returned when the function will generate an imaginary number 
.................... // 
.................... float32 pow(float32 x,float32 y) 
.................... { 
....................    if(0 > x && fmod(y, 1) == 0) { 
*
03FE6:  MOVFF  5F5,621
03FEA:  MOVFF  5F4,620
03FEE:  MOVFF  5F3,61F
03FF2:  MOVFF  5F2,61E
03FF6:  MOVLB  6
03FF8:  CLRF   x25
03FFA:  CLRF   x24
03FFC:  CLRF   x23
03FFE:  CLRF   x22
04000:  MOVLB  0
04002:  CALL   2610
04006:  BTFSS  FD8.0
04008:  BRA    41C0
0400A:  MOVFF  5F9,5FD
0400E:  MOVFF  5F8,5FC
04012:  MOVFF  5F7,5FB
04016:  MOVFF  5F6,5FA
0401A:  MOVLB  6
0401C:  CLRF   x01
0401E:  CLRF   x00
04020:  MOVLB  5
04022:  CLRF   xFF
04024:  MOVLW  7F
04026:  MOVWF  xFE
04028:  MOVLB  0
0402A:  CALL   3552
0402E:  MOVFF  00,5FA
04032:  MOVFF  01,5FB
04036:  MOVFF  02,5FC
0403A:  MOVFF  03,5FD
0403E:  MOVFF  03,621
04042:  MOVFF  02,620
04046:  MOVFF  01,61F
0404A:  MOVFF  00,61E
0404E:  MOVLB  6
04050:  CLRF   x25
04052:  CLRF   x24
04054:  CLRF   x23
04056:  CLRF   x22
04058:  MOVLB  0
0405A:  CALL   2610
0405E:  BTFSS  FD8.2
04060:  BRA    41C0
....................       if(fmod(y, 2) == 0) { 
04062:  MOVFF  5F9,5FD
04066:  MOVFF  5F8,5FC
0406A:  MOVFF  5F7,5FB
0406E:  MOVFF  5F6,5FA
04072:  MOVLB  6
04074:  CLRF   x01
04076:  CLRF   x00
04078:  MOVLB  5
0407A:  CLRF   xFF
0407C:  MOVLW  80
0407E:  MOVWF  xFE
04080:  MOVLB  0
04082:  CALL   3552
04086:  MOVFF  00,5FA
0408A:  MOVFF  01,5FB
0408E:  MOVFF  02,5FC
04092:  MOVFF  03,5FD
04096:  MOVFF  03,621
0409A:  MOVFF  02,620
0409E:  MOVFF  01,61F
040A2:  MOVFF  00,61E
040A6:  MOVLB  6
040A8:  CLRF   x25
040AA:  CLRF   x24
040AC:  CLRF   x23
040AE:  CLRF   x22
040B0:  MOVLB  0
040B2:  CALL   2610
040B6:  BNZ   413A
....................          return (exp(log(-x) * y)); 
040B8:  MOVFF  5F2,5FA
040BC:  MOVLB  5
040BE:  MOVF   xF3,W
040C0:  XORLW  80
040C2:  MOVWF  xFB
040C4:  MOVFF  5F4,5FC
040C8:  MOVFF  5F5,5FD
040CC:  MOVFF  5F5,601
040D0:  MOVFF  5F4,600
040D4:  MOVWF  xFF
040D6:  MOVFF  5F2,5FE
040DA:  MOVLB  0
040DC:  CALL   3708
040E0:  MOVFF  00,5FA
040E4:  MOVFF  01,5FB
040E8:  MOVFF  02,5FC
040EC:  MOVFF  03,5FD
040F0:  MOVFF  03,621
040F4:  MOVFF  02,620
040F8:  MOVFF  01,61F
040FC:  MOVFF  00,61E
04100:  MOVFF  5F9,625
04104:  MOVFF  5F8,624
04108:  MOVFF  5F7,623
0410C:  MOVFF  5F6,622
04110:  CALL   30B8
04114:  MOVFF  00,5FA
04118:  MOVFF  01,5FB
0411C:  MOVFF  02,5FC
04120:  MOVFF  03,5FD
04124:  MOVFF  03,601
04128:  MOVFF  02,600
0412C:  MOVFF  01,5FF
04130:  MOVFF  00,5FE
04134:  RCALL  3BE2
04136:  BRA    42F6
....................       } else { 
04138:  BRA    41BE
....................          return (-exp(log(-x) * y)); 
0413A:  MOVFF  5F2,5FA
0413E:  MOVLB  5
04140:  MOVF   xF3,W
04142:  XORLW  80
04144:  MOVWF  xFB
04146:  MOVFF  5F4,5FC
0414A:  MOVFF  5F5,5FD
0414E:  MOVFF  5F5,601
04152:  MOVFF  5F4,600
04156:  MOVWF  xFF
04158:  MOVFF  5F2,5FE
0415C:  MOVLB  0
0415E:  CALL   3708
04162:  MOVFF  00,5FA
04166:  MOVFF  01,5FB
0416A:  MOVFF  02,5FC
0416E:  MOVFF  03,5FD
04172:  MOVFF  03,621
04176:  MOVFF  02,620
0417A:  MOVFF  01,61F
0417E:  MOVFF  00,61E
04182:  MOVFF  5F9,625
04186:  MOVFF  5F8,624
0418A:  MOVFF  5F7,623
0418E:  MOVFF  5F6,622
04192:  CALL   30B8
04196:  MOVFF  00,5FA
0419A:  MOVFF  01,5FB
0419E:  MOVFF  02,5FC
041A2:  MOVFF  03,5FD
041A6:  MOVFF  03,601
041AA:  MOVFF  02,600
041AE:  MOVFF  01,5FF
041B2:  MOVFF  00,5FE
041B6:  RCALL  3BE2
041B8:  MOVLW  80
041BA:  XORWF  01,F
041BC:  BRA    42F6
....................       } 
....................    } else if(0 > x && fmod(y, 1) != 0) { 
041BE:  BRA    42F6
041C0:  MOVFF  5F5,621
041C4:  MOVFF  5F4,620
041C8:  MOVFF  5F3,61F
041CC:  MOVFF  5F2,61E
041D0:  MOVLB  6
041D2:  CLRF   x25
041D4:  CLRF   x24
041D6:  CLRF   x23
041D8:  CLRF   x22
041DA:  MOVLB  0
041DC:  CALL   2610
041E0:  BNC   4244
041E2:  MOVFF  5F9,5FD
041E6:  MOVFF  5F8,5FC
041EA:  MOVFF  5F7,5FB
041EE:  MOVFF  5F6,5FA
041F2:  MOVLB  6
041F4:  CLRF   x01
041F6:  CLRF   x00
041F8:  MOVLB  5
041FA:  CLRF   xFF
041FC:  MOVLW  7F
041FE:  MOVWF  xFE
04200:  MOVLB  0
04202:  CALL   3552
04206:  MOVFF  00,5FA
0420A:  MOVFF  01,5FB
0420E:  MOVFF  02,5FC
04212:  MOVFF  03,5FD
04216:  MOVFF  03,621
0421A:  MOVFF  02,620
0421E:  MOVFF  01,61F
04222:  MOVFF  00,61E
04226:  MOVLB  6
04228:  CLRF   x25
0422A:  CLRF   x24
0422C:  CLRF   x23
0422E:  CLRF   x22
04230:  MOVLB  0
04232:  CALL   2610
04236:  BZ    4244
....................       return 0; 
04238:  CLRF   00
0423A:  CLRF   01
0423C:  CLRF   02
0423E:  CLRF   03
04240:  BRA    42F6
....................    } else { 
04242:  BRA    42F6
....................       if(x != 0 || 0 >= y) { 
04244:  MOVFF  5F5,621
04248:  MOVFF  5F4,620
0424C:  MOVFF  5F3,61F
04250:  MOVFF  5F2,61E
04254:  MOVLB  6
04256:  CLRF   x25
04258:  CLRF   x24
0425A:  CLRF   x23
0425C:  CLRF   x22
0425E:  MOVLB  0
04260:  CALL   2610
04264:  BNZ   428A
04266:  MOVFF  5F9,621
0426A:  MOVFF  5F8,620
0426E:  MOVFF  5F7,61F
04272:  MOVFF  5F6,61E
04276:  MOVLB  6
04278:  CLRF   x25
0427A:  CLRF   x24
0427C:  CLRF   x23
0427E:  CLRF   x22
04280:  MOVLB  0
04282:  CALL   2610
04286:  BC    428A
04288:  BNZ   42F6
....................          return (exp(log(x) * y)); 
0428A:  MOVFF  5F5,601
0428E:  MOVFF  5F4,600
04292:  MOVFF  5F3,5FF
04296:  MOVFF  5F2,5FE
0429A:  CALL   3708
0429E:  MOVFF  00,5FA
042A2:  MOVFF  01,5FB
042A6:  MOVFF  02,5FC
042AA:  MOVFF  03,5FD
042AE:  MOVFF  03,621
042B2:  MOVFF  02,620
042B6:  MOVFF  01,61F
042BA:  MOVFF  00,61E
042BE:  MOVFF  5F9,625
042C2:  MOVFF  5F8,624
042C6:  MOVFF  5F7,623
042CA:  MOVFF  5F6,622
042CE:  CALL   30B8
042D2:  MOVFF  00,5FA
042D6:  MOVFF  01,5FB
042DA:  MOVFF  02,5FC
042DE:  MOVFF  03,5FD
042E2:  MOVFF  03,601
042E6:  MOVFF  02,600
042EA:  MOVFF  01,5FF
042EE:  MOVFF  00,5FE
042F2:  RCALL  3BE2
042F4:  BRA    42F6
....................       } 
....................    } 
.................... } 
042F6:  RETLW  00
.................... //Overloaded functions for pow() for PCD 
.................... // Overloaded function for pow() data type - Float48 
.................... #if defined(__PCD__) 
.................... float48 pow(float48 x,float48 y) 
.................... { 
....................    if(0 > x && fmod(y, 1) == 0) { 
....................       if(fmod(y, 2) == 0) { 
....................          return (exp(log(-x) * y)); 
....................       } else { 
....................          return (-exp(log(-x) * y)); 
....................       } 
....................    } else if(0 > x && fmod(y, 1) != 0) { 
....................       return 0; 
....................    } else { 
....................       if(x != 0 || 0 >= y) { 
....................          return (exp(log(x) * y)); 
....................       } 
....................    } 
.................... } 
....................  
.................... // Overloaded function pow() for data type - Float64 
.................... float64 pow(float64 x,float64 y) 
.................... { 
....................    if(0 > x && fmod(y, 1) == 0) { 
....................       if(fmod(y, 2) == 0) { 
....................          return (exp(log(-x) * y)); 
....................       } else { 
....................          return (-exp(log(-x) * y)); 
....................       } 
....................    } else if(0 > x && fmod(y, 1) != 0) { 
....................       return 0; 
....................    } else { 
....................       if(x != 0 || 0 >= y) { 
....................          return (exp(log(x) * y)); 
....................       } 
....................    } 
.................... } 
.................... #endif 
....................  
.................... //////////////////////////////////////////////////////////////////////////// 
.................... //   float sqrt(float x) 
.................... //////////////////////////////////////////////////////////////////////////// 
.................... // Description : returns the square root of x 
.................... // Date : N/A 
.................... // 
.................... float32 sqrt(float32 x) 
.................... { 
....................    float32 y, res; 
....................    #if defined(__PCD__) 
....................    unsigned int16 data1,data2; 
....................    #endif 
....................    BYTE *p; 
....................  
....................    #ifdef _ERRNO 
....................    if(x < 0) 
....................    { 
....................       errno=EDOM; 
....................    } 
....................    #endif 
....................  
....................    if( x<=0.0) 
....................       return(0.0); 
....................  
....................    y=x; 
....................     
....................    #if !defined(__PCD__) 
....................     p=&y; 
....................    (*p)=(BYTE)((((unsigned int16)(*p)) + 127) >> 1); 
....................    #endif 
....................     
....................    #if defined(__PCD__) 
....................     p = (((unsigned int8 *)(&y))+3); 
....................     data1 = *(((unsigned int8 *)(&y))+3); 
....................     data2 = *(((unsigned int8 *)(&y))+2); 
....................     rotate_left(&data1,1);     
....................     if(bit_test(data2,7))     
....................     bit_set(data1,0);     
....................     data1 = ((data1+127) >>1); 
....................     bit_clear(data2,7); 
....................     if(bit_test(data1,0)) 
....................     bit_set(data2,7); 
....................     data1 = data1 >>1; 
....................     *(((unsigned int8 *)(&y))+3) = data1; 
....................     *(((unsigned int8 *)(&y))+2) = data2; 
....................      
....................   #endif 
....................  
....................    do { 
....................       res=y; 
....................       y+=(x/y); 
....................  
....................       #if !defined(__PCD__) 
....................      (*p)--; 
....................    #endif 
....................     
....................    #if defined(__PCD__) 
....................     data1 = *(((unsigned int8 *)(&y))+3); 
....................     data2 = *(((unsigned int8 *)(&y))+2); 
....................     rotate_left(&data1,1); 
....................     if(bit_test(data2,7)) 
....................     bit_set(data1,0);     
....................     data1--; 
....................     bit_clear(data2,7); 
....................     if(bit_test(data1,0)) 
....................     bit_set(data2,7); 
....................     data1 = data1 >>1; 
....................     *(((unsigned int8 *)(&y))+3) = data1; 
....................     *(((unsigned int8 *)(&y))+2) = data2; 
....................      
....................   #endif 
....................    } while(res != y); 
....................  
....................    return(res); 
.................... } 
.................... //Overloaded functions for sqrt() for PCD 
.................... // Overloaded function sqrt() for data type - Float48 
.................... #if defined(__PCD__) 
.................... float48 sqrt(float48 x) 
.................... { 
....................    float48 y, res; 
....................    unsigned int16 data1,data2; 
....................    BYTE *p; 
....................  
....................    #ifdef _ERRNO 
....................    if(x < 0) 
....................    { 
....................       errno=EDOM; 
....................    } 
....................    #endif 
....................  
....................    if( x<=0.0) 
....................       return(0.0); 
....................  
....................    y=x; 
....................     
....................    #if !defined(__PCD__) 
....................     p=&y; 
....................    (*p)=(BYTE)((((unsigned int16)(*p)) + 127) >> 1); 
....................    #endif 
....................     
....................    #if defined(__PCD__) 
....................     p = (((unsigned int8 *)(&y))+5); 
....................     data1 = *(((unsigned int8 *)(&y))+5); 
....................     data2 = *(((unsigned int8 *)(&y))+4); 
....................     rotate_left(&data1,1); 
....................     if(bit_test(data2,7)) 
....................     bit_set(data1,0);     
....................     data1 = ((data1+127) >>1); 
....................     bit_clear(data2,7); 
....................     if(bit_test(data1,0)) 
....................     bit_set(data2,7); 
....................     data1 = data1 >>1; 
....................     *(((unsigned int8 *)(&y))+5) = data1; 
....................     *(((unsigned int8 *)(&y))+4) = data2; 
....................      
....................   #endif 
....................  
....................    do { 
....................       res=y; 
....................       y+=(x/y); 
....................  
....................       #if !defined(__PCD__) 
....................      (*p)--; 
....................    #endif 
....................     
....................     data1 = *(((unsigned int8 *)(&y))+5); 
....................     data2 = *(((unsigned int8 *)(&y))+4); 
....................     rotate_left(&data1,1); 
....................     if(bit_test(data2,7)) 
....................     bit_set(data1,0);     
....................     data1--; 
....................     bit_clear(data2,7); 
....................     if(bit_test(data1,0)) 
....................     bit_set(data2,7); 
....................     data1 = data1 >>1; 
....................     *(((unsigned int8 *)(&y))+5) = data1; 
....................     *(((unsigned int8 *)(&y))+4) = data2; 
....................      
....................    } while(res != y); 
....................  
....................    return(res); 
.................... } 
....................  
.................... // Overloaded function sqrt() for data type - Float64 
.................... float64 sqrt(float64 x) 
.................... { 
....................    float64 y, res; 
....................    unsigned int16 *p; 
....................    unsigned int16 temp1,temp2; 
....................  
....................    #ifdef _ERRNO 
....................    if(x < 0) 
....................    { 
....................       errno=EDOM; 
....................    } 
....................    #endif 
....................  
....................    if( x<=0.0) 
....................       return(0.0); 
....................  
....................    y=x; 
....................    p= (((unsigned int16 *)(&y))+3); 
....................    temp1 = *p; 
....................    temp2 = *p; 
....................    bit_clear(temp1,15); 
....................    temp1 = (temp1>>4)+1023; 
....................    temp1 = temp1 >> 1; 
....................    temp1 = (temp1<<4) & 0xFFF0; 
....................    if(bit_test(temp2,15)) 
....................    bit_set(temp1,15); 
....................    temp2 = temp2 & 0x000F; 
....................    temp1 ^= temp2; 
....................     
....................    (*p) = temp1; 
....................     
....................    do { 
....................       res=y; 
....................       y+=(x/y); 
....................      temp1 = *p; 
....................      temp2 = *p; 
....................      bit_clear(temp1,15); 
....................      temp1 = (temp1>>4); 
....................      temp1--; 
....................      temp1 = (temp1<<4) & 0xFFF0; 
....................      if(bit_test(temp2,15)) 
....................      bit_set(temp1,15); 
....................      temp2 = temp2 & 0x000F; 
....................      temp1 ^= temp2; 
....................      (*p) = temp1; 
....................  
....................    } while(res != y); 
....................  
....................    return(res); 
.................... } 
.................... #endif 
....................  
.................... ////////////////////////////// Trig Functions ////////////////////////////// 
.................... #ifdef PI_DIV_BY_TWO 
.................... #undef PI_DIV_BY_TWO 
.................... #endif 
.................... #define PI_DIV_BY_TWO   1.5707963267948966 
.................... #ifdef TWOBYPI 
.................... #undef TWOBYPI 
.................... #define TWOBYPI          0.6366197723675813 
.................... #endif 
.................... //////////////////////////////////////////////////////////////////////////// 
.................... //   float cos(float x) 
.................... //////////////////////////////////////////////////////////////////////////// 
.................... // Description : returns the cosine value of the angle x, which is in radian 
.................... // Date : 9/20/2001 
.................... // 
.................... float32 cos(float32 x) 
.................... { 
....................    float32 y, t, t2 = 1.0; 
....................    unsigned int8 quad, i; 
....................    float32 frac; 
....................    float32 p[6] = {                    //by the series definition for cosine 
....................       -0.5,                            // sum ( ( (-1)^n * x^2n )/(2n)! ) 
....................        0.04166666666667, 
....................       -0.00138888888889, 
....................        0.00002480158730, 
....................       -0.00000027557319, 
....................        0.00000000208767, 
....................       //-0.00000000001147, 
....................       // 0.00000000000005 
....................    }; 
....................  
....................    if (x < 0) x = -x;                  // absolute value of input 
....................  
....................    quad = (unsigned int8)(x / PI_DIV_BY_TWO);    // quadrant 
....................    frac = (x / PI_DIV_BY_TWO) - quad;  // fractional part of input 
....................    quad = quad % 4;                    // quadrant (0 to 3) 
....................  
....................    if (quad == 0 || quad == 2) 
....................       t = frac * PI_DIV_BY_TWO; 
....................    else if (quad == 1) 
....................       t = (1-frac) * PI_DIV_BY_TWO; 
....................    else // should be 3 
....................       t = (frac-1) * PI_DIV_BY_TWO; 
....................  
....................    y = 1.0; 
....................    t = t * t; 
....................    for (i = 0; i <= 5; i++) 
....................    { 
....................       t2 = t2 * t; 
....................       y = y + p[i] * t2; 
....................    } 
....................  
....................    if (quad == 2 || quad == 1) 
....................       y = -y;  // correct sign 
....................  
....................    return (y); 
.................... } 
....................  
....................  
.................... //Overloaded functions for cos() for PCD 
.................... // Overloaded function cos() for data type - Float48 
.................... #if defined(__PCD__) 
.................... float48 cos(float48 x) 
.................... { 
....................    float48 y, t, t2 = 1.0; 
....................    unsigned int8 quad, i; 
....................    float48 frac; 
....................    float48 p[6] = {                    //by the series definition for cosine 
....................       -0.5,                            // sum ( ( (-1)^n * x^2n )/(2n)! ) 
....................        0.04166666666667, 
....................       -0.00138888888889, 
....................        0.00002480158730, 
....................       -0.00000027557319, 
....................        0.00000000208767, 
....................       //-0.00000000001147, 
....................       // 0.00000000000005 
....................    }; 
....................  
....................    if (x < 0) x = -x;                  // absolute value of input 
....................  
....................    quad = (unsigned int8)(x / PI_DIV_BY_TWO);    // quadrant 
....................    frac = (x / PI_DIV_BY_TWO) - quad;  // fractional part of input 
....................    quad = quad % 4;                    // quadrant (0 to 3) 
....................  
....................    if (quad == 0 || quad == 2) 
....................       t = frac * PI_DIV_BY_TWO; 
....................    else if (quad == 1) 
....................       t = (1-frac) * PI_DIV_BY_TWO; 
....................    else // should be 3 
....................       t = (frac-1) * PI_DIV_BY_TWO; 
....................  
....................    y = 0.999999999781; 
....................    t = t * t; 
....................    for (i = 0; i <= 5; i++) 
....................    { 
....................       t2 = t2 * t; 
....................       y = y + p[i] * t2; 
....................    } 
....................  
....................    if (quad == 2 || quad == 1) 
....................       y = -y;  // correct sign 
....................  
....................    return (y); 
.................... } 
....................  
.................... // Overloaded function cos() for data type - Float48 
.................... float64 cos(float64 x) 
.................... { 
....................    float64 y, t, t2 = 1.0; 
....................    unsigned int8 quad, i; 
....................    float64 frac; 
....................    float64 p[6] = {                    //by the series definition for cosine 
....................       -0.5,                            // sum ( ( (-1)^n * x^2n )/(2n)! ) 
....................        0.04166666666667, 
....................       -0.00138888888889, 
....................        0.00002480158730, 
....................       -0.00000027557319, 
....................        0.00000000208767, 
....................       //-0.00000000001147, 
....................       // 0.00000000000005 
....................    }; 
....................  
....................    if (x < 0) x = -x;                  // absolute value of input 
....................  
....................    quad = (unsigned int8)(x / PI_DIV_BY_TWO);    // quadrant 
....................    frac = (x / PI_DIV_BY_TWO) - quad;  // fractional part of input 
....................    quad = quad % 4;                    // quadrant (0 to 3) 
....................  
....................    if (quad == 0 || quad == 2) 
....................       t = frac * PI_DIV_BY_TWO; 
....................    else if (quad == 1) 
....................       t = (1-frac) * PI_DIV_BY_TWO; 
....................    else // should be 3 
....................       t = (frac-1) * PI_DIV_BY_TWO; 
....................  
....................    y = 0.999999999781; 
....................    t = t * t; 
....................    for (i = 0; i <= 5; i++) 
....................    { 
....................       t2 = t2 * t; 
....................       y = y + p[i] * t2; 
....................    } 
....................  
....................    if (quad == 2 || quad == 1) 
....................       y = -y;  // correct sign 
....................  
....................    return (y); 
.................... } 
....................  
.................... #endif 
....................  
.................... //////////////////////////////////////////////////////////////////////////// 
.................... //   float sin(float x) 
.................... //////////////////////////////////////////////////////////////////////////// 
.................... // Description : returns the sine value of the angle x, which is in radian 
.................... // Date : 9/20/2001 
.................... // 
.................... float32 sin(float32 x) 
.................... { 
....................    return cos(x - PI_DIV_BY_TWO); 
.................... } 
....................  
.................... //Overloaded functions for sin() for PCD 
.................... // Overloaded function sin() for data type - Float48 
.................... #if defined(__PCD__) 
.................... float48 sin(float48 x) 
.................... { 
....................    return cos(x - PI_DIV_BY_TWO); 
.................... } 
....................  
.................... // Overloaded function sin() for data type - Float48 
.................... float64 sin(float64 x) 
.................... { 
....................    return cos(x - PI_DIV_BY_TWO); 
.................... } 
.................... #endif 
....................  
.................... //////////////////////////////////////////////////////////////////////////// 
.................... //   float tan(float x) 
.................... //////////////////////////////////////////////////////////////////////////// 
.................... // Description : returns the tangent value of the angle x, which is in radian 
.................... // Date : 9/20/2001 
.................... // 
.................... float32 tan(float32 x) 
.................... { 
....................    float32 c, s; 
....................  
....................    c = cos(x); 
....................    if (c == 0.0) 
....................       return (1.0e+36); 
....................  
....................    s = sin(x); 
....................    return(s/c); 
.................... } 
.................... //Overloaded functions for tan() for PCD 
.................... // Overloaded function tan() for data type - Float48 
.................... #if defined(__PCD__) 
.................... float48 tan(float48 x) 
.................... { 
....................    float48 c, s; 
....................  
....................    c = cos(x); 
....................    if (c == 0.0) 
....................       return (1.0e+36); 
....................  
....................    s = sin(x); 
....................    return(s/c); 
.................... } 
....................  
.................... // Overloaded function tan() for data type - Float48 
.................... float64 tan(float64 x) 
.................... { 
....................    float64 c, s; 
....................  
....................    c = cos(x); 
....................    if (c == 0.0) 
....................       return (1.0e+36); 
....................  
....................    s = sin(x); 
....................    return(s/c); 
.................... } 
.................... #endif 
....................  
.................... float32 const pas[3] = {0.49559947, -4.6145309, 5.6036290}; 
.................... float32 const qas[3] = {1.0000000,  -5.5484666, 5.6036290}; 
....................  
.................... float32 ASIN_COS(float32 x, unsigned int8 n) 
.................... { 
....................    float32 y, res, r, y2; 
....................    int1 s; 
....................    #ifdef _ERRNO 
....................    if(x <-1 || x > 1) 
....................    { 
....................       errno=EDOM; 
....................    } 
....................    #endif 
....................    s = 0; 
....................    y = x; 
....................  
....................    if (x < 0) 
....................    { 
....................       s = 1; 
....................       y = -y; 
....................    } 
....................  
....................    if (y > 0.5) 
....................    { 
....................       y = sqrt((1.0 - y)/2.0); 
....................       n += 2; 
....................    } 
....................  
....................    y2=y*y; 
....................  
....................    res = pas[0]*y2 + pas[1]; 
....................    res = res*y2 + pas[2]; 
....................  
....................    r = qas[0]*y2 + qas[1]; 
....................    r = r*y2 + qas[2]; 
....................  
....................    res = y*res/r; 
....................  
....................    if (n & 2)     // |x| > 0.5 
....................       res = PI_DIV_BY_TWO - 2.0*res; 
....................    if (s) 
....................       res = -res; 
....................    if (n & 1)           // take arccos 
....................       res = PI_DIV_BY_TWO - res; 
....................  
....................    return(res); 
.................... } 
....................  
.................... //Overloaded functions for ASIN_COS() for PCD 
.................... // Overloaded function ASIN_COS() for data type - Float48 
.................... #if defined(__PCD__) 
.................... float48 ASIN_COS(float48 x, unsigned int8 n) 
.................... { 
....................    float48 y, res, r, y2; 
....................    int1 s; 
....................    #ifdef _ERRNO 
....................    if(x <-1 || x > 1) 
....................    { 
....................       errno=EDOM; 
....................    } 
....................    #endif 
....................    s = 0; 
....................    y = x; 
....................  
....................    if (x < 0) 
....................    { 
....................       s = 1; 
....................       y = -y; 
....................    } 
....................  
....................    if (y > 0.5) 
....................    { 
....................       y = sqrt((1.0 - y)/2.0); 
....................       n += 2; 
....................    } 
....................  
....................    y2=y*y; 
....................  
....................    res = pas[0]*y2 + pas[1]; 
....................    res = res*y2 + pas[2]; 
....................  
....................    r = qas[0]*y2 + qas[1]; 
....................    r = r*y2 + qas[2]; 
....................  
....................    res = y*res/r; 
....................  
....................    if (n & 2)     // |x| > 0.5 
....................       res = PI_DIV_BY_TWO - 2.0*res; 
....................    if (s) 
....................       res = -res; 
....................    if (n & 1)           // take arccos 
....................       res = PI_DIV_BY_TWO - res; 
....................  
....................    return(res); 
.................... } 
....................  
.................... // Overloaded function ASIN_COS() for data type - Float64 
.................... float64 ASIN_COS(float64 x, unsigned int8 n) 
.................... { 
....................    float64 y, res, r, y2; 
....................    int1 s; 
....................    #ifdef _ERRNO 
....................    if(x <-1 || x > 1) 
....................    { 
....................       errno=EDOM; 
....................    } 
....................    #endif 
....................    s = 0; 
....................    y = x; 
....................  
....................    if (x < 0) 
....................    { 
....................       s = 1; 
....................       y = -y; 
....................    } 
....................  
....................    if (y > 0.5) 
....................    { 
....................       y = sqrt((1.0 - y)/2.0); 
....................       n += 2; 
....................    } 
....................  
....................    y2=y*y; 
....................  
....................    res = pas[0]*y2 + pas[1]; 
....................    res = res*y2 + pas[2]; 
....................  
....................    r = qas[0]*y2 + qas[1]; 
....................    r = r*y2 + qas[2]; 
....................  
....................    res = y*res/r; 
....................  
....................    if (n & 2)     // |x| > 0.5 
....................       res = PI_DIV_BY_TWO - 2.0*res; 
....................    if (s) 
....................       res = -res; 
....................    if (n & 1)           // take arccos 
....................       res = PI_DIV_BY_TWO - res; 
....................  
....................    return(res); 
.................... } 
.................... #endif 
....................  
.................... //////////////////////////////////////////////////////////////////////////// 
.................... //   float asin(float x) 
.................... //////////////////////////////////////////////////////////////////////////// 
.................... // Description : returns the arcsine value of the value x. 
.................... // Date : N/A 
.................... // 
.................... float32 asin(float32 x) 
.................... { 
....................    float32 r; 
....................  
....................    r = ASIN_COS(x, 0); 
....................    return(r); 
.................... } 
.................... //Overloaded functions for asin() for PCD 
.................... // Overloaded function asin() for data type - Float48 
.................... #if defined(__PCD__) 
.................... float48 asin(float48 x) 
.................... { 
....................    float48 r; 
....................  
....................    r = ASIN_COS(x, 0); 
....................    return(r); 
.................... } 
....................  
.................... // Overloaded function asin() for data type - Float64 
.................... float64 asin(float64 x) 
.................... { 
....................    float64 r; 
....................  
....................    r = ASIN_COS(x, 0); 
....................    return(r); 
.................... } 
.................... #endif 
....................  
.................... //////////////////////////////////////////////////////////////////////////// 
.................... //   float acos(float x) 
.................... //////////////////////////////////////////////////////////////////////////// 
.................... // Description : returns the arccosine value of the value x. 
.................... // Date : N/A 
.................... // 
.................... float32 acos(float32 x) 
.................... { 
....................    float32 r; 
....................  
....................    r = ASIN_COS(x, 1); 
....................    return(r); 
.................... } 
.................... //Overloaded functions for acos() for PCD 
.................... // Overloaded function acos() for data type - Float48 
.................... #if defined(__PCD__) 
.................... float48 acos(float48 x) 
.................... { 
....................    float48 r; 
....................  
....................    r = ASIN_COS(x, 1); 
....................    return(r); 
.................... } 
....................  
.................... // Overloaded function acos() for data type - Float64 
.................... float64 acos(float64 x) 
.................... { 
....................    float64 r; 
....................  
....................    r = ASIN_COS(x, 1); 
....................    return(r); 
.................... } 
.................... #endif 
....................  
.................... float32 const pat[4] = {0.17630401, 5.6710795, 22.376096, 19.818457}; 
.................... float32 const qat[4] = {1.0000000,  11.368190, 28.982246, 19.818457}; 
....................  
.................... //////////////////////////////////////////////////////////////////////////// 
.................... //   float atan(float x) 
.................... //////////////////////////////////////////////////////////////////////////// 
.................... // Description : returns the arctangent value of the value x. 
.................... // Date : N/A 
.................... // 
.................... float32 atan(float32 x) 
.................... { 
....................    float32 y, res, r; 
....................    int1 s, flag; 
....................  
....................    s = 0; 
....................    flag = 0; 
....................    y = x; 
....................  
....................    if (x < 0) 
....................    { 
....................       s = 1; 
....................       y = -y; 
....................    } 
....................  
....................    if (y > 1.0) 
....................    { 
....................       y = 1.0/y; 
....................       flag = 1; 
....................    } 
....................  
....................    res = pat[0]*y*y + pat[1]; 
....................    res = res*y*y + pat[2]; 
....................    res = res*y*y + pat[3]; 
....................  
....................    r = qat[0]*y*y + qat[1]; 
....................    r = r*y*y + qat[2]; 
....................    r = r*y*y + qat[3]; 
....................  
....................    res = y*res/r; 
....................  
....................  
....................    if (flag)                              // for |x| > 1 
....................       res = PI_DIV_BY_TWO - res; 
....................    if (s) 
....................       res = -res; 
....................  
....................    return(res); 
.................... } 
.................... //Overloaded functions for atan() for PCD 
.................... // Overloaded function atan() for data type - Float48 
.................... #if defined(__PCD__) 
.................... float48 atan(float48 x) 
.................... { 
....................    float48 y, res, r; 
....................    int1 s, flag; 
....................  
....................    s = 0; 
....................    flag = 0; 
....................    y = x; 
....................  
....................    if (x < 0) 
....................    { 
....................       s = 1; 
....................       y = -y; 
....................    } 
....................  
....................    if (y > 1.0) 
....................    { 
....................       y = 1.0/y; 
....................       flag = 1; 
....................    } 
....................  
....................    res = pat[0]*y*y + pat[1]; 
....................    res = res*y*y + pat[2]; 
....................    res = res*y*y + pat[3]; 
....................  
....................    r = qat[0]*y*y + qat[1]; 
....................    r = r*y*y + qat[2]; 
....................    r = r*y*y + qat[3]; 
....................  
....................    res = y*res/r; 
....................  
....................  
....................    if (flag)                              // for |x| > 1 
....................       res = PI_DIV_BY_TWO - res; 
....................    if (s) 
....................       res = -res; 
....................  
....................    return(res); 
.................... } 
....................  
.................... // Overloaded function atan() for data type - Float64 
.................... float64 atan(float64 x) 
.................... { 
....................    float64 y, res, r; 
....................    int1 s, flag; 
....................  
....................    s = 0; 
....................    flag = 0; 
....................    y = x; 
....................  
....................    if (x < 0) 
....................    { 
....................       s = 1; 
....................       y = -y; 
....................    } 
....................  
....................    if (y > 1.0) 
....................    { 
....................       y = 1.0/y; 
....................       flag = 1; 
....................    } 
....................  
....................    res = pat[0]*y*y + pat[1]; 
....................    res = res*y*y + pat[2]; 
....................    res = res*y*y + pat[3]; 
....................  
....................    r = qat[0]*y*y + qat[1]; 
....................    r = r*y*y + qat[2]; 
....................    r = r*y*y + qat[3]; 
....................  
....................    res = y*res/r; 
....................  
....................  
....................    if (flag)                              // for |x| > 1 
....................       res = PI_DIV_BY_TWO - res; 
....................    if (s) 
....................       res = -res; 
....................  
....................    return(res); 
.................... } 
.................... #endif 
....................  
.................... ///////////////////////////////////////////////////////////////////////////// 
.................... //   float atan2(float y, float x) 
.................... ///////////////////////////////////////////////////////////////////////////// 
.................... // Description :computes the principal value of arc tangent of y/x, using the 
.................... // signs of both the arguments to determine the quadrant of the return value 
.................... // Returns : returns the arc tangent of y/x. 
.................... // Date : N/A 
.................... // 
....................  
.................... float32 atan2(float32 y,float32 x) 
.................... { 
....................    float32 z; 
....................    int1 sign; 
....................    unsigned int8 quad; 
....................    sign=0; 
....................    quad=0; //quadrant 
....................    quad=((y<=0.0)?((x<=0.0)?3:4):((x<0.0)?2:1)); 
....................    if(y<0.0) 
....................    { 
....................       sign=1; 
....................       y=-y; 
....................    } 
....................    if(x<0.0) 
....................    { 
....................       x=-x; 
....................    } 
....................    if (x==0.0) 
....................    { 
....................       if(y==0.0) 
....................       { 
....................       #ifdef _ERRNO 
....................       { 
....................          errno=EDOM; 
....................       } 
....................       #endif 
....................       } 
....................       else 
....................       { 
....................          if(sign) 
....................          { 
....................          return (-(PI_DIV_BY_TWO)); 
....................          } 
....................          else 
....................          { 
....................          return (PI_DIV_BY_TWO); 
....................          } 
....................       } 
....................    } 
....................    else 
....................    { 
....................       z=y/x; 
....................       switch(quad) 
....................       { 
....................          case 1: 
....................          { 
....................             return atan(z); 
....................             break; 
....................          } 
....................          case 2: 
....................          { 
.................... //            return (atan(z)+PI_DIV_BY_TWO);  //2L3122 
....................             return (PI-atan(z)); 
....................             break; 
....................          } 
....................          case 3: 
....................          { 
....................             return (atan(z)-PI); 
....................             break; 
....................          } 
....................          case 4: 
....................          { 
....................             return (-atan(z)); 
....................             break; 
....................          } 
....................       } 
....................    } 
.................... } 
....................  
.................... //Overloaded functions for atan2() for PCD 
.................... // Overloaded function atan2() for data type - Float48 
.................... #if defined(__PCD__) 
.................... float48 atan2(float48 y,float48 x) 
.................... { 
....................    float48 z; 
....................    int1 sign; 
....................    unsigned int8 quad; 
....................    sign=0; 
....................    quad=0; //quadrant 
....................    quad=((y<=0.0)?((x<=0.0)?3:4):((x<0.0)?2:1)); 
....................    if(y<0.0) 
....................    { 
....................       sign=1; 
....................       y=-y; 
....................    } 
....................    if(x<0.0) 
....................    { 
....................       x=-x; 
....................    } 
....................    if (x==0.0) 
....................    { 
....................       if(y==0.0) 
....................       { 
....................       #ifdef _ERRNO 
....................       { 
....................          errno=EDOM; 
....................       } 
....................       #endif 
....................       } 
....................       else 
....................       { 
....................          if(sign) 
....................          { 
....................          return (-(PI_DIV_BY_TWO)); 
....................          } 
....................          else 
....................          { 
....................          return (PI_DIV_BY_TWO); 
....................          } 
....................       } 
....................    } 
....................    else 
....................    { 
....................       z=y/x; 
....................       switch(quad) 
....................       { 
....................          case 1: 
....................          { 
....................             return atan(z); 
....................             break; 
....................          } 
....................          case 2: 
....................          { 
.................... //            return (atan(z)+PI_DIV_BY_TWO);  //2L3122 
....................             return (PI-atan(z)); 
....................             break; 
....................          } 
....................          case 3: 
....................          { 
....................             return (atan(z)-PI); 
....................             break; 
....................          } 
....................          case 4: 
....................          { 
....................             return (-atan(z)); 
....................             break; 
....................          } 
....................       } 
....................    } 
.................... } 
....................  
.................... // Overloaded function atan2() for data type - Float64 
.................... float64 atan2(float64 y,float64 x) 
.................... { 
....................    float64 z; 
....................    int1 sign; 
....................    unsigned int8 quad; 
....................    sign=0; 
....................    quad=0; //quadrant 
....................    quad=((y<=0.0)?((x<=0.0)?3:4):((x<0.0)?2:1)); 
....................    if(y<0.0) 
....................    { 
....................       sign=1; 
....................       y=-y; 
....................    } 
....................    if(x<0.0) 
....................    { 
....................       x=-x; 
....................    } 
....................    if (x==0.0) 
....................    { 
....................       if(y==0.0) 
....................       { 
....................       #ifdef _ERRNO 
....................       { 
....................          errno=EDOM; 
....................       } 
....................       #endif 
....................       } 
....................       else 
....................       { 
....................          if(sign) 
....................          { 
....................          return (-(PI_DIV_BY_TWO)); 
....................          } 
....................          else 
....................          { 
....................          return (PI_DIV_BY_TWO); 
....................          } 
....................       } 
....................    } 
....................    else 
....................    { 
....................       z=y/x; 
....................       switch(quad) 
....................       { 
....................          case 1: 
....................          { 
....................             return atan(z); 
....................             break; 
....................          } 
....................          case 2: 
....................          { 
.................... //            return (atan(z)+PI_DIV_BY_TWO);  //2L3122 
....................             return (PI-atan(z)); 
....................             break; 
....................          } 
....................          case 3: 
....................          { 
....................             return (atan(z)-PI); 
....................             break; 
....................          } 
....................          case 4: 
....................          { 
....................             return (-atan(z)); 
....................             break; 
....................          } 
....................       } 
....................    } 
.................... } 
.................... #endif 
....................  
.................... //////////////////// Hyperbolic functions //////////////////// 
....................  
.................... //////////////////////////////////////////////////////////////////////////// 
.................... //   float cosh(float x) 
.................... //////////////////////////////////////////////////////////////////////////// 
.................... // Description : Computes the hyperbolic cosine value of x 
.................... // Returns : returns the hyperbolic cosine value of x 
.................... // Date : N/A 
.................... // 
....................  
.................... float32 cosh(float32 x) 
.................... { 
....................    return ((exp(x)+exp(-x))/2); 
.................... } 
.................... //Overloaded functions for cosh() for PCD 
.................... // Overloaded function cosh() for data type - Float48 
.................... #if defined(__PCD__) 
.................... float48 cosh(float48 x) 
.................... { 
....................    return ((exp(x)+exp(-x))/2); 
.................... } 
....................  
.................... // Overloaded function cosh() for data type - Float64 
.................... float64 cosh(float64 x) 
.................... { 
....................    return ((exp(x)+exp(-x))/2); 
.................... } 
.................... #endif 
....................  
.................... //////////////////////////////////////////////////////////////////////////// 
.................... //   float sinh(float x) 
.................... //////////////////////////////////////////////////////////////////////////// 
.................... // Description : Computes the hyperbolic sine value of x 
.................... // Returns : returns the hyperbolic sine value of x 
.................... // Date : N/A 
.................... // 
....................  
.................... float32 sinh(float32 x) 
.................... { 
....................  
....................    return ((exp(x) - exp(-x))/2); 
.................... } 
.................... //Overloaded functions for sinh() for PCD 
.................... // Overloaded function sinh() for data type - Float48 
.................... #if defined(__PCD__) 
.................... float48 sinh(float48 x) 
.................... { 
....................  
....................    return ((exp(x) - exp(-x))/2); 
.................... } 
....................  
.................... // Overloaded function sinh() for data type - Float48 
.................... float64 sinh(float64 x) 
.................... { 
....................  
....................    return ((exp(x) - exp(-x))/2); 
.................... } 
.................... #endif 
....................  
.................... //////////////////////////////////////////////////////////////////////////// 
.................... //   float tanh(float x) 
.................... //////////////////////////////////////////////////////////////////////////// 
.................... // Description : Computes the hyperbolic tangent value of x 
.................... // Returns : returns the hyperbolic tangent value of x 
.................... // Date : N/A 
.................... // 
....................  
.................... float32 tanh(float32 x) 
.................... { 
....................    return(sinh(x)/cosh(x)); 
.................... } 
.................... //Overloaded functions for tanh() for PCD 
.................... // Overloaded function tanh() for data type - Float48 
.................... #if defined(__PCD__) 
.................... float48 tanh(float48 x) 
.................... { 
....................    return(sinh(x)/cosh(x)); 
.................... } 
....................  
.................... // Overloaded function tanh() for data type - Float64 
.................... float64 tanh(float64 x) 
.................... { 
....................    return(sinh(x)/cosh(x)); 
.................... } 
.................... #endif 
....................  
.................... //////////////////////////////////////////////////////////////////////////// 
.................... //   float frexp(float x, signed int *exp) 
.................... //////////////////////////////////////////////////////////////////////////// 
.................... // Description : breaks a floating point number into a normalized fraction and an integral 
.................... // power of 2. It stores the integer in the signed int object pointed to by exp. 
.................... // Returns : returns the value x, such that x is a double with magnitude in the interval 
.................... // [1/2,1) or zero, and value equals x times 2 raised to the power *exp.If value is zero, 
.................... // both parts of the result are zero. 
.................... // Date : N/A 
.................... // 
....................  
.................... #define LOG2 .30102999566398119521 
.................... float32 frexp(float32 x, signed int8 *exp) 
.................... { 
....................    float32 res; 
....................    int1 sign = 0; 
....................    if(x == 0.0) 
....................    { 
....................       *exp=0; 
....................       return (0.0); 
....................    } 
....................    if(x < 0.0) 
....................    { 
....................      x=-x; 
....................      sign=1; 
....................    } 
....................    if (x > 1.0) 
....................    { 
....................       *exp=(ceil(log10(x)/LOG2)); 
....................       res=x/(pow(2, *exp)); 
....................       if (res == 1) 
....................       { 
....................          *exp=*exp+1; 
....................           res=.5; 
....................       } 
....................    } 
....................    else 
....................    { 
....................       if(x < 0.5) 
....................       { 
....................          *exp=-1; 
....................          res=x*2; 
....................       } 
....................       else 
....................       { 
....................          *exp=0; 
....................           res=x; 
....................       } 
....................    } 
....................    if(sign) 
....................    { 
....................       res=-res; 
....................    } 
....................    return res; 
.................... } 
....................  
.................... //Overloaded functions for frexp() for PCD 
.................... // Overloaded function frexp() for data type - Float48 
.................... #if defined(__PCD__) 
.................... float48 frexp(float48 x, signed int8 *exp) 
.................... { 
....................    float48 res; 
....................    int1 sign = 0; 
....................    if(x == 0.0) 
....................    { 
....................       *exp=0; 
....................       return (0.0); 
....................    } 
....................    if(x < 0.0) 
....................    { 
....................      x=-x; 
....................      sign=1; 
....................    } 
....................    if (x > 1.0) 
....................    { 
....................       *exp=(ceil(log10(x)/LOG2)); 
....................       res=x/(pow(2, *exp)); 
....................       if (res == 1) 
....................       { 
....................          *exp=*exp+1; 
....................           res=.5; 
....................       } 
....................    } 
....................    else 
....................    { 
....................       if(x < 0.5) 
....................       { 
....................          *exp=-1; 
....................          res=x*2; 
....................       } 
....................       else 
....................       { 
....................          *exp=0; 
....................           res=x; 
....................       } 
....................    } 
....................    if(sign) 
....................    { 
....................       res=-res; 
....................    } 
....................    return res; 
.................... } 
....................  
.................... // Overloaded function frexp() for data type - Float64 
.................... float64 frexp(float64 x, signed int8 *exp) 
.................... { 
....................    float64 res; 
....................    int1 sign = 0; 
....................    if(x == 0.0) 
....................    { 
....................       *exp=0; 
....................       return (0.0); 
....................    } 
....................    if(x < 0.0) 
....................    { 
....................      x=-x; 
....................      sign=1; 
....................    } 
....................    if (x > 1.0) 
....................    { 
....................       *exp=(ceil(log10(x)/LOG2)); 
....................       res=x/(pow(2, *exp)); 
....................       if (res == 1) 
....................       { 
....................          *exp=*exp+1; 
....................           res=.5; 
....................       } 
....................    } 
....................    else 
....................    { 
....................       if(x < 0.5) 
....................       { 
....................          *exp=-1; 
....................          res=x*2; 
....................       } 
....................       else 
....................       { 
....................          *exp=0; 
....................           res=x; 
....................       } 
....................    } 
....................    if(sign) 
....................    { 
....................       res=-res; 
....................    } 
....................    return res; 
.................... } 
.................... #endif 
....................  
.................... ////////////////////////////////////////////////////////////////////////////// 
.................... //   float ldexp(float x, signed int *exp) 
.................... ////////////////////////////////////////////////////////////////////////////// 
.................... // Description : multiplies a floating point number by an integral power of 2. 
.................... // Returns : returns the value of x times 2 raised to the power exp. 
.................... // Date : N/A 
.................... // 
....................  
.................... float32 ldexp(float32 value, signed int8 exp) 
.................... { 
....................    return (value * pow(2,exp)); 
.................... } 
.................... //Overloaded functions for ldexp() for PCD 
.................... // Overloaded function ldexp() for data type - Float48 
....................  
.................... #if defined(__PCD__) 
.................... float48 ldexp(float48 value, signed int8 exp) 
.................... { 
....................    return (value * pow(2,exp)); 
.................... } 
.................... // Overloaded function ldexp() for data type - Float64 
.................... float64 ldexp(float64 value, signed int8 exp) 
.................... { 
....................    return (value * pow(2,exp)); 
.................... } 
.................... #endif 
....................  
.................... #endif 
....................  
.................... #include "HDM64GS12.c" 
.................... ///////////////////////////////////////////////////////////////////////// 
.................... ////                           HDM64GS12.c                           //// 
.................... ////                                                                 //// 
.................... //// This file contains drivers for using a Hantronix HDM64GS12 with //// 
.................... //// a KS0108 display controller. The HDM64GS12 is 128 by 64 pixels. //// 
.................... //// The driver treats the upper left pixel as (0,0).                //// 
.................... ////                                                                 //// 
.................... //// Use #define FAST_GLCD if the target chip has at least 1k of RAM //// 
.................... //// to decrease the time it takes to update the display.            //// 
.................... //// glcd_update() must then be called to update the display after   //// 
.................... //// changing the pixel information.                                 //// 
.................... //// See ex_glcd.c for suggested usage.                              //// 
.................... //// See KS0108.c for controlling a single 64 by 64 display          //// 
.................... ///////////////////////////////////////////////////////////////////////// 
.................... ////                                                                 //// 
.................... //// LCD Pin connections:                                            //// 
.................... //// (These can be changed as needed in the following defines).      //// 
.................... ////  * 1: VSS is connected to GND                                   //// 
.................... ////  * 2: VDD is connected to +5V                                   //// 
.................... ////  * 3: V0  - LCD operating voltage (Constrast adjustment)        //// 
.................... ////  * 4: D/I - Data or Instruction is connected to B2              //// 
.................... ////  * 5: R/W - Read or Write is connected to B4                    //// 
.................... ////  * 6: Enable is connected to B5                                 //// 
.................... ////  *7-14: Data Bus 0 to 7 is connected to port d                  //// 
.................... ////  *15: Chip Select 1 is connected to B0                          //// 
.................... ////  *16: Chip Select 2 is connected to B1                          //// 
.................... ////  *17: Reset is connected to C0                                  //// 
.................... ////  *18: Negative voltage is also connected to the 20k Ohm POT     //// 
.................... ////  *19: Positive voltage for LED backlight is connected to +5V    //// 
.................... ////  *20: Negavtive voltage for LED backlight is connected to GND   //// 
.................... ////                                                                 //// 
.................... ///////////////////////////////////////////////////////////////////////// 
.................... ////                                                                 //// 
.................... ////  glcd_init(mode)                                                //// 
.................... ////     * Must be called before any other function.                 //// 
.................... ////       - mode can be ON or OFF to turn the LCD on or off         //// 
.................... ////                                                                 //// 
.................... ////  glcd_pixel(x,y,color)                                          //// 
.................... ////     * Sets the pixel to the given color.                        //// 
.................... ////       - color can be ON or OFF                                  //// 
.................... ////                                                                 //// 
.................... ////  glcd_fillScreen(color)                                         //// 
.................... ////     * Fills the entire LCD with the given color.                //// 
.................... ////       - color can be ON or OFF                                  //// 
.................... ////                                                                 //// 
.................... ////  glcd_update()                                                  //// 
.................... ////     * Write the display data stored in RAM to the LCD           //// 
.................... ////     * Only available if FAST_GLCD is defined                    //// 
.................... ////                                                                 //// 
.................... ///////////////////////////////////////////////////////////////////////// 
.................... ////        (C) Copyright 1996, 2004 Custom Computer Services        //// 
.................... //// This source code may only be used by licensed users of the CCS  //// 
.................... //// C compiler.  This source code may only be distributed to other  //// 
.................... //// licensed users of the CCS C compiler.  No other use,            //// 
.................... //// reproduction or distribution is permitted without written       //// 
.................... //// permission.  Derivative programs created using this software    //// 
.................... //// in object code form are not restricted in any way.              //// 
.................... ///////////////////////////////////////////////////////////////////////// 
....................  
....................  
....................  
.................... #ifndef HDM64GS12 
.................... #define HDM64GS12 
....................  
.................... #ifndef FAST_GLCD 
.................... #define FAST_GLCD 
....................  
.................... #ifndef GLCD_WIDTH 
.................... #define GLCD_WIDTH   128 
.................... #endif 
....................  
.................... #ifndef GLCD_CS1 
.................... #define GLCD_CS1     PIN_B2   // Chip Selection 1 
.................... #endif 
....................  
.................... #ifndef GLCD_CS2 
.................... #define GLCD_CS2     PIN_B3   // Chip Selection 2 
.................... #endif 
....................  
.................... #ifndef GLCD_DI 
.................... #define GLCD_DI      PIN_B5   // Data or Instruction input 
.................... #endif 
....................  
.................... #ifndef GLCD_RW 
.................... #define GLCD_RW      PIN_B6   // Read/Write 
.................... #endif 
....................  
.................... #ifndef GLCD_E 
.................... #define GLCD_E       PIN_B7   // Enable 
.................... #endif 
....................  
.................... #ifndef GLCD_RST 
.................... #define GLCD_RST     PIN_B4   // Reset 
.................... #endif 
....................  
.................... #define GLCD_LEFT    0 
.................... #define GLCD_RIGHT   1 
....................  
.................... #ifndef ON 
.................... #define ON           1 
.................... #endif 
....................  
.................... #ifndef OFF 
.................... #define OFF          0 
.................... #endif 
....................  
.................... ///////////////////////////////////////////////////////////////////////// 
.................... // Function Prototypes 
.................... ///////////////////////////////////////////////////////////////////////// 
.................... void glcd_init(int1 mode); 
.................... void glcd_pixel(int8 x, int8 y, int1 color); 
.................... void glcd_fillScreen(int1 color); 
.................... void glcd_writeByte(int1 side, BYTE data); 
.................... BYTE glcd_readByte(int1 side); 
.................... void glcd_update(); 
.................... ///////////////////////////////////////////////////////////////////////// 
....................  
.................... #ifdef FAST_GLCD 
.................... struct 
.................... { 
....................    int8 left[512]; 
....................    int8 right[512]; 
.................... } displayData; 
.................... #endif 
....................  
....................  
.................... // Purpose:       Initialize the LCD. 
.................... //                Call before using any other LCD function. 
.................... // Inputs:        OFF - Turns the LCD off 
.................... //                ON  - Turns the LCD on 
.................... void glcd_init(int1 mode) 
.................... { 
....................    // Initialze some pins 
....................    output_high(GLCD_RST); 
*
0175A:  BCF    F93.4
0175C:  BSF    F8A.4
....................    output_low(GLCD_E); 
0175E:  BCF    F93.7
01760:  BCF    F8A.7
....................    output_low(GLCD_CS1); 
01762:  BCF    F93.2
01764:  BCF    F8A.2
....................    output_low(GLCD_CS2); 
01766:  BCF    F93.3
01768:  BCF    F8A.3
....................  
....................    output_low(GLCD_DI);                 // Set for instruction 
0176A:  BCF    F93.5
0176C:  BCF    F8A.5
....................    glcd_writeByte(GLCD_LEFT,  0xC0);    // Specify first RAM line at the top 
0176E:  MOVLB  5
01770:  CLRF   xFC
01772:  MOVLW  C0
01774:  MOVWF  xFD
01776:  MOVLB  0
01778:  RCALL  1612
....................    glcd_writeByte(GLCD_RIGHT, 0xC0);    //   of the screen 
0177A:  MOVLW  01
0177C:  MOVLB  5
0177E:  MOVWF  xFC
01780:  MOVLW  C0
01782:  MOVWF  xFD
01784:  MOVLB  0
01786:  RCALL  1612
....................    glcd_writeByte(GLCD_LEFT,  0x40);    // Set the column address to 0 
01788:  MOVLB  5
0178A:  CLRF   xFC
0178C:  MOVLW  40
0178E:  MOVWF  xFD
01790:  MOVLB  0
01792:  RCALL  1612
....................    glcd_writeByte(GLCD_RIGHT, 0x40); 
01794:  MOVLW  01
01796:  MOVLB  5
01798:  MOVWF  xFC
0179A:  MOVLW  40
0179C:  MOVWF  xFD
0179E:  MOVLB  0
017A0:  RCALL  1612
....................    glcd_writeByte(GLCD_LEFT,  0xB8);    // Set the page address to 0 
017A2:  MOVLB  5
017A4:  CLRF   xFC
017A6:  MOVLW  B8
017A8:  MOVWF  xFD
017AA:  MOVLB  0
017AC:  RCALL  1612
....................    glcd_writeByte(GLCD_RIGHT, 0xB8); 
017AE:  MOVLW  01
017B0:  MOVLB  5
017B2:  MOVWF  xFC
017B4:  MOVLW  B8
017B6:  MOVWF  xFD
017B8:  MOVLB  0
017BA:  RCALL  1612
....................  
....................    if(mode == ON) 
017BC:  MOVLB  5
017BE:  DECFSZ xED,W
017C0:  BRA    17DE
....................    { 
....................       glcd_writeByte(GLCD_LEFT,  0x3F); // Turn the display on 
017C2:  CLRF   xFC
017C4:  MOVLW  3F
017C6:  MOVWF  xFD
017C8:  MOVLB  0
017CA:  RCALL  1612
....................       glcd_writeByte(GLCD_RIGHT, 0x3F); 
017CC:  MOVLW  01
017CE:  MOVLB  5
017D0:  MOVWF  xFC
017D2:  MOVLW  3F
017D4:  MOVWF  xFD
017D6:  MOVLB  0
017D8:  RCALL  1612
....................    } 
....................    else 
017DA:  BRA    17F6
017DC:  MOVLB  5
....................    { 
....................       glcd_writeByte(GLCD_LEFT,  0x3E); // Turn the display off 
017DE:  CLRF   xFC
017E0:  MOVLW  3E
017E2:  MOVWF  xFD
017E4:  MOVLB  0
017E6:  RCALL  1612
....................       glcd_writeByte(GLCD_RIGHT, 0x3E); 
017E8:  MOVLW  01
017EA:  MOVLB  5
017EC:  MOVWF  xFC
017EE:  MOVLW  3E
017F0:  MOVWF  xFD
017F2:  MOVLB  0
017F4:  RCALL  1612
....................    } 
....................  
....................    glcd_fillScreen(OFF);                // Clear the display 
017F6:  MOVLB  5
017F8:  CLRF   xF5
017FA:  MOVLB  0
017FC:  RCALL  1648
....................  
....................    #ifdef FAST_GLCD 
....................    glcd_update(); 
017FE:  RCALL  16A2
....................    #endif 
.................... } 
01800:  RETLW  00
....................  
....................  
.................... // Purpose:    Update the LCD with data from the display arrays 
.................... #ifdef FAST_GLCD 
.................... void glcd_update() 
.................... { 
....................    int8 i, j; 
....................    int8 *p1, *p2; 
....................  
....................    p1 = displayData.left; 
*
016A2:  MOVLB  5
016A4:  CLRF   xF8
016A6:  MOVLW  17
016A8:  MOVWF  xF7
....................    p2 = displayData.right; 
016AA:  MOVLW  02
016AC:  MOVWF  xFA
016AE:  MOVLW  17
016B0:  MOVWF  xF9
....................  
....................    // Loop through the vertical pages 
....................    for(i = 0; i < 8; ++i) 
016B2:  CLRF   xF5
016B4:  MOVF   xF5,W
016B6:  SUBLW  07
016B8:  BNC   1756
....................    { 
....................       output_low(GLCD_DI);                      // Set for instruction 
016BA:  BCF    F93.5
016BC:  BCF    F8A.5
....................       glcd_writeByte(GLCD_LEFT, 0x40);          // Set horizontal address to 0 
016BE:  CLRF   xFC
016C0:  MOVLW  40
016C2:  MOVWF  xFD
016C4:  MOVLB  0
016C6:  RCALL  1612
....................       glcd_writeByte(GLCD_RIGHT, 0x40); 
016C8:  MOVLW  01
016CA:  MOVLB  5
016CC:  MOVWF  xFC
016CE:  MOVLW  40
016D0:  MOVWF  xFD
016D2:  MOVLB  0
016D4:  RCALL  1612
....................       glcd_writeByte(GLCD_LEFT, i | 0xB8);      // Set page address 
016D6:  MOVLB  5
016D8:  MOVF   xF5,W
016DA:  IORLW  B8
016DC:  MOVWF  xFB
016DE:  CLRF   xFC
016E0:  MOVWF  xFD
016E2:  MOVLB  0
016E4:  RCALL  1612
....................       glcd_writeByte(GLCD_RIGHT, i | 0xB8); 
016E6:  MOVLB  5
016E8:  MOVF   xF5,W
016EA:  IORLW  B8
016EC:  MOVWF  xFB
016EE:  MOVLW  01
016F0:  MOVWF  xFC
016F2:  MOVFF  5FB,5FD
016F6:  MOVLB  0
016F8:  RCALL  1612
....................       output_high(GLCD_DI);                     // Set for data 
016FA:  BCF    F93.5
016FC:  BSF    F8A.5
....................  
....................       // Loop through the horizontal sections 
....................       for(j = 0; j < 64; ++j) 
016FE:  MOVLB  5
01700:  CLRF   xF6
01702:  MOVF   xF6,W
01704:  SUBLW  3F
01706:  BNC   1752
....................       { 
....................          glcd_writeByte(GLCD_LEFT, *p1++);      // Turn pixels on or off 
01708:  MOVFF  5F8,03
0170C:  MOVF   xF7,W
0170E:  INCF   xF7,F
01710:  BTFSC  FD8.2
01712:  INCF   xF8,F
01714:  MOVWF  FE9
01716:  MOVFF  03,FEA
0171A:  MOVFF  FEF,5FB
0171E:  CLRF   xFC
01720:  MOVFF  5FB,5FD
01724:  MOVLB  0
01726:  RCALL  1612
....................          glcd_writeByte(GLCD_RIGHT, *p2++);     // Turn pixels on or off 
01728:  MOVLB  5
0172A:  MOVFF  5FA,03
0172E:  MOVF   xF9,W
01730:  INCF   xF9,F
01732:  BTFSC  FD8.2
01734:  INCF   xFA,F
01736:  MOVWF  FE9
01738:  MOVFF  03,FEA
0173C:  MOVFF  FEF,5FB
01740:  MOVLW  01
01742:  MOVWF  xFC
01744:  MOVFF  5FB,5FD
01748:  MOVLB  0
0174A:  RCALL  1612
....................       } 
0174C:  MOVLB  5
0174E:  INCF   xF6,F
01750:  BRA    1702
....................    } 
01752:  INCF   xF5,F
01754:  BRA    16B4
.................... } 
01756:  MOVLB  0
01758:  RETLW  00
.................... #endif 
....................  
....................  
.................... // Purpose:    Turn a pixel on a graphic LCD on or off 
.................... // Inputs:     1) x - the x coordinate of the pixel 
.................... //             2) y - the y coordinate of the pixel 
.................... //             3) color - ON or OFF 
.................... void glcd_pixel(int8 x, int8 y, int1 color) 
.................... #ifdef FAST_GLCD 
.................... { 
....................    int8* p; 
....................    int16 temp; 
....................    temp =  y/8; 
*
01802:  MOVLB  6
01804:  CLRF   x27
01806:  RRCF   x22,W
01808:  MOVWF  x26
0180A:  RRCF   x26,F
0180C:  RRCF   x26,F
0180E:  MOVLW  1F
01810:  ANDWF  x26,F
....................    temp *= 64; 
01812:  RLCF   x26,F
01814:  RLCF   x27,F
01816:  RLCF   x26,F
01818:  RLCF   x27,F
0181A:  RLCF   x26,F
0181C:  RLCF   x27,F
0181E:  RLCF   x26,F
01820:  RLCF   x27,F
01822:  RLCF   x26,F
01824:  RLCF   x27,F
01826:  RLCF   x26,F
01828:  RLCF   x27,F
0182A:  MOVLW  C0
0182C:  ANDWF  x26,F
....................    temp += x; 
0182E:  MOVF   x21,W
01830:  ADDWF  x26,F
01832:  MOVLW  00
01834:  ADDWFC x27,F
....................  
....................    if(x > 63) 
01836:  MOVF   x21,W
01838:  SUBLW  3F
0183A:  BC    1856
....................    { 
....................       p = displayData.right + temp - 64; 
0183C:  MOVLW  17
0183E:  ADDWF  x26,W
01840:  MOVWF  x28
01842:  MOVLW  02
01844:  ADDWFC x27,W
01846:  MOVWF  x29
01848:  MOVLW  40
0184A:  SUBWF  x28,W
0184C:  MOVWF  x24
0184E:  MOVLW  00
01850:  SUBWFB x29,W
01852:  MOVWF  x25
....................    } 
....................    else 
01854:  BRA    1862
....................    { 
....................       p = displayData.left + temp; 
01856:  MOVLW  17
01858:  ADDWF  x26,W
0185A:  MOVWF  x24
0185C:  MOVLW  00
0185E:  ADDWFC x27,W
01860:  MOVWF  x25
....................    } 
....................  
....................    if(color) 
01862:  MOVF   x23,F
01864:  BZ    1890
....................    { 
....................       bit_set(*p, y%8); 
01866:  MOVFF  625,03
0186A:  MOVFF  624,FE9
0186E:  MOVFF  625,FEA
01872:  MOVF   x22,W
01874:  ANDLW  07
01876:  MOVWF  x28
01878:  MOVLW  01
0187A:  MOVWF  00
0187C:  MOVF   x28,W
0187E:  MOVWF  01
01880:  BZ    188A
01882:  BCF    FD8.0
01884:  RLCF   00,F
01886:  DECFSZ 01,F
01888:  BRA    1882
0188A:  MOVF   00,W
0188C:  IORWF  FEF,F
....................    } 
....................    else 
0188E:  BRA    18BA
....................    { 
....................       bit_clear(*p, y%8); 
01890:  MOVFF  625,03
01894:  MOVFF  624,FE9
01898:  MOVFF  625,FEA
0189C:  MOVF   x22,W
0189E:  ANDLW  07
018A0:  MOVWF  x28
018A2:  MOVLW  01
018A4:  MOVWF  00
018A6:  MOVF   x28,W
018A8:  MOVWF  01
018AA:  BZ    18B4
018AC:  BCF    FD8.0
018AE:  RLCF   00,F
018B0:  DECFSZ 01,F
018B2:  BRA    18AC
018B4:  MOVF   00,W
018B6:  XORLW  FF
018B8:  ANDWF  FEF,F
....................    } 
.................... } 
018BA:  MOVLB  0
018BC:  RETLW  00
.................... #else 
.................... { 
....................    BYTE data; 
....................    int1 side = GLCD_LEFT;  // Stores which chip to use on the LCD 
....................  
....................    if(x > 63)              // Check for first or second display area 
....................    { 
....................       x -= 64; 
....................       side = GLCD_RIGHT; 
....................    } 
....................  
....................    output_low(GLCD_DI);                         // Set for instruction 
....................    bit_clear(x,7);                              // Clear the MSB. Part of an instruction code 
....................    bit_set(x,6);                                // Set bit 6. Also part of an instruction code 
....................    glcd_writeByte(side, x);                     // Set the horizontal address 
....................    glcd_writeByte(side, (y/8 & 0xBF) | 0xB8);   // Set the vertical page address 
....................    output_high(GLCD_DI);                        // Set for data 
....................    glcd_readByte(side);                         // Need two reads to get data 
....................    data = glcd_readByte(side);                  //  at new address 
....................  
....................    if(color == ON) 
....................       bit_set(data, y%8);        // Turn the pixel on 
....................    else                          // or 
....................       bit_clear(data, y%8);      // turn the pixel off 
....................  
....................    output_low(GLCD_DI);          // Set for instruction 
....................    glcd_writeByte(side, x);      // Set the horizontal address 
....................    output_high(GLCD_DI);         // Set for data 
....................    glcd_writeByte(side, data);   // Write the pixel data 
.................... } 
.................... #endif 
....................  
....................  
.................... // Purpose:    Fill the LCD screen with the passed in color 
.................... // Inputs:     ON  - turn all the pixels on 
.................... //             OFF - turn all the pixels off 
.................... void glcd_fillScreen(int1 color) 
.................... #ifdef FAST_GLCD 
.................... { 
....................    int8  data; 
....................    int8  *p1, *p2; 
....................    int16 i; 
....................  
....................    p1 = displayData.left; 
*
01648:  MOVLB  5
0164A:  CLRF   xF8
0164C:  MOVLW  17
0164E:  MOVWF  xF7
....................    p2 = displayData.right; 
01650:  MOVLW  02
01652:  MOVWF  xFA
01654:  MOVLW  17
01656:  MOVWF  xF9
....................    data = 0xFF * color; 
01658:  MOVF   xF5,W
0165A:  MULLW  FF
0165C:  MOVFF  FF3,5F6
....................  
....................    for(i=0; i<512; ++i) 
01660:  CLRF   xFC
01662:  CLRF   xFB
01664:  MOVF   xFC,W
01666:  SUBLW  01
01668:  BNC   169E
....................    { 
....................       *p1++ = data; 
0166A:  MOVFF  5F8,03
0166E:  MOVF   xF7,W
01670:  INCF   xF7,F
01672:  BTFSC  FD8.2
01674:  INCF   xF8,F
01676:  MOVWF  FE9
01678:  MOVFF  03,FEA
0167C:  MOVFF  5F6,FEF
....................       *p2++ = data; 
01680:  MOVFF  5FA,03
01684:  MOVF   xF9,W
01686:  INCF   xF9,F
01688:  BTFSC  FD8.2
0168A:  INCF   xFA,F
0168C:  MOVWF  FE9
0168E:  MOVFF  03,FEA
01692:  MOVFF  5F6,FEF
....................    } 
01696:  INCF   xFB,F
01698:  BTFSC  FD8.2
0169A:  INCF   xFC,F
0169C:  BRA    1664
.................... } 
0169E:  MOVLB  0
016A0:  RETLW  00
.................... #else 
.................... { 
....................    int8 i, j; 
....................  
....................    // Loop through the vertical pages 
....................    for(i = 0; i < 8; ++i) 
....................    { 
....................       output_low(GLCD_DI);                      // Set for instruction 
....................       glcd_writeByte(GLCD_LEFT, 0b01000000);    // Set horizontal address to 0 
....................       glcd_writeByte(GLCD_RIGHT, 0b01000000); 
....................       glcd_writeByte(GLCD_LEFT, i | 0b10111000);// Set page address 
....................       glcd_writeByte(GLCD_RIGHT, i | 0b10111000); 
....................       output_high(GLCD_DI);                     // Set for data 
....................  
....................       // Loop through the horizontal sections 
....................       for(j = 0; j < 64; ++j) 
....................       { 
....................          glcd_writeByte(GLCD_LEFT, 0xFF*color);  // Turn pixels on or off 
....................          glcd_writeByte(GLCD_RIGHT, 0xFF*color); // Turn pixels on or off 
....................       } 
....................    } 
.................... } 
.................... #endif 
....................  
....................  
.................... // Purpose:    Write a byte of data to the specified chip 
.................... // Inputs:     1) chipSelect - which chip to write the data to 
.................... //             2) data - the byte of data to write 
.................... void glcd_writeByte(int1 side, BYTE data) 
.................... { 
....................    if(side)                   // Choose which side to write to 
*
01612:  MOVLB  5
01614:  MOVF   xFC,F
01616:  BZ    161E
....................       output_high(GLCD_CS2); 
01618:  BCF    F93.3
0161A:  BSF    F8A.3
....................    else 
0161C:  BRA    1622
....................       output_high(GLCD_CS1); 
0161E:  BCF    F93.2
01620:  BSF    F8A.2
....................  
....................    output_low(GLCD_RW);       // Set for writing 
01622:  BCF    F93.6
01624:  BCF    F8A.6
....................    output_d(data);            // Put the data on the port 
01626:  CLRF   F95
01628:  MOVFF  5FD,F8C
....................    delay_cycles(1); 
0162C:  NOP   
....................    output_high(GLCD_E);       // Pulse the enable pin 
0162E:  BCF    F93.7
01630:  BSF    F8A.7
....................    delay_cycles(5); 
01632:  BRA    1634
01634:  BRA    1636
01636:  NOP   
....................    output_low(GLCD_E); 
01638:  BCF    F93.7
0163A:  BCF    F8A.7
....................  
....................    output_low(GLCD_CS1);      // Reset the chip select lines 
0163C:  BCF    F93.2
0163E:  BCF    F8A.2
....................    output_low(GLCD_CS2); 
01640:  BCF    F93.3
01642:  BCF    F8A.3
.................... } 
01644:  MOVLB  0
01646:  RETLW  00
....................  
....................  
.................... // Purpose:    Reads a byte of data from the specified chip 
.................... // Ouputs:     A byte of data read from the chip 
.................... BYTE glcd_readByte(int1 side) 
.................... { 
....................    BYTE data;                 // Stores the data read from the LCD 
....................  
....................    set_tris_d(0xFF);          // Set port d to input 
....................    output_high(GLCD_RW);      // Set for reading 
....................  
....................    if(side)                   // Choose which side to write to 
....................       output_high(GLCD_CS2); 
....................    else 
....................       output_high(GLCD_CS1); 
....................  
....................    delay_cycles(1); 
....................    output_high(GLCD_E);       // Pulse the enable pin 
....................    delay_cycles(4); 
....................    data = input_d();          // Get the data from the display's output register 
....................    output_low(GLCD_E); 
....................  
....................    output_low(GLCD_CS1);      // Reset the chip select lines 
....................    output_low(GLCD_CS2); 
....................    return data;               // Return the read data 
.................... } 
....................  
.................... #endif 
....................  
.................... #include "GRAPHICS.c" 
.................... ///////////////////////////////////////////////////////////////////////// 
.................... ////                          graphics.c                             //// 
.................... ////                                                                 //// 
.................... ////   This file contains functions to draw lines, rectangles, bars, //// 
.................... ////   circles and text to a display. A function which draws a       //// 
.................... ////   single pixel must be defined before calling the functions in  //// 
.................... ////   this file. Call it glcd_pixel(x, y, color) where x is the     //// 
.................... ////   horizontal coordinate, y is the vertical coordinate, and      //// 
.................... ////   color is 1 bit to turn the pixel on or off.                   //// 
.................... ////                                                                 //// 
.................... ////   * Note: (0, 0) is treated as the upper left corner            //// 
.................... ////                                                                 //// 
.................... ///////////////////////////////////////////////////////////////////////// 
.................... ////                                                                 //// 
.................... ////  glcd_line(x1, y1, x2, y2, color)                               //// 
.................... ////     * Draws a line from the first point to the second point     //// 
.................... ////       with the given color                                      //// 
.................... ////       - color can be ON or OFF                                  //// 
.................... ////                                                                 //// 
.................... ////  glcd_rect(x1, y1, x2, y2, fill, color)                         //// 
.................... ////     * Draws a rectangle with one corner at point (x1,y1) and    //// 
.................... ////       the other corner at point (x2,y2)                         //// 
.................... ////       - fill can be YES or NO                                   //// 
.................... ////       - color can be ON or OFF                                  //// 
.................... ////                                                                 //// 
.................... ////  glcd_bar(x1, y1, x2, y2, width, color)                         //// 
.................... ////     * Draws a bar (wide line) from the first point to the       //// 
.................... ////       second point                                              //// 
.................... ////       - width is the number of pixels wide                      //// 
.................... ////       - color is ON or OFF                                      //// 
.................... ////                                                                 //// 
.................... ////  glcd_circle(x, y, radius, fill, color)                         //// 
.................... ////     * Draws a circle with center at (x,y)                       //// 
.................... ////       - fill can be YES or NO                                   //// 
.................... ////       - color can be ON or OFF                                  //// 
.................... ////                                                                 //// 
.................... ////  glcd_text57(x, y, textptr, size, color)                        //// 
.................... ////     * Write the null terminated text pointed to by textptr with //// 
.................... ////       the upper left coordinate of the first character at (x,y) //// 
.................... ////       Characters are 5 pixels wide and 7 pixels tall            //// 
.................... ////       - size is an integer that scales the size of the text     //// 
.................... ////       - color is ON or OFF                                      //// 
.................... ////     * Note - This function wraps characters to the next line    //// 
.................... ////              use #define GLCD_WIDTH to specify a display width  //// 
.................... ////                                                                 //// 
.................... ///////////////////////////////////////////////////////////////////////// 
.................... ////        (C) Copyright 1996, 2004 Custom Computer Services        //// 
.................... //// This source code may only be used by licensed users of the CCS  //// 
.................... //// C compiler.  This source code may only be distributed to other  //// 
.................... //// licensed users of the CCS C compiler.  No other use,            //// 
.................... //// reproduction or distribution is permitted without written       //// 
.................... //// permission.  Derivative programs created using this software    //// 
.................... //// in object code form are not restricted in any way.              //// 
.................... ///////////////////////////////////////////////////////////////////////// 
....................  
....................  
.................... ///////////////////////////////////////////////////////////////////////// 
.................... #ifndef GRAPHICS_DRAWING_FUNCTIONS 
.................... #define GRAPHICS_DRAWING_FUNCTIONS 
.................... ///////////////////////////////////////////////////////////////////////// 
....................  
....................  
.................... ///////////////////////////////////////////////////////////////////////// 
.................... #ifndef ON 
.................... #define ON  1 
.................... #endif 
....................  
.................... #ifndef OFF 
.................... #define OFF 0 
.................... #endif 
....................  
.................... #ifndef YES 
.................... #define YES 1 
.................... #endif 
....................  
.................... #ifndef NO 
.................... #define NO  0 
.................... #endif 
.................... ///////////////////////////////////////////////////////////////////////// 
....................  
....................  
.................... ///////////////////////////////////////////////////////////////////////// 
.................... //// Defines a 5x7 font 
.................... ///////////////////////////////////////////////////////////////////////// 
.................... const int8 FONT[51][5] ={0x00, 0x00, 0x00, 0x00, 0x00, // SPACE 
....................                          0x00, 0x00, 0x5F, 0x00, 0x00, // ! 
....................                          0x00, 0x03, 0x00, 0x03, 0x00, // " 
....................                          0x14, 0x3E, 0x14, 0x3E, 0x14, // # 
....................                          0x24, 0x2A, 0x7F, 0x2A, 0x12, // $ 
....................                          0x43, 0x33, 0x08, 0x66, 0x61, // % 
....................                          0x36, 0x49, 0x55, 0x22, 0x50, // & 
....................                          0x00, 0x05, 0x03, 0x00, 0x00, // ' 
....................                          0x00, 0x1C, 0x22, 0x41, 0x00, // ( 
....................                          0x00, 0x41, 0x22, 0x1C, 0x00, // ) 
....................                          0x14, 0x08, 0x3E, 0x08, 0x14, // * 
....................                          0x08, 0x08, 0x3E, 0x08, 0x08, // + 
....................                          0x00, 0x50, 0x30, 0x00, 0x00, // , 
....................                          0x08, 0x08, 0x08, 0x08, 0x08, // - 
....................                          0x00, 0x60, 0x60, 0x00, 0x00, // . 
....................                          0x20, 0x10, 0x08, 0x04, 0x02, // / 
....................                          0x3E, 0x51, 0x49, 0x45, 0x3E, // 0 
....................                          0x00, 0x04, 0x02, 0x7F, 0x00, // 1 
....................                          0x42, 0x61, 0x51, 0x49, 0x46, // 2 
....................                          0x22, 0x41, 0x49, 0x49, 0x36, // 3 
....................                          0x18, 0x14, 0x12, 0x7F, 0x10, // 4 
....................                          0x27, 0x45, 0x45, 0x45, 0x39, // 5 
....................                          0x3E, 0x49, 0x49, 0x49, 0x32, // 6 
....................                          0x01, 0x01, 0x71, 0x09, 0x07, // 7 
....................                          0x36, 0x49, 0x49, 0x49, 0x36, // 8 
....................                          0x26, 0x49, 0x49, 0x49, 0x3E, // 9 
....................                          0x00, 0x36, 0x36, 0x00, 0x00, // : 
....................                          0x00, 0x56, 0x36, 0x00, 0x00, // ; 
....................                          0x08, 0x14, 0x22, 0x41, 0x00, // < 
....................                          0x14, 0x14, 0x14, 0x14, 0x14, // = 
....................                          0x00, 0x41, 0x22, 0x14, 0x08, // > 
....................                          0x02, 0x01, 0x51, 0x09, 0x06, // ? 
....................                          0x3E, 0x41, 0x59, 0x55, 0x5E, // @ 
....................                          0x7E, 0x09, 0x09, 0x09, 0x7E, // A 
....................                          0x7F, 0x49, 0x49, 0x49, 0x36, // B 
....................                          0x3E, 0x41, 0x41, 0x41, 0x22, // C 
....................                          0x7F, 0x41, 0x41, 0x41, 0x3E, // D 
....................                          0x7F, 0x49, 0x49, 0x49, 0x41, // E 
....................                          0x7F, 0x09, 0x09, 0x09, 0x01, // F 
....................                          0x3E, 0x41, 0x41, 0x49, 0x3A, // G 
....................                          0x7F, 0x08, 0x08, 0x08, 0x7F, // H 
....................                          0x00, 0x41, 0x7F, 0x41, 0x00, // I 
....................                          0x30, 0x40, 0x40, 0x40, 0x3F, // J 
....................                          0x7F, 0x08, 0x14, 0x22, 0x41, // K 
....................                          0x7F, 0x40, 0x40, 0x40, 0x40, // L 
....................                          0x7F, 0x02, 0x0C, 0x02, 0x7F, // M 
....................                          0x7F, 0x02, 0x04, 0x08, 0x7F, // N 
....................                          0x3E, 0x41, 0x41, 0x41, 0x3E, // O 
....................                          0x7F, 0x09, 0x09, 0x09, 0x06, // P 
....................                          0x1E, 0x21, 0x21, 0x21, 0x5E, // Q 
....................                          0x7F, 0x09, 0x09, 0x09, 0x76};// R 
....................  
.................... const int8 FONT2[44][5]={0x26, 0x49, 0x49, 0x49, 0x32, // S 
....................                          0x01, 0x01, 0x7F, 0x01, 0x01, // T 
....................                          0x3F, 0x40, 0x40, 0x40, 0x3F, // U 
....................                          0x1F, 0x20, 0x40, 0x20, 0x1F, // V 
....................                          0x7F, 0x20, 0x10, 0x20, 0x7F, // W 
....................                          0x41, 0x22, 0x1C, 0x22, 0x41, // X 
....................                          0x07, 0x08, 0x70, 0x08, 0x07, // Y 
....................                          0x61, 0x51, 0x49, 0x45, 0x43, // Z 
....................                          0x00, 0x7F, 0x41, 0x00, 0x00, // [ 
....................                          0x02, 0x04, 0x08, 0x10, 0x20, // \ 
....................                          0x00, 0x00, 0x41, 0x7F, 0x00, // ] 
....................                          0x04, 0x02, 0x01, 0x02, 0x04, // ^ 
....................                          0x40, 0x40, 0x40, 0x40, 0x40, // _ 
....................                          0x00, 0x01, 0x02, 0x04, 0x00, // ` 
....................                          0x20, 0x54, 0x54, 0x54, 0x78, // a 
....................                          0x7F, 0x44, 0x44, 0x44, 0x38, // b 
....................                          0x38, 0x44, 0x44, 0x44, 0x44, // c 
....................                          0x38, 0x44, 0x44, 0x44, 0x7F, // d 
....................                          0x38, 0x54, 0x54, 0x54, 0x18, // e 
....................                          0x04, 0x04, 0x7E, 0x05, 0x05, // f 
....................                          0x08, 0x54, 0x54, 0x54, 0x3C, // g 
....................                          0x7F, 0x08, 0x04, 0x04, 0x78, // h 
....................                          0x00, 0x44, 0x7D, 0x40, 0x00, // i 
....................                          0x20, 0x40, 0x44, 0x3D, 0x00, // j 
....................                          0x7F, 0x10, 0x28, 0x44, 0x00, // k 
....................                          0x00, 0x41, 0x7F, 0x40, 0x00, // l 
....................                          0x7C, 0x04, 0x78, 0x04, 0x78, // m 
....................                          0x7C, 0x08, 0x04, 0x04, 0x78, // n 
....................                          0x38, 0x44, 0x44, 0x44, 0x38, // o 
....................                          0x7C, 0x14, 0x14, 0x14, 0x08, // p 
....................                          0x08, 0x14, 0x14, 0x14, 0x7C, // q 
....................                          0x00, 0x7C, 0x08, 0x04, 0x04, // r 
....................                          0x48, 0x54, 0x54, 0x54, 0x20, // s 
....................                          0x04, 0x04, 0x3F, 0x44, 0x44, // t 
....................                          0x3C, 0x40, 0x40, 0x20, 0x7C, // u 
....................                          0x1C, 0x20, 0x40, 0x20, 0x1C, // v 
....................                          0x3C, 0x40, 0x30, 0x40, 0x3C, // w 
....................                          0x44, 0x28, 0x10, 0x28, 0x44, // x 
....................                          0x0C, 0x50, 0x50, 0x50, 0x3C, // y 
....................                          0x44, 0x64, 0x54, 0x4C, 0x44, // z 
....................                          0x00, 0x08, 0x36, 0x41, 0x41, // { 
....................                          0x00, 0x00, 0x7F, 0x00, 0x00, // | 
....................                          0x41, 0x41, 0x36, 0x08, 0x00, // } 
....................                          0x02, 0x01, 0x02, 0x04, 0x02};// ~ 
.................... ///////////////////////////////////////////////////////////////////////// 
....................  
....................  
.................... ///////////////////////////////////////////////////////////////////////// 
.................... // Purpose:       Draw a line on a graphic LCD using Bresenham's 
.................... //                line drawing algorithm 
.................... // Inputs:        (x1, y1) - the start coordinate 
.................... //                (x2, y2) - the end coordinate 
.................... //                color - ON or OFF 
.................... // Dependencies:  glcd_pixel() 
.................... ///////////////////////////////////////////////////////////////////////// 
.................... #ifdef LARGE_LCD 
.................... void glcd_line(int16 x1, int16 y1, int16 x2, int16 y2, int1 color) 
.................... #else 
.................... void glcd_line(int8 x1, int8 y1, int8 x2, int8 y2, int1 color) 
.................... #endif 
.................... { 
*
04BEC:  MOVLW  01
04BEE:  MOVLB  6
04BF0:  MOVWF  x1A
04BF2:  MOVWF  x1B
04BF4:  CLRF   x20
....................    int16        dy, dx; 
....................    signed int8  addx=1, addy=1; 
....................    signed int16 P, diff; 
....................  
....................    #ifdef LARGE_LCD 
....................    int16 i=0; 
....................    dx = abs((signed int16)(x2 - x1)); 
....................    dy = abs((signed int16)(y2 - y1)); 
....................    #else 
....................    int8 i=0; 
....................    dx = abs((signed int8)(x2 - x1)); 
04BF6:  MOVF   x11,W
04BF8:  SUBWF  x13,W
04BFA:  MOVWF  x21
04BFC:  MOVF   x21,W
04BFE:  BTFSS  x21.7
04C00:  BRA    4C08
04C02:  MOVLW  00
04C04:  BSF    FD8.0
04C06:  SUBFWB x21,W
04C08:  CLRF   03
04C0A:  MOVWF  x18
04C0C:  MOVFF  03,619
....................    dy = abs((signed int8)(y2 - y1)); 
04C10:  MOVF   x12,W
04C12:  SUBWF  x14,W
04C14:  MOVWF  x21
04C16:  MOVF   x21,W
04C18:  BTFSS  x21.7
04C1A:  BRA    4C22
04C1C:  MOVLW  00
04C1E:  BSF    FD8.0
04C20:  SUBFWB x21,W
04C22:  CLRF   03
04C24:  MOVWF  x16
04C26:  MOVFF  03,617
....................    #endif 
....................  
....................    if(x1 > x2) 
04C2A:  MOVF   x11,W
04C2C:  SUBWF  x13,W
04C2E:  BC    4C34
....................       addx = -1; 
04C30:  MOVLW  FF
04C32:  MOVWF  x1A
....................    if(y1 > y2) 
04C34:  MOVF   x12,W
04C36:  SUBWF  x14,W
04C38:  BC    4C3E
....................       addy = -1; 
04C3A:  MOVLW  FF
04C3C:  MOVWF  x1B
....................  
....................    if(dx >= dy) 
04C3E:  MOVF   x17,W
04C40:  SUBWF  x19,W
04C42:  BNC   4CBC
04C44:  BNZ   4C4C
04C46:  MOVF   x16,W
04C48:  SUBWF  x18,W
04C4A:  BNC   4CBC
....................    { 
....................       dy *= 2; 
04C4C:  BCF    FD8.0
04C4E:  RLCF   x16,F
04C50:  RLCF   x17,F
....................       P = dy - dx; 
04C52:  MOVF   x18,W
04C54:  SUBWF  x16,W
04C56:  MOVWF  00
04C58:  MOVF   x19,W
04C5A:  SUBWFB x17,W
04C5C:  MOVFF  00,61C
04C60:  MOVWF  x1D
....................       diff = P - dx; 
04C62:  MOVF   x18,W
04C64:  SUBWF  x1C,W
04C66:  MOVWF  x1E
04C68:  MOVF   x19,W
04C6A:  SUBWFB x1D,W
04C6C:  MOVWF  x1F
....................  
....................       for(; i<=dx; ++i) 
04C6E:  MOVF   x19,F
04C70:  BNZ   4C78
04C72:  MOVF   x20,W
04C74:  SUBWF  x18,W
04C76:  BNC   4CBA
....................       { 
....................          glcd_pixel(x1, y1, color); 
04C78:  MOVFF  611,621
04C7C:  MOVFF  612,622
04C80:  MOVFF  615,623
04C84:  MOVLB  0
04C86:  CALL   1802
....................  
....................          if(P < 0) 
04C8A:  MOVLB  6
04C8C:  BTFSC  x1D.7
04C8E:  BRA    4C92
04C90:  BRA    4CA2
....................          { 
....................             P  += dy; 
04C92:  MOVF   x16,W
04C94:  ADDWF  x1C,F
04C96:  MOVF   x17,W
04C98:  ADDWFC x1D,F
....................             x1 += addx; 
04C9A:  MOVF   x1A,W
04C9C:  ADDWF  x11,W
04C9E:  MOVWF  x11
....................          } 
....................          else 
04CA0:  BRA    4CB6
....................          { 
....................             P  += diff; 
04CA2:  MOVF   x1E,W
04CA4:  ADDWF  x1C,F
04CA6:  MOVF   x1F,W
04CA8:  ADDWFC x1D,F
....................             x1 += addx; 
04CAA:  MOVF   x1A,W
04CAC:  ADDWF  x11,W
04CAE:  MOVWF  x11
....................             y1 += addy; 
04CB0:  MOVF   x1B,W
04CB2:  ADDWF  x12,W
04CB4:  MOVWF  x12
....................          } 
....................       } 
04CB6:  INCF   x20,F
04CB8:  BRA    4C6E
....................    } 
....................    else 
04CBA:  BRA    4D2A
....................    { 
....................       dx *= 2; 
04CBC:  BCF    FD8.0
04CBE:  RLCF   x18,F
04CC0:  RLCF   x19,F
....................       P = dx - dy; 
04CC2:  MOVF   x16,W
04CC4:  SUBWF  x18,W
04CC6:  MOVWF  00
04CC8:  MOVF   x17,W
04CCA:  SUBWFB x19,W
04CCC:  MOVFF  00,61C
04CD0:  MOVWF  x1D
....................       diff = P - dy; 
04CD2:  MOVF   x16,W
04CD4:  SUBWF  x1C,W
04CD6:  MOVWF  x1E
04CD8:  MOVF   x17,W
04CDA:  SUBWFB x1D,W
04CDC:  MOVWF  x1F
....................  
....................       for(; i<=dy; ++i) 
04CDE:  MOVF   x17,F
04CE0:  BNZ   4CE8
04CE2:  MOVF   x20,W
04CE4:  SUBWF  x16,W
04CE6:  BNC   4D2A
....................       { 
....................          glcd_pixel(x1, y1, color); 
04CE8:  MOVFF  611,621
04CEC:  MOVFF  612,622
04CF0:  MOVFF  615,623
04CF4:  MOVLB  0
04CF6:  CALL   1802
....................  
....................          if(P < 0) 
04CFA:  MOVLB  6
04CFC:  BTFSC  x1D.7
04CFE:  BRA    4D02
04D00:  BRA    4D12
....................          { 
....................             P  += dx; 
04D02:  MOVF   x18,W
04D04:  ADDWF  x1C,F
04D06:  MOVF   x19,W
04D08:  ADDWFC x1D,F
....................             y1 += addy; 
04D0A:  MOVF   x1B,W
04D0C:  ADDWF  x12,W
04D0E:  MOVWF  x12
....................          } 
....................          else 
04D10:  BRA    4D26
....................          { 
....................             P  += diff; 
04D12:  MOVF   x1E,W
04D14:  ADDWF  x1C,F
04D16:  MOVF   x1F,W
04D18:  ADDWFC x1D,F
....................             x1 += addx; 
04D1A:  MOVF   x1A,W
04D1C:  ADDWF  x11,W
04D1E:  MOVWF  x11
....................             y1 += addy; 
04D20:  MOVF   x1B,W
04D22:  ADDWF  x12,W
04D24:  MOVWF  x12
....................          } 
....................       } 
04D26:  INCF   x20,F
04D28:  BRA    4CDE
....................    } 
.................... } 
04D2A:  MOVLB  0
04D2C:  RETLW  00
....................  
....................  
.................... ///////////////////////////////////////////////////////////////////////// 
.................... // Purpose:       Draw a rectangle on a graphic LCD 
.................... // Inputs:        (x1, y1) - the start coordinate 
.................... //                (x2, y2) - the end coordinate 
.................... //                fill  - YES or NO 
.................... //                color - ON or OFF 
.................... // Dependencies:  glcd_pixel(), glcd_line() 
.................... ///////////////////////////////////////////////////////////////////////// 
.................... #ifdef LARGE_LCD 
.................... void glcd_rect(int16 x1, int16 y1, int16 x2, int16 y2, int1 fill, int1 color) 
.................... #else 
.................... void glcd_rect(int8 x1, int8 y1, int8 x2, int8 y2, int1 fill, int1 color) 
.................... #endif 
.................... { 
....................    if(fill) 
04D2E:  MOVLB  6
04D30:  MOVF   x0A,F
04D32:  BZ    4D92
....................    { 
....................       #ifdef LARGE_LCD 
....................       int16 i, xmin, xmax, ymin, ymax; 
....................       #else 
....................       int8  i, xmin, xmax, ymin, ymax; 
....................       #endif 
....................  
....................       if(x1 < x2)                            //  Find x min and max 
04D34:  MOVF   x08,W
04D36:  SUBWF  x06,W
04D38:  BC    4D44
....................       { 
....................          xmin = x1; 
04D3A:  MOVFF  606,60D
....................          xmax = x2; 
04D3E:  MOVFF  608,60E
....................       } 
....................       else 
04D42:  BRA    4D4C
....................       { 
....................          xmin = x2; 
04D44:  MOVFF  608,60D
....................          xmax = x1; 
04D48:  MOVFF  606,60E
....................       } 
....................  
....................       if(y1 < y2)                            // Find the y min and max 
04D4C:  MOVF   x09,W
04D4E:  SUBWF  x07,W
04D50:  BC    4D5C
....................       { 
....................          ymin = y1; 
04D52:  MOVFF  607,60F
....................          ymax = y2; 
04D56:  MOVFF  609,610
....................       } 
....................       else 
04D5A:  BRA    4D64
....................       { 
....................          ymin = y2; 
04D5C:  MOVFF  609,60F
....................          ymax = y1; 
04D60:  MOVFF  607,610
....................       } 
....................  
....................       for(; xmin <= xmax; ++xmin) 
04D64:  MOVF   x0D,W
04D66:  SUBWF  x0E,W
04D68:  BNC   4D90
....................       { 
....................          for(i=ymin; i<=ymax; ++i) 
04D6A:  MOVFF  60F,60C
04D6E:  MOVF   x0C,W
04D70:  SUBWF  x10,W
04D72:  BNC   4D8C
....................          { 
....................             glcd_pixel(xmin, i, color); 
04D74:  MOVFF  60D,621
04D78:  MOVFF  60C,622
04D7C:  MOVFF  60B,623
04D80:  MOVLB  0
04D82:  CALL   1802
....................          } 
04D86:  MOVLB  6
04D88:  INCF   x0C,F
04D8A:  BRA    4D6E
....................       } 
04D8C:  INCF   x0D,F
04D8E:  BRA    4D64
....................    } 
....................    else 
04D90:  BRA    4DEE
....................    { 
....................       glcd_line(x1, y1, x2, y1, color);      // Draw the 4 sides 
04D92:  MOVFF  606,611
04D96:  MOVFF  607,612
04D9A:  MOVFF  608,613
04D9E:  MOVFF  607,614
04DA2:  MOVFF  60B,615
04DA6:  MOVLB  0
04DA8:  RCALL  4BEC
....................       glcd_line(x1, y2, x2, y2, color); 
04DAA:  MOVFF  606,611
04DAE:  MOVFF  609,612
04DB2:  MOVFF  608,613
04DB6:  MOVFF  609,614
04DBA:  MOVFF  60B,615
04DBE:  RCALL  4BEC
....................       glcd_line(x1, y1, x1, y2, color); 
04DC0:  MOVFF  606,611
04DC4:  MOVFF  607,612
04DC8:  MOVFF  606,613
04DCC:  MOVFF  609,614
04DD0:  MOVFF  60B,615
04DD4:  RCALL  4BEC
....................       glcd_line(x2, y1, x2, y2, color); 
04DD6:  MOVFF  608,611
04DDA:  MOVFF  607,612
04DDE:  MOVFF  608,613
04DE2:  MOVFF  609,614
04DE6:  MOVFF  60B,615
04DEA:  RCALL  4BEC
04DEC:  MOVLB  6
....................    } 
.................... } 
04DEE:  MOVLB  0
04DF0:  RETLW  00
....................  
.................... ///////////////////////////////////////////////////////////////////////// 
.................... // Purpose:       Draw a bar (wide line) on a graphic LCD 
.................... // Inputs:        (x1, y1) - the start coordinate 
.................... //                (x2, y2) - the end coordinate 
.................... //                width  - The number of pixels wide 
.................... //                color - ON or OFF 
.................... ///////////////////////////////////////////////////////////////////////// 
.................... #ifdef LARGE_LCD 
.................... void glcd_bar(int16 x1, int16 y1, int16 x2, int16 y2, int8 width, int1 color) 
.................... #else 
.................... void glcd_bar(int8 x1, int8 y1, int8 x2, int8 y2, int8 width, int1 color) 
.................... #endif 
.................... { 
....................    int8         half_width; 
....................    signed int16 dy, dx; 
....................    signed int8  addx=1, addy=1, j; 
....................    signed int16 P, diff, c1, c2; 
....................  
....................    #ifdef LARGE_LCD 
....................    int16 i=0; 
....................    dx = abs((signed int16)(x2 - x1)); 
....................    dy = abs((signed int16)(y2 - y1)); 
....................    #else 
....................    int8 i=0; 
....................    dx = abs((signed int8)(x2 - x1)); 
....................    dy = abs((signed int8)(y2 - y1)); 
....................    #endif 
....................  
....................    half_width = width/2; 
....................    c1 = -(dx*x1 + dy*y1); 
....................    c2 = -(dx*x2 + dy*y2); 
....................  
....................    if(x1 > x2) 
....................    { 
....................       signed int16 temp; 
....................       temp = c1; 
....................       c1 = c2; 
....................       c2 = temp; 
....................       addx = -1; 
....................    } 
....................    if(y1 > y2) 
....................    { 
....................       signed int16 temp; 
....................       temp = c1; 
....................       c1 = c2; 
....................       c2 = temp; 
....................       addy = -1; 
....................    } 
....................  
....................    if(dx >= dy) 
....................    { 
....................       P = 2*dy - dx; 
....................       diff = P - dx; 
....................  
....................       for(i=0; i<=dx; ++i) 
....................       { 
....................          for(j=-half_width; j<half_width+width%2; ++j) 
....................          { 
....................             #ifdef LARGE_LCD 
....................             int16 temp; 
....................             #else 
....................             int8 temp; 
....................             #endif 
....................  
....................             temp = dx*x1+dy*(y1+j);    // Use more RAM to increase speed 
....................             if(temp+c1 >= 0 && temp+c2 <=0) 
....................                glcd_pixel(x1, y1+j, color); 
....................          } 
....................          if(P < 0) 
....................          { 
....................             P  += 2*dy; 
....................             x1 += addx; 
....................          } 
....................          else 
....................          { 
....................             P  += diff; 
....................             x1 += addx; 
....................             y1 += addy; 
....................          } 
....................       } 
....................    } 
....................    else 
....................    { 
....................       P = 2*dx - dy; 
....................       diff = P - dy; 
....................  
....................       for(i=0; i<=dy; ++i) 
....................       { 
....................          if(P < 0) 
....................          { 
....................             P  += 2*dx; 
....................             y1 += addy; 
....................          } 
....................          else 
....................          { 
....................             P  += diff; 
....................             x1 += addx; 
....................             y1 += addy; 
....................          } 
....................          for(j=-half_width; j<half_width+width%2; ++j) 
....................          { 
....................             #ifdef LARGE_LCD 
....................             int16 temp; 
....................             #else 
....................             int8 temp; 
....................             #endif 
....................  
....................             temp = dx*x1+dy*(y1+j);    // Use more RAM to increase speed 
....................             if(temp+c1 >= 0 && temp+c2 <=0) 
....................                glcd_pixel(x1+j, y1, color); 
....................          } 
....................       } 
....................    } 
.................... } 
....................  
....................  
.................... ///////////////////////////////////////////////////////////////////////// 
.................... // Purpose:       Draw a circle on a graphic LCD 
.................... // Inputs:        (x,y) - the center of the circle 
.................... //                radius - the radius of the circle 
.................... //                fill - YES or NO 
.................... //                color - ON or OFF 
.................... ///////////////////////////////////////////////////////////////////////// 
.................... #ifdef LARGE_LCD 
.................... void glcd_circle(int16 x, int16 y, int16 radius, int1 fill, int1 color) 
.................... #else 
.................... void glcd_circle(int8 x, int8 y, int8 radius, int1 fill, int1 color) 
.................... #endif 
.................... { 
....................    #ifdef LARGE_LCD 
....................    signed int16 a, b, P; 
....................    #else 
....................    signed int8  a, b, P; 
....................    #endif 
....................  
....................    a = 0; 
*
05A3A:  MOVLB  6
05A3C:  CLRF   x09
....................    b = radius; 
05A3E:  MOVFF  606,60A
....................    P = 1 - radius; 
05A42:  MOVLW  01
05A44:  BSF    FD8.0
05A46:  SUBFWB x06,W
05A48:  MOVWF  x0B
....................  
....................    do 
....................    { 
....................       if(fill) 
05A4A:  MOVF   x07,F
05A4C:  BZ    5B18
....................       { 
....................          glcd_line(x-a, y+b, x+a, y+b, color); 
05A4E:  MOVF   x09,W
05A50:  SUBWF  x04,W
05A52:  MOVWF  x0C
05A54:  MOVF   x0A,W
05A56:  ADDWF  x05,W
05A58:  MOVWF  x0D
05A5A:  MOVF   x09,W
05A5C:  ADDWF  x04,W
05A5E:  MOVWF  x0E
05A60:  MOVF   x0A,W
05A62:  ADDWF  x05,W
05A64:  MOVWF  x0F
05A66:  MOVFF  60C,611
05A6A:  MOVFF  60D,612
05A6E:  MOVFF  60E,613
05A72:  MOVWF  x14
05A74:  MOVFF  608,615
05A78:  MOVLB  0
05A7A:  CALL   4BEC
....................          glcd_line(x-a, y-b, x+a, y-b, color); 
05A7E:  MOVLB  6
05A80:  MOVF   x09,W
05A82:  SUBWF  x04,W
05A84:  MOVWF  x0C
05A86:  MOVF   x0A,W
05A88:  SUBWF  x05,W
05A8A:  MOVWF  x0D
05A8C:  MOVF   x09,W
05A8E:  ADDWF  x04,W
05A90:  MOVWF  x0E
05A92:  MOVF   x0A,W
05A94:  SUBWF  x05,W
05A96:  MOVWF  x0F
05A98:  MOVFF  60C,611
05A9C:  MOVFF  60D,612
05AA0:  MOVFF  60E,613
05AA4:  MOVWF  x14
05AA6:  MOVFF  608,615
05AAA:  MOVLB  0
05AAC:  CALL   4BEC
....................          glcd_line(x-b, y+a, x+b, y+a, color); 
05AB0:  MOVLB  6
05AB2:  MOVF   x0A,W
05AB4:  SUBWF  x04,W
05AB6:  MOVWF  x0C
05AB8:  MOVF   x09,W
05ABA:  ADDWF  x05,W
05ABC:  MOVWF  x0D
05ABE:  MOVF   x0A,W
05AC0:  ADDWF  x04,W
05AC2:  MOVWF  x0E
05AC4:  MOVF   x09,W
05AC6:  ADDWF  x05,W
05AC8:  MOVWF  x0F
05ACA:  MOVFF  60C,611
05ACE:  MOVFF  60D,612
05AD2:  MOVFF  60E,613
05AD6:  MOVWF  x14
05AD8:  MOVFF  608,615
05ADC:  MOVLB  0
05ADE:  CALL   4BEC
....................          glcd_line(x-b, y-a, x+b, y-a, color); 
05AE2:  MOVLB  6
05AE4:  MOVF   x0A,W
05AE6:  SUBWF  x04,W
05AE8:  MOVWF  x0C
05AEA:  MOVF   x09,W
05AEC:  SUBWF  x05,W
05AEE:  MOVWF  x0D
05AF0:  MOVF   x0A,W
05AF2:  ADDWF  x04,W
05AF4:  MOVWF  x0E
05AF6:  MOVF   x09,W
05AF8:  SUBWF  x05,W
05AFA:  MOVWF  x0F
05AFC:  MOVFF  60C,611
05B00:  MOVFF  60D,612
05B04:  MOVFF  60E,613
05B08:  MOVWF  x14
05B0A:  MOVFF  608,615
05B0E:  MOVLB  0
05B10:  CALL   4BEC
....................       } 
....................       else 
05B14:  BRA    5C06
05B16:  MOVLB  6
....................       { 
....................          glcd_pixel(a+x, b+y, color); 
05B18:  MOVF   x04,W
05B1A:  ADDWF  x09,W
05B1C:  MOVWF  x0C
05B1E:  MOVF   x05,W
05B20:  ADDWF  x0A,W
05B22:  MOVWF  x0D
05B24:  MOVFF  60C,621
05B28:  MOVWF  x22
05B2A:  MOVFF  608,623
05B2E:  MOVLB  0
05B30:  CALL   1802
....................          glcd_pixel(b+x, a+y, color); 
05B34:  MOVLB  6
05B36:  MOVF   x04,W
05B38:  ADDWF  x0A,W
05B3A:  MOVWF  x0C
05B3C:  MOVF   x05,W
05B3E:  ADDWF  x09,W
05B40:  MOVWF  x0D
05B42:  MOVFF  60C,621
05B46:  MOVWF  x22
05B48:  MOVFF  608,623
05B4C:  MOVLB  0
05B4E:  CALL   1802
....................          glcd_pixel(x-a, b+y, color); 
05B52:  MOVLB  6
05B54:  MOVF   x09,W
05B56:  SUBWF  x04,W
05B58:  MOVWF  x0C
05B5A:  MOVF   x05,W
05B5C:  ADDWF  x0A,W
05B5E:  MOVWF  x0D
05B60:  MOVFF  60C,621
05B64:  MOVWF  x22
05B66:  MOVFF  608,623
05B6A:  MOVLB  0
05B6C:  CALL   1802
....................          glcd_pixel(x-b, a+y, color); 
05B70:  MOVLB  6
05B72:  MOVF   x0A,W
05B74:  SUBWF  x04,W
05B76:  MOVWF  x0C
05B78:  MOVF   x05,W
05B7A:  ADDWF  x09,W
05B7C:  MOVWF  x0D
05B7E:  MOVFF  60C,621
05B82:  MOVWF  x22
05B84:  MOVFF  608,623
05B88:  MOVLB  0
05B8A:  CALL   1802
....................          glcd_pixel(b+x, y-a, color); 
05B8E:  MOVLB  6
05B90:  MOVF   x04,W
05B92:  ADDWF  x0A,W
05B94:  MOVWF  x0C
05B96:  MOVF   x09,W
05B98:  SUBWF  x05,W
05B9A:  MOVWF  x0D
05B9C:  MOVFF  60C,621
05BA0:  MOVWF  x22
05BA2:  MOVFF  608,623
05BA6:  MOVLB  0
05BA8:  CALL   1802
....................          glcd_pixel(a+x, y-b, color); 
05BAC:  MOVLB  6
05BAE:  MOVF   x04,W
05BB0:  ADDWF  x09,W
05BB2:  MOVWF  x0C
05BB4:  MOVF   x0A,W
05BB6:  SUBWF  x05,W
05BB8:  MOVWF  x0D
05BBA:  MOVFF  60C,621
05BBE:  MOVWF  x22
05BC0:  MOVFF  608,623
05BC4:  MOVLB  0
05BC6:  CALL   1802
....................          glcd_pixel(x-a, y-b, color); 
05BCA:  MOVLB  6
05BCC:  MOVF   x09,W
05BCE:  SUBWF  x04,W
05BD0:  MOVWF  x0C
05BD2:  MOVF   x0A,W
05BD4:  SUBWF  x05,W
05BD6:  MOVWF  x0D
05BD8:  MOVFF  60C,621
05BDC:  MOVWF  x22
05BDE:  MOVFF  608,623
05BE2:  MOVLB  0
05BE4:  CALL   1802
....................          glcd_pixel(x-b, y-a, color); 
05BE8:  MOVLB  6
05BEA:  MOVF   x0A,W
05BEC:  SUBWF  x04,W
05BEE:  MOVWF  x0C
05BF0:  MOVF   x09,W
05BF2:  SUBWF  x05,W
05BF4:  MOVWF  x0D
05BF6:  MOVFF  60C,621
05BFA:  MOVWF  x22
05BFC:  MOVFF  608,623
05C00:  MOVLB  0
05C02:  CALL   1802
....................       } 
....................  
....................       if(P < 0) 
05C06:  MOVLB  6
05C08:  BTFSC  x0B.7
05C0A:  BRA    5C0E
05C0C:  BRA    5C2A
....................          P += 3 + 2 * a++; 
05C0E:  MOVF   x09,W
05C10:  INCF   x09,F
05C12:  MOVWF  x0C
05C14:  MOVLW  02
05C16:  MOVWF  x0D
05C18:  MOVFF  60C,60E
05C1C:  MOVLB  0
05C1E:  RCALL  59EC
05C20:  MOVF   01,W
05C22:  ADDLW  03
05C24:  MOVLB  6
05C26:  ADDWF  x0B,F
....................       else 
05C28:  BRA    5C4C
....................          P += 5 + 2 * (a++ - b--); 
05C2A:  MOVF   x09,W
05C2C:  INCF   x09,F
05C2E:  MOVWF  x0C
05C30:  MOVF   x0A,W
05C32:  DECF   x0A,F
05C34:  SUBWF  x0C,W
05C36:  MOVWF  x0C
05C38:  MOVLW  02
05C3A:  MOVWF  x0D
05C3C:  MOVFF  60C,60E
05C40:  MOVLB  0
05C42:  RCALL  59EC
05C44:  MOVF   01,W
05C46:  ADDLW  05
05C48:  MOVLB  6
05C4A:  ADDWF  x0B,F
....................     } while(a <= b); 
05C4C:  MOVF   x09,W
05C4E:  XORLW  80
05C50:  MOVWF  00
05C52:  MOVF   x0A,W
05C54:  XORLW  80
05C56:  SUBWF  00,W
05C58:  BTFSC  FD8.2
05C5A:  BRA    5A4A
05C5C:  BTFSS  FD8.0
05C5E:  BRA    5A4A
.................... } 
05C60:  MOVLB  0
05C62:  RETLW  00
....................  
....................  
.................... ///////////////////////////////////////////////////////////////////////// 
.................... // Purpose:       Write text on a graphic LCD 
.................... // Inputs:        (x,y) - The upper left coordinate of the first letter 
.................... //                textptr - A pointer to an array of text to display 
.................... //                size - The size of the text: 1 = 5x7, 2 = 10x14, ... 
.................... //                color - ON or OFF 
.................... ///////////////////////////////////////////////////////////////////////// 
.................... #ifdef LARGE_LCD 
.................... void glcd_text57(int16 x, int16 y, char* textptr, int8 size, int1 color) 
.................... #else 
.................... void glcd_text57(int8 x, int8 y, char* textptr, int8 size, int1 color) 
.................... #endif 
.................... { 
....................    int8 j, k, l, m;                       // Loop counters 
....................    int8 pixelData[5];                     // Stores character data 
....................  
....................    for(; *textptr != '\0'; ++textptr, ++x)// Loop through the passed string 
*
018BE:  MOVFF  609,03
018C2:  MOVLB  6
018C4:  MOVFF  608,FE9
018C8:  MOVFF  609,FEA
018CC:  MOVF   FEF,F
018CE:  BTFSC  FD8.2
018D0:  BRA    1A72
....................    { 
....................       if(*textptr < 'S') // Checks if the letter is in the first font array 
018D2:  MOVFF  609,03
018D6:  MOVFF  608,FE9
018DA:  MOVFF  609,FEA
018DE:  MOVF   FEF,W
018E0:  SUBLW  52
018E2:  BNC   1932
....................          memcpy(pixelData, FONT[*textptr - ' '], 5); 
018E4:  MOVFF  609,03
018E8:  MOVFF  608,FE9
018EC:  MOVFF  609,FEA
018F0:  MOVLW  20
018F2:  SUBWF  FEF,W
018F4:  MULLW  05
018F6:  MOVF   FF3,W
018F8:  CLRF   03
018FA:  MOVWF  x15
018FC:  MOVLW  06
018FE:  MOVWF  FEA
01900:  MOVLW  10
01902:  MOVWF  FE9
01904:  CLRF   x19
01906:  MOVFF  615,618
0190A:  MOVFF  FF2,616
0190E:  BCF    FF2.7
01910:  MOVLW  05
01912:  MOVWF  01
01914:  CLRF   FF7
01916:  MOVF   x15,W
01918:  MOVLB  0
0191A:  CALL   009E
0191E:  TBLRD*-
01920:  TBLRD*+
01922:  MOVFF  FF5,FEE
01926:  DECFSZ 01,F
01928:  BRA    1920
0192A:  MOVLB  6
0192C:  BTFSC  x16.7
0192E:  BSF    FF2.7
....................       else if(*textptr <= '~') // Check if the letter is in the second font array 
01930:  BRA    199C
01932:  MOVFF  609,03
01936:  MOVFF  608,FE9
0193A:  MOVFF  609,FEA
0193E:  MOVF   FEF,W
01940:  SUBLW  7E
01942:  BNC   1992
....................          memcpy(pixelData, FONT2[*textptr - 'S'], 5); 
01944:  MOVFF  609,03
01948:  MOVFF  608,FE9
0194C:  MOVFF  609,FEA
01950:  MOVLW  53
01952:  SUBWF  FEF,W
01954:  MULLW  05
01956:  MOVF   FF3,W
01958:  CLRF   03
0195A:  MOVWF  x15
0195C:  MOVLW  06
0195E:  MOVWF  FEA
01960:  MOVLW  10
01962:  MOVWF  FE9
01964:  CLRF   x19
01966:  MOVFF  615,618
0196A:  MOVFF  FF2,616
0196E:  BCF    FF2.7
01970:  MOVLW  05
01972:  MOVWF  01
01974:  CLRF   FF7
01976:  MOVF   x15,W
01978:  MOVLB  0
0197A:  CALL   01BC
0197E:  TBLRD*-
01980:  TBLRD*+
01982:  MOVFF  FF5,FEE
01986:  DECFSZ 01,F
01988:  BRA    1980
0198A:  MOVLB  6
0198C:  BTFSC  x16.7
0198E:  BSF    FF2.7
....................       else 
01990:  BRA    199C
....................          memcpy(pixelData, FONT[0], 5);   // Default to space 
01992:  CLRF   x10
01994:  CLRF   x11
01996:  CLRF   x12
01998:  CLRF   x13
0199A:  CLRF   x14
....................  
....................       // Handles newline and carriage returns 
....................       switch(*textptr) 
....................       { 
0199C:  MOVFF  609,03
019A0:  MOVF   x08,W
019A2:  MOVWF  FE9
019A4:  MOVFF  03,FEA
019A8:  MOVF   FEF,W
019AA:  XORLW  0A
019AC:  MOVLB  0
019AE:  BZ    19B6
019B0:  XORLW  07
019B2:  BZ    19C6
019B4:  BRA    19CC
....................          case '\n': 
....................             y += 7*size + 1; 
019B6:  MOVLB  6
019B8:  MOVF   x0A,W
019BA:  MULLW  07
019BC:  MOVF   FF3,W
019BE:  ADDLW  01
019C0:  ADDWF  x07,F
....................             continue; 
019C2:  BRA    1A64
019C4:  MOVLB  0
....................          case '\r': 
....................             x = 0; 
019C6:  MOVLB  6
019C8:  CLRF   x06
....................             continue; 
019CA:  BRA    1A64
....................       } 
....................  
....................       if(x+5*size >= GLCD_WIDTH)          // Performs character wrapping 
019CC:  MOVLB  6
019CE:  MOVF   x0A,W
019D0:  MULLW  05
019D2:  MOVF   FF3,W
019D4:  ADDWF  x06,W
019D6:  SUBLW  7F
019D8:  BC    19E6
....................       { 
....................          x = 0;                           // Set x at far left position 
019DA:  CLRF   x06
....................          y += 7*size + 1;                 // Set y at next position down 
019DC:  MOVF   x0A,W
019DE:  MULLW  07
019E0:  MOVF   FF3,W
019E2:  ADDLW  01
019E4:  ADDWF  x07,F
....................       } 
....................       for(j=0; j<5; ++j, x+=size)         // Loop through character byte data 
019E6:  CLRF   x0C
019E8:  MOVF   x0C,W
019EA:  SUBLW  04
019EC:  BNC   1A64
....................       { 
....................          for(k=0; k < 7; ++k)             // Loop through the vertical pixels 
019EE:  CLRF   x0D
019F0:  MOVF   x0D,W
019F2:  SUBLW  06
019F4:  BNC   1A5C
....................          { 
....................             if(bit_test(pixelData[j], k)) // Check if the pixel should be set 
019F6:  CLRF   03
019F8:  MOVF   x0C,W
019FA:  ADDLW  10
019FC:  MOVWF  FE9
019FE:  MOVLW  06
01A00:  ADDWFC 03,W
01A02:  MOVWF  FEA
01A04:  MOVFF  FEF,615
01A08:  MOVFF  615,00
01A0C:  MOVF   x0D,W
01A0E:  MOVWF  01
01A10:  BZ    1A1A
01A12:  BCF    FD8.0
01A14:  RRCF   00,F
01A16:  DECFSZ 01,F
01A18:  BRA    1A12
01A1A:  BTFSS  00.0
01A1C:  BRA    1A58
....................             { 
....................                for(l=0; l < size; ++l)    // These two loops change the 
01A1E:  CLRF   x0E
01A20:  MOVF   x0A,W
01A22:  SUBWF  x0E,W
01A24:  BC    1A58
....................                {                          // character's size 
....................                   for(m=0; m < size; ++m) 
01A26:  CLRF   x0F
01A28:  MOVF   x0A,W
01A2A:  SUBWF  x0F,W
01A2C:  BC    1A54
....................                   { 
....................                      glcd_pixel(x+m, y+k*size+l, color); // Draws the pixel 
01A2E:  MOVF   x0F,W
01A30:  ADDWF  x06,W
01A32:  MOVWF  x15
01A34:  MOVF   x0D,W
01A36:  MULWF  x0A
01A38:  MOVF   FF3,W
01A3A:  ADDWF  x07,W
01A3C:  ADDWF  x0E,W
01A3E:  MOVWF  x16
01A40:  MOVFF  615,621
01A44:  MOVWF  x22
01A46:  MOVFF  60B,623
01A4A:  MOVLB  0
01A4C:  RCALL  1802
....................                   } 
01A4E:  MOVLB  6
01A50:  INCF   x0F,F
01A52:  BRA    1A28
....................                } 
01A54:  INCF   x0E,F
01A56:  BRA    1A20
....................             } 
....................          } 
01A58:  INCF   x0D,F
01A5A:  BRA    19F0
....................       } 
01A5C:  INCF   x0C,F
01A5E:  MOVF   x0A,W
01A60:  ADDWF  x06,F
01A62:  BRA    19E8
....................    } 
01A64:  INCF   x08,F
01A66:  BTFSC  FD8.2
01A68:  INCF   x09,F
01A6A:  INCF   x06,F
01A6C:  MOVLB  0
01A6E:  BRA    18BE
01A70:  MOVLB  6
.................... } 
01A72:  MOVLB  0
01A74:  RETLW  00
....................  
.................... #endif 
....................  
.................... #include "imagen.h" 
.................... const int8 Bombillo [64][16] = { 
.................... 0x00, 0x00, 0x00, 0x00, 0x00, 0x00, 0x00, 0x00, 0x00, 0x00, 0x00, 0x00, 0x00, 0x00, 0x00, 0x00, 
.................... 0x00, 0x00, 0x00, 0x00, 0x00, 0x00, 0x00, 0x00, 0x00, 0x00, 0x00, 0x00, 0x00, 0x00, 0x00, 0x00, 
.................... 0x00, 0x00, 0x00, 0x00, 0x00, 0x00, 0x00, 0x00, 0x00, 0x00, 0x00, 0x00, 0x00, 0x00, 0x00, 0x00, 
.................... 0x00, 0x00, 0x00, 0x00, 0x00, 0x00, 0x00, 0x00, 0x00, 0x00, 0x00, 0x00, 0x00, 0x00, 0x00, 0x00, 
.................... 0x00, 0x00, 0x00, 0x00, 0x00, 0x00, 0x00, 0x00, 0x00, 0x00, 0x00, 0x00, 0x00, 0x00, 0x00, 0x00, 
.................... 0x00, 0x00, 0x00, 0x00, 0x00, 0x00, 0x00, 0x00, 0x00, 0x00, 0x00, 0x00, 0x00, 0x00, 0x00, 0x00, 
.................... 0x00, 0x00, 0x00, 0x00, 0x00, 0x00, 0x00, 0x00, 0x00, 0x00, 0x00, 0x00, 0x00, 0x00, 0x00, 0x00, 
.................... 0x00, 0x00, 0x00, 0x00, 0x00, 0x00, 0x00, 0x00, 0x00, 0x00, 0x00, 0x00, 0x00, 0x00, 0x00, 0x00, 
.................... 0x00, 0x00, 0x00, 0x00, 0x00, 0x00, 0x00, 0x00, 0x00, 0x00, 0x00, 0x00, 0x00, 0x00, 0x00, 0x00, 
.................... 0x00, 0x00, 0x00, 0x00, 0x00, 0x00, 0x00, 0x00, 0x00, 0x00, 0x00, 0x00, 0x00, 0x00, 0x00, 0x00, 
.................... 0x00, 0x00, 0x00, 0x00, 0x00, 0x00, 0x00, 0x00, 0x00, 0x00, 0x00, 0x00, 0x00, 0x00, 0x00, 0x00, 
.................... 0x00, 0x00, 0x00, 0x00, 0x00, 0x00, 0x00, 0x00, 0x00, 0x00, 0x00, 0x00, 0x00, 0x00, 0x00, 0x00, 
.................... 0x00, 0x00, 0x00, 0x00, 0x00, 0x00, 0x00, 0x00, 0x00, 0x00, 0x00, 0x00, 0x00, 0x00, 0x00, 0x00, 
.................... 0x00, 0x00, 0x00, 0x00, 0x00, 0x00, 0x00, 0x00, 0x00, 0x00, 0x00, 0x00, 0x00, 0x00, 0x00, 0x00, 
.................... 0x00, 0x00, 0x00, 0x00, 0x00, 0x00, 0x00, 0x00, 0x00, 0x00, 0x00, 0x00, 0x00, 0x00, 0x00, 0x00, 
.................... 0x00, 0x00, 0x00, 0x00, 0x00, 0x00, 0x00, 0x00, 0x00, 0x00, 0x00, 0x00, 0x00, 0x08, 0x00, 0x80, 
.................... 0x00, 0x00, 0x00, 0x00, 0x00, 0x00, 0x00, 0x00, 0x00, 0x00, 0x00, 0x00, 0x00, 0x04, 0x01, 0x00, 
.................... 0x00, 0x00, 0x00, 0x00, 0x00, 0x00, 0x00, 0x00, 0x00, 0x00, 0x00, 0x00, 0x00, 0x02, 0x02, 0x00, 
.................... 0x00, 0x00, 0x00, 0x00, 0x00, 0x00, 0x00, 0x00, 0x00, 0x00, 0x00, 0x00, 0x00, 0x00, 0x78, 0x00, 
.................... 0x00, 0x00, 0x00, 0x00, 0x00, 0x00, 0x00, 0x00, 0x00, 0x00, 0x00, 0x00, 0x00, 0x00, 0x84, 0x00, 
.................... 0x00, 0x00, 0x00, 0x00, 0x00, 0x00, 0x00, 0x00, 0x00, 0x00, 0x00, 0x00, 0x00, 0x01, 0x02, 0x00, 
.................... 0x00, 0x00, 0x00, 0x00, 0x00, 0x00, 0x00, 0x00, 0x00, 0x00, 0x00, 0x00, 0x00, 0xF9, 0x02, 0xF8, 
.................... 0x00, 0x00, 0x00, 0x00, 0x00, 0x00, 0x00, 0x00, 0x00, 0x00, 0x00, 0x00, 0x00, 0x01, 0x02, 0x00, 
.................... 0x00, 0x00, 0x00, 0x00, 0x00, 0x00, 0x00, 0x00, 0x00, 0x00, 0x00, 0x00, 0x00, 0x01, 0x02, 0x00, 
.................... 0x00, 0x00, 0x00, 0x00, 0x00, 0x00, 0x00, 0x00, 0x00, 0x00, 0x00, 0x00, 0x00, 0x04, 0x84, 0x80, 
.................... 0x00, 0x00, 0x00, 0x00, 0x00, 0x00, 0x00, 0x00, 0x00, 0x00, 0x00, 0x00, 0x00, 0x08, 0x78, 0x40, 
.................... 0x00, 0x00, 0x00, 0x00, 0x00, 0x00, 0x00, 0x00, 0x00, 0x00, 0x00, 0x00, 0x00, 0x10, 0x48, 0x20, 
.................... 0x00, 0x00, 0x00, 0x00, 0x00, 0x00, 0x00, 0x00, 0x00, 0x00, 0x00, 0x00, 0x00, 0x20, 0x48, 0x10, 
.................... 0x00, 0x00, 0x00, 0x00, 0x00, 0x00, 0x00, 0x00, 0x00, 0x00, 0x00, 0x00, 0x00, 0x00, 0x78, 0x00, 
.................... 0x00, 0x00, 0x00, 0x00, 0x00, 0x00, 0x00, 0x00, 0x00, 0x00, 0x00, 0x00, 0x00, 0x00, 0x00, 0x00, 
.................... 0x00, 0x00, 0x00, 0x00, 0x00, 0x00, 0x00, 0x00, 0x00, 0x00, 0x00, 0x00, 0x00, 0x00, 0x00, 0x00, 
.................... 0x00, 0x00, 0x00, 0x00, 0x00, 0x00, 0x00, 0x00, 0x00, 0x00, 0x00, 0x00, 0x00, 0x00, 0x00, 0x00, 
.................... 0x00, 0x00, 0x00, 0x00, 0x00, 0x00, 0x00, 0x00, 0x00, 0x00, 0x00, 0x00, 0x00, 0x00, 0x00, 0x00, 
.................... 0x00, 0x00, 0x00, 0x00, 0x00, 0x00, 0x00, 0x00, 0x00, 0x00, 0x00, 0x00, 0x00, 0x00, 0x00, 0x00, 
.................... 0x00, 0x00, 0x00, 0x00, 0x00, 0x00, 0x00, 0x00, 0x00, 0x00, 0x00, 0x00, 0x00, 0x00, 0x00, 0x00, 
.................... 0x00, 0x00, 0x00, 0x00, 0x00, 0x00, 0x00, 0x00, 0x00, 0x00, 0x00, 0x00, 0x00, 0x00, 0x00, 0x00, 
.................... 0x00, 0x00, 0x00, 0x00, 0x00, 0x00, 0x00, 0x00, 0x00, 0x00, 0x00, 0x00, 0x00, 0x00, 0x00, 0x00, 
.................... 0x00, 0x00, 0x00, 0x00, 0x00, 0x00, 0x00, 0x00, 0x00, 0x00, 0x00, 0x00, 0x00, 0x00, 0x00, 0x00, 
.................... 0x00, 0x00, 0x00, 0x00, 0x00, 0x00, 0x00, 0x00, 0x00, 0x00, 0x00, 0x00, 0x00, 0x00, 0x00, 0x00, 
.................... 0x00, 0x00, 0x00, 0x00, 0x00, 0x00, 0x00, 0x00, 0x00, 0x00, 0x00, 0x00, 0x00, 0x00, 0x00, 0x00, 
.................... 0x00, 0x00, 0x00, 0x00, 0x00, 0x00, 0x00, 0x00, 0x00, 0x00, 0x00, 0x00, 0x00, 0x00, 0x00, 0x00, 
.................... 0x00, 0x00, 0x00, 0x00, 0x00, 0x00, 0x00, 0x00, 0x00, 0x00, 0x00, 0x00, 0x00, 0x00, 0x00, 0x00, 
.................... 0x00, 0x00, 0x00, 0x00, 0x00, 0x00, 0x00, 0x00, 0x00, 0x00, 0x00, 0x00, 0x00, 0x00, 0x00, 0x00, 
.................... 0x00, 0x00, 0x00, 0x00, 0x00, 0x00, 0x00, 0x00, 0x00, 0x00, 0x00, 0x00, 0x00, 0x00, 0x00, 0x00, 
.................... 0x00, 0x00, 0x00, 0x00, 0x00, 0x00, 0x00, 0x00, 0x00, 0x00, 0x00, 0x00, 0x00, 0x00, 0x00, 0x00, 
.................... 0x00, 0x00, 0x00, 0x00, 0x00, 0x00, 0x00, 0x00, 0x00, 0x00, 0x00, 0x00, 0x00, 0x00, 0x00, 0x00, 
.................... 0x00, 0x00, 0x00, 0x00, 0x00, 0x00, 0x00, 0x00, 0x00, 0x00, 0x00, 0x00, 0x00, 0x00, 0x00, 0x00, 
.................... 0x00, 0x00, 0x00, 0x00, 0x00, 0x00, 0x00, 0x00, 0x00, 0x00, 0x00, 0x00, 0x00, 0x00, 0x00, 0x00, 
.................... 0x00, 0x00, 0x00, 0x00, 0x00, 0x00, 0x00, 0x00, 0x00, 0x00, 0x00, 0x00, 0x00, 0x00, 0x00, 0x00, 
.................... 0x00, 0x00, 0x00, 0x00, 0x00, 0x00, 0x00, 0x00, 0x00, 0x00, 0x00, 0x00, 0x00, 0x00, 0x00, 0x00, 
.................... 0x00, 0x00, 0x00, 0x00, 0x00, 0x00, 0x00, 0x00, 0x00, 0x00, 0x00, 0x00, 0x00, 0x00, 0x00, 0x00, 
.................... 0x00, 0x00, 0x00, 0x00, 0x00, 0x00, 0x00, 0x00, 0x00, 0x00, 0x00, 0x00, 0x00, 0x00, 0x00, 0x00, 
.................... 0x00, 0x00, 0x00, 0x00, 0x00, 0x00, 0x00, 0x00, 0x00, 0x00, 0x00, 0x00, 0x00, 0x00, 0x00, 0x00, 
.................... 0x00, 0x00, 0x00, 0x00, 0x00, 0x00, 0x00, 0x00, 0x00, 0x00, 0x00, 0x00, 0x00, 0x00, 0x00, 0x00, 
.................... 0x00, 0x00, 0x00, 0x00, 0x00, 0x00, 0x00, 0x00, 0x00, 0x00, 0x00, 0x00, 0x00, 0x00, 0x00, 0x00, 
.................... 0x00, 0x00, 0x00, 0x00, 0x00, 0x00, 0x00, 0x00, 0x00, 0x00, 0x00, 0x00, 0x00, 0x00, 0x00, 0x00, 
.................... 0x00, 0x00, 0x00, 0x00, 0x00, 0x00, 0x00, 0x00, 0x00, 0x00, 0x00, 0x00, 0x00, 0x00, 0x00, 0x00, 
.................... 0x00, 0x00, 0x00, 0x00, 0x00, 0x00, 0x00, 0x00, 0x00, 0x00, 0x00, 0x00, 0x00, 0x00, 0x00, 0x00, 
.................... 0x00, 0x00, 0x00, 0x00, 0x00, 0x00, 0x00, 0x00, 0x00, 0x00, 0x00, 0x00, 0x00, 0x00, 0x00, 0x00, 
.................... 0x00, 0x00, 0x00, 0x00, 0x00, 0x00, 0x00, 0x00, 0x00, 0x00, 0x00, 0x00, 0x00, 0x00, 0x00, 0x00, 
.................... 0x00, 0x00, 0x00, 0x00, 0x00, 0x00, 0x00, 0x00, 0x00, 0x00, 0x00, 0x00, 0x00, 0x00, 0x00, 0x00, 
.................... 0x00, 0x00, 0x00, 0x00, 0x00, 0x00, 0x00, 0x00, 0x00, 0x00, 0x00, 0x00, 0x00, 0x00, 0x00, 0x00, 
.................... 0x00, 0x00, 0x00, 0x00, 0x00, 0x00, 0x00, 0x00, 0x00, 0x00, 0x00, 0x00, 0x00, 0x00, 0x00, 0x00, 
.................... 0x00, 0x00, 0x00, 0x00, 0x00, 0x00, 0x00, 0x00, 0x00, 0x00, 0x00, 0x00, 0x00, 0x00, 0x00, 0x00 
.................... }; 
....................  
.................... const int8 Tomai [64][16] = { 
.................... 0x00, 0x00, 0x00, 0x00, 0x00, 0x00, 0x00, 0x00, 0x00, 0x00, 0x00, 0x00, 0x00, 0x00, 0x00, 0x00, 
.................... 0x00, 0x00, 0x00, 0x00, 0x00, 0x00, 0x00, 0x00, 0x00, 0x00, 0x00, 0x00, 0x00, 0x00, 0x00, 0x00, 
.................... 0x00, 0x00, 0x00, 0x00, 0x00, 0x00, 0x00, 0x00, 0x00, 0x00, 0x00, 0x00, 0x00, 0x00, 0x00, 0x00, 
.................... 0x00, 0x00, 0x00, 0x00, 0x00, 0x00, 0x00, 0x00, 0x00, 0x00, 0x00, 0x00, 0x00, 0x00, 0x00, 0x00, 
.................... 0x00, 0x00, 0x00, 0x00, 0x00, 0x00, 0x00, 0x00, 0x00, 0x00, 0x00, 0x00, 0x00, 0x00, 0x00, 0x00, 
.................... 0x00, 0x00, 0x00, 0x00, 0x00, 0x00, 0x00, 0x00, 0x00, 0x00, 0x00, 0x00, 0x00, 0x00, 0x00, 0x00, 
.................... 0x00, 0x00, 0x00, 0x00, 0x00, 0x00, 0x00, 0x00, 0x00, 0x00, 0x00, 0x00, 0x00, 0x00, 0x00, 0x00, 
.................... 0x00, 0x00, 0x00, 0x00, 0x00, 0x00, 0x00, 0x00, 0x00, 0x00, 0x00, 0x00, 0x00, 0x00, 0x00, 0x00, 
.................... 0x00, 0x00, 0x00, 0x00, 0x00, 0x00, 0x00, 0x00, 0x00, 0x00, 0x00, 0x00, 0x00, 0x00, 0x00, 0x00, 
.................... 0x00, 0x00, 0x00, 0x00, 0x00, 0x00, 0x00, 0x00, 0x00, 0x00, 0x00, 0x00, 0x00, 0x00, 0x00, 0x00, 
.................... 0x00, 0x00, 0x00, 0x00, 0x00, 0x00, 0x00, 0x00, 0x00, 0x00, 0x00, 0x00, 0x00, 0x00, 0x00, 0x00, 
.................... 0x00, 0x00, 0x00, 0x00, 0x00, 0x00, 0x00, 0x00, 0x00, 0x00, 0x00, 0x00, 0x00, 0x00, 0x00, 0x00, 
.................... 0x00, 0x00, 0x00, 0x00, 0x00, 0x00, 0x00, 0x00, 0x00, 0x00, 0x00, 0x00, 0x00, 0x00, 0x00, 0x00, 
.................... 0x00, 0x00, 0x00, 0x00, 0x00, 0x00, 0x00, 0x00, 0x00, 0x00, 0x00, 0x00, 0x00, 0x00, 0x00, 0x00, 
.................... 0x00, 0x00, 0x00, 0x00, 0x00, 0x00, 0x00, 0x00, 0x00, 0x00, 0x00, 0x00, 0x00, 0x00, 0x00, 0x00, 
.................... 0x00, 0x00, 0x00, 0x00, 0x00, 0x00, 0x00, 0x00, 0x00, 0x00, 0x00, 0x00, 0x00, 0x00, 0x00, 0x00, 
.................... 0x00, 0x00, 0x00, 0x00, 0x00, 0x00, 0x00, 0x00, 0x00, 0x00, 0x00, 0x00, 0x00, 0x00, 0x00, 0x00, 
.................... 0x00, 0x00, 0x00, 0x00, 0x00, 0x00, 0x00, 0x00, 0x00, 0x00, 0x00, 0x00, 0x00, 0x00, 0x00, 0x00, 
.................... 0x00, 0x00, 0x00, 0x00, 0x00, 0x00, 0x00, 0x00, 0x00, 0x00, 0x00, 0x00, 0x00, 0x00, 0x00, 0x00, 
.................... 0x00, 0x00, 0x00, 0x00, 0x00, 0x00, 0x00, 0x00, 0x00, 0x00, 0x00, 0x00, 0x00, 0x00, 0x00, 0x00, 
.................... 0x00, 0x00, 0x00, 0x00, 0x00, 0x00, 0x00, 0x00, 0x00, 0x00, 0x00, 0x00, 0x00, 0x00, 0x00, 0x00, 
.................... 0x00, 0x00, 0x00, 0x00, 0x00, 0x00, 0x00, 0x00, 0x00, 0x00, 0x00, 0x00, 0x00, 0x00, 0x00, 0x00, 
.................... 0x00, 0x00, 0x00, 0x00, 0x00, 0x00, 0x00, 0x00, 0x00, 0x00, 0x00, 0x00, 0x00, 0x00, 0x00, 0x00, 
.................... 0x00, 0x00, 0x00, 0x00, 0x00, 0x00, 0x00, 0x00, 0x00, 0x00, 0x00, 0x00, 0x00, 0x00, 0x00, 0x00, 
.................... 0x00, 0x00, 0x00, 0x00, 0x00, 0x00, 0x00, 0x00, 0x00, 0x00, 0x00, 0x00, 0x00, 0x00, 0x00, 0x00, 
.................... 0x00, 0x00, 0x00, 0x00, 0x00, 0x00, 0x00, 0x00, 0x00, 0x00, 0x00, 0x00, 0x00, 0x00, 0x00, 0x00, 
.................... 0x00, 0x00, 0x00, 0x00, 0x00, 0x00, 0x00, 0x00, 0x00, 0x00, 0x00, 0x00, 0x00, 0x00, 0x00, 0x00, 
.................... 0x00, 0x00, 0x00, 0x00, 0x00, 0x00, 0x00, 0x00, 0x00, 0x00, 0x00, 0x00, 0x00, 0x00, 0x00, 0x00, 
.................... 0x00, 0x00, 0x00, 0x00, 0x00, 0x00, 0x00, 0x00, 0x00, 0x00, 0x00, 0x00, 0x00, 0x00, 0x00, 0x00, 
.................... 0x00, 0x00, 0x00, 0x00, 0x00, 0x00, 0x00, 0x00, 0x00, 0x00, 0x00, 0x00, 0x00, 0x00, 0x00, 0x00, 
.................... 0x00, 0x00, 0x00, 0x00, 0x00, 0x00, 0x00, 0x00, 0x00, 0x00, 0x00, 0x00, 0x00, 0x7F, 0xFF, 0xF8, 
.................... 0x00, 0x00, 0x00, 0x00, 0x00, 0x00, 0x00, 0x00, 0x00, 0x00, 0x00, 0x00, 0x00, 0x40, 0x00, 0x08, 
.................... 0x00, 0x00, 0x00, 0x00, 0x00, 0x00, 0x00, 0x00, 0x00, 0x00, 0x00, 0x00, 0x00, 0x47, 0x03, 0x88, 
.................... 0x00, 0x00, 0x00, 0x00, 0x00, 0x00, 0x00, 0x00, 0x00, 0x00, 0x00, 0x00, 0x00, 0x45, 0x02, 0x88, 
.................... 0x00, 0x00, 0x00, 0x00, 0x00, 0x00, 0x00, 0x00, 0x00, 0x00, 0x00, 0x00, 0x00, 0x45, 0x02, 0x88, 
.................... 0x00, 0x00, 0x00, 0x00, 0x00, 0x00, 0x00, 0x00, 0x00, 0x00, 0x00, 0x00, 0x00, 0x45, 0x02, 0x88, 
.................... 0x00, 0x00, 0x00, 0x00, 0x00, 0x00, 0x00, 0x00, 0x00, 0x00, 0x00, 0x00, 0x00, 0x45, 0x02, 0x88, 
.................... 0x00, 0x00, 0x00, 0x00, 0x00, 0x00, 0x00, 0x00, 0x00, 0x00, 0x00, 0x00, 0x00, 0x47, 0x03, 0x88, 
.................... 0x00, 0x00, 0x00, 0x00, 0x00, 0x00, 0x00, 0x00, 0x00, 0x00, 0x00, 0x00, 0x00, 0x40, 0x00, 0x08, 
.................... 0x00, 0x00, 0x00, 0x00, 0x00, 0x00, 0x00, 0x00, 0x00, 0x00, 0x00, 0x00, 0x00, 0x40, 0xFC, 0x08, 
.................... 0x00, 0x00, 0x00, 0x00, 0x00, 0x00, 0x00, 0x00, 0x00, 0x00, 0x00, 0x00, 0x00, 0x40, 0x84, 0x08, 
.................... 0x00, 0x00, 0x00, 0x00, 0x00, 0x00, 0x00, 0x00, 0x00, 0x00, 0x00, 0x00, 0x00, 0x40, 0x84, 0x08, 
.................... 0x00, 0x00, 0x00, 0x00, 0x00, 0x00, 0x00, 0x00, 0x00, 0x00, 0x00, 0x00, 0x00, 0x40, 0xFC, 0x08, 
.................... 0x00, 0x00, 0x00, 0x00, 0x00, 0x00, 0x00, 0x00, 0x00, 0x00, 0x00, 0x00, 0x00, 0x40, 0x00, 0x08, 
.................... 0x00, 0x00, 0x00, 0x00, 0x00, 0x00, 0x00, 0x00, 0x00, 0x00, 0x00, 0x00, 0x00, 0x7F, 0xFF, 0xF8, 
.................... 0x00, 0x00, 0x00, 0x00, 0x00, 0x00, 0x00, 0x00, 0x00, 0x00, 0x00, 0x00, 0x00, 0x00, 0x00, 0x00, 
.................... 0x00, 0x00, 0x00, 0x00, 0x00, 0x00, 0x00, 0x00, 0x00, 0x00, 0x00, 0x00, 0x00, 0x00, 0x00, 0x00, 
.................... 0x00, 0x00, 0x00, 0x00, 0x00, 0x00, 0x00, 0x00, 0x00, 0x00, 0x00, 0x00, 0x00, 0x00, 0x00, 0x00, 
.................... 0x00, 0x00, 0x00, 0x00, 0x00, 0x00, 0x00, 0x00, 0x00, 0x00, 0x00, 0x00, 0x00, 0x00, 0x00, 0x00, 
.................... 0x00, 0x00, 0x00, 0x00, 0x00, 0x00, 0x00, 0x00, 0x00, 0x00, 0x00, 0x00, 0x00, 0x00, 0x00, 0x00, 
.................... 0x00, 0x00, 0x00, 0x00, 0x00, 0x00, 0x00, 0x00, 0x00, 0x00, 0x00, 0x00, 0x00, 0x00, 0x00, 0x00, 
.................... 0x00, 0x00, 0x00, 0x00, 0x00, 0x00, 0x00, 0x00, 0x00, 0x00, 0x00, 0x00, 0x00, 0x00, 0x00, 0x00, 
.................... 0x00, 0x00, 0x00, 0x00, 0x00, 0x00, 0x00, 0x00, 0x00, 0x00, 0x00, 0x00, 0x00, 0x00, 0x00, 0x00, 
.................... 0x00, 0x00, 0x00, 0x00, 0x00, 0x00, 0x00, 0x00, 0x00, 0x00, 0x00, 0x00, 0x00, 0x00, 0x00, 0x00, 
.................... 0x00, 0x00, 0x00, 0x00, 0x00, 0x00, 0x00, 0x00, 0x00, 0x00, 0x00, 0x00, 0x00, 0x00, 0x00, 0x00, 
.................... 0x00, 0x00, 0x00, 0x00, 0x00, 0x00, 0x00, 0x00, 0x00, 0x00, 0x00, 0x00, 0x00, 0x00, 0x00, 0x00, 
.................... 0x00, 0x00, 0x00, 0x00, 0x00, 0x00, 0x00, 0x00, 0x00, 0x00, 0x00, 0x00, 0x00, 0x00, 0x00, 0x00, 
.................... 0x00, 0x00, 0x00, 0x00, 0x00, 0x00, 0x00, 0x00, 0x00, 0x00, 0x00, 0x00, 0x00, 0x00, 0x00, 0x00, 
.................... 0x00, 0x00, 0x00, 0x00, 0x00, 0x00, 0x00, 0x00, 0x00, 0x00, 0x00, 0x00, 0x00, 0x00, 0x00, 0x00, 
.................... 0x00, 0x00, 0x00, 0x00, 0x00, 0x00, 0x00, 0x00, 0x00, 0x00, 0x00, 0x00, 0x00, 0x00, 0x00, 0x00, 
.................... 0x00, 0x00, 0x00, 0x00, 0x00, 0x00, 0x00, 0x00, 0x00, 0x00, 0x00, 0x00, 0x00, 0x00, 0x00, 0x00, 
.................... 0x00, 0x00, 0x00, 0x00, 0x00, 0x00, 0x00, 0x00, 0x00, 0x00, 0x00, 0x00, 0x00, 0x00, 0x00, 0x00, 
.................... 0x00, 0x00, 0x00, 0x00, 0x00, 0x00, 0x00, 0x00, 0x00, 0x00, 0x00, 0x00, 0x00, 0x00, 0x00, 0x00, 
.................... 0x00, 0x00, 0x00, 0x00, 0x00, 0x00, 0x00, 0x00, 0x00, 0x00, 0x00, 0x00, 0x00, 0x00, 0x00, 0x00 
.................... }; 
....................  
.................... const int8 Ventilador [64][16] = { 
.................... 0x00, 0x00, 0x00, 0x00, 0x00, 0x00, 0x00, 0x00, 0x00, 0x00, 0x00, 0x00, 0x00, 0x00, 0x00, 0x00, 
.................... 0x00, 0x00, 0x00, 0x00, 0x00, 0x00, 0x00, 0x00, 0x00, 0x00, 0x00, 0x00, 0x00, 0x00, 0x00, 0x00, 
.................... 0x00, 0x00, 0x00, 0x00, 0x00, 0x00, 0x00, 0x00, 0x00, 0x00, 0x00, 0x00, 0x00, 0x00, 0x00, 0x00, 
.................... 0x00, 0x00, 0x00, 0x00, 0x00, 0x00, 0x00, 0x00, 0x00, 0x00, 0x00, 0x00, 0x00, 0x00, 0x00, 0x00, 
.................... 0x00, 0x00, 0x00, 0x00, 0x00, 0x00, 0x00, 0x00, 0x00, 0x00, 0x00, 0x00, 0x00, 0x00, 0x00, 0x00, 
.................... 0x00, 0x00, 0x00, 0x00, 0x00, 0x00, 0x00, 0x00, 0x00, 0x00, 0x00, 0x00, 0x00, 0x00, 0x00, 0x00, 
.................... 0x00, 0x00, 0x00, 0x00, 0x00, 0x00, 0x00, 0x00, 0x00, 0x00, 0x00, 0x00, 0x00, 0x00, 0x00, 0x00, 
.................... 0x00, 0x00, 0x00, 0x00, 0x00, 0x00, 0x00, 0x00, 0x00, 0x00, 0x00, 0x00, 0x00, 0x00, 0x00, 0x00, 
.................... 0x00, 0x00, 0x00, 0x00, 0x00, 0x00, 0x00, 0x00, 0x00, 0x00, 0x00, 0x00, 0x00, 0x00, 0x00, 0x00, 
.................... 0x00, 0x00, 0x00, 0x00, 0x00, 0x00, 0x00, 0x00, 0x00, 0x00, 0x00, 0x00, 0x00, 0x00, 0x00, 0x00, 
.................... 0x00, 0x00, 0x00, 0x00, 0x00, 0x00, 0x00, 0x00, 0x00, 0x00, 0x00, 0x00, 0x00, 0x00, 0x00, 0x00, 
.................... 0x00, 0x00, 0x00, 0x00, 0x00, 0x00, 0x00, 0x00, 0x00, 0x00, 0x00, 0x00, 0x00, 0x00, 0x00, 0x00, 
.................... 0x00, 0x00, 0x00, 0x00, 0x00, 0x00, 0x00, 0x00, 0x00, 0x00, 0x00, 0x00, 0x00, 0x00, 0x00, 0x00, 
.................... 0x00, 0x00, 0x00, 0x00, 0x00, 0x00, 0x00, 0x00, 0x00, 0x00, 0x00, 0x00, 0x00, 0x00, 0x00, 0x00, 
.................... 0x00, 0x00, 0x00, 0x00, 0x00, 0x00, 0x00, 0x00, 0x00, 0x00, 0x00, 0x00, 0x00, 0x00, 0x00, 0x00, 
.................... 0x00, 0x00, 0x00, 0x00, 0x00, 0x00, 0x00, 0x00, 0x00, 0x00, 0x00, 0x00, 0x00, 0x00, 0x00, 0x00, 
.................... 0x00, 0x00, 0x00, 0x00, 0x00, 0x00, 0x00, 0x00, 0x00, 0x00, 0x00, 0x00, 0x00, 0x00, 0x00, 0x00, 
.................... 0x00, 0x00, 0x00, 0x00, 0x00, 0x00, 0x00, 0x00, 0x00, 0x00, 0x00, 0x00, 0x00, 0x00, 0x00, 0x00, 
.................... 0x00, 0x00, 0x00, 0x00, 0x00, 0x00, 0x00, 0x00, 0x00, 0x00, 0x00, 0x00, 0x00, 0x00, 0x00, 0x00, 
.................... 0x00, 0x00, 0x00, 0x00, 0x00, 0x00, 0x00, 0x00, 0x00, 0x00, 0x00, 0x00, 0x00, 0x00, 0x00, 0x00, 
.................... 0x00, 0x00, 0x00, 0x00, 0x00, 0x00, 0x00, 0x00, 0x00, 0x00, 0x00, 0x00, 0x00, 0x00, 0x00, 0x00, 
.................... 0x00, 0x00, 0x00, 0x00, 0x00, 0x00, 0x00, 0x00, 0x00, 0x00, 0x00, 0x00, 0x00, 0x00, 0x00, 0x00, 
.................... 0x00, 0x00, 0x00, 0x00, 0x00, 0x00, 0x00, 0x00, 0x00, 0x00, 0x00, 0x00, 0x00, 0x00, 0x00, 0x00, 
.................... 0x00, 0x00, 0x00, 0x00, 0x00, 0x00, 0x00, 0x00, 0x00, 0x00, 0x00, 0x00, 0x00, 0x00, 0x00, 0x00, 
.................... 0x00, 0x00, 0x00, 0x00, 0x00, 0x00, 0x00, 0x00, 0x00, 0x00, 0x00, 0x00, 0x00, 0x00, 0x00, 0x00, 
.................... 0x00, 0x00, 0x00, 0x00, 0x00, 0x00, 0x00, 0x00, 0x00, 0x00, 0x00, 0x00, 0x00, 0x00, 0x00, 0x00, 
.................... 0x00, 0x00, 0x00, 0x00, 0x00, 0x00, 0x00, 0x00, 0x00, 0x00, 0x00, 0x00, 0x00, 0x00, 0x00, 0x00, 
.................... 0x00, 0x00, 0x00, 0x00, 0x00, 0x00, 0x00, 0x00, 0x00, 0x00, 0x00, 0x00, 0x00, 0x00, 0x00, 0x00, 
.................... 0x00, 0x00, 0x00, 0x00, 0x00, 0x00, 0x00, 0x00, 0x00, 0x00, 0x00, 0x00, 0x00, 0x00, 0x00, 0x00, 
.................... 0x00, 0x00, 0x00, 0x00, 0x00, 0x00, 0x00, 0x00, 0x00, 0x00, 0x00, 0x00, 0x00, 0x00, 0x00, 0x00, 
.................... 0x00, 0x00, 0x00, 0x00, 0x00, 0x00, 0x00, 0x00, 0x00, 0x00, 0x00, 0x00, 0x00, 0x00, 0x00, 0x00, 
.................... 0x00, 0x00, 0x00, 0x00, 0x00, 0x00, 0x00, 0x00, 0x00, 0x00, 0x00, 0x00, 0x00, 0x00, 0x00, 0x00, 
.................... 0x00, 0x00, 0x00, 0x00, 0x00, 0x00, 0x00, 0x00, 0x00, 0x00, 0x00, 0x00, 0x00, 0x00, 0x00, 0x00, 
.................... 0x00, 0x00, 0x00, 0x00, 0x00, 0x00, 0x00, 0x00, 0x00, 0x00, 0x00, 0x00, 0x00, 0x00, 0x00, 0x00, 
.................... 0x00, 0x00, 0x00, 0x00, 0x00, 0x00, 0x00, 0x00, 0x00, 0x00, 0x00, 0x00, 0x00, 0x00, 0x00, 0x00, 
.................... 0x00, 0x00, 0x00, 0x00, 0x00, 0x00, 0x00, 0x00, 0x00, 0x00, 0x00, 0x00, 0x00, 0x00, 0x00, 0x00, 
.................... 0x00, 0x00, 0x00, 0x00, 0x00, 0x00, 0x00, 0x00, 0x00, 0x00, 0x00, 0x00, 0x00, 0x00, 0x00, 0x00, 
.................... 0x00, 0x00, 0x00, 0x00, 0x00, 0x00, 0x00, 0x00, 0x00, 0x00, 0x00, 0x00, 0x00, 0x00, 0x00, 0x00, 
.................... 0x00, 0x00, 0x00, 0x00, 0x00, 0x00, 0x00, 0x00, 0x00, 0x00, 0x00, 0x00, 0x00, 0x00, 0x00, 0x00, 
.................... 0x00, 0x00, 0x00, 0x00, 0x00, 0x00, 0x00, 0x00, 0x00, 0x00, 0x00, 0x00, 0x00, 0x00, 0x00, 0x00, 
.................... 0x00, 0x00, 0x00, 0x00, 0x00, 0x00, 0x00, 0x00, 0x00, 0x00, 0x00, 0x00, 0x00, 0x00, 0x00, 0x00, 
.................... 0x00, 0x00, 0x00, 0x00, 0x00, 0x00, 0x00, 0x00, 0x00, 0x00, 0x00, 0x00, 0x00, 0x00, 0x00, 0x00, 
.................... 0x00, 0x00, 0x00, 0x00, 0x00, 0x00, 0x00, 0x00, 0x00, 0x00, 0x00, 0x00, 0x00, 0x00, 0x00, 0x00, 
.................... 0x00, 0x00, 0x00, 0x00, 0x00, 0x00, 0x00, 0x00, 0x00, 0x00, 0x00, 0x00, 0x00, 0x00, 0x00, 0x00, 
.................... 0x00, 0x00, 0x00, 0x00, 0x00, 0x00, 0x00, 0x00, 0x00, 0x00, 0x00, 0x00, 0x00, 0x00, 0x00, 0x00, 
.................... 0x00, 0x00, 0x00, 0x00, 0x00, 0x00, 0x00, 0x00, 0x00, 0x00, 0x00, 0x00, 0x00, 0x00, 0x00, 0x00, 
.................... 0x00, 0x00, 0x00, 0x00, 0x00, 0x00, 0x00, 0x00, 0x00, 0x00, 0x00, 0x00, 0x00, 0x00, 0x60, 0x00, 
.................... 0x00, 0x00, 0x00, 0x00, 0x00, 0x00, 0x00, 0x00, 0x00, 0x00, 0x00, 0x00, 0x00, 0x00, 0xF0, 0x00, 
.................... 0x00, 0x00, 0x00, 0x00, 0x00, 0x00, 0x00, 0x00, 0x00, 0x00, 0x00, 0x00, 0x00, 0x01, 0xF8, 0x00, 
.................... 0x00, 0x00, 0x00, 0x00, 0x00, 0x00, 0x00, 0x00, 0x00, 0x00, 0x00, 0x00, 0x00, 0x01, 0xF8, 0x00, 
.................... 0x00, 0x00, 0x00, 0x00, 0x00, 0x00, 0x00, 0x00, 0x00, 0x00, 0x00, 0x00, 0x00, 0x01, 0xF8, 0x00, 
.................... 0x00, 0x00, 0x00, 0x00, 0x00, 0x00, 0x00, 0x00, 0x00, 0x00, 0x00, 0x00, 0x00, 0x00, 0xF0, 0x00, 
.................... 0x00, 0x00, 0x00, 0x00, 0x00, 0x00, 0x00, 0x00, 0x00, 0x00, 0x00, 0x00, 0x00, 0x38, 0x71, 0xC0, 
.................... 0x00, 0x00, 0x00, 0x00, 0x00, 0x00, 0x00, 0x00, 0x00, 0x00, 0x00, 0x00, 0x00, 0x7C, 0x93, 0xE0, 
.................... 0x00, 0x00, 0x00, 0x00, 0x00, 0x00, 0x00, 0x00, 0x00, 0x00, 0x00, 0x00, 0x00, 0xFF, 0x0F, 0xF0, 
.................... 0x00, 0x00, 0x00, 0x00, 0x00, 0x00, 0x00, 0x00, 0x00, 0x00, 0x00, 0x00, 0x00, 0xFF, 0x0F, 0xF0, 
.................... 0x00, 0x00, 0x00, 0x00, 0x00, 0x00, 0x00, 0x00, 0x00, 0x00, 0x00, 0x00, 0x00, 0x7D, 0x93, 0xE0, 
.................... 0x00, 0x00, 0x00, 0x00, 0x00, 0x00, 0x00, 0x00, 0x00, 0x00, 0x00, 0x00, 0x00, 0x38, 0x61, 0xC0, 
.................... 0x00, 0x00, 0x00, 0x00, 0x00, 0x00, 0x00, 0x00, 0x00, 0x00, 0x00, 0x00, 0x00, 0x00, 0xF0, 0x00, 
.................... 0x00, 0x00, 0x00, 0x00, 0x00, 0x00, 0x00, 0x00, 0x00, 0x00, 0x00, 0x00, 0x00, 0x01, 0xF8, 0x00, 
.................... 0x00, 0x00, 0x00, 0x00, 0x00, 0x00, 0x00, 0x00, 0x00, 0x00, 0x00, 0x00, 0x00, 0x01, 0xF8, 0x00, 
.................... 0x00, 0x00, 0x00, 0x00, 0x00, 0x00, 0x00, 0x00, 0x00, 0x00, 0x00, 0x00, 0x00, 0x01, 0xF8, 0x00, 
.................... 0x00, 0x00, 0x00, 0x00, 0x00, 0x00, 0x00, 0x00, 0x00, 0x00, 0x00, 0x00, 0x00, 0x00, 0xF0, 0x00, 
.................... 0x00, 0x00, 0x00, 0x00, 0x00, 0x00, 0x00, 0x00, 0x00, 0x00, 0x00, 0x00, 0x00, 0x00, 0x60, 0x00 
.................... }; 
....................  
.................... #include "FuncionesDisplay.h" 
....................  
.................... typedef struct{ 
....................    char Letra[20]; 
.................... }MENUU; 
....................  
.................... MENUU Menus; 
....................   
.................... void displayContrasena(int digito, int x, int y, int sombreado) 
.................... { 
....................    char voltage[9]; 
....................    sprintf(voltage, "%i", digito); 
*
04DF2:  MOVLW  05
04DF4:  MOVLB  4
04DF6:  MOVWF  x2C
04DF8:  MOVLW  FB
04DFA:  MOVWF  x2B
04DFC:  MOVFF  5F7,604
04E00:  MOVLW  1F
04E02:  MOVLB  6
04E04:  MOVWF  x05
04E06:  MOVLB  0
04E08:  RCALL  4B0E
....................     
....................    if(sombreado==1) 
04E0A:  MOVLB  5
04E0C:  DECFSZ xFA,W
04E0E:  BRA    4E6C
....................       {glcd_rect(x, y, x+18, y+24, YES, ON);glcd_text57(x+2, y+1, voltage, 2, OFF);} 
04E10:  MOVLW  12
04E12:  ADDWF  xF8,W
04E14:  MOVLB  6
04E16:  MOVWF  x04
04E18:  MOVLW  18
04E1A:  MOVLB  5
04E1C:  ADDWF  xF9,W
04E1E:  MOVLB  6
04E20:  MOVWF  x05
04E22:  MOVFF  5F8,606
04E26:  MOVFF  5F9,607
04E2A:  MOVFF  604,608
04E2E:  MOVWF  x09
04E30:  MOVLW  01
04E32:  MOVWF  x0A
04E34:  MOVWF  x0B
04E36:  MOVLB  0
04E38:  RCALL  4D2E
04E3A:  MOVLW  02
04E3C:  MOVLB  5
04E3E:  ADDWF  xF8,W
04E40:  MOVLB  6
04E42:  MOVWF  x04
04E44:  MOVLW  01
04E46:  MOVLB  5
04E48:  ADDWF  xF9,W
04E4A:  MOVLB  6
04E4C:  MOVWF  x05
04E4E:  MOVFF  604,606
04E52:  MOVWF  x07
04E54:  MOVLW  05
04E56:  MOVWF  x09
04E58:  MOVLW  FB
04E5A:  MOVWF  x08
04E5C:  MOVLW  02
04E5E:  MOVWF  x0A
04E60:  CLRF   x0B
04E62:  MOVLB  0
04E64:  CALL   18BE
....................    else    
04E68:  BRA    4EC4
04E6A:  MOVLB  5
....................       {glcd_rect(x, y, x+18, y+24, NO, OFF);glcd_text57(x+2, y+1, voltage, 2, ON);} 
04E6C:  MOVLW  12
04E6E:  ADDWF  xF8,W
04E70:  MOVLB  6
04E72:  MOVWF  x04
04E74:  MOVLW  18
04E76:  MOVLB  5
04E78:  ADDWF  xF9,W
04E7A:  MOVLB  6
04E7C:  MOVWF  x05
04E7E:  MOVFF  5F8,606
04E82:  MOVFF  5F9,607
04E86:  MOVFF  604,608
04E8A:  MOVWF  x09
04E8C:  CLRF   x0A
04E8E:  CLRF   x0B
04E90:  MOVLB  0
04E92:  RCALL  4D2E
04E94:  MOVLW  02
04E96:  MOVLB  5
04E98:  ADDWF  xF8,W
04E9A:  MOVLB  6
04E9C:  MOVWF  x04
04E9E:  MOVLW  01
04EA0:  MOVLB  5
04EA2:  ADDWF  xF9,W
04EA4:  MOVLB  6
04EA6:  MOVWF  x05
04EA8:  MOVFF  604,606
04EAC:  MOVWF  x07
04EAE:  MOVLW  05
04EB0:  MOVWF  x09
04EB2:  MOVLW  FB
04EB4:  MOVWF  x08
04EB6:  MOVLW  02
04EB8:  MOVWF  x0A
04EBA:  MOVLW  01
04EBC:  MOVWF  x0B
04EBE:  MOVLB  0
04EC0:  CALL   18BE
....................  
.................... } 
04EC4:  RETLW  00
....................  
.................... void displayTiempo(int digito, int x, int y, int sombreado, int tamano) 
.................... { 
....................    char voltage[9]; 
....................    sprintf(voltage, "%i", digito); 
*
0568A:  MOVLW  05
0568C:  MOVLB  4
0568E:  MOVWF  x2C
05690:  MOVLW  F2
05692:  MOVWF  x2B
05694:  MOVFF  5ED,604
05698:  MOVLW  1F
0569A:  MOVLB  6
0569C:  MOVWF  x05
0569E:  MOVLB  0
056A0:  CALL   4B0E
....................     
....................    if(sombreado==1) 
056A4:  MOVLB  5
056A6:  DECFSZ xF0,W
056A8:  BRA    570A
....................       {glcd_rect(x, y, x+(tamano*6), y+(tamano*8), YES, ON);glcd_text57(x+2, y+1, voltage, tamano, OFF);} 
056AA:  MOVF   xF1,W
056AC:  MULLW  06
056AE:  MOVF   FF3,W
056B0:  ADDWF  xEE,W
056B2:  MOVWF  xFB
056B4:  MOVF   xF1,W
056B6:  MULLW  08
056B8:  MOVF   FF3,W
056BA:  ADDWF  xEF,W
056BC:  MOVWF  xFC
056BE:  MOVFF  5EE,606
056C2:  MOVFF  5EF,607
056C6:  MOVFF  5FB,608
056CA:  MOVFF  FE8,609
056CE:  MOVLW  01
056D0:  MOVLB  6
056D2:  MOVWF  x0A
056D4:  MOVWF  x0B
056D6:  MOVLB  0
056D8:  CALL   4D2E
056DC:  MOVLW  02
056DE:  MOVLB  5
056E0:  ADDWF  xEE,W
056E2:  MOVWF  xFB
056E4:  MOVLW  01
056E6:  ADDWF  xEF,W
056E8:  MOVWF  xFC
056EA:  MOVFF  5FB,606
056EE:  MOVFF  FE8,607
056F2:  MOVLW  05
056F4:  MOVLB  6
056F6:  MOVWF  x09
056F8:  MOVLW  F2
056FA:  MOVWF  x08
056FC:  MOVFF  5F1,60A
05700:  CLRF   x0B
05702:  MOVLB  0
05704:  CALL   18BE
05708:  MOVLB  5
....................    if(sombreado==0) 
0570A:  MOVF   xF0,F
0570C:  BNZ   5770
....................       {glcd_rect(x, y, x+(tamano*6), y+(tamano*8), YES, OFF);glcd_text57(x+2, y+1, voltage, tamano, ON);} 
0570E:  MOVF   xF1,W
05710:  MULLW  06
05712:  MOVF   FF3,W
05714:  ADDWF  xEE,W
05716:  MOVWF  xFB
05718:  MOVF   xF1,W
0571A:  MULLW  08
0571C:  MOVF   FF3,W
0571E:  ADDWF  xEF,W
05720:  MOVWF  xFC
05722:  MOVFF  5EE,606
05726:  MOVFF  5EF,607
0572A:  MOVFF  5FB,608
0572E:  MOVFF  FE8,609
05732:  MOVLW  01
05734:  MOVLB  6
05736:  MOVWF  x0A
05738:  CLRF   x0B
0573A:  MOVLB  0
0573C:  CALL   4D2E
05740:  MOVLW  02
05742:  MOVLB  5
05744:  ADDWF  xEE,W
05746:  MOVWF  xFB
05748:  MOVLW  01
0574A:  ADDWF  xEF,W
0574C:  MOVWF  xFC
0574E:  MOVFF  5FB,606
05752:  MOVFF  FE8,607
05756:  MOVLW  05
05758:  MOVLB  6
0575A:  MOVWF  x09
0575C:  MOVLW  F2
0575E:  MOVWF  x08
05760:  MOVFF  5F1,60A
05764:  MOVLW  01
05766:  MOVWF  x0B
05768:  MOVLB  0
0576A:  CALL   18BE
0576E:  MOVLB  5
....................  
.................... } 
05770:  MOVLB  0
05772:  RETLW  00
....................  
.................... void displayMenu(char palabra[100], int x, int y, int sombreado, int tamano) 
.................... { 
....................    strcpy(Menus.Letra,palabra); 
*
04EC6:  MOVLB  5
04EC8:  MOVFF  5F5,01
04ECC:  MOVFF  5F6,03
04ED0:  MOVFF  5F5,5FB
04ED4:  MOVFF  5F6,5FC
04ED8:  MOVLW  04
04EDA:  MOVWF  FEA
04EDC:  MOVLW  17
04EDE:  MOVWF  FE9
04EE0:  MOVFF  5F6,FE2
04EE4:  MOVFF  5F5,FE1
04EE8:  MOVF   FE7,F
04EEA:  MOVFF  FE6,FEE
04EEE:  BNZ   4EE8
....................    if(sombreado==1) 
04EF0:  DECFSZ xF9,W
04EF2:  BRA    4F46
....................       {glcd_rect(0, y, 127, y+(tamano*8), YES, ON);glcd_text57(x+1, y+1, Menus.Letra, tamano, OFF);} 
04EF4:  MOVF   xFA,W
04EF6:  MULLW  08
04EF8:  MOVF   FF3,W
04EFA:  ADDWF  xF8,W
04EFC:  MOVWF  xFB
04EFE:  MOVLB  6
04F00:  CLRF   x06
04F02:  MOVFF  5F8,607
04F06:  MOVLW  7F
04F08:  MOVWF  x08
04F0A:  MOVFF  5FB,609
04F0E:  MOVLW  01
04F10:  MOVWF  x0A
04F12:  MOVWF  x0B
04F14:  MOVLB  0
04F16:  RCALL  4D2E
04F18:  MOVLW  01
04F1A:  MOVLB  5
04F1C:  ADDWF  xF7,W
04F1E:  MOVWF  xFB
04F20:  MOVLW  01
04F22:  ADDWF  xF8,W
04F24:  MOVWF  xFC
04F26:  MOVFF  5FB,606
04F2A:  MOVFF  FE8,607
04F2E:  MOVLW  04
04F30:  MOVLB  6
04F32:  MOVWF  x09
04F34:  MOVLW  17
04F36:  MOVWF  x08
04F38:  MOVFF  5FA,60A
04F3C:  CLRF   x0B
04F3E:  MOVLB  0
04F40:  CALL   18BE
04F44:  MOVLB  5
....................    if(sombreado==0) 
04F46:  MOVF   xF9,F
04F48:  BNZ   4F9E
....................       {glcd_rect(0, y, 127, y+(tamano*8), YES, OFF);glcd_text57(x+1, y+1, Menus.Letra, tamano, ON);} 
04F4A:  MOVF   xFA,W
04F4C:  MULLW  08
04F4E:  MOVF   FF3,W
04F50:  ADDWF  xF8,W
04F52:  MOVWF  xFB
04F54:  MOVLB  6
04F56:  CLRF   x06
04F58:  MOVFF  5F8,607
04F5C:  MOVLW  7F
04F5E:  MOVWF  x08
04F60:  MOVFF  5FB,609
04F64:  MOVLW  01
04F66:  MOVWF  x0A
04F68:  CLRF   x0B
04F6A:  MOVLB  0
04F6C:  RCALL  4D2E
04F6E:  MOVLW  01
04F70:  MOVLB  5
04F72:  ADDWF  xF7,W
04F74:  MOVWF  xFB
04F76:  MOVLW  01
04F78:  ADDWF  xF8,W
04F7A:  MOVWF  xFC
04F7C:  MOVFF  5FB,606
04F80:  MOVFF  FE8,607
04F84:  MOVLW  04
04F86:  MOVLB  6
04F88:  MOVWF  x09
04F8A:  MOVLW  17
04F8C:  MOVWF  x08
04F8E:  MOVFF  5FA,60A
04F92:  MOVLW  01
04F94:  MOVWF  x0B
04F96:  MOVLB  0
04F98:  CALL   18BE
04F9C:  MOVLB  5
....................  
.................... } 
04F9E:  MOVLB  0
04FA0:  RETLW  00
....................  
.................... void displayfloat2(float adc,int x,int y,int sombreado, int tamano) { 
....................    char voltage[9];     
....................       sprintf(voltage, "%2.0f C",adc); // Converts adc to text 
*
05C64:  MOVLW  05
05C66:  MOVLB  4
05C68:  MOVWF  x2C
05C6A:  MOVLW  F9
05C6C:  MOVWF  x2B
05C6E:  MOVLW  01
05C70:  MOVWF  FE9
05C72:  MOVFF  5F4,605
05C76:  MOVFF  5F3,604
05C7A:  MOVFF  5F2,603
05C7E:  MOVFF  5F1,602
05C82:  MOVLB  6
05C84:  CLRF   x06
05C86:  MOVLB  0
05C88:  RCALL  5838
05C8A:  MOVLW  20
05C8C:  MOVLB  6
05C8E:  MOVWF  x0F
05C90:  MOVLB  0
05C92:  CALL   4AEC
05C96:  MOVLW  43
05C98:  MOVLB  6
05C9A:  MOVWF  x0F
05C9C:  MOVLB  0
05C9E:  CALL   4AEC
....................        
....................    if(sombreado==1) 
05CA2:  MOVLB  5
05CA4:  DECFSZ xF7,W
05CA6:  BRA    5D32
....................       {glcd_rect(x, y, x+(tamano*20), y+(tamano*8), YES, ON);glcd_text57(x+2, y+1, voltage, tamano, OFF);glcd_circle(x+17,y+2,1,ON,OFF);} 
05CA8:  MOVF   xF8,W
05CAA:  MULLW  14
05CAC:  MOVF   FF3,W
05CAE:  ADDWF  xF5,W
05CB0:  MOVLB  6
05CB2:  MOVWF  x02
05CB4:  MOVLB  5
05CB6:  MOVF   xF8,W
05CB8:  MULLW  08
05CBA:  MOVF   FF3,W
05CBC:  ADDWF  xF6,W
05CBE:  MOVLB  6
05CC0:  MOVWF  x03
05CC2:  MOVFF  5F5,606
05CC6:  MOVFF  5F6,607
05CCA:  MOVFF  602,608
05CCE:  MOVWF  x09
05CD0:  MOVLW  01
05CD2:  MOVWF  x0A
05CD4:  MOVWF  x0B
05CD6:  MOVLB  0
05CD8:  CALL   4D2E
05CDC:  MOVLW  02
05CDE:  MOVLB  5
05CE0:  ADDWF  xF5,W
05CE2:  MOVLB  6
05CE4:  MOVWF  x02
05CE6:  MOVLW  01
05CE8:  MOVLB  5
05CEA:  ADDWF  xF6,W
05CEC:  MOVLB  6
05CEE:  MOVWF  x03
05CF0:  MOVFF  602,606
05CF4:  MOVWF  x07
05CF6:  MOVLW  05
05CF8:  MOVWF  x09
05CFA:  MOVLW  F9
05CFC:  MOVWF  x08
05CFE:  MOVFF  5F8,60A
05D02:  CLRF   x0B
05D04:  MOVLB  0
05D06:  CALL   18BE
05D0A:  MOVLW  11
05D0C:  MOVLB  5
05D0E:  ADDWF  xF5,W
05D10:  MOVLB  6
05D12:  MOVWF  x02
05D14:  MOVLW  02
05D16:  MOVLB  5
05D18:  ADDWF  xF6,W
05D1A:  MOVLB  6
05D1C:  MOVWF  x03
05D1E:  MOVFF  602,604
05D22:  MOVWF  x05
05D24:  MOVLW  01
05D26:  MOVWF  x06
05D28:  MOVWF  x07
05D2A:  CLRF   x08
05D2C:  MOVLB  0
05D2E:  RCALL  5A3A
05D30:  MOVLB  5
....................    if(sombreado==0) 
05D32:  MOVF   xF7,F
05D34:  BNZ   5DC2
....................       {glcd_rect(x, y, x+(tamano*20), y+(tamano*8), YES, OFF);glcd_text57(x+2, y+1, voltage, tamano, ON);glcd_circle(x+17,y+2,1,ON,ON);} 
05D36:  MOVF   xF8,W
05D38:  MULLW  14
05D3A:  MOVF   FF3,W
05D3C:  ADDWF  xF5,W
05D3E:  MOVLB  6
05D40:  MOVWF  x02
05D42:  MOVLB  5
05D44:  MOVF   xF8,W
05D46:  MULLW  08
05D48:  MOVF   FF3,W
05D4A:  ADDWF  xF6,W
05D4C:  MOVLB  6
05D4E:  MOVWF  x03
05D50:  MOVFF  5F5,606
05D54:  MOVFF  5F6,607
05D58:  MOVFF  602,608
05D5C:  MOVWF  x09
05D5E:  MOVLW  01
05D60:  MOVWF  x0A
05D62:  CLRF   x0B
05D64:  MOVLB  0
05D66:  CALL   4D2E
05D6A:  MOVLW  02
05D6C:  MOVLB  5
05D6E:  ADDWF  xF5,W
05D70:  MOVLB  6
05D72:  MOVWF  x02
05D74:  MOVLW  01
05D76:  MOVLB  5
05D78:  ADDWF  xF6,W
05D7A:  MOVLB  6
05D7C:  MOVWF  x03
05D7E:  MOVFF  602,606
05D82:  MOVWF  x07
05D84:  MOVLW  05
05D86:  MOVWF  x09
05D88:  MOVLW  F9
05D8A:  MOVWF  x08
05D8C:  MOVFF  5F8,60A
05D90:  MOVLW  01
05D92:  MOVWF  x0B
05D94:  MOVLB  0
05D96:  CALL   18BE
05D9A:  MOVLW  11
05D9C:  MOVLB  5
05D9E:  ADDWF  xF5,W
05DA0:  MOVLB  6
05DA2:  MOVWF  x02
05DA4:  MOVLW  02
05DA6:  MOVLB  5
05DA8:  ADDWF  xF6,W
05DAA:  MOVLB  6
05DAC:  MOVWF  x03
05DAE:  MOVFF  602,604
05DB2:  MOVWF  x05
05DB4:  MOVLW  01
05DB6:  MOVWF  x06
05DB8:  MOVWF  x07
05DBA:  MOVWF  x08
05DBC:  MOVLB  0
05DBE:  RCALL  5A3A
05DC0:  MOVLB  5
....................        
.................... } 
05DC2:  MOVLB  0
05DC4:  GOTO   749C (RETURN)
....................  
.................... void displayfloat(float adc,int x,int y,int sombreado, int tamano) { 
....................    char voltage[9];     
....................       sprintf(voltage, "%2.2f ",adc); // Converts adc to text 
*
05FF4:  MOVLW  05
05FF6:  MOVLB  4
05FF8:  MOVWF  x2C
05FFA:  MOVLW  F9
05FFC:  MOVWF  x2B
05FFE:  MOVLW  89
06000:  MOVWF  FE9
06002:  MOVFF  5F4,605
06006:  MOVFF  5F3,604
0600A:  MOVFF  5F2,603
0600E:  MOVFF  5F1,602
06012:  MOVLW  02
06014:  MOVLB  6
06016:  MOVWF  x06
06018:  MOVLB  0
0601A:  RCALL  5838
0601C:  MOVLW  20
0601E:  MOVLB  6
06020:  MOVWF  x0F
06022:  MOVLB  0
06024:  CALL   4AEC
....................        
....................    if(sombreado==1) 
06028:  MOVLB  5
0602A:  DECFSZ xF7,W
0602C:  BRA    6092
....................       {glcd_rect(x, y, x+(tamano*20), y+(tamano*8), YES, ON);glcd_text57(x+2, y+1, voltage, tamano, OFF);} 
0602E:  MOVF   xF8,W
06030:  MULLW  14
06032:  MOVF   FF3,W
06034:  ADDWF  xF5,W
06036:  MOVLB  6
06038:  MOVWF  x02
0603A:  MOVLB  5
0603C:  MOVF   xF8,W
0603E:  MULLW  08
06040:  MOVF   FF3,W
06042:  ADDWF  xF6,W
06044:  MOVLB  6
06046:  MOVWF  x03
06048:  MOVFF  5F5,606
0604C:  MOVFF  5F6,607
06050:  MOVFF  602,608
06054:  MOVWF  x09
06056:  MOVLW  01
06058:  MOVWF  x0A
0605A:  MOVWF  x0B
0605C:  MOVLB  0
0605E:  CALL   4D2E
06062:  MOVLW  02
06064:  MOVLB  5
06066:  ADDWF  xF5,W
06068:  MOVLB  6
0606A:  MOVWF  x02
0606C:  MOVLW  01
0606E:  MOVLB  5
06070:  ADDWF  xF6,W
06072:  MOVLB  6
06074:  MOVWF  x03
06076:  MOVFF  602,606
0607A:  MOVWF  x07
0607C:  MOVLW  05
0607E:  MOVWF  x09
06080:  MOVLW  F9
06082:  MOVWF  x08
06084:  MOVFF  5F8,60A
06088:  CLRF   x0B
0608A:  MOVLB  0
0608C:  CALL   18BE
06090:  MOVLB  5
....................    if(sombreado==0) 
06092:  MOVF   xF7,F
06094:  BNZ   60FC
....................       {glcd_rect(x, y, x+(tamano*20), y+(tamano*8), YES, OFF);glcd_text57(x+2, y+1, voltage, tamano, ON);} 
06096:  MOVF   xF8,W
06098:  MULLW  14
0609A:  MOVF   FF3,W
0609C:  ADDWF  xF5,W
0609E:  MOVLB  6
060A0:  MOVWF  x02
060A2:  MOVLB  5
060A4:  MOVF   xF8,W
060A6:  MULLW  08
060A8:  MOVF   FF3,W
060AA:  ADDWF  xF6,W
060AC:  MOVLB  6
060AE:  MOVWF  x03
060B0:  MOVFF  5F5,606
060B4:  MOVFF  5F6,607
060B8:  MOVFF  602,608
060BC:  MOVWF  x09
060BE:  MOVLW  01
060C0:  MOVWF  x0A
060C2:  CLRF   x0B
060C4:  MOVLB  0
060C6:  CALL   4D2E
060CA:  MOVLW  02
060CC:  MOVLB  5
060CE:  ADDWF  xF5,W
060D0:  MOVLB  6
060D2:  MOVWF  x02
060D4:  MOVLW  01
060D6:  MOVLB  5
060D8:  ADDWF  xF6,W
060DA:  MOVLB  6
060DC:  MOVWF  x03
060DE:  MOVFF  602,606
060E2:  MOVWF  x07
060E4:  MOVLW  05
060E6:  MOVWF  x09
060E8:  MOVLW  F9
060EA:  MOVWF  x08
060EC:  MOVFF  5F8,60A
060F0:  MOVLW  01
060F2:  MOVWF  x0B
060F4:  MOVLB  0
060F6:  CALL   18BE
060FA:  MOVLB  5
....................        
.................... } 
060FC:  MOVLB  0
060FE:  RETLW  00
....................  
.................... // Funcion para conversor analogo-digital 
.................... unsigned int16 sensores(int x){ 
.................... unsigned int16 y;set_adc_channel(x);delay_ms(1);y=read_adc();return (y); 
*
0303C:  MOVLB  5
0303E:  RLCF   xFE,W
03040:  MOVWF  00
03042:  RLCF   00,F
03044:  MOVLW  FC
03046:  ANDWF  00,F
03048:  MOVFF  00,01
0304C:  MOVF   FC2,W
0304E:  ANDLW  C3
03050:  IORWF  00,W
03052:  MOVWF  FC2
03054:  MOVLW  01
03056:  MOVLB  6
03058:  MOVWF  x01
0305A:  MOVLB  0
0305C:  CALL   1568
03060:  BSF    FC2.1
03062:  BTFSC  FC2.1
03064:  BRA    3062
03066:  MOVFF  FC4,600
0306A:  MOVFF  FC3,5FF
0306E:  MOVFF  5FF,01
03072:  MOVLB  6
03074:  MOVFF  600,02
.................... } 
03078:  MOVLB  0
0307A:  RETLW  00
....................  
....................  
.................... #define   UP               !input(PIN_A5) 
.................... #define   DOWN             !input(PIN_E0) 
.................... #define   RIGHT            !input(PIN_E1) 
.................... #define   LEFT             !input(PIN_E2) 
.................... #define   VIDRIOUP         !input(PIN_A4) 
.................... #define   VIDRIODN         !input(PIN_A3) 
....................  
.................... #define   Alarma_on           output_bit(PIN_C7,1) 
.................... #define   Alarma_off          output_bit(PIN_C7,0) 
.................... #define   LuzBlanca_on        output_bit(PIN_C0,1) 
.................... #define   LuzBlanca_off       output_bit(PIN_C0,0) 
.................... #define   LuzUV_on            output_bit(PIN_C1,1) 
.................... #define   LuzUV_off           output_bit(PIN_C1,0) 
.................... #define   Motor_on            output_bit(PIN_C2,1) 
.................... #define   Motor_off           output_bit(PIN_C2,0) 
.................... #define   Display_on          output_bit(PIN_B1,1) 
.................... #define   Display_off         output_bit(PIN_B1,0) 
....................  
.................... #define   PresDownFlow 2 
....................  
.................... short Flanco=0,Flanco1=0,Flanco2=0,Flanco3=0,Flanco4=0,Flanco5=0,imprimir=0,flag_blower=0,flag_toma=0,flag_luz=0,flag_alarma=0,w=0; 
.................... short tiempo_purga=0,tiempo_trabajo=0,flag_latencia=0,flag_uv=0,tiempo_uv=0,guardauv=0,tiempocumplido=1; 
.................... short guardatrabajo=0,Lectura=0,n=0; 
.................... char  JP[] = "JP Inglobal", Cabina[] = "Cabina Flujo Laminar",Dos_puntos[]=":"; 
.................... char  Clase[] = "   PCR", Tiempo[] = "Tiempo de Purga",UV[]="UV"; 
.................... char  Inflowt[] = "Vel:",Downflowt[] = "T:", ZF[] = "Fabrica:208.0", ZA[] = "Actual:",AJ[]="Ajuste:"; 
.................... char  Vida_Filtro[] = "Filtro:",ZFP[] = "Fabrica:240.0", Perdida[]="!Filtro Saturado!", Tempo[]="Tempo UV:",Vida_UV[] = "UVLife:"; 
.................... int8 Menu=200, unidad=1, Opcion=1,negativo=10,G_l=0,G_h=0,tiemporeset=0; 
.................... int8 q=0,r=0,l=0,h=0,Entero=0,Decimal1=0,Alarma=10; 
....................  
.................... unsigned int16 Inflow_adc=0,Filtro_Downflow_adc=0,Temporal1=0,segundos_uv=0; 
....................  
.................... int16 t_latencia=0,minutos_uv=0,minutos_trabajo=0,G16=0,tup=0,tdown=0,tright=0,tleft=0,tvidrio=0; 
.................... signed int  Tpurga[4]={0,0,0,0};       // Tiempo de Purga transcurrido 
.................... signed int  Tpurgap[4]={9,0,0,0};      // Tiempo de Purga programado 
.................... signed int  Tppurgap[4]={9,0,0,0};     // Tiempo de Post-Purga programado 
.................... signed int  Tuv[4]={0,0,0,0};          // Tiempo de UV transcurrido(en Horas) 
.................... signed int  Tempouvp[4]={0,0,0,0};        // Tiempo de UV transcurrido 
.................... signed int  Tempouv[4]={0,0,0,0};         // Tiempo de UV transcurrido 
.................... signed int  Ttrabajo[4]={0,0,0,0};        // Tiempo de trabajo transcurrido (en Horas) 
.................... signed int  Contrasena[4]={0,0,0,0};      // Contrasena de 4 digitos 
.................... signed int  Password[4]={0,0,0,0};        // Contrasena Almacenada de 4 digitos 
.................... float Inflow=0.0,Downflow=0.0,Filtro_Downflow=0.0,Diferencia=0.0,barra=0.0,barra_old=0.0; 
.................... float Velocidad=0.0,x_uno=0.0,x_cuadrado=0.0,x_cubo=0.0,Ajuste1=0.0,Ajuste2=0.0; 
.................... float Temporal=0.0,Temporal2=0.0; 
.................... float a=0.00000957915546738639,b=-0.00727819571978831,c= 1.85375754678451,d= -156.816806902063; 
.................... //float t=378.463968402560,f=-18275.0402762787;//Sensor 2 Posible bueno 
....................  
.................... float promedio[8]={0.0,0.0,0.0,0.0,0.0,0.0,0.0,0.0}; 
.................... float promedio2[8]={0.0,0.0,0.0,0.0,0.0,0.0,0.0,0.0}; 
.................... float PromPresion[8]={0.0,0.0,0.0,0.0,0.0,0.0,0.0,0.0}; 
.................... float Flujo=0.0,zero_fabrica=208.0,zero_actual=0.0; 
.................... float V1=0.0,Presion=0.0,G=2.0; 
....................  
.................... int16 pulsos=0,retardo=0; 
.................... int8 i=0,l2=0,h2=0,Temperatura=0; 
.................... short Cruce=OFF,Purga=OFF; 
.................... int16 tiempocruce=0; 
.................... int8 Porcentaje=0,VelMotor=0; 
.................... float Tcruce=0.0,Tcruce2=0; 
....................  
.................... #include "Funciones.h" 
.................... float Leer_Sensor_Presion(int media){ 
*
04896:  MOVLB  5
04898:  CLRF   xF1
0489A:  CLRF   xF0
0489C:  CLRF   xEF
0489E:  CLRF   xEE
048A0:  CLRF   xF5
048A2:  CLRF   xF4
048A4:  CLRF   xF3
048A6:  CLRF   xF2
048A8:  CLRF   xF9
048AA:  CLRF   xF8
048AC:  CLRF   xF7
048AE:  CLRF   xF6
048B0:  CLRF   xFD
048B2:  CLRF   xFC
048B4:  CLRF   xFB
048B6:  CLRF   xFA
....................    float promediopresion=0.0; 
....................    float VG=0.0,VS=0.0,G2=0.0; 
....................     
....................    Filtro_Downflow_adc=sensores(PresDownFlow); 
048B8:  MOVLW  02
048BA:  MOVWF  xFE
048BC:  MOVLB  0
048BE:  CALL   303C
048C2:  MOVFF  02,4DE
048C6:  MOVFF  01,4DD
....................    V1=Filtro_Downflow_adc;  
048CA:  MOVFF  4DE,623
048CE:  MOVFF  4DD,622
048D2:  CALL   1A76
048D6:  MOVFF  03,5D0
048DA:  MOVFF  02,5CF
048DE:  MOVFF  01,5CE
048E2:  MOVFF  00,5CD
....................     
....................    //-----------MPXV5004DP------------------//  
....................     
....................    Presion=(V1/G)-1.0;// Presion=(Voltaje/Ganancia)-1 
048E6:  MOVFF  5D0,621
048EA:  MOVFF  5CF,620
048EE:  MOVFF  5CE,61F
048F2:  MOVFF  5CD,61E
048F6:  MOVFF  5D8,625
048FA:  MOVFF  5D7,624
048FE:  MOVFF  5D6,623
04902:  MOVFF  5D5,622
04906:  CALL   1AAC
0490A:  MOVFF  00,5FE
0490E:  MOVFF  01,5FF
04912:  MOVFF  02,600
04916:  MOVFF  03,601
0491A:  BSF    FD8.1
0491C:  MOVFF  03,625
04920:  MOVFF  02,624
04924:  MOVFF  01,623
04928:  MOVFF  00,622
0492C:  MOVLB  6
0492E:  CLRF   x29
04930:  CLRF   x28
04932:  CLRF   x27
04934:  MOVLW  7F
04936:  MOVWF  x26
04938:  MOVLB  0
0493A:  CALL   1C0A
0493E:  MOVFF  03,5D4
04942:  MOVFF  02,5D3
04946:  MOVFF  01,5D2
0494A:  MOVFF  00,5D1
....................     
....................    //-----------MPXV7002DP------------------//  
....................    //VS = (V1*5.0)/1023.0;   //Lectura de Divisor de Voltaje de PT100 con resistencia de 1k (+-10%) 
....................    //G2=G; 
....................    //VG = (G2*5.0)/1023.0; 
....................    //Presion=(VS-VG);// Presion=(Voltaje/Ganancia)-1 
....................    //Presion=(V1/G)-1.0;// Presion=(Voltaje/Ganancia)-1 
....................     
....................    if(Presion<0.0) 
0494E:  MOVFF  5D4,621
04952:  MOVFF  5D3,620
04956:  MOVFF  5D2,61F
0495A:  MOVFF  5D1,61E
0495E:  MOVLB  6
04960:  CLRF   x25
04962:  CLRF   x24
04964:  CLRF   x23
04966:  CLRF   x22
04968:  MOVLB  0
0496A:  CALL   2610
0496E:  BNC   497A
....................    { 
....................       Presion=0.0; 
04970:  MOVLB  5
04972:  CLRF   xD4
04974:  CLRF   xD3
04976:  CLRF   xD2
04978:  CLRF   xD1
....................    } 
....................  
....................    if(r>media-1) 
0497A:  MOVLW  01
0497C:  MOVLB  5
0497E:  SUBWF  xED,W
04980:  MOVLB  4
04982:  SUBWF  xD5,W
04984:  BZ    498A
04986:  BNC   498A
....................    {r=0;} 
04988:  CLRF   xD5
....................    PromPresion[r]=Presion*4.02;r++; 
0498A:  MOVF   xD5,W
0498C:  MULLW  04
0498E:  MOVF   FF3,W
04990:  CLRF   03
04992:  ADDLW  A1
04994:  MOVWF  FE9
04996:  MOVLW  05
04998:  ADDWFC 03,W
0499A:  MOVWF  FEA
0499C:  MOVFF  5D4,621
049A0:  MOVFF  5D3,620
049A4:  MOVFF  5D2,61F
049A8:  MOVFF  5D1,61E
049AC:  MOVLW  D7
049AE:  MOVLB  6
049B0:  MOVWF  x25
049B2:  MOVLW  A3
049B4:  MOVWF  x24
049B6:  CLRF   x23
049B8:  MOVLW  81
049BA:  MOVWF  x22
049BC:  MOVLB  0
049BE:  CALL   30B8
049C2:  MOVFF  00,FEF
049C6:  MOVFF  01,FEC
049CA:  MOVFF  02,FEC
049CE:  MOVFF  03,FEC
049D2:  MOVLB  4
049D4:  INCF   xD5,F
....................           
....................    for(q=0;q<=(media-1);q++) 
049D6:  CLRF   xD4
049D8:  MOVLW  01
049DA:  MOVLB  5
049DC:  SUBWF  xED,W
049DE:  MOVLB  4
049E0:  SUBWF  xD4,W
049E2:  BZ    49E6
049E4:  BC    4A56
....................    { 
....................       promediopresion+=PromPresion[q]; 
049E6:  MOVF   xD4,W
049E8:  MULLW  04
049EA:  MOVF   FF3,W
049EC:  CLRF   03
049EE:  ADDLW  A1
049F0:  MOVWF  FE9
049F2:  MOVLW  05
049F4:  ADDWFC 03,W
049F6:  MOVWF  FEA
049F8:  MOVFF  FEF,00
049FC:  MOVFF  FEC,01
04A00:  MOVFF  FEC,02
04A04:  MOVFF  FEC,03
04A08:  MOVFF  FEA,5FF
04A0C:  MOVFF  FE9,5FE
04A10:  BCF    FD8.1
04A12:  MOVFF  5F1,625
04A16:  MOVFF  5F0,624
04A1A:  MOVFF  5EF,623
04A1E:  MOVFF  5EE,622
04A22:  MOVFF  03,629
04A26:  MOVFF  02,628
04A2A:  MOVFF  01,627
04A2E:  MOVFF  00,626
04A32:  MOVLB  0
04A34:  CALL   1C0A
04A38:  MOVFF  5FF,FEA
04A3C:  MOVFF  5FE,FE9
04A40:  MOVFF  03,5F1
04A44:  MOVFF  02,5F0
04A48:  MOVFF  01,5EF
04A4C:  MOVFF  00,5EE
....................    }  
04A50:  MOVLB  4
04A52:  INCF   xD4,F
04A54:  BRA    49D8
....................    promediopresion=promediopresion/media;    
04A56:  MOVLB  6
04A58:  CLRF   x23
04A5A:  MOVFF  5ED,622
04A5E:  MOVLB  0
04A60:  CALL   1A76
04A64:  MOVFF  5F1,621
04A68:  MOVFF  5F0,620
04A6C:  MOVFF  5EF,61F
04A70:  MOVFF  5EE,61E
04A74:  MOVFF  03,625
04A78:  MOVFF  02,624
04A7C:  MOVFF  01,623
04A80:  MOVFF  00,622
04A84:  CALL   1AAC
04A88:  MOVFF  03,5F1
04A8C:  MOVFF  02,5F0
04A90:  MOVFF  01,5EF
04A94:  MOVFF  00,5EE
....................     
....................    return promediopresion*Ajuste2; 
04A98:  MOVFF  5F1,621
04A9C:  MOVFF  5F0,620
04AA0:  MOVFF  5EF,61F
04AA4:  MOVFF  5EE,61E
04AA8:  MOVFF  548,625
04AAC:  MOVFF  547,624
04AB0:  MOVFF  546,623
04AB4:  MOVFF  545,622
04AB8:  CALL   30B8
.................... } 
04ABC:  GOTO   6790 (RETURN)
....................  
.................... float leeTemperatura(int8 media){ 
*
046C6:  MOVLB  5
046C8:  CLRF   xF1
046CA:  CLRF   xF0
046CC:  CLRF   xEF
046CE:  CLRF   xEE
046D0:  CLRF   xF5
046D2:  CLRF   xF4
046D4:  CLRF   xF3
046D6:  CLRF   xF2
046D8:  CLRF   xF9
046DA:  CLRF   xF8
046DC:  CLRF   xF7
046DE:  CLRF   xF6
046E0:  CLRF   xFD
046E2:  CLRF   xFC
046E4:  CLRF   xFB
046E6:  CLRF   xFA
....................    float ADC=0,V=0,T=0,Tempera=0; 
....................    ADC=sensores(0); 
046E8:  CLRF   xFE
046EA:  MOVLB  0
046EC:  CALL   303C
046F0:  MOVFF  02,623
046F4:  MOVFF  01,622
046F8:  CALL   1A76
046FC:  MOVFF  03,5F1
04700:  MOVFF  02,5F0
04704:  MOVFF  01,5EF
04708:  MOVFF  00,5EE
....................    V=5*ADC/1023; 
0470C:  MOVLB  6
0470E:  CLRF   x21
04710:  CLRF   x20
04712:  MOVLW  20
04714:  MOVWF  x1F
04716:  MOVLW  81
04718:  MOVWF  x1E
0471A:  MOVFF  5F1,625
0471E:  MOVFF  5F0,624
04722:  MOVFF  5EF,623
04726:  MOVFF  5EE,622
0472A:  MOVLB  0
0472C:  CALL   30B8
04730:  MOVFF  00,5FE
04734:  MOVFF  01,5FF
04738:  MOVFF  02,600
0473C:  MOVFF  03,601
04740:  MOVFF  03,621
04744:  MOVFF  02,620
04748:  MOVFF  01,61F
0474C:  MOVFF  00,61E
04750:  MOVLB  6
04752:  CLRF   x25
04754:  MOVLW  C0
04756:  MOVWF  x24
04758:  MOVLW  7F
0475A:  MOVWF  x23
0475C:  MOVLW  88
0475E:  MOVWF  x22
04760:  MOVLB  0
04762:  CALL   1AAC
04766:  MOVFF  03,5F5
0476A:  MOVFF  02,5F4
0476E:  MOVFF  01,5F3
04772:  MOVFF  00,5F2
....................    T=V/0.01; 
04776:  MOVFF  5F5,621
0477A:  MOVFF  5F4,620
0477E:  MOVFF  5F3,61F
04782:  MOVFF  5F2,61E
04786:  MOVLW  0A
04788:  MOVLB  6
0478A:  MOVWF  x25
0478C:  MOVLW  D7
0478E:  MOVWF  x24
04790:  MOVLW  23
04792:  MOVWF  x23
04794:  MOVLW  78
04796:  MOVWF  x22
04798:  MOVLB  0
0479A:  CALL   1AAC
0479E:  MOVFF  03,5F9
047A2:  MOVFF  02,5F8
047A6:  MOVFF  01,5F7
047AA:  MOVFF  00,5F6
....................    if(l2>media) 
047AE:  MOVLB  5
047B0:  MOVF   xDE,W
047B2:  SUBWF  xED,W
047B4:  BC    47B8
....................       l2=0; 
047B6:  CLRF   xDE
....................        
....................    promedio2[l2]=T;l2++; 
047B8:  MOVF   xDE,W
047BA:  MULLW  04
047BC:  MOVF   FF3,W
047BE:  CLRF   03
047C0:  ADDLW  81
047C2:  MOVWF  FE9
047C4:  MOVLW  05
047C6:  ADDWFC 03,W
047C8:  MOVWF  FEA
047CA:  MOVFF  5F6,FEF
047CE:  MOVFF  5F7,FEC
047D2:  MOVFF  5F8,FEC
047D6:  MOVFF  5F9,FEC
047DA:  INCF   xDE,F
....................    Tempera=0; 
047DC:  CLRF   xFD
047DE:  CLRF   xFC
047E0:  CLRF   xFB
047E2:  CLRF   xFA
....................       
....................      for(h2=0;h2<=(media-1);h2++){ 
047E4:  CLRF   xDF
047E6:  MOVLW  01
047E8:  SUBWF  xED,W
047EA:  SUBWF  xDF,W
047EC:  BZ    47F0
047EE:  BC    4860
....................         Tempera+=promedio2[h2]; 
047F0:  MOVF   xDF,W
047F2:  MULLW  04
047F4:  MOVF   FF3,W
047F6:  CLRF   03
047F8:  ADDLW  81
047FA:  MOVWF  FE9
047FC:  MOVLW  05
047FE:  ADDWFC 03,W
04800:  MOVWF  FEA
04802:  MOVFF  FEF,00
04806:  MOVFF  FEC,01
0480A:  MOVFF  FEC,02
0480E:  MOVFF  FEC,03
04812:  MOVFF  FEA,5FF
04816:  MOVFF  FE9,5FE
0481A:  BCF    FD8.1
0481C:  MOVFF  5FD,625
04820:  MOVFF  5FC,624
04824:  MOVFF  5FB,623
04828:  MOVFF  5FA,622
0482C:  MOVFF  03,629
04830:  MOVFF  02,628
04834:  MOVFF  01,627
04838:  MOVFF  00,626
0483C:  MOVLB  0
0483E:  CALL   1C0A
04842:  MOVFF  5FF,FEA
04846:  MOVFF  5FE,FE9
0484A:  MOVFF  03,5FD
0484E:  MOVFF  02,5FC
04852:  MOVFF  01,5FB
04856:  MOVFF  00,5FA
....................      }       
0485A:  MOVLB  5
0485C:  INCF   xDF,F
0485E:  BRA    47E6
....................    return Tempera/media; 
04860:  MOVLB  6
04862:  CLRF   x23
04864:  MOVFF  5ED,622
04868:  MOVLB  0
0486A:  CALL   1A76
0486E:  MOVFF  5FD,621
04872:  MOVFF  5FC,620
04876:  MOVFF  5FB,61F
0487A:  MOVFF  5FA,61E
0487E:  MOVFF  03,625
04882:  MOVFF  02,624
04886:  MOVFF  01,623
0488A:  MOVFF  00,622
0488E:  CALL   1AAC
.................... } 
04892:  GOTO   676C (RETURN)
....................  
.................... void LeeEEPROM(void){ 
....................    Password[0]=read_eeprom(0); 
*
01E82:  MOVFF  FF2,5ED
01E86:  BCF    FF2.7
01E88:  CLRF   FAA
01E8A:  CLRF   FA9
01E8C:  BCF    FA6.6
01E8E:  BCF    FA6.7
01E90:  BSF    FA6.0
01E92:  MOVF   FA8,W
01E94:  MOVLB  5
01E96:  BTFSC  xED.7
01E98:  BSF    FF2.7
01E9A:  MOVWF  x15
....................    delay_ms(10); 
01E9C:  MOVLW  0A
01E9E:  MOVLB  6
01EA0:  MOVWF  x01
01EA2:  MOVLB  0
01EA4:  CALL   1568
....................    Password[1]=read_eeprom(1); 
01EA8:  MOVFF  FF2,5ED
01EAC:  BCF    FF2.7
01EAE:  CLRF   FAA
01EB0:  MOVLW  01
01EB2:  MOVWF  FA9
01EB4:  BCF    FA6.6
01EB6:  BCF    FA6.7
01EB8:  BSF    FA6.0
01EBA:  MOVF   FA8,W
01EBC:  MOVLB  5
01EBE:  BTFSC  xED.7
01EC0:  BSF    FF2.7
01EC2:  MOVWF  x16
....................    delay_ms(10); 
01EC4:  MOVLW  0A
01EC6:  MOVLB  6
01EC8:  MOVWF  x01
01ECA:  MOVLB  0
01ECC:  CALL   1568
....................    Password[2]=read_eeprom(2); 
01ED0:  MOVFF  FF2,5ED
01ED4:  BCF    FF2.7
01ED6:  CLRF   FAA
01ED8:  MOVLW  02
01EDA:  MOVWF  FA9
01EDC:  BCF    FA6.6
01EDE:  BCF    FA6.7
01EE0:  BSF    FA6.0
01EE2:  MOVF   FA8,W
01EE4:  MOVLB  5
01EE6:  BTFSC  xED.7
01EE8:  BSF    FF2.7
01EEA:  MOVWF  x17
....................    delay_ms(10); 
01EEC:  MOVLW  0A
01EEE:  MOVLB  6
01EF0:  MOVWF  x01
01EF2:  MOVLB  0
01EF4:  CALL   1568
....................    Password[3]=read_eeprom(3); 
01EF8:  MOVFF  FF2,5ED
01EFC:  BCF    FF2.7
01EFE:  CLRF   FAA
01F00:  MOVLW  03
01F02:  MOVWF  FA9
01F04:  BCF    FA6.6
01F06:  BCF    FA6.7
01F08:  BSF    FA6.0
01F0A:  MOVF   FA8,W
01F0C:  MOVLB  5
01F0E:  BTFSC  xED.7
01F10:  BSF    FF2.7
01F12:  MOVWF  x18
....................    delay_ms(10); 
01F14:  MOVLW  0A
01F16:  MOVLB  6
01F18:  MOVWF  x01
01F1A:  MOVLB  0
01F1C:  CALL   1568
....................    Tpurgap[0]=read_eeprom(4); 
01F20:  MOVFF  FF2,5ED
01F24:  BCF    FF2.7
01F26:  CLRF   FAA
01F28:  MOVLW  04
01F2A:  MOVWF  FA9
01F2C:  BCF    FA6.6
01F2E:  BCF    FA6.7
01F30:  BSF    FA6.0
01F32:  MOVF   FA8,W
01F34:  MOVLB  5
01F36:  BTFSC  xED.7
01F38:  BSF    FF2.7
01F3A:  MOVLB  4
01F3C:  MOVWF  xF9
....................    delay_ms(10); 
01F3E:  MOVLW  0A
01F40:  MOVLB  6
01F42:  MOVWF  x01
01F44:  MOVLB  0
01F46:  CALL   1568
....................    Tpurgap[1]=read_eeprom(5); 
01F4A:  MOVFF  FF2,5ED
01F4E:  BCF    FF2.7
01F50:  CLRF   FAA
01F52:  MOVLW  05
01F54:  MOVWF  FA9
01F56:  BCF    FA6.6
01F58:  BCF    FA6.7
01F5A:  BSF    FA6.0
01F5C:  MOVF   FA8,W
01F5E:  MOVLB  5
01F60:  BTFSC  xED.7
01F62:  BSF    FF2.7
01F64:  MOVLB  4
01F66:  MOVWF  xFA
....................    delay_ms(10); 
01F68:  MOVLW  0A
01F6A:  MOVLB  6
01F6C:  MOVWF  x01
01F6E:  MOVLB  0
01F70:  CALL   1568
....................    Tpurgap[2]=read_eeprom(6); 
01F74:  MOVFF  FF2,5ED
01F78:  BCF    FF2.7
01F7A:  CLRF   FAA
01F7C:  MOVLW  06
01F7E:  MOVWF  FA9
01F80:  BCF    FA6.6
01F82:  BCF    FA6.7
01F84:  BSF    FA6.0
01F86:  MOVF   FA8,W
01F88:  MOVLB  5
01F8A:  BTFSC  xED.7
01F8C:  BSF    FF2.7
01F8E:  MOVLB  4
01F90:  MOVWF  xFB
....................    delay_ms(10); 
01F92:  MOVLW  0A
01F94:  MOVLB  6
01F96:  MOVWF  x01
01F98:  MOVLB  0
01F9A:  CALL   1568
....................    Tpurgap[3]=read_eeprom(7); 
01F9E:  MOVFF  FF2,5ED
01FA2:  BCF    FF2.7
01FA4:  CLRF   FAA
01FA6:  MOVLW  07
01FA8:  MOVWF  FA9
01FAA:  BCF    FA6.6
01FAC:  BCF    FA6.7
01FAE:  BSF    FA6.0
01FB0:  MOVF   FA8,W
01FB2:  MOVLB  5
01FB4:  BTFSC  xED.7
01FB6:  BSF    FF2.7
01FB8:  MOVLB  4
01FBA:  MOVWF  xFC
....................    delay_ms(10); 
01FBC:  MOVLW  0A
01FBE:  MOVLB  6
01FC0:  MOVWF  x01
01FC2:  MOVLB  0
01FC4:  CALL   1568
....................    Tppurgap[0]=read_eeprom(8); 
01FC8:  MOVFF  FF2,5ED
01FCC:  BCF    FF2.7
01FCE:  CLRF   FAA
01FD0:  MOVLW  08
01FD2:  MOVWF  FA9
01FD4:  BCF    FA6.6
01FD6:  BCF    FA6.7
01FD8:  BSF    FA6.0
01FDA:  MOVF   FA8,W
01FDC:  MOVLB  5
01FDE:  BTFSC  xED.7
01FE0:  BSF    FF2.7
01FE2:  MOVLB  4
01FE4:  MOVWF  xFD
....................    delay_ms(10); 
01FE6:  MOVLW  0A
01FE8:  MOVLB  6
01FEA:  MOVWF  x01
01FEC:  MOVLB  0
01FEE:  CALL   1568
....................    Tppurgap[1]=read_eeprom(9); 
01FF2:  MOVFF  FF2,5ED
01FF6:  BCF    FF2.7
01FF8:  CLRF   FAA
01FFA:  MOVLW  09
01FFC:  MOVWF  FA9
01FFE:  BCF    FA6.6
02000:  BCF    FA6.7
02002:  BSF    FA6.0
02004:  MOVF   FA8,W
02006:  MOVLB  5
02008:  BTFSC  xED.7
0200A:  BSF    FF2.7
0200C:  MOVLB  4
0200E:  MOVWF  xFE
....................    delay_ms(10); 
02010:  MOVLW  0A
02012:  MOVLB  6
02014:  MOVWF  x01
02016:  MOVLB  0
02018:  CALL   1568
....................    Tppurgap[2]=read_eeprom(10); 
0201C:  MOVFF  FF2,5ED
02020:  BCF    FF2.7
02022:  CLRF   FAA
02024:  MOVLW  0A
02026:  MOVWF  FA9
02028:  BCF    FA6.6
0202A:  BCF    FA6.7
0202C:  BSF    FA6.0
0202E:  MOVF   FA8,W
02030:  MOVLB  5
02032:  BTFSC  xED.7
02034:  BSF    FF2.7
02036:  MOVLB  4
02038:  MOVWF  xFF
....................    delay_ms(10); 
0203A:  MOVLW  0A
0203C:  MOVLB  6
0203E:  MOVWF  x01
02040:  MOVLB  0
02042:  CALL   1568
....................    Tppurgap[3]=read_eeprom(11); 
02046:  MOVFF  FF2,5ED
0204A:  BCF    FF2.7
0204C:  CLRF   FAA
0204E:  MOVLW  0B
02050:  MOVWF  FA9
02052:  BCF    FA6.6
02054:  BCF    FA6.7
02056:  BSF    FA6.0
02058:  MOVF   FA8,W
0205A:  MOVLB  5
0205C:  BTFSC  xED.7
0205E:  BSF    FF2.7
02060:  MOVWF  x00
....................    delay_ms(10); 
02062:  MOVLW  0A
02064:  MOVLB  6
02066:  MOVWF  x01
02068:  MOVLB  0
0206A:  CALL   1568
....................    Tuv[0]=read_eeprom(12); 
0206E:  MOVFF  FF2,5ED
02072:  BCF    FF2.7
02074:  CLRF   FAA
02076:  MOVLW  0C
02078:  MOVWF  FA9
0207A:  BCF    FA6.6
0207C:  BCF    FA6.7
0207E:  BSF    FA6.0
02080:  MOVF   FA8,W
02082:  MOVLB  5
02084:  BTFSC  xED.7
02086:  BSF    FF2.7
02088:  MOVWF  x01
....................    delay_ms(10); 
0208A:  MOVLW  0A
0208C:  MOVLB  6
0208E:  MOVWF  x01
02090:  MOVLB  0
02092:  CALL   1568
....................    Tuv[1]=read_eeprom(13); 
02096:  MOVFF  FF2,5ED
0209A:  BCF    FF2.7
0209C:  CLRF   FAA
0209E:  MOVLW  0D
020A0:  MOVWF  FA9
020A2:  BCF    FA6.6
020A4:  BCF    FA6.7
020A6:  BSF    FA6.0
020A8:  MOVF   FA8,W
020AA:  MOVLB  5
020AC:  BTFSC  xED.7
020AE:  BSF    FF2.7
020B0:  MOVWF  x02
....................    delay_ms(10); 
020B2:  MOVLW  0A
020B4:  MOVLB  6
020B6:  MOVWF  x01
020B8:  MOVLB  0
020BA:  CALL   1568
....................    Tuv[2]=read_eeprom(14); 
020BE:  MOVFF  FF2,5ED
020C2:  BCF    FF2.7
020C4:  CLRF   FAA
020C6:  MOVLW  0E
020C8:  MOVWF  FA9
020CA:  BCF    FA6.6
020CC:  BCF    FA6.7
020CE:  BSF    FA6.0
020D0:  MOVF   FA8,W
020D2:  MOVLB  5
020D4:  BTFSC  xED.7
020D6:  BSF    FF2.7
020D8:  MOVWF  x03
....................    delay_ms(10); 
020DA:  MOVLW  0A
020DC:  MOVLB  6
020DE:  MOVWF  x01
020E0:  MOVLB  0
020E2:  CALL   1568
....................    Tuv[3]=read_eeprom(15); 
020E6:  MOVFF  FF2,5ED
020EA:  BCF    FF2.7
020EC:  CLRF   FAA
020EE:  MOVLW  0F
020F0:  MOVWF  FA9
020F2:  BCF    FA6.6
020F4:  BCF    FA6.7
020F6:  BSF    FA6.0
020F8:  MOVF   FA8,W
020FA:  MOVLB  5
020FC:  BTFSC  xED.7
020FE:  BSF    FF2.7
02100:  MOVWF  x04
....................    delay_ms(10); 
02102:  MOVLW  0A
02104:  MOVLB  6
02106:  MOVWF  x01
02108:  MOVLB  0
0210A:  CALL   1568
....................    Ttrabajo[0]=read_eeprom(16); 
0210E:  MOVFF  FF2,5ED
02112:  BCF    FF2.7
02114:  CLRF   FAA
02116:  MOVLW  10
02118:  MOVWF  FA9
0211A:  BCF    FA6.6
0211C:  BCF    FA6.7
0211E:  BSF    FA6.0
02120:  MOVF   FA8,W
02122:  MOVLB  5
02124:  BTFSC  xED.7
02126:  BSF    FF2.7
02128:  MOVWF  x0D
....................    delay_ms(10); 
0212A:  MOVLW  0A
0212C:  MOVLB  6
0212E:  MOVWF  x01
02130:  MOVLB  0
02132:  CALL   1568
....................    Ttrabajo[1]=read_eeprom(17); 
02136:  MOVFF  FF2,5ED
0213A:  BCF    FF2.7
0213C:  CLRF   FAA
0213E:  MOVLW  11
02140:  MOVWF  FA9
02142:  BCF    FA6.6
02144:  BCF    FA6.7
02146:  BSF    FA6.0
02148:  MOVF   FA8,W
0214A:  MOVLB  5
0214C:  BTFSC  xED.7
0214E:  BSF    FF2.7
02150:  MOVWF  x0E
....................    delay_ms(10); 
02152:  MOVLW  0A
02154:  MOVLB  6
02156:  MOVWF  x01
02158:  MOVLB  0
0215A:  CALL   1568
....................    Ttrabajo[2]=read_eeprom(18); 
0215E:  MOVFF  FF2,5ED
02162:  BCF    FF2.7
02164:  CLRF   FAA
02166:  MOVLW  12
02168:  MOVWF  FA9
0216A:  BCF    FA6.6
0216C:  BCF    FA6.7
0216E:  BSF    FA6.0
02170:  MOVF   FA8,W
02172:  MOVLB  5
02174:  BTFSC  xED.7
02176:  BSF    FF2.7
02178:  MOVWF  x0F
....................    delay_ms(10); 
0217A:  MOVLW  0A
0217C:  MOVLB  6
0217E:  MOVWF  x01
02180:  MOVLB  0
02182:  CALL   1568
....................    Ttrabajo[3]=read_eeprom(19); 
02186:  MOVFF  FF2,5ED
0218A:  BCF    FF2.7
0218C:  CLRF   FAA
0218E:  MOVLW  13
02190:  MOVWF  FA9
02192:  BCF    FA6.6
02194:  BCF    FA6.7
02196:  BSF    FA6.0
02198:  MOVF   FA8,W
0219A:  MOVLB  5
0219C:  BTFSC  xED.7
0219E:  BSF    FF2.7
021A0:  MOVWF  x10
....................    delay_ms(10); 
021A2:  MOVLW  0A
021A4:  MOVLB  6
021A6:  MOVWF  x01
021A8:  MOVLB  0
021AA:  CALL   1568
....................    //flag_alarma=read_eeprom(20); 
....................    //delay_ms(10); 
....................    Tempouvp[0]=read_eeprom(21); 
021AE:  MOVFF  FF2,5ED
021B2:  BCF    FF2.7
021B4:  CLRF   FAA
021B6:  MOVLW  15
021B8:  MOVWF  FA9
021BA:  BCF    FA6.6
021BC:  BCF    FA6.7
021BE:  BSF    FA6.0
021C0:  MOVF   FA8,W
021C2:  MOVLB  5
021C4:  BTFSC  xED.7
021C6:  BSF    FF2.7
021C8:  MOVWF  x05
....................    delay_ms(10); 
021CA:  MOVLW  0A
021CC:  MOVLB  6
021CE:  MOVWF  x01
021D0:  MOVLB  0
021D2:  CALL   1568
....................    Tempouvp[1]=read_eeprom(22); 
021D6:  MOVFF  FF2,5ED
021DA:  BCF    FF2.7
021DC:  CLRF   FAA
021DE:  MOVLW  16
021E0:  MOVWF  FA9
021E2:  BCF    FA6.6
021E4:  BCF    FA6.7
021E6:  BSF    FA6.0
021E8:  MOVF   FA8,W
021EA:  MOVLB  5
021EC:  BTFSC  xED.7
021EE:  BSF    FF2.7
021F0:  MOVWF  x06
....................    delay_ms(10); 
021F2:  MOVLW  0A
021F4:  MOVLB  6
021F6:  MOVWF  x01
021F8:  MOVLB  0
021FA:  CALL   1568
....................    Tempouvp[2]=read_eeprom(23); 
021FE:  MOVFF  FF2,5ED
02202:  BCF    FF2.7
02204:  CLRF   FAA
02206:  MOVLW  17
02208:  MOVWF  FA9
0220A:  BCF    FA6.6
0220C:  BCF    FA6.7
0220E:  BSF    FA6.0
02210:  MOVF   FA8,W
02212:  MOVLB  5
02214:  BTFSC  xED.7
02216:  BSF    FF2.7
02218:  MOVWF  x07
....................    delay_ms(10); 
0221A:  MOVLW  0A
0221C:  MOVLB  6
0221E:  MOVWF  x01
02220:  MOVLB  0
02222:  CALL   1568
....................    Tempouvp[3]=read_eeprom(24); 
02226:  MOVFF  FF2,5ED
0222A:  BCF    FF2.7
0222C:  CLRF   FAA
0222E:  MOVLW  18
02230:  MOVWF  FA9
02232:  BCF    FA6.6
02234:  BCF    FA6.7
02236:  BSF    FA6.0
02238:  MOVF   FA8,W
0223A:  MOVLB  5
0223C:  BTFSC  xED.7
0223E:  BSF    FF2.7
02240:  MOVWF  x08
....................     
....................    delay_ms(10); 
02242:  MOVLW  0A
02244:  MOVLB  6
02246:  MOVWF  x01
02248:  MOVLB  0
0224A:  CALL   1568
....................    Entero=read_eeprom(25);//Decimal1=read_eeprom(26); 
0224E:  MOVFF  FF2,5ED
02252:  BCF    FF2.7
02254:  CLRF   FAA
02256:  MOVLW  19
02258:  MOVWF  FA9
0225A:  BCF    FA6.6
0225C:  BCF    FA6.7
0225E:  BSF    FA6.0
02260:  MOVF   FA8,W
02262:  MOVLB  5
02264:  BTFSC  xED.7
02266:  BSF    FF2.7
02268:  MOVLB  4
0226A:  MOVWF  xD8
....................    delay_ms(10); 
0226C:  MOVLW  0A
0226E:  MOVLB  6
02270:  MOVWF  x01
02272:  MOVLB  0
02274:  CALL   1568
....................    Temporal=read_eeprom(26); 
02278:  MOVFF  FF2,5ED
0227C:  BCF    FF2.7
0227E:  CLRF   FAA
02280:  MOVLW  1A
02282:  MOVWF  FA9
02284:  BCF    FA6.6
02286:  BCF    FA6.7
02288:  BSF    FA6.0
0228A:  MOVF   FA8,W
0228C:  MOVLB  5
0228E:  BTFSC  xED.7
02290:  BSF    FF2.7
02292:  MOVLB  6
02294:  CLRF   x23
02296:  MOVWF  x22
02298:  MOVLB  0
0229A:  CALL   1A76
0229E:  MOVFF  03,54C
022A2:  MOVFF  02,54B
022A6:  MOVFF  01,54A
022AA:  MOVFF  00,549
....................    delay_ms(10); 
022AE:  MOVLW  0A
022B0:  MOVLB  6
022B2:  MOVWF  x01
022B4:  MOVLB  0
022B6:  CALL   1568
....................    Temporal=Temporal/10.0; 
022BA:  MOVFF  54C,621
022BE:  MOVFF  54B,620
022C2:  MOVFF  54A,61F
022C6:  MOVFF  549,61E
022CA:  MOVLB  6
022CC:  CLRF   x25
022CE:  CLRF   x24
022D0:  MOVLW  20
022D2:  MOVWF  x23
022D4:  MOVLW  82
022D6:  MOVWF  x22
022D8:  MOVLB  0
022DA:  CALL   1AAC
022DE:  MOVFF  03,54C
022E2:  MOVFF  02,54B
022E6:  MOVFF  01,54A
022EA:  MOVFF  00,549
....................    Ajuste1=Entero+Temporal; 
022EE:  MOVLB  6
022F0:  CLRF   x23
022F2:  MOVFF  4D8,622
022F6:  MOVLB  0
022F8:  CALL   1A76
022FC:  BCF    FD8.1
022FE:  MOVFF  03,625
02302:  MOVFF  02,624
02306:  MOVFF  01,623
0230A:  MOVFF  00,622
0230E:  MOVFF  54C,629
02312:  MOVFF  54B,628
02316:  MOVFF  54A,627
0231A:  MOVFF  549,626
0231E:  RCALL  1C0A
02320:  MOVFF  03,544
02324:  MOVFF  02,543
02328:  MOVFF  01,542
0232C:  MOVFF  00,541
....................     
....................     
....................    Entero=read_eeprom(27);//Decimal1=read_eeprom(26); 
02330:  MOVFF  FF2,5ED
02334:  BCF    FF2.7
02336:  CLRF   FAA
02338:  MOVLW  1B
0233A:  MOVWF  FA9
0233C:  BCF    FA6.6
0233E:  BCF    FA6.7
02340:  BSF    FA6.0
02342:  MOVF   FA8,W
02344:  MOVLB  5
02346:  BTFSC  xED.7
02348:  BSF    FF2.7
0234A:  MOVLB  4
0234C:  MOVWF  xD8
....................    delay_ms(10); 
0234E:  MOVLW  0A
02350:  MOVLB  6
02352:  MOVWF  x01
02354:  MOVLB  0
02356:  CALL   1568
....................    Temporal=read_eeprom(28); 
0235A:  MOVFF  FF2,5ED
0235E:  BCF    FF2.7
02360:  CLRF   FAA
02362:  MOVLW  1C
02364:  MOVWF  FA9
02366:  BCF    FA6.6
02368:  BCF    FA6.7
0236A:  BSF    FA6.0
0236C:  MOVF   FA8,W
0236E:  MOVLB  5
02370:  BTFSC  xED.7
02372:  BSF    FF2.7
02374:  MOVLB  6
02376:  CLRF   x23
02378:  MOVWF  x22
0237A:  MOVLB  0
0237C:  CALL   1A76
02380:  MOVFF  03,54C
02384:  MOVFF  02,54B
02388:  MOVFF  01,54A
0238C:  MOVFF  00,549
....................    delay_ms(10); 
02390:  MOVLW  0A
02392:  MOVLB  6
02394:  MOVWF  x01
02396:  MOVLB  0
02398:  CALL   1568
....................    Temporal=Temporal/10.0; 
0239C:  MOVFF  54C,621
023A0:  MOVFF  54B,620
023A4:  MOVFF  54A,61F
023A8:  MOVFF  549,61E
023AC:  MOVLB  6
023AE:  CLRF   x25
023B0:  CLRF   x24
023B2:  MOVLW  20
023B4:  MOVWF  x23
023B6:  MOVLW  82
023B8:  MOVWF  x22
023BA:  MOVLB  0
023BC:  CALL   1AAC
023C0:  MOVFF  03,54C
023C4:  MOVFF  02,54B
023C8:  MOVFF  01,54A
023CC:  MOVFF  00,549
....................    Ajuste2=Entero+Temporal; 
023D0:  MOVLB  6
023D2:  CLRF   x23
023D4:  MOVFF  4D8,622
023D8:  MOVLB  0
023DA:  CALL   1A76
023DE:  BCF    FD8.1
023E0:  MOVFF  03,625
023E4:  MOVFF  02,624
023E8:  MOVFF  01,623
023EC:  MOVFF  00,622
023F0:  MOVFF  54C,629
023F4:  MOVFF  54B,628
023F8:  MOVFF  54A,627
023FC:  MOVFF  549,626
02400:  RCALL  1C0A
02402:  MOVFF  03,548
02406:  MOVFF  02,547
0240A:  MOVFF  01,546
0240E:  MOVFF  00,545
....................     
....................    zero_actual=make16(read_eeprom(30),read_eeprom(29)); 
02412:  MOVFF  FF2,5ED
02416:  BCF    FF2.7
02418:  CLRF   FAA
0241A:  MOVLW  1E
0241C:  MOVWF  FA9
0241E:  BCF    FA6.6
02420:  BCF    FA6.7
02422:  BSF    FA6.0
02424:  MOVF   FA8,W
02426:  MOVLB  5
02428:  BTFSC  xED.7
0242A:  BSF    FF2.7
0242C:  MOVWF  xEE
0242E:  MOVFF  FF2,5EF
02432:  BCF    FF2.7
02434:  CLRF   FAA
02436:  MOVLW  1D
02438:  MOVWF  FA9
0243A:  BCF    FA6.6
0243C:  BCF    FA6.7
0243E:  BSF    FA6.0
02440:  MOVF   FA8,W
02442:  BTFSC  xEF.7
02444:  BSF    FF2.7
02446:  MOVWF  xF0
02448:  MOVFF  5EE,03
0244C:  MOVF   xF0,W
0244E:  MOVLB  6
02450:  MOVWF  x22
02452:  MOVFF  03,623
02456:  MOVLB  0
02458:  CALL   1A76
0245C:  MOVFF  03,5CC
02460:  MOVFF  02,5CB
02464:  MOVFF  01,5CA
02468:  MOVFF  00,5C9
....................    delay_ms(10); 
0246C:  MOVLW  0A
0246E:  MOVLB  6
02470:  MOVWF  x01
02472:  MOVLB  0
02474:  CALL   1568
....................    minutos_trabajo=make16(read_eeprom(34),read_eeprom(33)); 
02478:  MOVFF  FF2,5ED
0247C:  BCF    FF2.7
0247E:  CLRF   FAA
02480:  MOVLW  22
02482:  MOVWF  FA9
02484:  BCF    FA6.6
02486:  BCF    FA6.7
02488:  BSF    FA6.0
0248A:  MOVF   FA8,W
0248C:  MOVLB  5
0248E:  BTFSC  xED.7
02490:  BSF    FF2.7
02492:  MOVWF  xEE
02494:  MOVFF  FF2,5EF
02498:  BCF    FF2.7
0249A:  CLRF   FAA
0249C:  MOVLW  21
0249E:  MOVWF  FA9
024A0:  BCF    FA6.6
024A2:  BCF    FA6.7
024A4:  BSF    FA6.0
024A6:  MOVF   FA8,W
024A8:  BTFSC  xEF.7
024AA:  BSF    FF2.7
024AC:  MOVWF  xF0
024AE:  MOVFF  5EE,4E8
024B2:  MOVFF  5F0,4E7
....................    delay_ms(10); 
024B6:  MOVLW  0A
024B8:  MOVLB  6
024BA:  MOVWF  x01
024BC:  MOVLB  0
024BE:  CALL   1568
....................    minutos_uv=read_eeprom(31); 
024C2:  MOVFF  FF2,5ED
024C6:  BCF    FF2.7
024C8:  CLRF   FAA
024CA:  MOVLW  1F
024CC:  MOVWF  FA9
024CE:  BCF    FA6.6
024D0:  BCF    FA6.7
024D2:  BSF    FA6.0
024D4:  MOVF   FA8,W
024D6:  MOVLB  5
024D8:  BTFSC  xED.7
024DA:  BSF    FF2.7
024DC:  MOVLB  4
024DE:  CLRF   xE6
024E0:  MOVWF  xE5
....................    delay_ms(10); 
024E2:  MOVLW  0A
024E4:  MOVLB  6
024E6:  MOVWF  x01
024E8:  MOVLB  0
024EA:  CALL   1568
....................    VelMotor=read_eeprom(32); 
024EE:  MOVFF  FF2,5ED
024F2:  BCF    FF2.7
024F4:  CLRF   FAA
024F6:  MOVLW  20
024F8:  MOVWF  FA9
024FA:  BCF    FA6.6
024FC:  BCF    FA6.7
024FE:  BSF    FA6.0
02500:  MOVF   FA8,W
02502:  MOVLB  5
02504:  BTFSC  xED.7
02506:  BSF    FF2.7
02508:  MOVWF  xE4
....................    delay_ms(10); 
0250A:  MOVLW  0A
0250C:  MOVLB  6
0250E:  MOVWF  x01
02510:  MOVLB  0
02512:  CALL   1568
....................     
....................    Diferencia=make16(read_eeprom(61),read_eeprom(60)); 
02516:  MOVFF  FF2,5ED
0251A:  BCF    FF2.7
0251C:  CLRF   FAA
0251E:  MOVLW  3D
02520:  MOVWF  FA9
02522:  BCF    FA6.6
02524:  BCF    FA6.7
02526:  BSF    FA6.0
02528:  MOVF   FA8,W
0252A:  MOVLB  5
0252C:  BTFSC  xED.7
0252E:  BSF    FF2.7
02530:  MOVWF  xEE
02532:  MOVFF  FF2,5EF
02536:  BCF    FF2.7
02538:  CLRF   FAA
0253A:  MOVLW  3C
0253C:  MOVWF  FA9
0253E:  BCF    FA6.6
02540:  BCF    FA6.7
02542:  BSF    FA6.0
02544:  MOVF   FA8,W
02546:  BTFSC  xEF.7
02548:  BSF    FF2.7
0254A:  MOVWF  xF0
0254C:  MOVFF  5EE,03
02550:  MOVF   xF0,W
02552:  MOVLB  6
02554:  MOVWF  x22
02556:  MOVFF  03,623
0255A:  MOVLB  0
0255C:  CALL   1A76
02560:  MOVFF  03,528
02564:  MOVFF  02,527
02568:  MOVFF  01,526
0256C:  MOVFF  00,525
....................    delay_ms(10); 
02570:  MOVLW  0A
02572:  MOVLB  6
02574:  MOVWF  x01
02576:  MOVLB  0
02578:  CALL   1568
....................    G=make16(read_eeprom(63),read_eeprom(62)); 
0257C:  MOVFF  FF2,5ED
02580:  BCF    FF2.7
02582:  CLRF   FAA
02584:  MOVLW  3F
02586:  MOVWF  FA9
02588:  BCF    FA6.6
0258A:  BCF    FA6.7
0258C:  BSF    FA6.0
0258E:  MOVF   FA8,W
02590:  MOVLB  5
02592:  BTFSC  xED.7
02594:  BSF    FF2.7
02596:  MOVWF  xEE
02598:  MOVFF  FF2,5EF
0259C:  BCF    FF2.7
0259E:  CLRF   FAA
025A0:  MOVLW  3E
025A2:  MOVWF  FA9
025A4:  BCF    FA6.6
025A6:  BCF    FA6.7
025A8:  BSF    FA6.0
025AA:  MOVF   FA8,W
025AC:  BTFSC  xEF.7
025AE:  BSF    FF2.7
025B0:  MOVWF  xF0
025B2:  MOVFF  5EE,03
025B6:  MOVF   xF0,W
025B8:  MOVLB  6
025BA:  MOVWF  x22
025BC:  MOVFF  03,623
025C0:  MOVLB  0
025C2:  CALL   1A76
025C6:  MOVFF  03,5D8
025CA:  MOVFF  02,5D7
025CE:  MOVFF  01,5D6
025D2:  MOVFF  00,5D5
....................    delay_ms(10); 
025D6:  MOVLW  0A
025D8:  MOVLB  6
025DA:  MOVWF  x01
025DC:  MOVLB  0
025DE:  CALL   1568
....................    negativo=read_eeprom(50); 
025E2:  MOVFF  FF2,5ED
025E6:  BCF    FF2.7
025E8:  CLRF   FAA
025EA:  MOVLW  32
025EC:  MOVWF  FA9
025EE:  BCF    FA6.6
025F0:  BCF    FA6.7
025F2:  BSF    FA6.0
025F4:  MOVF   FA8,W
025F6:  MOVLB  5
025F8:  BTFSC  xED.7
025FA:  BSF    FF2.7
025FC:  MOVLB  4
025FE:  MOVWF  xD0
....................    delay_ms(10); 
02600:  MOVLW  0A
02602:  MOVLB  6
02604:  MOVWF  x01
02606:  MOVLB  0
02608:  CALL   1568
....................  
.................... } 
0260C:  GOTO   6734 (RETURN)
....................  
.................... void LimitaValores(void){ 
....................    if(Password[0]>9 || Password[0]<0){ 
*
0268A:  MOVLB  5
0268C:  BTFSC  x15.7
0268E:  BRA    2696
02690:  MOVF   x15,W
02692:  SUBLW  09
02694:  BNC   269C
02696:  BTFSC  x15.7
02698:  BRA    269C
0269A:  BRA    26C8
....................       Password[0]=0;write_eeprom(0,0); 
0269C:  CLRF   x15
0269E:  CLRF   FAA
026A0:  CLRF   FA9
026A2:  CLRF   FA8
026A4:  BCF    FA6.6
026A6:  BCF    FA6.7
026A8:  BSF    FA6.2
026AA:  MOVF   FF2,W
026AC:  MOVWF  00
026AE:  BCF    FF2.7
026B0:  MOVLB  F
026B2:  MOVLW  55
026B4:  MOVWF  FA7
026B6:  MOVLW  AA
026B8:  MOVWF  FA7
026BA:  BSF    FA6.1
026BC:  BTFSC  FA6.1
026BE:  BRA    26BC
026C0:  BCF    FA6.2
026C2:  MOVF   00,W
026C4:  IORWF  FF2,F
026C6:  MOVLB  5
....................    } 
....................    if(Password[1]>9 || Password[1]<0){ 
026C8:  BTFSC  x16.7
026CA:  BRA    26D2
026CC:  MOVF   x16,W
026CE:  SUBLW  09
026D0:  BNC   26D8
026D2:  BTFSC  x16.7
026D4:  BRA    26D8
026D6:  BRA    2706
....................       Password[1]=0;write_eeprom(1,0); 
026D8:  CLRF   x16
026DA:  CLRF   FAA
026DC:  MOVLW  01
026DE:  MOVWF  FA9
026E0:  CLRF   FA8
026E2:  BCF    FA6.6
026E4:  BCF    FA6.7
026E6:  BSF    FA6.2
026E8:  MOVF   FF2,W
026EA:  MOVWF  00
026EC:  BCF    FF2.7
026EE:  MOVLB  F
026F0:  MOVLW  55
026F2:  MOVWF  FA7
026F4:  MOVLW  AA
026F6:  MOVWF  FA7
026F8:  BSF    FA6.1
026FA:  BTFSC  FA6.1
026FC:  BRA    26FA
026FE:  BCF    FA6.2
02700:  MOVF   00,W
02702:  IORWF  FF2,F
02704:  MOVLB  5
....................    } 
....................    if(Password[2]>9 || Password[2]<0){ 
02706:  BTFSC  x17.7
02708:  BRA    2710
0270A:  MOVF   x17,W
0270C:  SUBLW  09
0270E:  BNC   2716
02710:  BTFSC  x17.7
02712:  BRA    2716
02714:  BRA    2744
....................       Password[2]=0;write_eeprom(2,0); 
02716:  CLRF   x17
02718:  CLRF   FAA
0271A:  MOVLW  02
0271C:  MOVWF  FA9
0271E:  CLRF   FA8
02720:  BCF    FA6.6
02722:  BCF    FA6.7
02724:  BSF    FA6.2
02726:  MOVF   FF2,W
02728:  MOVWF  00
0272A:  BCF    FF2.7
0272C:  MOVLB  F
0272E:  MOVLW  55
02730:  MOVWF  FA7
02732:  MOVLW  AA
02734:  MOVWF  FA7
02736:  BSF    FA6.1
02738:  BTFSC  FA6.1
0273A:  BRA    2738
0273C:  BCF    FA6.2
0273E:  MOVF   00,W
02740:  IORWF  FF2,F
02742:  MOVLB  5
....................    } 
....................    if(Password[3]>9 || Password[3]<0){ 
02744:  BTFSC  x18.7
02746:  BRA    274E
02748:  MOVF   x18,W
0274A:  SUBLW  09
0274C:  BNC   2754
0274E:  BTFSC  x18.7
02750:  BRA    2754
02752:  BRA    2780
....................       Password[3]=0;write_eeprom(3,0); 
02754:  CLRF   x18
02756:  CLRF   FAA
02758:  MOVLW  03
0275A:  MOVWF  FA9
0275C:  CLRF   FA8
0275E:  BCF    FA6.6
02760:  BCF    FA6.7
02762:  BSF    FA6.2
02764:  MOVF   FF2,W
02766:  MOVWF  00
02768:  BCF    FF2.7
0276A:  MOVLB  F
0276C:  MOVLW  55
0276E:  MOVWF  FA7
02770:  MOVLW  AA
02772:  MOVWF  FA7
02774:  BSF    FA6.1
02776:  BTFSC  FA6.1
02778:  BRA    2776
0277A:  BCF    FA6.2
0277C:  MOVF   00,W
0277E:  IORWF  FF2,F
....................    } 
....................    if(Tpurgap[0]>9 || Tpurgap[0]<0){ 
02780:  MOVLB  4
02782:  BTFSC  xF9.7
02784:  BRA    278C
02786:  MOVF   xF9,W
02788:  SUBLW  09
0278A:  BNC   2792
0278C:  BTFSC  xF9.7
0278E:  BRA    2792
02790:  BRA    27C0
....................       Tpurgap[0]=0;write_eeprom(4,0); 
02792:  CLRF   xF9
02794:  CLRF   FAA
02796:  MOVLW  04
02798:  MOVWF  FA9
0279A:  CLRF   FA8
0279C:  BCF    FA6.6
0279E:  BCF    FA6.7
027A0:  BSF    FA6.2
027A2:  MOVF   FF2,W
027A4:  MOVWF  00
027A6:  BCF    FF2.7
027A8:  MOVLB  F
027AA:  MOVLW  55
027AC:  MOVWF  FA7
027AE:  MOVLW  AA
027B0:  MOVWF  FA7
027B2:  BSF    FA6.1
027B4:  BTFSC  FA6.1
027B6:  BRA    27B4
027B8:  BCF    FA6.2
027BA:  MOVF   00,W
027BC:  IORWF  FF2,F
027BE:  MOVLB  4
....................    } 
....................    if(Tpurgap[1]>9 || Tpurgap[1]<0){ 
027C0:  BTFSC  xFA.7
027C2:  BRA    27CA
027C4:  MOVF   xFA,W
027C6:  SUBLW  09
027C8:  BNC   27D0
027CA:  BTFSC  xFA.7
027CC:  BRA    27D0
027CE:  BRA    27FE
....................       Tpurgap[1]=0;write_eeprom(5,0); 
027D0:  CLRF   xFA
027D2:  CLRF   FAA
027D4:  MOVLW  05
027D6:  MOVWF  FA9
027D8:  CLRF   FA8
027DA:  BCF    FA6.6
027DC:  BCF    FA6.7
027DE:  BSF    FA6.2
027E0:  MOVF   FF2,W
027E2:  MOVWF  00
027E4:  BCF    FF2.7
027E6:  MOVLB  F
027E8:  MOVLW  55
027EA:  MOVWF  FA7
027EC:  MOVLW  AA
027EE:  MOVWF  FA7
027F0:  BSF    FA6.1
027F2:  BTFSC  FA6.1
027F4:  BRA    27F2
027F6:  BCF    FA6.2
027F8:  MOVF   00,W
027FA:  IORWF  FF2,F
027FC:  MOVLB  4
....................    } 
....................    if(Tpurgap[2]>9 || Tpurgap[2]<0){ 
027FE:  BTFSC  xFB.7
02800:  BRA    2808
02802:  MOVF   xFB,W
02804:  SUBLW  09
02806:  BNC   280E
02808:  BTFSC  xFB.7
0280A:  BRA    280E
0280C:  BRA    2840
....................       Tpurgap[2]=2;write_eeprom(6,2); 
0280E:  MOVLW  02
02810:  MOVWF  xFB
02812:  CLRF   FAA
02814:  MOVLW  06
02816:  MOVWF  FA9
02818:  MOVLW  02
0281A:  MOVWF  FA8
0281C:  BCF    FA6.6
0281E:  BCF    FA6.7
02820:  BSF    FA6.2
02822:  MOVF   FF2,W
02824:  MOVWF  00
02826:  BCF    FF2.7
02828:  MOVLB  F
0282A:  MOVLW  55
0282C:  MOVWF  FA7
0282E:  MOVLW  AA
02830:  MOVWF  FA7
02832:  BSF    FA6.1
02834:  BTFSC  FA6.1
02836:  BRA    2834
02838:  BCF    FA6.2
0283A:  MOVF   00,W
0283C:  IORWF  FF2,F
0283E:  MOVLB  4
....................    } 
....................    if(Tpurgap[3]>9 || Tpurgap[3]<0){ 
02840:  BTFSC  xFC.7
02842:  BRA    284A
02844:  MOVF   xFC,W
02846:  SUBLW  09
02848:  BNC   2850
0284A:  BTFSC  xFC.7
0284C:  BRA    2850
0284E:  BRA    287E
....................       Tpurgap[3]=0;write_eeprom(7,0); 
02850:  CLRF   xFC
02852:  CLRF   FAA
02854:  MOVLW  07
02856:  MOVWF  FA9
02858:  CLRF   FA8
0285A:  BCF    FA6.6
0285C:  BCF    FA6.7
0285E:  BSF    FA6.2
02860:  MOVF   FF2,W
02862:  MOVWF  00
02864:  BCF    FF2.7
02866:  MOVLB  F
02868:  MOVLW  55
0286A:  MOVWF  FA7
0286C:  MOVLW  AA
0286E:  MOVWF  FA7
02870:  BSF    FA6.1
02872:  BTFSC  FA6.1
02874:  BRA    2872
02876:  BCF    FA6.2
02878:  MOVF   00,W
0287A:  IORWF  FF2,F
0287C:  MOVLB  4
....................    } 
....................    if(Tppurgap[0]>9 || Tppurgap[0]<0){ 
0287E:  BTFSC  xFD.7
02880:  BRA    2888
02882:  MOVF   xFD,W
02884:  SUBLW  09
02886:  BNC   288E
02888:  BTFSC  xFD.7
0288A:  BRA    288E
0288C:  BRA    28BC
....................       Tppurgap[0]=0;write_eeprom(8,0); 
0288E:  CLRF   xFD
02890:  CLRF   FAA
02892:  MOVLW  08
02894:  MOVWF  FA9
02896:  CLRF   FA8
02898:  BCF    FA6.6
0289A:  BCF    FA6.7
0289C:  BSF    FA6.2
0289E:  MOVF   FF2,W
028A0:  MOVWF  00
028A2:  BCF    FF2.7
028A4:  MOVLB  F
028A6:  MOVLW  55
028A8:  MOVWF  FA7
028AA:  MOVLW  AA
028AC:  MOVWF  FA7
028AE:  BSF    FA6.1
028B0:  BTFSC  FA6.1
028B2:  BRA    28B0
028B4:  BCF    FA6.2
028B6:  MOVF   00,W
028B8:  IORWF  FF2,F
028BA:  MOVLB  4
....................    } 
....................    if(Tppurgap[1]>9 || Tppurgap[1]<0){ 
028BC:  BTFSC  xFE.7
028BE:  BRA    28C6
028C0:  MOVF   xFE,W
028C2:  SUBLW  09
028C4:  BNC   28CC
028C6:  BTFSC  xFE.7
028C8:  BRA    28CC
028CA:  BRA    28FA
....................       Tppurgap[1]=0;write_eeprom(9,0); 
028CC:  CLRF   xFE
028CE:  CLRF   FAA
028D0:  MOVLW  09
028D2:  MOVWF  FA9
028D4:  CLRF   FA8
028D6:  BCF    FA6.6
028D8:  BCF    FA6.7
028DA:  BSF    FA6.2
028DC:  MOVF   FF2,W
028DE:  MOVWF  00
028E0:  BCF    FF2.7
028E2:  MOVLB  F
028E4:  MOVLW  55
028E6:  MOVWF  FA7
028E8:  MOVLW  AA
028EA:  MOVWF  FA7
028EC:  BSF    FA6.1
028EE:  BTFSC  FA6.1
028F0:  BRA    28EE
028F2:  BCF    FA6.2
028F4:  MOVF   00,W
028F6:  IORWF  FF2,F
028F8:  MOVLB  4
....................    } 
....................    if(Tppurgap[2]>9 || Tppurgap[2]<0){ 
028FA:  BTFSC  xFF.7
028FC:  BRA    2904
028FE:  MOVF   xFF,W
02900:  SUBLW  09
02902:  BNC   290A
02904:  BTFSC  xFF.7
02906:  BRA    290A
02908:  BRA    293A
....................       Tppurgap[2]=2;write_eeprom(10,2); 
0290A:  MOVLW  02
0290C:  MOVWF  xFF
0290E:  CLRF   FAA
02910:  MOVLW  0A
02912:  MOVWF  FA9
02914:  MOVLW  02
02916:  MOVWF  FA8
02918:  BCF    FA6.6
0291A:  BCF    FA6.7
0291C:  BSF    FA6.2
0291E:  MOVF   FF2,W
02920:  MOVWF  00
02922:  BCF    FF2.7
02924:  MOVLB  F
02926:  MOVLW  55
02928:  MOVWF  FA7
0292A:  MOVLW  AA
0292C:  MOVWF  FA7
0292E:  BSF    FA6.1
02930:  BTFSC  FA6.1
02932:  BRA    2930
02934:  BCF    FA6.2
02936:  MOVF   00,W
02938:  IORWF  FF2,F
....................    } 
....................    if(Tppurgap[3]>9 || Tppurgap[3]<0){ 
0293A:  MOVLB  5
0293C:  BTFSC  x00.7
0293E:  BRA    2946
02940:  MOVF   x00,W
02942:  SUBLW  09
02944:  BNC   294C
02946:  BTFSC  x00.7
02948:  BRA    294C
0294A:  BRA    297A
....................       Tppurgap[3]=0;write_eeprom(11,0); 
0294C:  CLRF   x00
0294E:  CLRF   FAA
02950:  MOVLW  0B
02952:  MOVWF  FA9
02954:  CLRF   FA8
02956:  BCF    FA6.6
02958:  BCF    FA6.7
0295A:  BSF    FA6.2
0295C:  MOVF   FF2,W
0295E:  MOVWF  00
02960:  BCF    FF2.7
02962:  MOVLB  F
02964:  MOVLW  55
02966:  MOVWF  FA7
02968:  MOVLW  AA
0296A:  MOVWF  FA7
0296C:  BSF    FA6.1
0296E:  BTFSC  FA6.1
02970:  BRA    296E
02972:  BCF    FA6.2
02974:  MOVF   00,W
02976:  IORWF  FF2,F
02978:  MOVLB  5
....................    } 
....................    if(Tuv[0]>9 || Tuv[0]<0){ 
0297A:  BTFSC  x01.7
0297C:  BRA    2984
0297E:  MOVF   x01,W
02980:  SUBLW  09
02982:  BNC   298A
02984:  BTFSC  x01.7
02986:  BRA    298A
02988:  BRA    29B8
....................       Tuv[0]=0;write_eeprom(12,0); 
0298A:  CLRF   x01
0298C:  CLRF   FAA
0298E:  MOVLW  0C
02990:  MOVWF  FA9
02992:  CLRF   FA8
02994:  BCF    FA6.6
02996:  BCF    FA6.7
02998:  BSF    FA6.2
0299A:  MOVF   FF2,W
0299C:  MOVWF  00
0299E:  BCF    FF2.7
029A0:  MOVLB  F
029A2:  MOVLW  55
029A4:  MOVWF  FA7
029A6:  MOVLW  AA
029A8:  MOVWF  FA7
029AA:  BSF    FA6.1
029AC:  BTFSC  FA6.1
029AE:  BRA    29AC
029B0:  BCF    FA6.2
029B2:  MOVF   00,W
029B4:  IORWF  FF2,F
029B6:  MOVLB  5
....................    } 
....................    if(Tuv[1]>9 || Tuv[1]<0){ 
029B8:  BTFSC  x02.7
029BA:  BRA    29C2
029BC:  MOVF   x02,W
029BE:  SUBLW  09
029C0:  BNC   29C8
029C2:  BTFSC  x02.7
029C4:  BRA    29C8
029C6:  BRA    29F6
....................       Tuv[1]=0;write_eeprom(13,0); 
029C8:  CLRF   x02
029CA:  CLRF   FAA
029CC:  MOVLW  0D
029CE:  MOVWF  FA9
029D0:  CLRF   FA8
029D2:  BCF    FA6.6
029D4:  BCF    FA6.7
029D6:  BSF    FA6.2
029D8:  MOVF   FF2,W
029DA:  MOVWF  00
029DC:  BCF    FF2.7
029DE:  MOVLB  F
029E0:  MOVLW  55
029E2:  MOVWF  FA7
029E4:  MOVLW  AA
029E6:  MOVWF  FA7
029E8:  BSF    FA6.1
029EA:  BTFSC  FA6.1
029EC:  BRA    29EA
029EE:  BCF    FA6.2
029F0:  MOVF   00,W
029F2:  IORWF  FF2,F
029F4:  MOVLB  5
....................    } 
....................    if(Tuv[2]>9 || Tuv[2]<0){ 
029F6:  BTFSC  x03.7
029F8:  BRA    2A00
029FA:  MOVF   x03,W
029FC:  SUBLW  09
029FE:  BNC   2A06
02A00:  BTFSC  x03.7
02A02:  BRA    2A06
02A04:  BRA    2A34
....................       Tuv[2]=0;write_eeprom(14,0); 
02A06:  CLRF   x03
02A08:  CLRF   FAA
02A0A:  MOVLW  0E
02A0C:  MOVWF  FA9
02A0E:  CLRF   FA8
02A10:  BCF    FA6.6
02A12:  BCF    FA6.7
02A14:  BSF    FA6.2
02A16:  MOVF   FF2,W
02A18:  MOVWF  00
02A1A:  BCF    FF2.7
02A1C:  MOVLB  F
02A1E:  MOVLW  55
02A20:  MOVWF  FA7
02A22:  MOVLW  AA
02A24:  MOVWF  FA7
02A26:  BSF    FA6.1
02A28:  BTFSC  FA6.1
02A2A:  BRA    2A28
02A2C:  BCF    FA6.2
02A2E:  MOVF   00,W
02A30:  IORWF  FF2,F
02A32:  MOVLB  5
....................    } 
....................    if(Tuv[3]>9 || Tuv[3]<0){ 
02A34:  BTFSC  x04.7
02A36:  BRA    2A3E
02A38:  MOVF   x04,W
02A3A:  SUBLW  09
02A3C:  BNC   2A44
02A3E:  BTFSC  x04.7
02A40:  BRA    2A44
02A42:  BRA    2A72
....................       Tuv[3]=0;write_eeprom(15,0); 
02A44:  CLRF   x04
02A46:  CLRF   FAA
02A48:  MOVLW  0F
02A4A:  MOVWF  FA9
02A4C:  CLRF   FA8
02A4E:  BCF    FA6.6
02A50:  BCF    FA6.7
02A52:  BSF    FA6.2
02A54:  MOVF   FF2,W
02A56:  MOVWF  00
02A58:  BCF    FF2.7
02A5A:  MOVLB  F
02A5C:  MOVLW  55
02A5E:  MOVWF  FA7
02A60:  MOVLW  AA
02A62:  MOVWF  FA7
02A64:  BSF    FA6.1
02A66:  BTFSC  FA6.1
02A68:  BRA    2A66
02A6A:  BCF    FA6.2
02A6C:  MOVF   00,W
02A6E:  IORWF  FF2,F
02A70:  MOVLB  5
....................    } 
....................    if(Ttrabajo[0]>9 || Ttrabajo[0]<0){ 
02A72:  BTFSC  x0D.7
02A74:  BRA    2A7C
02A76:  MOVF   x0D,W
02A78:  SUBLW  09
02A7A:  BNC   2A82
02A7C:  BTFSC  x0D.7
02A7E:  BRA    2A82
02A80:  BRA    2AB0
....................       Ttrabajo[0]=0;write_eeprom(16,0); 
02A82:  CLRF   x0D
02A84:  CLRF   FAA
02A86:  MOVLW  10
02A88:  MOVWF  FA9
02A8A:  CLRF   FA8
02A8C:  BCF    FA6.6
02A8E:  BCF    FA6.7
02A90:  BSF    FA6.2
02A92:  MOVF   FF2,W
02A94:  MOVWF  00
02A96:  BCF    FF2.7
02A98:  MOVLB  F
02A9A:  MOVLW  55
02A9C:  MOVWF  FA7
02A9E:  MOVLW  AA
02AA0:  MOVWF  FA7
02AA2:  BSF    FA6.1
02AA4:  BTFSC  FA6.1
02AA6:  BRA    2AA4
02AA8:  BCF    FA6.2
02AAA:  MOVF   00,W
02AAC:  IORWF  FF2,F
02AAE:  MOVLB  5
....................    } 
....................    if(Ttrabajo[1]>9 || Ttrabajo[1]<0){ 
02AB0:  BTFSC  x0E.7
02AB2:  BRA    2ABA
02AB4:  MOVF   x0E,W
02AB6:  SUBLW  09
02AB8:  BNC   2AC0
02ABA:  BTFSC  x0E.7
02ABC:  BRA    2AC0
02ABE:  BRA    2AEE
....................       Ttrabajo[1]=0;write_eeprom(17,0); 
02AC0:  CLRF   x0E
02AC2:  CLRF   FAA
02AC4:  MOVLW  11
02AC6:  MOVWF  FA9
02AC8:  CLRF   FA8
02ACA:  BCF    FA6.6
02ACC:  BCF    FA6.7
02ACE:  BSF    FA6.2
02AD0:  MOVF   FF2,W
02AD2:  MOVWF  00
02AD4:  BCF    FF2.7
02AD6:  MOVLB  F
02AD8:  MOVLW  55
02ADA:  MOVWF  FA7
02ADC:  MOVLW  AA
02ADE:  MOVWF  FA7
02AE0:  BSF    FA6.1
02AE2:  BTFSC  FA6.1
02AE4:  BRA    2AE2
02AE6:  BCF    FA6.2
02AE8:  MOVF   00,W
02AEA:  IORWF  FF2,F
02AEC:  MOVLB  5
....................    } 
....................    if(Ttrabajo[2]>9 || Ttrabajo[2]<0){ 
02AEE:  BTFSC  x0F.7
02AF0:  BRA    2AF8
02AF2:  MOVF   x0F,W
02AF4:  SUBLW  09
02AF6:  BNC   2AFE
02AF8:  BTFSC  x0F.7
02AFA:  BRA    2AFE
02AFC:  BRA    2B2C
....................       Ttrabajo[2]=0;write_eeprom(18,0); 
02AFE:  CLRF   x0F
02B00:  CLRF   FAA
02B02:  MOVLW  12
02B04:  MOVWF  FA9
02B06:  CLRF   FA8
02B08:  BCF    FA6.6
02B0A:  BCF    FA6.7
02B0C:  BSF    FA6.2
02B0E:  MOVF   FF2,W
02B10:  MOVWF  00
02B12:  BCF    FF2.7
02B14:  MOVLB  F
02B16:  MOVLW  55
02B18:  MOVWF  FA7
02B1A:  MOVLW  AA
02B1C:  MOVWF  FA7
02B1E:  BSF    FA6.1
02B20:  BTFSC  FA6.1
02B22:  BRA    2B20
02B24:  BCF    FA6.2
02B26:  MOVF   00,W
02B28:  IORWF  FF2,F
02B2A:  MOVLB  5
....................    } 
....................    if(Ttrabajo[3]>9 || Ttrabajo[3]<0){ 
02B2C:  BTFSC  x10.7
02B2E:  BRA    2B36
02B30:  MOVF   x10,W
02B32:  SUBLW  09
02B34:  BNC   2B3C
02B36:  BTFSC  x10.7
02B38:  BRA    2B3C
02B3A:  BRA    2B6A
....................       Ttrabajo[3]=0;write_eeprom(19,0); 
02B3C:  CLRF   x10
02B3E:  CLRF   FAA
02B40:  MOVLW  13
02B42:  MOVWF  FA9
02B44:  CLRF   FA8
02B46:  BCF    FA6.6
02B48:  BCF    FA6.7
02B4A:  BSF    FA6.2
02B4C:  MOVF   FF2,W
02B4E:  MOVWF  00
02B50:  BCF    FF2.7
02B52:  MOVLB  F
02B54:  MOVLW  55
02B56:  MOVWF  FA7
02B58:  MOVLW  AA
02B5A:  MOVWF  FA7
02B5C:  BSF    FA6.1
02B5E:  BTFSC  FA6.1
02B60:  BRA    2B5E
02B62:  BCF    FA6.2
02B64:  MOVF   00,W
02B66:  IORWF  FF2,F
02B68:  MOVLB  5
....................    } 
....................    if(Tempouvp[0]>9 || Tempouvp[0]<0){ 
02B6A:  BTFSC  x05.7
02B6C:  BRA    2B74
02B6E:  MOVF   x05,W
02B70:  SUBLW  09
02B72:  BNC   2B7A
02B74:  BTFSC  x05.7
02B76:  BRA    2B7A
02B78:  BRA    2BA8
....................       Tempouvp[0]=0;write_eeprom(21,0); 
02B7A:  CLRF   x05
02B7C:  CLRF   FAA
02B7E:  MOVLW  15
02B80:  MOVWF  FA9
02B82:  CLRF   FA8
02B84:  BCF    FA6.6
02B86:  BCF    FA6.7
02B88:  BSF    FA6.2
02B8A:  MOVF   FF2,W
02B8C:  MOVWF  00
02B8E:  BCF    FF2.7
02B90:  MOVLB  F
02B92:  MOVLW  55
02B94:  MOVWF  FA7
02B96:  MOVLW  AA
02B98:  MOVWF  FA7
02B9A:  BSF    FA6.1
02B9C:  BTFSC  FA6.1
02B9E:  BRA    2B9C
02BA0:  BCF    FA6.2
02BA2:  MOVF   00,W
02BA4:  IORWF  FF2,F
02BA6:  MOVLB  5
....................    } 
....................    if(Tempouvp[1]>9 || Tempouvp[1]<0){ 
02BA8:  BTFSC  x06.7
02BAA:  BRA    2BB2
02BAC:  MOVF   x06,W
02BAE:  SUBLW  09
02BB0:  BNC   2BB8
02BB2:  BTFSC  x06.7
02BB4:  BRA    2BB8
02BB6:  BRA    2BE6
....................       Tempouvp[1]=0;write_eeprom(22,0); 
02BB8:  CLRF   x06
02BBA:  CLRF   FAA
02BBC:  MOVLW  16
02BBE:  MOVWF  FA9
02BC0:  CLRF   FA8
02BC2:  BCF    FA6.6
02BC4:  BCF    FA6.7
02BC6:  BSF    FA6.2
02BC8:  MOVF   FF2,W
02BCA:  MOVWF  00
02BCC:  BCF    FF2.7
02BCE:  MOVLB  F
02BD0:  MOVLW  55
02BD2:  MOVWF  FA7
02BD4:  MOVLW  AA
02BD6:  MOVWF  FA7
02BD8:  BSF    FA6.1
02BDA:  BTFSC  FA6.1
02BDC:  BRA    2BDA
02BDE:  BCF    FA6.2
02BE0:  MOVF   00,W
02BE2:  IORWF  FF2,F
02BE4:  MOVLB  5
....................    } 
....................    if(Tempouvp[2]>9 || Tempouvp[2]<0){ 
02BE6:  BTFSC  x07.7
02BE8:  BRA    2BF0
02BEA:  MOVF   x07,W
02BEC:  SUBLW  09
02BEE:  BNC   2BF6
02BF0:  BTFSC  x07.7
02BF2:  BRA    2BF6
02BF4:  BRA    2C24
....................       Tempouvp[2]=0;write_eeprom(23,0); 
02BF6:  CLRF   x07
02BF8:  CLRF   FAA
02BFA:  MOVLW  17
02BFC:  MOVWF  FA9
02BFE:  CLRF   FA8
02C00:  BCF    FA6.6
02C02:  BCF    FA6.7
02C04:  BSF    FA6.2
02C06:  MOVF   FF2,W
02C08:  MOVWF  00
02C0A:  BCF    FF2.7
02C0C:  MOVLB  F
02C0E:  MOVLW  55
02C10:  MOVWF  FA7
02C12:  MOVLW  AA
02C14:  MOVWF  FA7
02C16:  BSF    FA6.1
02C18:  BTFSC  FA6.1
02C1A:  BRA    2C18
02C1C:  BCF    FA6.2
02C1E:  MOVF   00,W
02C20:  IORWF  FF2,F
02C22:  MOVLB  5
....................    } 
....................    if(Tempouvp[3]>9 || Tempouvp[3]<0){ 
02C24:  BTFSC  x08.7
02C26:  BRA    2C2E
02C28:  MOVF   x08,W
02C2A:  SUBLW  09
02C2C:  BNC   2C34
02C2E:  BTFSC  x08.7
02C30:  BRA    2C34
02C32:  BRA    2C64
....................       Tempouvp[3]=1;write_eeprom(24,1); 
02C34:  MOVLW  01
02C36:  MOVWF  x08
02C38:  CLRF   FAA
02C3A:  MOVLW  18
02C3C:  MOVWF  FA9
02C3E:  MOVLW  01
02C40:  MOVWF  FA8
02C42:  BCF    FA6.6
02C44:  BCF    FA6.7
02C46:  BSF    FA6.2
02C48:  MOVF   FF2,W
02C4A:  MOVWF  00
02C4C:  BCF    FF2.7
02C4E:  MOVLB  F
02C50:  MOVLW  55
02C52:  MOVWF  FA7
02C54:  MOVLW  AA
02C56:  MOVWF  FA7
02C58:  BSF    FA6.1
02C5A:  BTFSC  FA6.1
02C5C:  BRA    2C5A
02C5E:  BCF    FA6.2
02C60:  MOVF   00,W
02C62:  IORWF  FF2,F
....................    } 
....................    if(Ajuste1>2.0){ 
02C64:  MOVLB  6
02C66:  CLRF   x21
02C68:  CLRF   x20
02C6A:  CLRF   x1F
02C6C:  MOVLW  80
02C6E:  MOVWF  x1E
02C70:  MOVFF  544,625
02C74:  MOVFF  543,624
02C78:  MOVFF  542,623
02C7C:  MOVFF  541,622
02C80:  MOVLB  0
02C82:  RCALL  2610
02C84:  BNC   2CEA
....................       Ajuste1=1.5;write_eeprom(25,1);write_eeprom(26,5); 
02C86:  MOVLB  5
02C88:  CLRF   x44
02C8A:  CLRF   x43
02C8C:  MOVLW  40
02C8E:  MOVWF  x42
02C90:  MOVLW  7F
02C92:  MOVWF  x41
02C94:  CLRF   FAA
02C96:  MOVLW  19
02C98:  MOVWF  FA9
02C9A:  MOVLW  01
02C9C:  MOVWF  FA8
02C9E:  BCF    FA6.6
02CA0:  BCF    FA6.7
02CA2:  BSF    FA6.2
02CA4:  MOVF   FF2,W
02CA6:  MOVWF  00
02CA8:  BCF    FF2.7
02CAA:  MOVLB  F
02CAC:  MOVLW  55
02CAE:  MOVWF  FA7
02CB0:  MOVLW  AA
02CB2:  MOVWF  FA7
02CB4:  BSF    FA6.1
02CB6:  BTFSC  FA6.1
02CB8:  BRA    2CB6
02CBA:  BCF    FA6.2
02CBC:  MOVF   00,W
02CBE:  IORWF  FF2,F
02CC0:  CLRF   FAA
02CC2:  MOVLW  1A
02CC4:  MOVWF  FA9
02CC6:  MOVLW  05
02CC8:  MOVWF  FA8
02CCA:  BCF    FA6.6
02CCC:  BCF    FA6.7
02CCE:  BSF    FA6.2
02CD0:  MOVF   FF2,W
02CD2:  MOVWF  00
02CD4:  BCF    FF2.7
02CD6:  MOVLW  55
02CD8:  MOVWF  FA7
02CDA:  MOVLW  AA
02CDC:  MOVWF  FA7
02CDE:  BSF    FA6.1
02CE0:  BTFSC  FA6.1
02CE2:  BRA    2CE0
02CE4:  BCF    FA6.2
02CE6:  MOVF   00,W
02CE8:  IORWF  FF2,F
....................    } 
....................    if(Ajuste2>2.0){ 
02CEA:  MOVLB  6
02CEC:  CLRF   x21
02CEE:  CLRF   x20
02CF0:  CLRF   x1F
02CF2:  MOVLW  80
02CF4:  MOVWF  x1E
02CF6:  MOVFF  548,625
02CFA:  MOVFF  547,624
02CFE:  MOVFF  546,623
02D02:  MOVFF  545,622
02D06:  MOVLB  0
02D08:  RCALL  2610
02D0A:  BNC   2D6C
....................       Ajuste2=1.0;write_eeprom(27,1);write_eeprom(28,0); 
02D0C:  MOVLB  5
02D0E:  CLRF   x48
02D10:  CLRF   x47
02D12:  CLRF   x46
02D14:  MOVLW  7F
02D16:  MOVWF  x45
02D18:  CLRF   FAA
02D1A:  MOVLW  1B
02D1C:  MOVWF  FA9
02D1E:  MOVLW  01
02D20:  MOVWF  FA8
02D22:  BCF    FA6.6
02D24:  BCF    FA6.7
02D26:  BSF    FA6.2
02D28:  MOVF   FF2,W
02D2A:  MOVWF  00
02D2C:  BCF    FF2.7
02D2E:  MOVLB  F
02D30:  MOVLW  55
02D32:  MOVWF  FA7
02D34:  MOVLW  AA
02D36:  MOVWF  FA7
02D38:  BSF    FA6.1
02D3A:  BTFSC  FA6.1
02D3C:  BRA    2D3A
02D3E:  BCF    FA6.2
02D40:  MOVF   00,W
02D42:  IORWF  FF2,F
02D44:  CLRF   FAA
02D46:  MOVLW  1C
02D48:  MOVWF  FA9
02D4A:  CLRF   FA8
02D4C:  BCF    FA6.6
02D4E:  BCF    FA6.7
02D50:  BSF    FA6.2
02D52:  MOVF   FF2,W
02D54:  MOVWF  00
02D56:  BCF    FF2.7
02D58:  MOVLW  55
02D5A:  MOVWF  FA7
02D5C:  MOVLW  AA
02D5E:  MOVWF  FA7
02D60:  BSF    FA6.1
02D62:  BTFSC  FA6.1
02D64:  BRA    2D62
02D66:  BCF    FA6.2
02D68:  MOVF   00,W
02D6A:  IORWF  FF2,F
....................    } 
....................    if(zero_actual>300){ 
02D6C:  MOVLB  6
02D6E:  CLRF   x21
02D70:  CLRF   x20
02D72:  MOVLW  16
02D74:  MOVWF  x1F
02D76:  MOVLW  87
02D78:  MOVWF  x1E
02D7A:  MOVFF  5CC,625
02D7E:  MOVFF  5CB,624
02D82:  MOVFF  5CA,623
02D86:  MOVFF  5C9,622
02D8A:  MOVLB  0
02D8C:  RCALL  2610
02D8E:  BNC   2DF2
....................       zero_actual=203;write_eeprom(29,203);write_eeprom(30,0); 
02D90:  MOVLB  5
02D92:  CLRF   xCC
02D94:  CLRF   xCB
02D96:  MOVLW  4B
02D98:  MOVWF  xCA
02D9A:  MOVLW  86
02D9C:  MOVWF  xC9
02D9E:  CLRF   FAA
02DA0:  MOVLW  1D
02DA2:  MOVWF  FA9
02DA4:  MOVLW  CB
02DA6:  MOVWF  FA8
02DA8:  BCF    FA6.6
02DAA:  BCF    FA6.7
02DAC:  BSF    FA6.2
02DAE:  MOVF   FF2,W
02DB0:  MOVWF  00
02DB2:  BCF    FF2.7
02DB4:  MOVLB  F
02DB6:  MOVLW  55
02DB8:  MOVWF  FA7
02DBA:  MOVLW  AA
02DBC:  MOVWF  FA7
02DBE:  BSF    FA6.1
02DC0:  BTFSC  FA6.1
02DC2:  BRA    2DC0
02DC4:  BCF    FA6.2
02DC6:  MOVF   00,W
02DC8:  IORWF  FF2,F
02DCA:  CLRF   FAA
02DCC:  MOVLW  1E
02DCE:  MOVWF  FA9
02DD0:  CLRF   FA8
02DD2:  BCF    FA6.6
02DD4:  BCF    FA6.7
02DD6:  BSF    FA6.2
02DD8:  MOVF   FF2,W
02DDA:  MOVWF  00
02DDC:  BCF    FF2.7
02DDE:  MOVLW  55
02DE0:  MOVWF  FA7
02DE2:  MOVLW  AA
02DE4:  MOVWF  FA7
02DE6:  BSF    FA6.1
02DE8:  BTFSC  FA6.1
02DEA:  BRA    2DE8
02DEC:  BCF    FA6.2
02DEE:  MOVF   00,W
02DF0:  IORWF  FF2,F
....................    } 
....................    if(minutos_uv>60){ 
02DF2:  MOVLB  4
02DF4:  MOVF   xE6,F
02DF6:  BNZ   2DFE
02DF8:  MOVF   xE5,W
02DFA:  SUBLW  3C
02DFC:  BC    2E2C
....................       minutos_uv=0;write_eeprom(31,0); 
02DFE:  CLRF   xE6
02E00:  CLRF   xE5
02E02:  CLRF   FAA
02E04:  MOVLW  1F
02E06:  MOVWF  FA9
02E08:  CLRF   FA8
02E0A:  BCF    FA6.6
02E0C:  BCF    FA6.7
02E0E:  BSF    FA6.2
02E10:  MOVF   FF2,W
02E12:  MOVWF  00
02E14:  BCF    FF2.7
02E16:  MOVLB  F
02E18:  MOVLW  55
02E1A:  MOVWF  FA7
02E1C:  MOVLW  AA
02E1E:  MOVWF  FA7
02E20:  BSF    FA6.1
02E22:  BTFSC  FA6.1
02E24:  BRA    2E22
02E26:  BCF    FA6.2
02E28:  MOVF   00,W
02E2A:  IORWF  FF2,F
....................    } 
....................    if(VelMotor>6){ 
02E2C:  MOVLB  5
02E2E:  MOVF   xE4,W
02E30:  SUBLW  06
02E32:  BC    2E64
....................       VelMotor=2;write_eeprom(32,2); 
02E34:  MOVLW  02
02E36:  MOVWF  xE4
02E38:  CLRF   FAA
02E3A:  MOVLW  20
02E3C:  MOVWF  FA9
02E3E:  MOVLW  02
02E40:  MOVWF  FA8
02E42:  BCF    FA6.6
02E44:  BCF    FA6.7
02E46:  BSF    FA6.2
02E48:  MOVF   FF2,W
02E4A:  MOVWF  00
02E4C:  BCF    FF2.7
02E4E:  MOVLB  F
02E50:  MOVLW  55
02E52:  MOVWF  FA7
02E54:  MOVLW  AA
02E56:  MOVWF  FA7
02E58:  BSF    FA6.1
02E5A:  BTFSC  FA6.1
02E5C:  BRA    2E5A
02E5E:  BCF    FA6.2
02E60:  MOVF   00,W
02E62:  IORWF  FF2,F
....................    }    
....................    if(minutos_trabajo>3600){ 
02E64:  MOVLB  4
02E66:  MOVF   xE8,W
02E68:  SUBLW  0D
02E6A:  BC    2ECC
02E6C:  XORLW  FF
02E6E:  BNZ   2E76
02E70:  MOVF   xE7,W
02E72:  SUBLW  10
02E74:  BC    2ECC
....................       minutos_trabajo=0;write_eeprom(33,0);write_eeprom(34,0); 
02E76:  CLRF   xE8
02E78:  CLRF   xE7
02E7A:  CLRF   FAA
02E7C:  MOVLW  21
02E7E:  MOVWF  FA9
02E80:  CLRF   FA8
02E82:  BCF    FA6.6
02E84:  BCF    FA6.7
02E86:  BSF    FA6.2
02E88:  MOVF   FF2,W
02E8A:  MOVWF  00
02E8C:  BCF    FF2.7
02E8E:  MOVLB  F
02E90:  MOVLW  55
02E92:  MOVWF  FA7
02E94:  MOVLW  AA
02E96:  MOVWF  FA7
02E98:  BSF    FA6.1
02E9A:  BTFSC  FA6.1
02E9C:  BRA    2E9A
02E9E:  BCF    FA6.2
02EA0:  MOVF   00,W
02EA2:  IORWF  FF2,F
02EA4:  CLRF   FAA
02EA6:  MOVLW  22
02EA8:  MOVWF  FA9
02EAA:  CLRF   FA8
02EAC:  BCF    FA6.6
02EAE:  BCF    FA6.7
02EB0:  BSF    FA6.2
02EB2:  MOVF   FF2,W
02EB4:  MOVWF  00
02EB6:  BCF    FF2.7
02EB8:  MOVLW  55
02EBA:  MOVWF  FA7
02EBC:  MOVLW  AA
02EBE:  MOVWF  FA7
02EC0:  BSF    FA6.1
02EC2:  BTFSC  FA6.1
02EC4:  BRA    2EC2
02EC6:  BCF    FA6.2
02EC8:  MOVF   00,W
02ECA:  IORWF  FF2,F
....................    } 
....................    //if(Relacion>2.0){ 
....................       //Relacion=0.57;write_eeprom(35,0);write_eeprom(36,57); 
....................    //} 
....................    if(Diferencia>200){ 
02ECC:  MOVLB  6
02ECE:  CLRF   x21
02ED0:  CLRF   x20
02ED2:  MOVLW  48
02ED4:  MOVWF  x1F
02ED6:  MOVLW  86
02ED8:  MOVWF  x1E
02EDA:  MOVFF  528,625
02EDE:  MOVFF  527,624
02EE2:  MOVFF  526,623
02EE6:  MOVFF  525,622
02EEA:  MOVLB  0
02EEC:  CALL   2610
02EF0:  BNC   2F4E
....................       Diferencia=0;write_eeprom(60,0);write_eeprom(61,0); 
02EF2:  MOVLB  5
02EF4:  CLRF   x28
02EF6:  CLRF   x27
02EF8:  CLRF   x26
02EFA:  CLRF   x25
02EFC:  CLRF   FAA
02EFE:  MOVLW  3C
02F00:  MOVWF  FA9
02F02:  CLRF   FA8
02F04:  BCF    FA6.6
02F06:  BCF    FA6.7
02F08:  BSF    FA6.2
02F0A:  MOVF   FF2,W
02F0C:  MOVWF  00
02F0E:  BCF    FF2.7
02F10:  MOVLB  F
02F12:  MOVLW  55
02F14:  MOVWF  FA7
02F16:  MOVLW  AA
02F18:  MOVWF  FA7
02F1A:  BSF    FA6.1
02F1C:  BTFSC  FA6.1
02F1E:  BRA    2F1C
02F20:  BCF    FA6.2
02F22:  MOVF   00,W
02F24:  IORWF  FF2,F
02F26:  CLRF   FAA
02F28:  MOVLW  3D
02F2A:  MOVWF  FA9
02F2C:  CLRF   FA8
02F2E:  BCF    FA6.6
02F30:  BCF    FA6.7
02F32:  BSF    FA6.2
02F34:  MOVF   FF2,W
02F36:  MOVWF  00
02F38:  BCF    FF2.7
02F3A:  MOVLW  55
02F3C:  MOVWF  FA7
02F3E:  MOVLW  AA
02F40:  MOVWF  FA7
02F42:  BSF    FA6.1
02F44:  BTFSC  FA6.1
02F46:  BRA    2F44
02F48:  BCF    FA6.2
02F4A:  MOVF   00,W
02F4C:  IORWF  FF2,F
....................    } 
....................    if(G<180 || G>350){ 
02F4E:  MOVFF  5D8,621
02F52:  MOVFF  5D7,620
02F56:  MOVFF  5D6,61F
02F5A:  MOVFF  5D5,61E
02F5E:  MOVLB  6
02F60:  CLRF   x25
02F62:  CLRF   x24
02F64:  MOVLW  34
02F66:  MOVWF  x23
02F68:  MOVLW  86
02F6A:  MOVWF  x22
02F6C:  MOVLB  0
02F6E:  CALL   2610
02F72:  BC    2F9A
02F74:  MOVLB  6
02F76:  CLRF   x21
02F78:  CLRF   x20
02F7A:  MOVLW  2F
02F7C:  MOVWF  x1F
02F7E:  MOVLW  87
02F80:  MOVWF  x1E
02F82:  MOVFF  5D8,625
02F86:  MOVFF  5D7,624
02F8A:  MOVFF  5D6,623
02F8E:  MOVFF  5D5,622
02F92:  MOVLB  0
02F94:  CALL   2610
02F98:  BNC   2FFC
....................       G=240;write_eeprom(62,240);write_eeprom(63,0); 
02F9A:  MOVLB  5
02F9C:  CLRF   xD8
02F9E:  CLRF   xD7
02FA0:  MOVLW  70
02FA2:  MOVWF  xD6
02FA4:  MOVLW  86
02FA6:  MOVWF  xD5
02FA8:  CLRF   FAA
02FAA:  MOVLW  3E
02FAC:  MOVWF  FA9
02FAE:  MOVLW  F0
02FB0:  MOVWF  FA8
02FB2:  BCF    FA6.6
02FB4:  BCF    FA6.7
02FB6:  BSF    FA6.2
02FB8:  MOVF   FF2,W
02FBA:  MOVWF  00
02FBC:  BCF    FF2.7
02FBE:  MOVLB  F
02FC0:  MOVLW  55
02FC2:  MOVWF  FA7
02FC4:  MOVLW  AA
02FC6:  MOVWF  FA7
02FC8:  BSF    FA6.1
02FCA:  BTFSC  FA6.1
02FCC:  BRA    2FCA
02FCE:  BCF    FA6.2
02FD0:  MOVF   00,W
02FD2:  IORWF  FF2,F
02FD4:  CLRF   FAA
02FD6:  MOVLW  3F
02FD8:  MOVWF  FA9
02FDA:  CLRF   FA8
02FDC:  BCF    FA6.6
02FDE:  BCF    FA6.7
02FE0:  BSF    FA6.2
02FE2:  MOVF   FF2,W
02FE4:  MOVWF  00
02FE6:  BCF    FF2.7
02FE8:  MOVLW  55
02FEA:  MOVWF  FA7
02FEC:  MOVLW  AA
02FEE:  MOVWF  FA7
02FF0:  BSF    FA6.1
02FF2:  BTFSC  FA6.1
02FF4:  BRA    2FF2
02FF6:  BCF    FA6.2
02FF8:  MOVF   00,W
02FFA:  IORWF  FF2,F
....................    } 
....................    if(negativo>20){ 
02FFC:  MOVLB  4
02FFE:  MOVF   xD0,W
03000:  SUBLW  14
03002:  BC    3036
....................       negativo=10;write_eeprom(50,10); 
03004:  MOVLW  0A
03006:  MOVWF  xD0
03008:  CLRF   FAA
0300A:  MOVLW  32
0300C:  MOVWF  FA9
0300E:  MOVLW  0A
03010:  MOVWF  FA8
03012:  BCF    FA6.6
03014:  BCF    FA6.7
03016:  BSF    FA6.2
03018:  MOVF   FF2,W
0301A:  MOVWF  00
0301C:  BCF    FF2.7
0301E:  MOVLB  F
03020:  MOVLW  55
03022:  MOVWF  FA7
03024:  MOVLW  AA
03026:  MOVWF  FA7
03028:  BSF    FA6.1
0302A:  BTFSC  FA6.1
0302C:  BRA    302A
0302E:  BCF    FA6.2
03030:  MOVF   00,W
03032:  IORWF  FF2,F
03034:  MOVLB  4
....................    } 
.................... } 
03036:  MOVLB  0
03038:  GOTO   6738 (RETURN)
....................  
.................... void VelocidadMotor(int8 Vel){ 
....................    if(Vel==6){ 
*
01590:  MOVLB  5
01592:  MOVF   xED,W
01594:  SUBLW  06
01596:  BNZ   15A0
....................       Porcentaje=0; 
01598:  CLRF   xE3
....................       Motor_on; 
0159A:  BSF    F8B.2
0159C:  BCF    F94.2
....................    }else if(Vel==5){ 
0159E:  BRA    160E
015A0:  MOVF   xED,W
015A2:  SUBLW  05
015A4:  BNZ   15B4
....................       Porcentaje=15; 
015A6:  MOVLW  0F
015A8:  MOVWF  xE3
....................       retardo=2000; 
015AA:  MOVLW  07
015AC:  MOVWF  xDC
015AE:  MOVLW  D0
015B0:  MOVWF  xDB
....................    }else if(Vel==4){ 
015B2:  BRA    160E
015B4:  MOVF   xED,W
015B6:  SUBLW  04
015B8:  BNZ   15C8
....................       Porcentaje=25; 
015BA:  MOVLW  19
015BC:  MOVWF  xE3
....................       retardo=3000; 
015BE:  MOVLW  0B
015C0:  MOVWF  xDC
015C2:  MOVLW  B8
015C4:  MOVWF  xDB
....................    }else if(Vel==3){ 
015C6:  BRA    160E
015C8:  MOVF   xED,W
015CA:  SUBLW  03
015CC:  BNZ   15DC
....................       Porcentaje=35; 
015CE:  MOVLW  23
015D0:  MOVWF  xE3
....................       retardo=3600; 
015D2:  MOVLW  0E
015D4:  MOVWF  xDC
015D6:  MOVLW  10
015D8:  MOVWF  xDB
....................    }else if(Vel==2){ 
015DA:  BRA    160E
015DC:  MOVF   xED,W
015DE:  SUBLW  02
015E0:  BNZ   15F0
....................       Porcentaje=45; 
015E2:  MOVLW  2D
015E4:  MOVWF  xE3
....................       retardo=4300; 
015E6:  MOVLW  10
015E8:  MOVWF  xDC
015EA:  MOVLW  CC
015EC:  MOVWF  xDB
....................    }else if(Vel==1){ 
015EE:  BRA    160E
015F0:  DECFSZ xED,W
015F2:  BRA    1602
....................       Porcentaje=50; 
015F4:  MOVLW  32
015F6:  MOVWF  xE3
....................       retardo=5000; 
015F8:  MOVLW  13
015FA:  MOVWF  xDC
015FC:  MOVLW  88
015FE:  MOVWF  xDB
....................    }else if(Vel==0){ 
01600:  BRA    160E
01602:  MOVF   xED,F
01604:  BNZ   160E
....................       Porcentaje=100; 
01606:  MOVLW  64
01608:  MOVWF  xE3
....................       Motor_off; 
0160A:  BCF    F8B.2
0160C:  BCF    F94.2
....................    } 
.................... } 
0160E:  MOVLB  0
01610:  RETLW  00
....................  
.................... short PidePassword(int8 MenuAnt, int8 MenuActual, int8 MenuPost, int8 clave0,int8 clave1, int8 clave2,int8 clave3){ 
....................       if(n==0) 
*
04FA2:  MOVLB  4
04FA4:  BTFSC  x2F.5
04FA6:  BRA    503E
....................       { 
....................          displayContrasena(Contrasena[0],20,30,1);displayContrasena(Contrasena[1],40,30,0); 
04FA8:  MOVFF  511,5F7
04FAC:  MOVLW  14
04FAE:  MOVLB  5
04FB0:  MOVWF  xF8
04FB2:  MOVLW  1E
04FB4:  MOVWF  xF9
04FB6:  MOVLW  01
04FB8:  MOVWF  xFA
04FBA:  MOVLB  0
04FBC:  RCALL  4DF2
04FBE:  MOVFF  512,5F7
04FC2:  MOVLW  28
04FC4:  MOVLB  5
04FC6:  MOVWF  xF8
04FC8:  MOVLW  1E
04FCA:  MOVWF  xF9
04FCC:  CLRF   xFA
04FCE:  MOVLB  0
04FD0:  RCALL  4DF2
....................          displayContrasena(Contrasena[2],60,30,0);displayContrasena(Contrasena[0],80,30,0); 
04FD2:  MOVFF  513,5F7
04FD6:  MOVLW  3C
04FD8:  MOVLB  5
04FDA:  MOVWF  xF8
04FDC:  MOVLW  1E
04FDE:  MOVWF  xF9
04FE0:  CLRF   xFA
04FE2:  MOVLB  0
04FE4:  RCALL  4DF2
04FE6:  MOVFF  511,5F7
04FEA:  MOVLW  50
04FEC:  MOVLB  5
04FEE:  MOVWF  xF8
04FF0:  MOVLW  1E
04FF2:  MOVWF  xF9
04FF4:  CLRF   xFA
04FF6:  MOVLB  0
04FF8:  RCALL  4DF2
....................          strcpy(Menus.Letra,"Clave"); 
04FFA:  MOVLW  04
04FFC:  MOVWF  FEA
04FFE:  MOVLW  17
05000:  MOVWF  FE9
05002:  MOVFF  FF2,5F5
05006:  BCF    FF2.7
05008:  MOVLW  00
0500A:  CALL   0F0A
0500E:  TBLRD*-
05010:  TBLRD*+
05012:  MOVF   FF5,W
05014:  MOVWF  FEE
05016:  IORLW  00
05018:  BNZ   5010
0501A:  MOVLB  5
0501C:  BTFSC  xF5.7
0501E:  BSF    FF2.7
....................          displayMenu(Menus.Letra,20,0,1,3); 
05020:  MOVLW  04
05022:  MOVWF  xF6
05024:  MOVLW  17
05026:  MOVWF  xF5
05028:  MOVLW  14
0502A:  MOVWF  xF7
0502C:  CLRF   xF8
0502E:  MOVLW  01
05030:  MOVWF  xF9
05032:  MOVLW  03
05034:  MOVWF  xFA
05036:  MOVLB  0
05038:  RCALL  4EC6
....................          n=1; 
0503A:  MOVLB  4
0503C:  BSF    x2F.5
....................       } 
....................        
....................       if(UP){ 
0503E:  BSF    F92.5
05040:  BTFSC  F80.5
05042:  BRA    511E
....................          flag_latencia=0;t_latencia=0; 
05044:  BCF    x2E.6
05046:  CLRF   xE4
05048:  CLRF   xE3
....................          if(Flanco == 0){ 
0504A:  BTFSC  x2D.0
0504C:  BRA    511C
....................             Flanco = 1;delay_ms(5); 
0504E:  BSF    x2D.0
05050:  MOVLW  05
05052:  MOVLB  6
05054:  MOVWF  x01
05056:  MOVLB  0
05058:  CALL   1568
....................             for(i=1;i<=4;i++){ 
0505C:  MOVLW  01
0505E:  MOVLB  5
05060:  MOVWF  xDD
05062:  MOVF   xDD,W
05064:  SUBLW  04
05066:  BNC   511A
....................                if(unidad==i){ 
05068:  MOVF   xDD,W
0506A:  MOVLB  4
0506C:  SUBWF  xCE,W
0506E:  BNZ   50E4
....................                   Contrasena[i-1]++; 
05070:  MOVLW  01
05072:  MOVLB  5
05074:  SUBWF  xDD,W
05076:  CLRF   03
05078:  ADDLW  11
0507A:  MOVWF  FE9
0507C:  MOVLW  05
0507E:  ADDWFC 03,W
05080:  MOVWF  FEA
05082:  INCF   FEF,F
....................                   if(Contrasena[i-1]>9){ 
05084:  MOVLW  01
05086:  SUBWF  xDD,W
05088:  CLRF   03
0508A:  ADDLW  11
0508C:  MOVWF  FE9
0508E:  MOVLW  05
05090:  ADDWFC 03,W
05092:  MOVWF  FEA
05094:  BTFSC  FEF.7
05096:  BRA    50B0
05098:  MOVF   FEF,W
0509A:  SUBLW  09
0509C:  BC    50B0
....................                      Contrasena[i-1]=0; 
0509E:  MOVLW  01
050A0:  SUBWF  xDD,W
050A2:  CLRF   03
050A4:  ADDLW  11
050A6:  MOVWF  FE9
050A8:  MOVLW  05
050AA:  ADDWFC 03,W
050AC:  MOVWF  FEA
050AE:  CLRF   FEF
....................                   } 
....................                   displayContrasena(Contrasena[i-1],i*20,30,1); 
050B0:  MOVLW  01
050B2:  SUBWF  xDD,W
050B4:  CLRF   03
050B6:  ADDLW  11
050B8:  MOVWF  FE9
050BA:  MOVLW  05
050BC:  ADDWFC 03,W
050BE:  MOVWF  FEA
050C0:  MOVFF  FEF,5F5
050C4:  MOVF   xDD,W
050C6:  MULLW  14
050C8:  MOVFF  FF3,5F6
050CC:  MOVFF  5F5,5F7
050D0:  MOVFF  5F6,5F8
050D4:  MOVLW  1E
050D6:  MOVWF  xF9
050D8:  MOVLW  01
050DA:  MOVWF  xFA
050DC:  MOVLB  0
050DE:  RCALL  4DF2
....................                }else{ 
050E0:  BRA    5114
050E2:  MOVLB  4
....................                   displayContrasena(Contrasena[i-1],i*20,30,0); 
050E4:  MOVLW  01
050E6:  MOVLB  5
050E8:  SUBWF  xDD,W
050EA:  CLRF   03
050EC:  ADDLW  11
050EE:  MOVWF  FE9
050F0:  MOVLW  05
050F2:  ADDWFC 03,W
050F4:  MOVWF  FEA
050F6:  MOVFF  FEF,5F5
050FA:  MOVF   xDD,W
050FC:  MULLW  14
050FE:  MOVFF  FF3,5F6
05102:  MOVFF  5F5,5F7
05106:  MOVFF  5F6,5F8
0510A:  MOVLW  1E
0510C:  MOVWF  xF9
0510E:  CLRF   xFA
05110:  MOVLB  0
05112:  RCALL  4DF2
....................                } 
....................             } 
05114:  MOVLB  5
05116:  INCF   xDD,F
05118:  BRA    5062
0511A:  MOVLB  4
....................          } 
....................       }else{ 
0511C:  BRA    5120
....................          Flanco = 0; 
0511E:  BCF    x2D.0
....................       } 
....................              
....................       if(DOWN){ 
05120:  BSF    F96.0
05122:  BTFSC  F84.0
05124:  BRA    51FE
....................          flag_latencia=0;t_latencia=0; 
05126:  BCF    x2E.6
05128:  CLRF   xE4
0512A:  CLRF   xE3
....................          if(Flanco2 == 0){ 
0512C:  BTFSC  x2D.2
0512E:  BRA    51FC
....................             Flanco2 = 1;delay_ms(5); 
05130:  BSF    x2D.2
05132:  MOVLW  05
05134:  MOVLB  6
05136:  MOVWF  x01
05138:  MOVLB  0
0513A:  CALL   1568
....................             for(i=1;i<=4;i++){ 
0513E:  MOVLW  01
05140:  MOVLB  5
05142:  MOVWF  xDD
05144:  MOVF   xDD,W
05146:  SUBLW  04
05148:  BNC   51FA
....................                if(unidad==i){ 
0514A:  MOVF   xDD,W
0514C:  MOVLB  4
0514E:  SUBWF  xCE,W
05150:  BNZ   51C4
....................                   Contrasena[i-1]--; 
05152:  MOVLW  01
05154:  MOVLB  5
05156:  SUBWF  xDD,W
05158:  CLRF   03
0515A:  ADDLW  11
0515C:  MOVWF  FE9
0515E:  MOVLW  05
05160:  ADDWFC 03,W
05162:  MOVWF  FEA
05164:  DECF   FEF,F
....................                   if(Contrasena[i-1]<0){ 
05166:  MOVLW  01
05168:  SUBWF  xDD,W
0516A:  CLRF   03
0516C:  ADDLW  11
0516E:  MOVWF  FE9
05170:  MOVLW  05
05172:  ADDWFC 03,W
05174:  MOVWF  FEA
05176:  BTFSC  FEF.7
05178:  BRA    517C
0517A:  BRA    5190
....................                      Contrasena[i-1]=9; 
0517C:  MOVLW  01
0517E:  SUBWF  xDD,W
05180:  CLRF   03
05182:  ADDLW  11
05184:  MOVWF  FE9
05186:  MOVLW  05
05188:  ADDWFC 03,W
0518A:  MOVWF  FEA
0518C:  MOVLW  09
0518E:  MOVWF  FEF
....................                   } 
....................                   displayContrasena(Contrasena[i-1],i*20,30,1); 
05190:  MOVLW  01
05192:  SUBWF  xDD,W
05194:  CLRF   03
05196:  ADDLW  11
05198:  MOVWF  FE9
0519A:  MOVLW  05
0519C:  ADDWFC 03,W
0519E:  MOVWF  FEA
051A0:  MOVFF  FEF,5F5
051A4:  MOVF   xDD,W
051A6:  MULLW  14
051A8:  MOVFF  FF3,5F6
051AC:  MOVFF  5F5,5F7
051B0:  MOVFF  5F6,5F8
051B4:  MOVLW  1E
051B6:  MOVWF  xF9
051B8:  MOVLW  01
051BA:  MOVWF  xFA
051BC:  MOVLB  0
051BE:  RCALL  4DF2
....................                }else{ 
051C0:  BRA    51F4
051C2:  MOVLB  4
....................                   displayContrasena(Contrasena[i-1],i*20,30,0); 
051C4:  MOVLW  01
051C6:  MOVLB  5
051C8:  SUBWF  xDD,W
051CA:  CLRF   03
051CC:  ADDLW  11
051CE:  MOVWF  FE9
051D0:  MOVLW  05
051D2:  ADDWFC 03,W
051D4:  MOVWF  FEA
051D6:  MOVFF  FEF,5F5
051DA:  MOVF   xDD,W
051DC:  MULLW  14
051DE:  MOVFF  FF3,5F6
051E2:  MOVFF  5F5,5F7
051E6:  MOVFF  5F6,5F8
051EA:  MOVLW  1E
051EC:  MOVWF  xF9
051EE:  CLRF   xFA
051F0:  MOVLB  0
051F2:  RCALL  4DF2
....................                } 
....................             }       
051F4:  MOVLB  5
051F6:  INCF   xDD,F
051F8:  BRA    5144
051FA:  MOVLB  4
....................          }      
....................       }else{ 
051FC:  BRA    5200
....................          Flanco2 = 0; 
051FE:  BCF    x2D.2
....................       } 
....................              
....................       if(RIGHT){ 
05200:  BSF    F96.1
05202:  BTFSC  F84.1
05204:  BRA    52A6
....................          flag_latencia=0;t_latencia=0; 
05206:  BCF    x2E.6
05208:  CLRF   xE4
0520A:  CLRF   xE3
....................          if(Flanco1 == 0){ 
0520C:  BTFSC  x2D.1
0520E:  BRA    52A4
....................             Flanco1 = 1;delay_ms(5);unidad++; 
05210:  BSF    x2D.1
05212:  MOVLW  05
05214:  MOVLB  6
05216:  MOVWF  x01
05218:  MOVLB  0
0521A:  CALL   1568
0521E:  MOVLB  4
05220:  INCF   xCE,F
....................             for(i=1;i<=4;i++){ 
05222:  MOVLW  01
05224:  MOVLB  5
05226:  MOVWF  xDD
05228:  MOVF   xDD,W
0522A:  SUBLW  04
0522C:  BNC   52A2
....................                if(unidad==i){ 
0522E:  MOVF   xDD,W
05230:  MOVLB  4
05232:  SUBWF  xCE,W
05234:  BNZ   526C
....................                   displayContrasena(Contrasena[i-1],i*20,30,1); 
05236:  MOVLW  01
05238:  MOVLB  5
0523A:  SUBWF  xDD,W
0523C:  CLRF   03
0523E:  ADDLW  11
05240:  MOVWF  FE9
05242:  MOVLW  05
05244:  ADDWFC 03,W
05246:  MOVWF  FEA
05248:  MOVFF  FEF,5F5
0524C:  MOVF   xDD,W
0524E:  MULLW  14
05250:  MOVFF  FF3,5F6
05254:  MOVFF  5F5,5F7
05258:  MOVFF  5F6,5F8
0525C:  MOVLW  1E
0525E:  MOVWF  xF9
05260:  MOVLW  01
05262:  MOVWF  xFA
05264:  MOVLB  0
05266:  RCALL  4DF2
....................                }else{ 
05268:  BRA    529C
0526A:  MOVLB  4
....................                   displayContrasena(Contrasena[i-1],i*20,30,0); 
0526C:  MOVLW  01
0526E:  MOVLB  5
05270:  SUBWF  xDD,W
05272:  CLRF   03
05274:  ADDLW  11
05276:  MOVWF  FE9
05278:  MOVLW  05
0527A:  ADDWFC 03,W
0527C:  MOVWF  FEA
0527E:  MOVFF  FEF,5F5
05282:  MOVF   xDD,W
05284:  MULLW  14
05286:  MOVFF  FF3,5F6
0528A:  MOVFF  5F5,5F7
0528E:  MOVFF  5F6,5F8
05292:  MOVLW  1E
05294:  MOVWF  xF9
05296:  CLRF   xFA
05298:  MOVLB  0
0529A:  RCALL  4DF2
....................                } 
....................             } 
0529C:  MOVLB  5
0529E:  INCF   xDD,F
052A0:  BRA    5228
052A2:  MOVLB  4
....................          } 
....................       }else{ 
052A4:  BRA    52A8
....................          Flanco1 = 0; 
052A6:  BCF    x2D.1
....................       } 
....................        
....................       if(LEFT){ 
052A8:  BSF    F96.2
052AA:  BTFSC  F84.2
052AC:  BRA    52F6
....................          delay_ms(100); 
052AE:  MOVLW  64
052B0:  MOVLB  6
052B2:  MOVWF  x01
052B4:  MOVLB  0
052B6:  CALL   1568
....................          if(LEFT){ 
052BA:  BSF    F96.2
052BC:  BTFSC  F84.2
052BE:  BRA    52F4
....................             Menu=MenuAnt;glcd_fillScreen(OFF);n=0;Opcion=1;unidad=1; 
052C0:  MOVFF  5EE,4CD
052C4:  MOVLB  5
052C6:  CLRF   xF5
052C8:  MOVLB  0
052CA:  CALL   1648
052CE:  MOVLB  4
052D0:  BCF    x2F.5
052D2:  MOVLW  01
052D4:  MOVWF  xCF
052D6:  MOVWF  xCE
....................             Contrasena[0]=0;Contrasena[1]=0;Contrasena[2]=0;Contrasena[3]=0; 
052D8:  MOVLB  5
052DA:  CLRF   x11
052DC:  CLRF   x12
052DE:  CLRF   x13
052E0:  CLRF   x14
....................             glcd_fillScreen(OFF);glcd_update(); 
052E2:  CLRF   xF5
052E4:  MOVLB  0
052E6:  CALL   1648
052EA:  CALL   16A2
....................             return 1; 
052EE:  MOVLW  01
052F0:  MOVWF  01
052F2:  BRA    5684
052F4:  MOVLB  4
....................          } 
....................       } 
....................      
....................       if(unidad>4){ 
052F6:  MOVF   xCE,W
052F8:  SUBLW  04
052FA:  BTFSC  FD8.0
052FC:  BRA    5686
....................          glcd_fillScreen(OFF);unidad=1;flag_latencia=0;t_latencia=0; 
052FE:  MOVLB  5
05300:  CLRF   xF5
05302:  MOVLB  0
05304:  CALL   1648
05308:  MOVLW  01
0530A:  MOVLB  4
0530C:  MOVWF  xCE
0530E:  BCF    x2E.6
05310:  CLRF   xE4
05312:  CLRF   xE3
....................           
....................          if(Contrasena[0]==3&&Contrasena[1]==8&&Contrasena[2]==9&&Contrasena[3]==2 && MenuActual==0){ // Si Ingresa clave para reset general del sistema. 
05314:  MOVLB  5
05316:  MOVF   x11,W
05318:  SUBLW  03
0531A:  BTFSS  FD8.2
0531C:  BRA    5410
0531E:  MOVF   x12,W
05320:  SUBLW  08
05322:  BTFSS  FD8.2
05324:  BRA    5410
05326:  MOVF   x13,W
05328:  SUBLW  09
0532A:  BNZ   5410
0532C:  MOVF   x14,W
0532E:  SUBLW  02
05330:  BNZ   5410
05332:  MOVF   xEF,F
05334:  BNZ   5410
....................             write_eeprom(0,0);delay_ms(20);write_eeprom(1,0);delay_ms(20);// Reestablece a contrasea de Fabrica y reinicia Programa. 
05336:  CLRF   FAA
05338:  CLRF   FA9
0533A:  CLRF   FA8
0533C:  BCF    FA6.6
0533E:  BCF    FA6.7
05340:  BSF    FA6.2
05342:  MOVF   FF2,W
05344:  MOVWF  00
05346:  BCF    FF2.7
05348:  MOVLB  F
0534A:  MOVLW  55
0534C:  MOVWF  FA7
0534E:  MOVLW  AA
05350:  MOVWF  FA7
05352:  BSF    FA6.1
05354:  BTFSC  FA6.1
05356:  BRA    5354
05358:  BCF    FA6.2
0535A:  MOVF   00,W
0535C:  IORWF  FF2,F
0535E:  MOVLW  14
05360:  MOVLB  6
05362:  MOVWF  x01
05364:  MOVLB  0
05366:  CALL   1568
0536A:  CLRF   FAA
0536C:  MOVLW  01
0536E:  MOVWF  FA9
05370:  CLRF   FA8
05372:  BCF    FA6.6
05374:  BCF    FA6.7
05376:  BSF    FA6.2
05378:  MOVF   FF2,W
0537A:  MOVWF  00
0537C:  BCF    FF2.7
0537E:  MOVLB  F
05380:  MOVLW  55
05382:  MOVWF  FA7
05384:  MOVLW  AA
05386:  MOVWF  FA7
05388:  BSF    FA6.1
0538A:  BTFSC  FA6.1
0538C:  BRA    538A
0538E:  BCF    FA6.2
05390:  MOVF   00,W
05392:  IORWF  FF2,F
05394:  MOVLW  14
05396:  MOVLB  6
05398:  MOVWF  x01
0539A:  MOVLB  0
0539C:  CALL   1568
....................             write_eeprom(2,0);delay_ms(20);write_eeprom(3,0);delay_ms(20); 
053A0:  CLRF   FAA
053A2:  MOVLW  02
053A4:  MOVWF  FA9
053A6:  CLRF   FA8
053A8:  BCF    FA6.6
053AA:  BCF    FA6.7
053AC:  BSF    FA6.2
053AE:  MOVF   FF2,W
053B0:  MOVWF  00
053B2:  BCF    FF2.7
053B4:  MOVLB  F
053B6:  MOVLW  55
053B8:  MOVWF  FA7
053BA:  MOVLW  AA
053BC:  MOVWF  FA7
053BE:  BSF    FA6.1
053C0:  BTFSC  FA6.1
053C2:  BRA    53C0
053C4:  BCF    FA6.2
053C6:  MOVF   00,W
053C8:  IORWF  FF2,F
053CA:  MOVLW  14
053CC:  MOVLB  6
053CE:  MOVWF  x01
053D0:  MOVLB  0
053D2:  CALL   1568
053D6:  CLRF   FAA
053D8:  MOVLW  03
053DA:  MOVWF  FA9
053DC:  CLRF   FA8
053DE:  BCF    FA6.6
053E0:  BCF    FA6.7
053E2:  BSF    FA6.2
053E4:  MOVF   FF2,W
053E6:  MOVWF  00
053E8:  BCF    FF2.7
053EA:  MOVLB  F
053EC:  MOVLW  55
053EE:  MOVWF  FA7
053F0:  MOVLW  AA
053F2:  MOVWF  FA7
053F4:  BSF    FA6.1
053F6:  BTFSC  FA6.1
053F8:  BRA    53F6
053FA:  BCF    FA6.2
053FC:  MOVF   00,W
053FE:  IORWF  FF2,F
05400:  MOVLW  14
05402:  MOVLB  6
05404:  MOVWF  x01
05406:  MOVLB  0
05408:  CALL   1568
....................             reset_cpu(); 
0540C:  RESET
0540E:  MOVLB  5
....................          } 
....................        
....................          if((Contrasena[0]==clave0)&&(Contrasena[1]==clave1)&&(Contrasena[2]==clave2)&&(Contrasena[3]==clave3)){ 
05410:  MOVF   xF1,W
05412:  SUBWF  x11,W
05414:  BTFSS  FD8.2
05416:  BRA    54FA
05418:  MOVF   xF2,W
0541A:  SUBWF  x12,W
0541C:  BNZ   54FA
0541E:  MOVF   xF3,W
05420:  SUBWF  x13,W
05422:  BNZ   54FA
05424:  MOVF   xF4,W
05426:  SUBWF  x14,W
05428:  BNZ   54FA
....................             glcd_fillScreen(OFF); 
0542A:  CLRF   xF5
0542C:  MOVLB  0
0542E:  CALL   1648
....................             strcpy(Menus.Letra,"Clave"); 
05432:  MOVLW  04
05434:  MOVWF  FEA
05436:  MOVLW  17
05438:  MOVWF  FE9
0543A:  MOVFF  FF2,5F5
0543E:  BCF    FF2.7
05440:  MOVLW  00
05442:  CALL   0F0A
05446:  TBLRD*-
05448:  TBLRD*+
0544A:  MOVF   FF5,W
0544C:  MOVWF  FEE
0544E:  IORLW  00
05450:  BNZ   5448
05452:  MOVLB  5
05454:  BTFSC  xF5.7
05456:  BSF    FF2.7
....................             displayMenu(Menus.Letra,30,0,0,2); 
05458:  MOVLW  04
0545A:  MOVWF  xF6
0545C:  MOVLW  17
0545E:  MOVWF  xF5
05460:  MOVLW  1E
05462:  MOVWF  xF7
05464:  CLRF   xF8
05466:  CLRF   xF9
05468:  MOVLW  02
0546A:  MOVWF  xFA
0546C:  MOVLB  0
0546E:  RCALL  4EC6
....................             strcpy(Menus.Letra,"Correcta"); 
05470:  MOVLW  04
05472:  MOVWF  FEA
05474:  MOVLW  17
05476:  MOVWF  FE9
05478:  MOVFF  FF2,5F5
0547C:  BCF    FF2.7
0547E:  MOVLW  00
05480:  CALL   0F2E
05484:  TBLRD*-
05486:  TBLRD*+
05488:  MOVF   FF5,W
0548A:  MOVWF  FEE
0548C:  IORLW  00
0548E:  BNZ   5486
05490:  MOVLB  5
05492:  BTFSC  xF5.7
05494:  BSF    FF2.7
....................             displayMenu(Menus.Letra,15,30,0,2); 
05496:  MOVLW  04
05498:  MOVWF  xF6
0549A:  MOVLW  17
0549C:  MOVWF  xF5
0549E:  MOVLW  0F
054A0:  MOVWF  xF7
054A2:  MOVLW  1E
054A4:  MOVWF  xF8
054A6:  CLRF   xF9
054A8:  MOVLW  02
054AA:  MOVWF  xFA
054AC:  MOVLB  0
054AE:  RCALL  4EC6
....................             Menu=MenuPost;glcd_update();delay_ms(1000);glcd_fillScreen(OFF); 
054B0:  MOVFF  5F0,4CD
054B4:  CALL   16A2
054B8:  MOVLW  04
054BA:  MOVLB  5
054BC:  MOVWF  xF5
054BE:  MOVLW  FA
054C0:  MOVLB  6
054C2:  MOVWF  x01
054C4:  MOVLB  0
054C6:  CALL   1568
054CA:  MOVLB  5
054CC:  DECFSZ xF5,F
054CE:  BRA    54BE
054D0:  CLRF   xF5
054D2:  MOVLB  0
054D4:  CALL   1648
....................             Contrasena[0]=0;Contrasena[1]=0;Contrasena[2]=0;Contrasena[3]=0; 
054D8:  MOVLB  5
054DA:  CLRF   x11
054DC:  CLRF   x12
054DE:  CLRF   x13
054E0:  CLRF   x14
....................             if(MenuActual==0)tiempo_purga=1;n=0; 
054E2:  MOVF   xEF,F
054E4:  BNZ   54EA
054E6:  MOVLB  4
054E8:  BSF    x2E.4
054EA:  MOVLB  4
054EC:  BCF    x2F.5
....................             return 1; 
054EE:  MOVLW  01
054F0:  MOVWF  01
054F2:  MOVLB  0
054F4:  BRA    5684
....................          }else{ 
054F6:  BRA    5684
054F8:  MOVLB  5
....................             glcd_fillScreen(OFF); 
054FA:  CLRF   xF5
054FC:  MOVLB  0
054FE:  CALL   1648
....................             strcpy(Menus.Letra,"Clave"); 
05502:  MOVLW  04
05504:  MOVWF  FEA
05506:  MOVLW  17
05508:  MOVWF  FE9
0550A:  MOVFF  FF2,5F5
0550E:  BCF    FF2.7
05510:  MOVLW  00
05512:  CALL   0F0A
05516:  TBLRD*-
05518:  TBLRD*+
0551A:  MOVF   FF5,W
0551C:  MOVWF  FEE
0551E:  IORLW  00
05520:  BNZ   5518
05522:  MOVLB  5
05524:  BTFSC  xF5.7
05526:  BSF    FF2.7
....................             displayMenu(Menus.Letra,30,0,0,2); 
05528:  MOVLW  04
0552A:  MOVWF  xF6
0552C:  MOVLW  17
0552E:  MOVWF  xF5
05530:  MOVLW  1E
05532:  MOVWF  xF7
05534:  CLRF   xF8
05536:  CLRF   xF9
05538:  MOVLW  02
0553A:  MOVWF  xFA
0553C:  MOVLB  0
0553E:  RCALL  4EC6
....................             strcpy(Menus.Letra,"Incorrecta"); 
05540:  MOVLW  04
05542:  MOVWF  FEA
05544:  MOVLW  17
05546:  MOVWF  FE9
05548:  MOVFF  FF2,5F5
0554C:  BCF    FF2.7
0554E:  MOVLW  00
05550:  CALL   0F56
05554:  TBLRD*-
05556:  TBLRD*+
05558:  MOVF   FF5,W
0555A:  MOVWF  FEE
0555C:  IORLW  00
0555E:  BNZ   5556
05560:  MOVLB  5
05562:  BTFSC  xF5.7
05564:  BSF    FF2.7
....................             displayMenu(Menus.Letra,0,30,0,2); 
05566:  MOVLW  04
05568:  MOVWF  xF6
0556A:  MOVLW  17
0556C:  MOVWF  xF5
0556E:  CLRF   xF7
05570:  MOVLW  1E
05572:  MOVWF  xF8
05574:  CLRF   xF9
05576:  MOVLW  02
05578:  MOVWF  xFA
0557A:  MOVLB  0
0557C:  RCALL  4EC6
....................             unidad=1;glcd_update();delay_ms(1000);Contrasena[0]=0;Contrasena[1]=0;Contrasena[2]=0;Contrasena[3]=0;glcd_fillScreen(OFF); 
0557E:  MOVLW  01
05580:  MOVLB  4
05582:  MOVWF  xCE
05584:  MOVLB  0
05586:  CALL   16A2
0558A:  MOVLW  04
0558C:  MOVLB  5
0558E:  MOVWF  xF5
05590:  MOVLW  FA
05592:  MOVLB  6
05594:  MOVWF  x01
05596:  MOVLB  0
05598:  CALL   1568
0559C:  MOVLB  5
0559E:  DECFSZ xF5,F
055A0:  BRA    5590
055A2:  CLRF   x11
055A4:  CLRF   x12
055A6:  CLRF   x13
055A8:  CLRF   x14
055AA:  CLRF   xF5
055AC:  MOVLB  0
055AE:  CALL   1648
....................             glcd_rect(0, 0, 127, 25, YES, ON);strcpy(Menus.Letra,"Clave");glcd_text57(25, 1, Menus.Letra, 3, OFF);displayContrasena(Contrasena[0],20,30,1); 
055B2:  MOVLB  6
055B4:  CLRF   x06
055B6:  CLRF   x07
055B8:  MOVLW  7F
055BA:  MOVWF  x08
055BC:  MOVLW  19
055BE:  MOVWF  x09
055C0:  MOVLW  01
055C2:  MOVWF  x0A
055C4:  MOVWF  x0B
055C6:  MOVLB  0
055C8:  CALL   4D2E
055CC:  MOVLW  04
055CE:  MOVWF  FEA
055D0:  MOVLW  17
055D2:  MOVWF  FE9
055D4:  MOVFF  FF2,5F5
055D8:  BCF    FF2.7
055DA:  MOVLW  00
055DC:  CALL   0F0A
055E0:  TBLRD*-
055E2:  TBLRD*+
055E4:  MOVF   FF5,W
055E6:  MOVWF  FEE
055E8:  IORLW  00
055EA:  BNZ   55E2
055EC:  MOVLB  5
055EE:  BTFSC  xF5.7
055F0:  BSF    FF2.7
055F2:  MOVLW  19
055F4:  MOVLB  6
055F6:  MOVWF  x06
055F8:  MOVLW  01
055FA:  MOVWF  x07
055FC:  MOVLW  04
055FE:  MOVWF  x09
05600:  MOVLW  17
05602:  MOVWF  x08
05604:  MOVLW  03
05606:  MOVWF  x0A
05608:  CLRF   x0B
0560A:  MOVLB  0
0560C:  CALL   18BE
05610:  MOVFF  511,5F7
05614:  MOVLW  14
05616:  MOVLB  5
05618:  MOVWF  xF8
0561A:  MOVLW  1E
0561C:  MOVWF  xF9
0561E:  MOVLW  01
05620:  MOVWF  xFA
05622:  MOVLB  0
05624:  CALL   4DF2
....................             displayContrasena(Contrasena[1],40,30,0);displayContrasena(Contrasena[2],60,30,0);displayContrasena(Contrasena[0],80,30,0); 
05628:  MOVFF  512,5F7
0562C:  MOVLW  28
0562E:  MOVLB  5
05630:  MOVWF  xF8
05632:  MOVLW  1E
05634:  MOVWF  xF9
05636:  CLRF   xFA
05638:  MOVLB  0
0563A:  CALL   4DF2
0563E:  MOVFF  513,5F7
05642:  MOVLW  3C
05644:  MOVLB  5
05646:  MOVWF  xF8
05648:  MOVLW  1E
0564A:  MOVWF  xF9
0564C:  CLRF   xFA
0564E:  MOVLB  0
05650:  CALL   4DF2
05654:  MOVFF  511,5F7
05658:  MOVLW  50
0565A:  MOVLB  5
0565C:  MOVWF  xF8
0565E:  MOVLW  1E
05660:  MOVWF  xF9
05662:  CLRF   xFA
05664:  MOVLB  0
05666:  CALL   4DF2
....................             Menu=MenuAnt;glcd_fillScreen(OFF);n=0; 
0566A:  MOVFF  5EE,4CD
0566E:  MOVLB  5
05670:  CLRF   xF5
05672:  MOVLB  0
05674:  CALL   1648
05678:  MOVLB  4
0567A:  BCF    x2F.5
....................             return 0; 
0567C:  MOVLW  00
0567E:  MOVWF  01
05680:  MOVLB  0
05682:  BRA    5684
05684:  MOVLB  4
....................          } 
....................       } 
.................... } 
05686:  MOVLB  0
05688:  RETLW  00
....................  
....................  
.................... #int_EXT            // Interrupcin de encoder para control. 
.................... void ext0() {       // 6 pulsos por vuelta. 
....................       if(UP) 
*
013E6:  BSF    F92.5
013E8:  BTFSC  F80.5
013EA:  BRA    13F6
....................          tup++; 
013EC:  MOVLB  4
013EE:  INCF   xEB,F
013F0:  BTFSC  FD8.2
013F2:  INCF   xEC,F
....................       else 
013F4:  BRA    13FC
....................          tup=0; 
013F6:  MOVLB  4
013F8:  CLRF   xEC
013FA:  CLRF   xEB
....................           
....................       if(DOWN) 
013FC:  BSF    F96.0
013FE:  BTFSC  F84.0
01400:  BRA    140A
....................          tdown++; 
01402:  INCF   xED,F
01404:  BTFSC  FD8.2
01406:  INCF   xEE,F
....................       else 
01408:  BRA    140E
....................          tdown=0; 
0140A:  CLRF   xEE
0140C:  CLRF   xED
....................           
....................       if(RIGHT) 
0140E:  BSF    F96.1
01410:  BTFSC  F84.1
01412:  BRA    141C
....................          tright++; 
01414:  INCF   xEF,F
01416:  BTFSC  FD8.2
01418:  INCF   xF0,F
....................       else 
0141A:  BRA    1420
....................          tright=0; 
0141C:  CLRF   xF0
0141E:  CLRF   xEF
....................        
....................       if(LEFT) 
01420:  BSF    F96.2
01422:  BTFSC  F84.2
01424:  BRA    142E
....................          tleft++; 
01426:  INCF   xF1,F
01428:  BTFSC  FD8.2
0142A:  INCF   xF2,F
....................       else 
0142C:  BRA    1432
....................          tleft=0; 
0142E:  CLRF   xF2
01430:  CLRF   xF1
....................           
....................       if(VIDRIODN){ 
01432:  BSF    F92.3
01434:  BTFSC  F80.3
01436:  BRA    144A
....................          if(tvidrio<60){ 
01438:  MOVF   xF4,F
0143A:  BNZ   1448
0143C:  MOVF   xF3,W
0143E:  SUBLW  3B
01440:  BNC   1448
....................             tvidrio++; 
01442:  INCF   xF3,F
01444:  BTFSC  FD8.2
01446:  INCF   xF4,F
....................          } 
....................       }else{ 
01448:  BRA    144E
....................          tvidrio=0; 
0144A:  CLRF   xF4
0144C:  CLRF   xF3
....................       } 
....................        
....................    pulsos++; 
0144E:  MOVLB  5
01450:  INCF   xD9,F
01452:  BTFSC  FD8.2
01454:  INCF   xDA,F
....................    if(pulsos>=120){ 
01456:  MOVF   xDA,F
01458:  BNZ   1460
0145A:  MOVF   xD9,W
0145C:  SUBLW  77
0145E:  BC    1510
....................       pulsos=0; 
01460:  CLRF   xDA
01462:  CLRF   xD9
....................       imprimir=1;Lectura=1;tiemporeset++; 
01464:  MOVLB  4
01466:  BSF    x2D.6
01468:  BSF    x2F.4
0146A:  INCF   xD3,F
....................     
....................       if(flag_blower==1) 
0146C:  BTFSS  x2D.7
0146E:  BRA    1476
....................          minutos_trabajo++;  
01470:  INCF   xE7,F
01472:  BTFSC  FD8.2
01474:  INCF   xE8,F
....................        
....................       if(tiempo_uv==1){ 
01476:  BTFSS  x2F.0
01478:  BRA    14CA
....................          segundos_uv++; 
0147A:  INCF   xE1,F
0147C:  BTFSC  FD8.2
0147E:  INCF   xE2,F
....................        
....................          if(Tempouv[0]>0){ 
01480:  MOVLB  5
01482:  BTFSC  x09.7
01484:  BRA    1490
01486:  MOVF   x09,W
01488:  SUBLW  00
0148A:  BC    1490
....................             Tempouv[0]--; 
0148C:  DECF   x09,F
....................          }else{ 
0148E:  BRA    14CC
....................             Tempouv[0]=9; 
01490:  MOVLW  09
01492:  MOVWF  x09
....................             if(Tempouv[1]>0){ 
01494:  BTFSC  x0A.7
01496:  BRA    14A2
01498:  MOVF   x0A,W
0149A:  SUBLW  00
0149C:  BC    14A2
....................                Tempouv[1]--; 
0149E:  DECF   x0A,F
....................             }else{ 
014A0:  BRA    14CC
....................                Tempouv[1]=5; 
014A2:  MOVLW  05
014A4:  MOVWF  x0A
....................                if(Tempouv[2]>0){ 
014A6:  BTFSC  x0B.7
014A8:  BRA    14B4
014AA:  MOVF   x0B,W
014AC:  SUBLW  00
014AE:  BC    14B4
....................                   Tempouv[2]--; 
014B0:  DECF   x0B,F
....................                }else{ 
014B2:  BRA    14CC
....................                   Tempouv[2]=9; 
014B4:  MOVLW  09
014B6:  MOVWF  x0B
....................                   if(Tempouv[3]>0){ 
014B8:  BTFSC  x0C.7
014BA:  BRA    14C6
014BC:  MOVF   x0C,W
014BE:  SUBLW  00
014C0:  BC    14C6
....................                      Tempouv[3]--; 
014C2:  DECF   x0C,F
....................                   }else{ 
014C4:  BRA    14CC
....................                      tiempocumplido=1; 
014C6:  MOVLB  4
014C8:  BSF    x2F.2
014CA:  MOVLB  5
....................                   } 
....................                } 
....................             } 
....................          }     
....................       } 
....................    
....................       if(tiempo_purga==1 || Purga){                   
014CC:  MOVLB  4
014CE:  BTFSC  x2E.4
014D0:  BRA    14D6
014D2:  BTFSS  x2F.7
014D4:  BRA    150E
....................          Tpurga[0]++; 
014D6:  INCF   xF5,F
....................          if(Tpurga[0]>9){ 
014D8:  BTFSC  xF5.7
014DA:  BRA    14E6
014DC:  MOVF   xF5,W
014DE:  SUBLW  09
014E0:  BC    14E6
....................             Tpurga[0]=0; 
014E2:  CLRF   xF5
....................             Tpurga[1]++; 
014E4:  INCF   xF6,F
....................          } 
....................          if(Tpurga[1]>5){ 
014E6:  BTFSC  xF6.7
014E8:  BRA    14F4
014EA:  MOVF   xF6,W
014EC:  SUBLW  05
014EE:  BC    14F4
....................             Tpurga[1]=0; 
014F0:  CLRF   xF6
....................             Tpurga[2]++; 
014F2:  INCF   xF7,F
....................          } 
....................          if(Tpurga[2]>9){ 
014F4:  BTFSC  xF7.7
014F6:  BRA    1502
014F8:  MOVF   xF7,W
014FA:  SUBLW  09
014FC:  BC    1502
....................             Tpurga[2]=0; 
014FE:  CLRF   xF7
....................             Tpurga[3]++; 
01500:  INCF   xF8,F
....................          } 
....................          if(Tpurga[3]>5){ 
01502:  BTFSC  xF8.7
01504:  BRA    150E
01506:  MOVF   xF8,W
01508:  SUBLW  05
0150A:  BC    150E
....................             Tpurga[3]=0; 
0150C:  CLRF   xF8
0150E:  MOVLB  5
....................          } 
....................       }  
....................    } 
....................    tiempocruce=0; 
01510:  CLRF   xE2
01512:  CLRF   xE1
....................    Cruce=ON; 
01514:  MOVLB  4
01516:  BSF    x2F.6
....................    if(VelMotor<6){ 
01518:  MOVLB  5
0151A:  MOVF   xE4,W
0151C:  SUBLW  05
0151E:  BNC   1560
....................       if(VelMotor>0 && Porcentaje<100){ 
01520:  MOVF   xE4,F
01522:  BZ    155C
01524:  MOVF   xE3,W
01526:  SUBLW  63
01528:  BNC   155C
....................          delay_us(retardo);       
0152A:  MOVFF  5DC,636
0152E:  MOVLB  6
01530:  INCF   x36,F
01532:  DECF   x36,F
01534:  BTFSC  FD8.2
01536:  BRA    1544
01538:  MOVLW  FF
0153A:  MOVWF  x37
0153C:  MOVLB  0
0153E:  RCALL  13C6
01540:  MOVLB  6
01542:  BRA    1532
01544:  MOVFF  5DB,637
01548:  MOVLB  0
0154A:  RCALL  13C6
....................          Motor_on; 
0154C:  BSF    F8B.2
0154E:  BCF    F94.2
....................          delay_us(100);       
01550:  MOVLW  A6
01552:  MOVWF  00
01554:  DECFSZ 00,F
01556:  BRA    1554
01558:  NOP   
0155A:  MOVLB  5
....................       } 
....................       Motor_off; 
0155C:  BCF    F8B.2
0155E:  BCF    F94.2
....................    } 
.................... } 
....................  
01560:  BCF    FF2.1
01562:  MOVLB  0
01564:  GOTO   0058
.................... void glcd_imagen(int8 x) 
.................... { 
....................    char i,j; 
....................    signed char k;  
....................       
....................    if(x==3){ 
*
05DEA:  MOVLB  5
05DEC:  MOVF   xED,W
05DEE:  SUBLW  03
05DF0:  BNZ   5E98
....................    for( i = 0 ; i < 64 ; i ++ ) 
05DF2:  CLRF   xEE
05DF4:  MOVF   xEE,W
05DF6:  SUBLW  3F
05DF8:  BNC   5E98
....................    {  for( j = 0 ; j < 16 ; j ++) 
05DFA:  CLRF   xEF
05DFC:  MOVF   xEF,W
05DFE:  SUBLW  0F
05E00:  BNC   5E94
....................       {  for(k=7;k>-1;k--) 
05E02:  MOVLW  07
05E04:  MOVWF  xF0
05E06:  MOVF   xF0,W
05E08:  XORLW  80
05E0A:  SUBLW  7F
05E0C:  BC    5E90
....................          {       
....................             if( bit_test(Bombillo[i][j] ,7-k ))  
05E0E:  CLRF   xF2
05E10:  MOVFF  5EE,5F1
05E14:  CLRF   xF4
05E16:  MOVLW  10
05E18:  MOVWF  xF3
05E1A:  MOVLB  0
05E1C:  RCALL  5DC8
05E1E:  MOVFF  02,5F2
05E22:  MOVFF  01,5F1
05E26:  MOVLB  5
05E28:  MOVF   xEF,W
05E2A:  ADDWF  01,W
05E2C:  MOVWF  01
05E2E:  MOVLW  00
05E30:  ADDWFC 02,W
05E32:  MOVWF  03
05E34:  MOVF   01,W
05E36:  MOVFF  FF2,5F1
05E3A:  BCF    FF2.7
05E3C:  MOVFF  03,FF7
05E40:  MOVLB  0
05E42:  CALL   02B6
05E46:  MOVLB  5
05E48:  BTFSC  xF1.7
05E4A:  BSF    FF2.7
05E4C:  MOVWF  xF1
05E4E:  MOVLW  07
05E50:  BSF    FD8.0
05E52:  SUBFWB xF0,W
05E54:  MOVWF  xF2
05E56:  MOVFF  5F1,00
05E5A:  MOVF   xF2,W
05E5C:  MOVWF  01
05E5E:  BZ    5E68
05E60:  BCF    FD8.0
05E62:  RRCF   00,F
05E64:  DECFSZ 01,F
05E66:  BRA    5E60
05E68:  BTFSS  00.0
05E6A:  BRA    5E8C
....................                glcd_pixel( j*8+k,i, ON ); 
05E6C:  MOVF   xEF,W
05E6E:  MULLW  08
05E70:  MOVF   FF3,W
05E72:  ADDWF  xF0,W
05E74:  MOVWF  xF1
05E76:  MOVFF  FE8,621
05E7A:  MOVFF  5EE,622
05E7E:  MOVLW  01
05E80:  MOVLB  6
05E82:  MOVWF  x23
05E84:  MOVLB  0
05E86:  CALL   1802
05E8A:  MOVLB  5
....................          }   
05E8C:  DECF   xF0,F
05E8E:  BRA    5E06
....................       } 
05E90:  INCF   xEF,F
05E92:  BRA    5DFC
....................    } 
05E94:  INCF   xEE,F
05E96:  BRA    5DF4
....................    } 
....................     
....................    if(x==4){ 
05E98:  MOVF   xED,W
05E9A:  SUBLW  04
05E9C:  BNZ   5F44
....................    for( i = 0 ; i < 64 ; i ++ ) 
05E9E:  CLRF   xEE
05EA0:  MOVF   xEE,W
05EA2:  SUBLW  3F
05EA4:  BNC   5F44
....................    {  for( j = 0 ; j < 16 ; j ++) 
05EA6:  CLRF   xEF
05EA8:  MOVF   xEF,W
05EAA:  SUBLW  0F
05EAC:  BNC   5F40
....................       {  for(k=7;k>-1;k--) 
05EAE:  MOVLW  07
05EB0:  MOVWF  xF0
05EB2:  MOVF   xF0,W
05EB4:  XORLW  80
05EB6:  SUBLW  7F
05EB8:  BC    5F3C
....................          {       
....................             if( bit_test(Tomai[i][j] ,7-k ))  
05EBA:  CLRF   xF2
05EBC:  MOVFF  5EE,5F1
05EC0:  CLRF   xF4
05EC2:  MOVLW  10
05EC4:  MOVWF  xF3
05EC6:  MOVLB  0
05EC8:  RCALL  5DC8
05ECA:  MOVFF  02,5F2
05ECE:  MOVFF  01,5F1
05ED2:  MOVLB  5
05ED4:  MOVF   xEF,W
05ED6:  ADDWF  01,W
05ED8:  MOVWF  01
05EDA:  MOVLW  00
05EDC:  ADDWFC 02,W
05EDE:  MOVWF  03
05EE0:  MOVF   01,W
05EE2:  MOVFF  FF2,5F1
05EE6:  BCF    FF2.7
05EE8:  MOVFF  03,FF7
05EEC:  MOVLB  0
05EEE:  CALL   06D2
05EF2:  MOVLB  5
05EF4:  BTFSC  xF1.7
05EF6:  BSF    FF2.7
05EF8:  MOVWF  xF1
05EFA:  MOVLW  07
05EFC:  BSF    FD8.0
05EFE:  SUBFWB xF0,W
05F00:  MOVWF  xF2
05F02:  MOVFF  5F1,00
05F06:  MOVF   xF2,W
05F08:  MOVWF  01
05F0A:  BZ    5F14
05F0C:  BCF    FD8.0
05F0E:  RRCF   00,F
05F10:  DECFSZ 01,F
05F12:  BRA    5F0C
05F14:  BTFSS  00.0
05F16:  BRA    5F38
....................                glcd_pixel( j*8+k,i, ON ); 
05F18:  MOVF   xEF,W
05F1A:  MULLW  08
05F1C:  MOVF   FF3,W
05F1E:  ADDWF  xF0,W
05F20:  MOVWF  xF1
05F22:  MOVFF  FE8,621
05F26:  MOVFF  5EE,622
05F2A:  MOVLW  01
05F2C:  MOVLB  6
05F2E:  MOVWF  x23
05F30:  MOVLB  0
05F32:  CALL   1802
05F36:  MOVLB  5
....................          }   
05F38:  DECF   xF0,F
05F3A:  BRA    5EB2
....................       } 
05F3C:  INCF   xEF,F
05F3E:  BRA    5EA8
....................    } 
05F40:  INCF   xEE,F
05F42:  BRA    5EA0
....................    } 
....................     
....................    if(x==5){ 
05F44:  MOVF   xED,W
05F46:  SUBLW  05
05F48:  BNZ   5FF0
....................    for( i = 0 ; i < 64 ; i ++ ) 
05F4A:  CLRF   xEE
05F4C:  MOVF   xEE,W
05F4E:  SUBLW  3F
05F50:  BNC   5FF0
....................    {  for( j = 0 ; j < 16 ; j ++) 
05F52:  CLRF   xEF
05F54:  MOVF   xEF,W
05F56:  SUBLW  0F
05F58:  BNC   5FEC
....................       {  for(k=7;k>-1;k--) 
05F5A:  MOVLW  07
05F5C:  MOVWF  xF0
05F5E:  MOVF   xF0,W
05F60:  XORLW  80
05F62:  SUBLW  7F
05F64:  BC    5FE8
....................          {       
....................             if( bit_test(Ventilador[i][j] ,7-k ))  
05F66:  CLRF   xF2
05F68:  MOVFF  5EE,5F1
05F6C:  CLRF   xF4
05F6E:  MOVLW  10
05F70:  MOVWF  xF3
05F72:  MOVLB  0
05F74:  RCALL  5DC8
05F76:  MOVFF  02,5F2
05F7A:  MOVFF  01,5F1
05F7E:  MOVLB  5
05F80:  MOVF   xEF,W
05F82:  ADDWF  01,W
05F84:  MOVWF  01
05F86:  MOVLW  00
05F88:  ADDWFC 02,W
05F8A:  MOVWF  03
05F8C:  MOVF   01,W
05F8E:  MOVFF  FF2,5F1
05F92:  BCF    FF2.7
05F94:  MOVFF  03,FF7
05F98:  MOVLB  0
05F9A:  CALL   0AEE
05F9E:  MOVLB  5
05FA0:  BTFSC  xF1.7
05FA2:  BSF    FF2.7
05FA4:  MOVWF  xF1
05FA6:  MOVLW  07
05FA8:  BSF    FD8.0
05FAA:  SUBFWB xF0,W
05FAC:  MOVWF  xF2
05FAE:  MOVFF  5F1,00
05FB2:  MOVF   xF2,W
05FB4:  MOVWF  01
05FB6:  BZ    5FC0
05FB8:  BCF    FD8.0
05FBA:  RRCF   00,F
05FBC:  DECFSZ 01,F
05FBE:  BRA    5FB8
05FC0:  BTFSS  00.0
05FC2:  BRA    5FE4
....................                glcd_pixel( j*8+k,i, ON ); 
05FC4:  MOVF   xEF,W
05FC6:  MULLW  08
05FC8:  MOVF   FF3,W
05FCA:  ADDWF  xF0,W
05FCC:  MOVWF  xF1
05FCE:  MOVFF  FE8,621
05FD2:  MOVFF  5EE,622
05FD6:  MOVLW  01
05FD8:  MOVLB  6
05FDA:  MOVWF  x23
05FDC:  MOVLB  0
05FDE:  CALL   1802
05FE2:  MOVLB  5
....................          }   
05FE4:  DECF   xF0,F
05FE6:  BRA    5F5E
....................       } 
05FE8:  INCF   xEF,F
05FEA:  BRA    5F54
....................    } 
05FEC:  INCF   xEE,F
05FEE:  BRA    5F4C
....................    } 
.................... } 
05FF0:  MOVLB  0
05FF2:  RETLW  00
....................  
....................  
.................... Float LeerFlujoInFlow(int media) 
.................... { 
....................     InFlow_adc=sensores(1); 
*
042F8:  MOVLW  01
042FA:  MOVLB  5
042FC:  MOVWF  xFE
042FE:  MOVLB  0
04300:  CALL   303C
04304:  MOVFF  02,4DC
04308:  MOVFF  01,4DB
....................        
....................     if(negativo==10) 
0430C:  MOVLB  4
0430E:  MOVF   xD0,W
04310:  SUBLW  0A
04312:  BNZ   435A
....................     { 
....................       x_uno=Inflow_adc+Diferencia; 
04314:  MOVFF  4DC,623
04318:  MOVFF  4DB,622
0431C:  MOVLB  0
0431E:  CALL   1A76
04322:  BCF    FD8.1
04324:  MOVFF  03,625
04328:  MOVFF  02,624
0432C:  MOVFF  01,623
04330:  MOVFF  00,622
04334:  MOVFF  528,629
04338:  MOVFF  527,628
0433C:  MOVFF  526,627
04340:  MOVFF  525,626
04344:  CALL   1C0A
04348:  MOVFF  03,538
0434C:  MOVFF  02,537
04350:  MOVFF  01,536
04354:  MOVFF  00,535
04358:  MOVLB  4
....................     } 
....................     if(negativo==20) 
0435A:  MOVF   xD0,W
0435C:  SUBLW  14
0435E:  BNZ   43A4
....................     { 
....................       x_uno=Inflow_adc-Diferencia; 
04360:  MOVFF  4DC,623
04364:  MOVFF  4DB,622
04368:  MOVLB  0
0436A:  CALL   1A76
0436E:  BSF    FD8.1
04370:  MOVFF  03,625
04374:  MOVFF  02,624
04378:  MOVFF  01,623
0437C:  MOVFF  00,622
04380:  MOVFF  528,629
04384:  MOVFF  527,628
04388:  MOVFF  526,627
0438C:  MOVFF  525,626
04390:  CALL   1C0A
04394:  MOVFF  03,538
04398:  MOVFF  02,537
0439C:  MOVFF  01,536
043A0:  MOVFF  00,535
....................     } 
....................     Velocidad=(pow(x_uno,3)*a)+(pow(x_uno,2)*b)+(x_uno*c)+(d); 
043A4:  MOVFF  538,5F5
043A8:  MOVFF  537,5F4
043AC:  MOVFF  536,5F3
043B0:  MOVFF  535,5F2
043B4:  MOVLB  5
043B6:  CLRF   xF9
043B8:  CLRF   xF8
043BA:  MOVLW  40
043BC:  MOVWF  xF7
043BE:  MOVLW  80
043C0:  MOVWF  xF6
043C2:  MOVLB  0
043C4:  RCALL  3FE6
043C6:  MOVFF  00,5EE
043CA:  MOVFF  01,5EF
043CE:  MOVFF  02,5F0
043D2:  MOVFF  03,5F1
043D6:  MOVFF  03,621
043DA:  MOVFF  02,620
043DE:  MOVFF  01,61F
043E2:  MOVFF  00,61E
043E6:  MOVFF  554,625
043EA:  MOVFF  553,624
043EE:  MOVFF  552,623
043F2:  MOVFF  551,622
043F6:  CALL   30B8
043FA:  MOVFF  00,5EE
043FE:  MOVFF  01,5EF
04402:  MOVFF  02,5F0
04406:  MOVFF  03,5F1
0440A:  MOVFF  538,5F5
0440E:  MOVFF  537,5F4
04412:  MOVFF  536,5F3
04416:  MOVFF  535,5F2
0441A:  MOVLB  5
0441C:  CLRF   xF9
0441E:  CLRF   xF8
04420:  CLRF   xF7
04422:  MOVLW  80
04424:  MOVWF  xF6
04426:  MOVLB  0
04428:  RCALL  3FE6
0442A:  MOVFF  00,5F2
0442E:  MOVFF  01,5F3
04432:  MOVFF  02,5F4
04436:  MOVFF  03,5F5
0443A:  MOVFF  03,621
0443E:  MOVFF  02,620
04442:  MOVFF  01,61F
04446:  MOVFF  00,61E
0444A:  MOVFF  558,625
0444E:  MOVFF  557,624
04452:  MOVFF  556,623
04456:  MOVFF  555,622
0445A:  CALL   30B8
0445E:  MOVFF  FEA,5F3
04462:  MOVFF  FE9,5F2
04466:  BCF    FD8.1
04468:  MOVFF  5F1,625
0446C:  MOVFF  5F0,624
04470:  MOVFF  5EF,623
04474:  MOVFF  5EE,622
04478:  MOVFF  03,629
0447C:  MOVFF  02,628
04480:  MOVFF  01,627
04484:  MOVFF  00,626
04488:  CALL   1C0A
0448C:  MOVFF  5F3,FEA
04490:  MOVFF  5F2,FE9
04494:  MOVFF  00,5EE
04498:  MOVFF  01,5EF
0449C:  MOVFF  02,5F0
044A0:  MOVFF  03,5F1
044A4:  MOVFF  538,621
044A8:  MOVFF  537,620
044AC:  MOVFF  536,61F
044B0:  MOVFF  535,61E
044B4:  MOVFF  55C,625
044B8:  MOVFF  55B,624
044BC:  MOVFF  55A,623
044C0:  MOVFF  559,622
044C4:  CALL   30B8
044C8:  MOVFF  FEA,5F5
044CC:  MOVFF  FE9,5F4
044D0:  BCF    FD8.1
044D2:  MOVFF  5F1,625
044D6:  MOVFF  5F0,624
044DA:  MOVFF  5EF,623
044DE:  MOVFF  5EE,622
044E2:  MOVFF  03,629
044E6:  MOVFF  02,628
044EA:  MOVFF  01,627
044EE:  MOVFF  00,626
044F2:  CALL   1C0A
044F6:  MOVFF  5F5,FEA
044FA:  MOVFF  5F4,FE9
044FE:  MOVFF  00,5EE
04502:  MOVFF  01,5EF
04506:  MOVFF  02,5F0
0450A:  MOVFF  03,5F1
0450E:  MOVFF  FEA,5F7
04512:  MOVFF  FE9,5F6
04516:  BCF    FD8.1
04518:  MOVFF  03,625
0451C:  MOVFF  02,624
04520:  MOVFF  01,623
04524:  MOVFF  00,622
04528:  MOVFF  560,629
0452C:  MOVFF  55F,628
04530:  MOVFF  55E,627
04534:  MOVFF  55D,626
04538:  CALL   1C0A
0453C:  MOVFF  5F7,FEA
04540:  MOVFF  5F6,FE9
04544:  MOVFF  03,534
04548:  MOVFF  02,533
0454C:  MOVFF  01,532
04550:  MOVFF  00,531
....................     //Velocidad=Velocidad*correccion;//Ajuste de Temperatura 
....................      
....................     if(Velocidad<0.0) 
04554:  MOVFF  534,621
04558:  MOVFF  533,620
0455C:  MOVFF  532,61F
04560:  MOVFF  531,61E
04564:  MOVLB  6
04566:  CLRF   x25
04568:  CLRF   x24
0456A:  CLRF   x23
0456C:  CLRF   x22
0456E:  MOVLB  0
04570:  CALL   2610
04574:  BNC   4580
....................      {Velocidad=0.0;} 
04576:  MOVLB  5
04578:  CLRF   x34
0457A:  CLRF   x33
0457C:  CLRF   x32
0457E:  CLRF   x31
....................       
....................      if(l>=media) 
04580:  MOVLB  5
04582:  MOVF   xED,W
04584:  MOVLB  4
04586:  SUBWF  xD6,W
04588:  BNC   458C
....................        {l=0;} 
0458A:  CLRF   xD6
....................       
....................      promedio[l]=Velocidad;l++; 
0458C:  MOVF   xD6,W
0458E:  MULLW  04
04590:  MOVF   FF3,W
04592:  CLRF   03
04594:  ADDLW  61
04596:  MOVWF  FE9
04598:  MOVLW  05
0459A:  ADDWFC 03,W
0459C:  MOVWF  FEA
0459E:  MOVFF  531,FEF
045A2:  MOVFF  532,FEC
045A6:  MOVFF  533,FEC
045AA:  MOVFF  534,FEC
045AE:  INCF   xD6,F
....................      Flujo=0; 
045B0:  MOVLB  5
045B2:  CLRF   xC4
045B4:  CLRF   xC3
045B6:  CLRF   xC2
045B8:  CLRF   xC1
....................         for(h=0;h<=(media-1);h++) 
045BA:  MOVLB  4
045BC:  CLRF   xD7
045BE:  MOVLW  01
045C0:  MOVLB  5
045C2:  SUBWF  xED,W
045C4:  MOVLB  4
045C6:  SUBWF  xD7,W
045C8:  BZ    45CC
045CA:  BC    463C
....................         { 
....................            Flujo+=promedio[h]; 
045CC:  MOVF   xD7,W
045CE:  MULLW  04
045D0:  MOVF   FF3,W
045D2:  CLRF   03
045D4:  ADDLW  61
045D6:  MOVWF  FE9
045D8:  MOVLW  05
045DA:  ADDWFC 03,W
045DC:  MOVWF  FEA
045DE:  MOVFF  FEF,00
045E2:  MOVFF  FEC,01
045E6:  MOVFF  FEC,02
045EA:  MOVFF  FEC,03
045EE:  MOVFF  FEA,5EF
045F2:  MOVFF  FE9,5EE
045F6:  BCF    FD8.1
045F8:  MOVFF  5C4,625
045FC:  MOVFF  5C3,624
04600:  MOVFF  5C2,623
04604:  MOVFF  5C1,622
04608:  MOVFF  03,629
0460C:  MOVFF  02,628
04610:  MOVFF  01,627
04614:  MOVFF  00,626
04618:  MOVLB  0
0461A:  CALL   1C0A
0461E:  MOVFF  5EF,FEA
04622:  MOVFF  5EE,FE9
04626:  MOVFF  03,5C4
0462A:  MOVFF  02,5C3
0462E:  MOVFF  01,5C2
04632:  MOVFF  00,5C1
....................         }  
04636:  MOVLB  4
04638:  INCF   xD7,F
0463A:  BRA    45BE
....................            Flujo=(Flujo/media)*Ajuste1;  
0463C:  MOVLB  6
0463E:  CLRF   x23
04640:  MOVFF  5ED,622
04644:  MOVLB  0
04646:  CALL   1A76
0464A:  MOVFF  5C4,621
0464E:  MOVFF  5C3,620
04652:  MOVFF  5C2,61F
04656:  MOVFF  5C1,61E
0465A:  MOVFF  03,625
0465E:  MOVFF  02,624
04662:  MOVFF  01,623
04666:  MOVFF  00,622
0466A:  CALL   1AAC
0466E:  MOVFF  00,5EE
04672:  MOVFF  01,5EF
04676:  MOVFF  02,5F0
0467A:  MOVFF  03,5F1
0467E:  MOVFF  03,621
04682:  MOVFF  02,620
04686:  MOVFF  01,61F
0468A:  MOVFF  00,61E
0468E:  MOVFF  544,625
04692:  MOVFF  543,624
04696:  MOVFF  542,623
0469A:  MOVFF  541,622
0469E:  CALL   30B8
046A2:  MOVFF  03,5C4
046A6:  MOVFF  02,5C3
046AA:  MOVFF  01,5C2
046AE:  MOVFF  00,5C1
....................            return Flujo; 
046B2:  MOVFF  5C1,00
046B6:  MOVFF  5C2,01
046BA:  MOVFF  5C3,02
046BE:  MOVFF  5C4,03
.................... } 
046C2:  GOTO   6750 (RETURN)
....................  
.................... void main(){ 
*
06100:  CLRF   FF8
06102:  BCF    FD0.7
06104:  BSF    07.7
06106:  CLRF   FEA
06108:  CLRF   FE9
0610A:  MOVLB  4
0610C:  BCF    x2D.0
0610E:  BCF    x2D.1
06110:  BCF    x2D.2
06112:  BCF    x2D.3
06114:  BCF    x2D.4
06116:  BCF    x2D.5
06118:  BCF    x2D.6
0611A:  BCF    x2D.7
0611C:  BCF    x2E.0
0611E:  BCF    x2E.1
06120:  BCF    x2E.2
06122:  BCF    x2E.3
06124:  BCF    x2E.4
06126:  BCF    x2E.5
06128:  BCF    x2E.6
0612A:  BCF    x2E.7
0612C:  BCF    x2F.0
0612E:  BCF    x2F.1
06130:  BSF    x2F.2
06132:  BCF    x2F.3
06134:  BCF    x2F.4
06136:  BCF    x2F.5
06138:  MOVLW  C8
0613A:  MOVWF  xCD
0613C:  MOVLW  01
0613E:  MOVWF  xCE
06140:  MOVWF  xCF
06142:  MOVLW  0A
06144:  MOVWF  xD0
06146:  CLRF   xD1
06148:  CLRF   xD2
0614A:  CLRF   xD3
0614C:  CLRF   xD4
0614E:  CLRF   xD5
06150:  CLRF   xD6
06152:  CLRF   xD7
06154:  CLRF   xD8
06156:  CLRF   xD9
06158:  MOVWF  xDA
0615A:  CLRF   xDC
0615C:  CLRF   xDB
0615E:  CLRF   xDE
06160:  CLRF   xDD
06162:  CLRF   xE0
06164:  CLRF   xDF
06166:  CLRF   xE2
06168:  CLRF   xE1
0616A:  CLRF   xE4
0616C:  CLRF   xE3
0616E:  CLRF   xE6
06170:  CLRF   xE5
06172:  CLRF   xE8
06174:  CLRF   xE7
06176:  CLRF   xEA
06178:  CLRF   xE9
0617A:  CLRF   xEC
0617C:  CLRF   xEB
0617E:  CLRF   xEE
06180:  CLRF   xED
06182:  CLRF   xF0
06184:  CLRF   xEF
06186:  CLRF   xF2
06188:  CLRF   xF1
0618A:  CLRF   xF4
0618C:  CLRF   xF3
0618E:  MOVLB  5
06190:  CLRF   x1C
06192:  CLRF   x1B
06194:  CLRF   x1A
06196:  CLRF   x19
06198:  CLRF   x20
0619A:  CLRF   x1F
0619C:  CLRF   x1E
0619E:  CLRF   x1D
061A0:  CLRF   x24
061A2:  CLRF   x23
061A4:  CLRF   x22
061A6:  CLRF   x21
061A8:  CLRF   x28
061AA:  CLRF   x27
061AC:  CLRF   x26
061AE:  CLRF   x25
061B0:  CLRF   x2C
061B2:  CLRF   x2B
061B4:  CLRF   x2A
061B6:  CLRF   x29
061B8:  CLRF   x30
061BA:  CLRF   x2F
061BC:  CLRF   x2E
061BE:  CLRF   x2D
061C0:  CLRF   x34
061C2:  CLRF   x33
061C4:  CLRF   x32
061C6:  CLRF   x31
061C8:  CLRF   x38
061CA:  CLRF   x37
061CC:  CLRF   x36
061CE:  CLRF   x35
061D0:  CLRF   x3C
061D2:  CLRF   x3B
061D4:  CLRF   x3A
061D6:  CLRF   x39
061D8:  CLRF   x40
061DA:  CLRF   x3F
061DC:  CLRF   x3E
061DE:  CLRF   x3D
061E0:  CLRF   x44
061E2:  CLRF   x43
061E4:  CLRF   x42
061E6:  CLRF   x41
061E8:  CLRF   x48
061EA:  CLRF   x47
061EC:  CLRF   x46
061EE:  CLRF   x45
061F0:  CLRF   x4C
061F2:  CLRF   x4B
061F4:  CLRF   x4A
061F6:  CLRF   x49
061F8:  CLRF   x50
061FA:  CLRF   x4F
061FC:  CLRF   x4E
061FE:  CLRF   x4D
06200:  MOVLW  29
06202:  MOVWF  x54
06204:  MOVLW  B6
06206:  MOVWF  x53
06208:  MOVLW  20
0620A:  MOVWF  x52
0620C:  MOVLW  6E
0620E:  MOVWF  x51
06210:  MOVLW  EE
06212:  MOVWF  x58
06214:  MOVLW  7D
06216:  MOVWF  x57
06218:  MOVLW  EE
0621A:  MOVWF  x56
0621C:  MOVLW  77
0621E:  MOVWF  x55
06220:  MOVLW  ED
06222:  MOVWF  x5C
06224:  MOVLW  47
06226:  MOVWF  x5B
06228:  MOVLW  6D
0622A:  MOVWF  x5A
0622C:  MOVLW  7F
0622E:  MOVWF  x59
06230:  MOVLW  1A
06232:  MOVWF  x60
06234:  MOVLW  D1
06236:  MOVWF  x5F
06238:  MOVLW  9C
0623A:  MOVWF  x5E
0623C:  MOVLW  86
0623E:  MOVWF  x5D
06240:  CLRF   xC4
06242:  CLRF   xC3
06244:  CLRF   xC2
06246:  CLRF   xC1
06248:  CLRF   xC8
0624A:  CLRF   xC7
0624C:  MOVLW  50
0624E:  MOVWF  xC6
06250:  MOVLW  86
06252:  MOVWF  xC5
06254:  CLRF   xCC
06256:  CLRF   xCB
06258:  CLRF   xCA
0625A:  CLRF   xC9
0625C:  CLRF   xD0
0625E:  CLRF   xCF
06260:  CLRF   xCE
06262:  CLRF   xCD
06264:  CLRF   xD4
06266:  CLRF   xD3
06268:  CLRF   xD2
0626A:  CLRF   xD1
0626C:  CLRF   xD8
0626E:  CLRF   xD7
06270:  CLRF   xD6
06272:  MOVLW  80
06274:  MOVWF  xD5
06276:  CLRF   xDA
06278:  CLRF   xD9
0627A:  CLRF   xDC
0627C:  CLRF   xDB
0627E:  CLRF   xDD
06280:  CLRF   xDE
06282:  CLRF   xDF
06284:  CLRF   xE0
06286:  MOVLB  4
06288:  BCF    x2F.6
0628A:  BCF    x2F.7
0628C:  MOVLB  5
0628E:  CLRF   xE2
06290:  CLRF   xE1
06292:  CLRF   xE3
06294:  CLRF   xE4
06296:  CLRF   xE8
06298:  CLRF   xE7
0629A:  CLRF   xE6
0629C:  CLRF   xE5
0629E:  CLRF   xEC
062A0:  CLRF   xEB
062A2:  CLRF   xEA
062A4:  CLRF   xE9
062A6:  MOVF   FC1,W
062A8:  ANDLW  C0
062AA:  IORLW  0F
062AC:  MOVWF  FC1
062AE:  MOVLW  07
062B0:  MOVWF  FB4
062B2:  MOVLB  4
062B4:  CLRF   x2B
062B6:  CLRF   x2C
062B8:  MOVLW  4A
062BA:  MOVWF  x30
062BC:  MOVLW  50
062BE:  MOVWF  x31
062C0:  MOVLW  20
062C2:  MOVWF  x32
062C4:  MOVLW  49
062C6:  MOVWF  x33
062C8:  MOVLW  6E
062CA:  MOVWF  x34
062CC:  MOVLW  67
062CE:  MOVWF  x35
062D0:  MOVLW  6C
062D2:  MOVWF  x36
062D4:  MOVLW  6F
062D6:  MOVWF  x37
062D8:  MOVLW  62
062DA:  MOVWF  x38
062DC:  MOVLW  61
062DE:  MOVWF  x39
062E0:  MOVLW  6C
062E2:  MOVWF  x3A
062E4:  CLRF   x3B
062E6:  MOVLW  43
062E8:  MOVWF  x3C
062EA:  MOVLW  61
062EC:  MOVWF  x3D
062EE:  MOVLW  62
062F0:  MOVWF  x3E
062F2:  MOVLW  69
062F4:  MOVWF  x3F
062F6:  MOVLW  6E
062F8:  MOVWF  x40
062FA:  MOVLW  61
062FC:  MOVWF  x41
062FE:  MOVLW  20
06300:  MOVWF  x42
06302:  MOVLW  46
06304:  MOVWF  x43
06306:  MOVLW  6C
06308:  MOVWF  x44
0630A:  MOVLW  75
0630C:  MOVWF  x45
0630E:  MOVLW  6A
06310:  MOVWF  x46
06312:  MOVLW  6F
06314:  MOVWF  x47
06316:  MOVLW  20
06318:  MOVWF  x48
0631A:  MOVLW  4C
0631C:  MOVWF  x49
0631E:  MOVLW  61
06320:  MOVWF  x4A
06322:  MOVLW  6D
06324:  MOVWF  x4B
06326:  MOVLW  69
06328:  MOVWF  x4C
0632A:  MOVLW  6E
0632C:  MOVWF  x4D
0632E:  MOVLW  61
06330:  MOVWF  x4E
06332:  MOVLW  72
06334:  MOVWF  x4F
06336:  CLRF   x50
06338:  MOVLW  3A
0633A:  MOVWF  x51
0633C:  CLRF   x52
0633E:  MOVLW  20
06340:  MOVWF  x53
06342:  MOVWF  x54
06344:  MOVWF  x55
06346:  MOVLW  50
06348:  MOVWF  x56
0634A:  MOVLW  43
0634C:  MOVWF  x57
0634E:  MOVLW  52
06350:  MOVWF  x58
06352:  CLRF   x59
06354:  MOVLW  54
06356:  MOVWF  x5A
06358:  MOVLW  69
0635A:  MOVWF  x5B
0635C:  MOVLW  65
0635E:  MOVWF  x5C
06360:  MOVLW  6D
06362:  MOVWF  x5D
06364:  MOVLW  70
06366:  MOVWF  x5E
06368:  MOVLW  6F
0636A:  MOVWF  x5F
0636C:  MOVLW  20
0636E:  MOVWF  x60
06370:  MOVLW  64
06372:  MOVWF  x61
06374:  MOVLW  65
06376:  MOVWF  x62
06378:  MOVLW  20
0637A:  MOVWF  x63
0637C:  MOVLW  50
0637E:  MOVWF  x64
06380:  MOVLW  75
06382:  MOVWF  x65
06384:  MOVLW  72
06386:  MOVWF  x66
06388:  MOVLW  67
0638A:  MOVWF  x67
0638C:  MOVLW  61
0638E:  MOVWF  x68
06390:  CLRF   x69
06392:  MOVLW  55
06394:  MOVWF  x6A
06396:  MOVLW  56
06398:  MOVWF  x6B
0639A:  CLRF   x6C
0639C:  MOVWF  x6D
0639E:  MOVLW  65
063A0:  MOVWF  x6E
063A2:  MOVLW  6C
063A4:  MOVWF  x6F
063A6:  MOVLW  3A
063A8:  MOVWF  x70
063AA:  CLRF   x71
063AC:  MOVLW  54
063AE:  MOVWF  x72
063B0:  MOVLW  3A
063B2:  MOVWF  x73
063B4:  CLRF   x74
063B6:  MOVLW  46
063B8:  MOVWF  x75
063BA:  MOVLW  61
063BC:  MOVWF  x76
063BE:  MOVLW  62
063C0:  MOVWF  x77
063C2:  MOVLW  72
063C4:  MOVWF  x78
063C6:  MOVLW  69
063C8:  MOVWF  x79
063CA:  MOVLW  63
063CC:  MOVWF  x7A
063CE:  MOVLW  61
063D0:  MOVWF  x7B
063D2:  MOVLW  3A
063D4:  MOVWF  x7C
063D6:  MOVLW  32
063D8:  MOVWF  x7D
063DA:  MOVLW  30
063DC:  MOVWF  x7E
063DE:  MOVLW  38
063E0:  MOVWF  x7F
063E2:  MOVLW  2E
063E4:  MOVWF  x80
063E6:  MOVLW  30
063E8:  MOVWF  x81
063EA:  CLRF   x82
063EC:  MOVLW  41
063EE:  MOVWF  x83
063F0:  MOVLW  63
063F2:  MOVWF  x84
063F4:  MOVLW  74
063F6:  MOVWF  x85
063F8:  MOVLW  75
063FA:  MOVWF  x86
063FC:  MOVLW  61
063FE:  MOVWF  x87
06400:  MOVLW  6C
06402:  MOVWF  x88
06404:  MOVLW  3A
06406:  MOVWF  x89
06408:  CLRF   x8A
0640A:  MOVLW  41
0640C:  MOVWF  x8B
0640E:  MOVLW  6A
06410:  MOVWF  x8C
06412:  MOVLW  75
06414:  MOVWF  x8D
06416:  MOVLW  73
06418:  MOVWF  x8E
0641A:  MOVLW  74
0641C:  MOVWF  x8F
0641E:  MOVLW  65
06420:  MOVWF  x90
06422:  MOVLW  3A
06424:  MOVWF  x91
06426:  CLRF   x92
06428:  MOVLW  46
0642A:  MOVWF  x93
0642C:  MOVLW  69
0642E:  MOVWF  x94
06430:  MOVLW  6C
06432:  MOVWF  x95
06434:  MOVLW  74
06436:  MOVWF  x96
06438:  MOVLW  72
0643A:  MOVWF  x97
0643C:  MOVLW  6F
0643E:  MOVWF  x98
06440:  MOVLW  3A
06442:  MOVWF  x99
06444:  CLRF   x9A
06446:  MOVLW  46
06448:  MOVWF  x9B
0644A:  MOVLW  61
0644C:  MOVWF  x9C
0644E:  MOVLW  62
06450:  MOVWF  x9D
06452:  MOVLW  72
06454:  MOVWF  x9E
06456:  MOVLW  69
06458:  MOVWF  x9F
0645A:  MOVLW  63
0645C:  MOVWF  xA0
0645E:  MOVLW  61
06460:  MOVWF  xA1
06462:  MOVLW  3A
06464:  MOVWF  xA2
06466:  MOVLW  32
06468:  MOVWF  xA3
0646A:  MOVLW  34
0646C:  MOVWF  xA4
0646E:  MOVLW  30
06470:  MOVWF  xA5
06472:  MOVLW  2E
06474:  MOVWF  xA6
06476:  MOVLW  30
06478:  MOVWF  xA7
0647A:  CLRF   xA8
0647C:  MOVLW  21
0647E:  MOVWF  xA9
06480:  MOVLW  46
06482:  MOVWF  xAA
06484:  MOVLW  69
06486:  MOVWF  xAB
06488:  MOVLW  6C
0648A:  MOVWF  xAC
0648C:  MOVLW  74
0648E:  MOVWF  xAD
06490:  MOVLW  72
06492:  MOVWF  xAE
06494:  MOVLW  6F
06496:  MOVWF  xAF
06498:  MOVLW  20
0649A:  MOVWF  xB0
0649C:  MOVLW  53
0649E:  MOVWF  xB1
064A0:  MOVLW  61
064A2:  MOVWF  xB2
064A4:  MOVLW  74
064A6:  MOVWF  xB3
064A8:  MOVLW  75
064AA:  MOVWF  xB4
064AC:  MOVLW  72
064AE:  MOVWF  xB5
064B0:  MOVLW  61
064B2:  MOVWF  xB6
064B4:  MOVLW  64
064B6:  MOVWF  xB7
064B8:  MOVLW  6F
064BA:  MOVWF  xB8
064BC:  MOVLW  21
064BE:  MOVWF  xB9
064C0:  CLRF   xBA
064C2:  MOVLW  54
064C4:  MOVWF  xBB
064C6:  MOVLW  65
064C8:  MOVWF  xBC
064CA:  MOVLW  6D
064CC:  MOVWF  xBD
064CE:  MOVLW  70
064D0:  MOVWF  xBE
064D2:  MOVLW  6F
064D4:  MOVWF  xBF
064D6:  MOVLW  20
064D8:  MOVWF  xC0
064DA:  MOVLW  55
064DC:  MOVWF  xC1
064DE:  MOVLW  56
064E0:  MOVWF  xC2
064E2:  MOVLW  3A
064E4:  MOVWF  xC3
064E6:  CLRF   xC4
064E8:  MOVLW  55
064EA:  MOVWF  xC5
064EC:  MOVLW  56
064EE:  MOVWF  xC6
064F0:  MOVLW  4C
064F2:  MOVWF  xC7
064F4:  MOVLW  69
064F6:  MOVWF  xC8
064F8:  MOVLW  66
064FA:  MOVWF  xC9
064FC:  MOVLW  65
064FE:  MOVWF  xCA
06500:  MOVLW  3A
06502:  MOVWF  xCB
06504:  CLRF   xCC
06506:  CLRF   xF5
06508:  CLRF   xF6
0650A:  CLRF   xF7
0650C:  CLRF   xF8
0650E:  MOVLW  09
06510:  MOVWF  xF9
06512:  CLRF   xFA
06514:  CLRF   xFB
06516:  CLRF   xFC
06518:  MOVWF  xFD
0651A:  CLRF   xFE
0651C:  CLRF   xFF
0651E:  MOVLB  5
06520:  CLRF   x00
06522:  CLRF   x01
06524:  CLRF   x02
06526:  CLRF   x03
06528:  CLRF   x04
0652A:  CLRF   x05
0652C:  CLRF   x06
0652E:  CLRF   x07
06530:  CLRF   x08
06532:  CLRF   x09
06534:  CLRF   x0A
06536:  CLRF   x0B
06538:  CLRF   x0C
0653A:  CLRF   x0D
0653C:  CLRF   x0E
0653E:  CLRF   x0F
06540:  CLRF   x10
06542:  CLRF   x11
06544:  CLRF   x12
06546:  CLRF   x13
06548:  CLRF   x14
0654A:  CLRF   x15
0654C:  CLRF   x16
0654E:  CLRF   x17
06550:  CLRF   x18
06552:  CLRF   x61
06554:  CLRF   x62
06556:  CLRF   x63
06558:  CLRF   x64
0655A:  CLRF   x65
0655C:  CLRF   x66
0655E:  CLRF   x67
06560:  CLRF   x68
06562:  CLRF   x69
06564:  CLRF   x6A
06566:  CLRF   x6B
06568:  CLRF   x6C
0656A:  CLRF   x6D
0656C:  CLRF   x6E
0656E:  CLRF   x6F
06570:  CLRF   x70
06572:  CLRF   x71
06574:  CLRF   x72
06576:  CLRF   x73
06578:  CLRF   x74
0657A:  CLRF   x75
0657C:  CLRF   x76
0657E:  CLRF   x77
06580:  CLRF   x78
06582:  CLRF   x79
06584:  CLRF   x7A
06586:  CLRF   x7B
06588:  CLRF   x7C
0658A:  CLRF   x7D
0658C:  CLRF   x7E
0658E:  CLRF   x7F
06590:  CLRF   x80
06592:  CLRF   x81
06594:  CLRF   x82
06596:  CLRF   x83
06598:  CLRF   x84
0659A:  CLRF   x85
0659C:  CLRF   x86
0659E:  CLRF   x87
065A0:  CLRF   x88
065A2:  CLRF   x89
065A4:  CLRF   x8A
065A6:  CLRF   x8B
065A8:  CLRF   x8C
065AA:  CLRF   x8D
065AC:  CLRF   x8E
065AE:  CLRF   x8F
065B0:  CLRF   x90
065B2:  CLRF   x91
065B4:  CLRF   x92
065B6:  CLRF   x93
065B8:  CLRF   x94
065BA:  CLRF   x95
065BC:  CLRF   x96
065BE:  CLRF   x97
065C0:  CLRF   x98
065C2:  CLRF   x99
065C4:  CLRF   x9A
065C6:  CLRF   x9B
065C8:  CLRF   x9C
065CA:  CLRF   x9D
065CC:  CLRF   x9E
065CE:  CLRF   x9F
065D0:  CLRF   xA0
065D2:  CLRF   xA1
065D4:  CLRF   xA2
065D6:  CLRF   xA3
065D8:  CLRF   xA4
065DA:  CLRF   xA5
065DC:  CLRF   xA6
065DE:  CLRF   xA7
065E0:  CLRF   xA8
065E2:  CLRF   xA9
065E4:  CLRF   xAA
065E6:  CLRF   xAB
065E8:  CLRF   xAC
065EA:  CLRF   xAD
065EC:  CLRF   xAE
065EE:  CLRF   xAF
065F0:  CLRF   xB0
065F2:  CLRF   xB1
065F4:  CLRF   xB2
065F6:  CLRF   xB3
065F8:  CLRF   xB4
065FA:  CLRF   xB5
065FC:  CLRF   xB6
065FE:  CLRF   xB7
06600:  CLRF   xB8
06602:  CLRF   xB9
06604:  CLRF   xBA
06606:  CLRF   xBB
06608:  CLRF   xBC
0660A:  CLRF   xBD
0660C:  CLRF   xBE
0660E:  CLRF   xBF
06610:  CLRF   xC0
....................    delay_ms(1000); 
06612:  MOVLW  04
06614:  MOVWF  xED
06616:  MOVLW  FA
06618:  MOVLB  6
0661A:  MOVWF  x01
0661C:  MOVLB  0
0661E:  CALL   1568
06622:  MOVLB  5
06624:  DECFSZ xED,F
06626:  BRA    6616
....................    Cruce=OFF; 
06628:  MOVLB  4
0662A:  BCF    x2F.6
....................    VelocidadMotor(0); 
0662C:  MOVLB  5
0662E:  CLRF   xED
06630:  MOVLB  0
06632:  CALL   1590
....................    Tcruce2=83; 
06636:  MOVLB  5
06638:  CLRF   xEC
0663A:  CLRF   xEB
0663C:  MOVLW  26
0663E:  MOVWF  xEA
06640:  MOVLW  85
06642:  MOVWF  xE9
....................    Tcruce=8300; 
06644:  CLRF   xE8
06646:  MOVLW  B0
06648:  MOVWF  xE7
0664A:  MOVLW  01
0664C:  MOVWF  xE6
0664E:  MOVLW  8C
06650:  MOVWF  xE5
....................    Motor_off; 
06652:  BCF    F8B.2
06654:  BCF    F94.2
....................    //setup_timer_1(T1_INTERNAL|T1_DIV_BY_1); 
....................    //enable_interrupts(INT_TIMER1); 
....................    enable_interrupts(INT_EXT_L2H); 
06656:  BSF    FF2.4
06658:  BSF    FF1.6
....................    setup_adc_ports(AN0_TO_AN1); 
0665A:  MOVF   FC1,W
0665C:  ANDLW  C0
0665E:  IORLW  0D
06660:  MOVWF  FC1
....................    setup_adc(ADC_CLOCK_DIV_32 ); 
06662:  MOVF   FC0,W
06664:  ANDLW  C0
06666:  IORLW  02
06668:  MOVWF  FC0
0666A:  BSF    FC0.7
0666C:  BSF    FC2.0
....................    enable_interrupts(global);   
0666E:  MOVLW  C0
06670:  IORWF  FF2,F
....................    VelocidadMotor(0); 
06672:  CLRF   xED
06674:  MOVLB  0
06676:  CALL   1590
....................    Motor_off; 
0667A:  BCF    F8B.2
0667C:  BCF    F94.2
.................... //-------Inicio de Cabina-------------------------------------------------------------------------// 
....................    Display_on; 
0667E:  BSF    F8A.1
06680:  BCF    F93.1
....................    glcd_init(ON);             //Inicializa la glcd 
06682:  MOVLW  01
06684:  MOVLB  5
06686:  MOVWF  xED
06688:  MOVLB  0
0668A:  CALL   175A
....................    glcd_fillScreen(OFF);      //Limpia la pantalla 
0668E:  MOVLB  5
06690:  CLRF   xF5
06692:  MOVLB  0
06694:  CALL   1648
....................    glcd_text57(0, 0, JP, 2, ON);glcd_text57(5, 20, Cabina, 1, ON);glcd_text57(10, 40, Clase, 2, ON);              
06698:  MOVLB  6
0669A:  CLRF   x06
0669C:  CLRF   x07
0669E:  MOVLW  04
066A0:  MOVWF  x09
066A2:  MOVLW  30
066A4:  MOVWF  x08
066A6:  MOVLW  02
066A8:  MOVWF  x0A
066AA:  MOVLW  01
066AC:  MOVWF  x0B
066AE:  MOVLB  0
066B0:  CALL   18BE
066B4:  MOVLW  05
066B6:  MOVLB  6
066B8:  MOVWF  x06
066BA:  MOVLW  14
066BC:  MOVWF  x07
066BE:  MOVLW  04
066C0:  MOVWF  x09
066C2:  MOVLW  3C
066C4:  MOVWF  x08
066C6:  MOVLW  01
066C8:  MOVWF  x0A
066CA:  MOVWF  x0B
066CC:  MOVLB  0
066CE:  CALL   18BE
066D2:  MOVLW  0A
066D4:  MOVLB  6
066D6:  MOVWF  x06
066D8:  MOVLW  28
066DA:  MOVWF  x07
066DC:  MOVLW  04
066DE:  MOVWF  x09
066E0:  MOVLW  53
066E2:  MOVWF  x08
066E4:  MOVLW  02
066E6:  MOVWF  x0A
066E8:  MOVLW  01
066EA:  MOVWF  x0B
066EC:  MOVLB  0
066EE:  CALL   18BE
....................    glcd_update(); 
066F2:  CALL   16A2
....................    delay_ms(3000); 
066F6:  MOVLW  0C
066F8:  MOVLB  5
066FA:  MOVWF  xED
066FC:  MOVLW  FA
066FE:  MOVLB  6
06700:  MOVWF  x01
06702:  MOVLB  0
06704:  CALL   1568
06708:  MOVLB  5
0670A:  DECFSZ xED,F
0670C:  BRA    66FC
....................                         
....................    glcd_fillScreen(OFF);      //Limpia la pantalla 
0670E:  CLRF   xF5
06710:  MOVLB  0
06712:  CALL   1648
....................    Menu=0; 
06716:  MOVLB  4
06718:  CLRF   xCD
....................    LuzBlanca_off;Alarma_off; 
0671A:  BCF    F8B.0
0671C:  BCF    F94.0
0671E:  BCF    F8B.7
06720:  BCF    F94.7
.................... //-------Inicio de Cabina-------------------------------------------------------------------------// 
....................    VelocidadMotor(0); 
06722:  MOVLB  5
06724:  CLRF   xED
06726:  MOVLB  0
06728:  CALL   1590
....................    Motor_off; 
0672C:  BCF    F8B.2
0672E:  BCF    F94.2
....................    LeeEEPROM(); // Lectura de variables almacenadas en la EEPROM  
06730:  GOTO   1E82
....................    LimitaValores(); 
06734:  GOTO   268A
....................    //Menu=2; 
....................    while(true){  
....................    glcd_update(); 
06738:  CALL   16A2
.................... //**Actualizacin de Lectura de Sensores**//    
....................    if(Lectura==1){ 
0673C:  MOVLB  4
0673E:  BTFSS  x2F.4
06740:  BRA    67A2
....................       Lectura=0; 
06742:  BCF    x2F.4
....................       InFlow=LeerFlujoInFlow(8); 
06744:  MOVLW  08
06746:  MOVLB  5
06748:  MOVWF  xED
0674A:  MOVLB  0
0674C:  GOTO   42F8
06750:  MOVFF  03,51C
06754:  MOVFF  02,51B
06758:  MOVFF  01,51A
0675C:  MOVFF  00,519
....................       Temperatura=leeTemperatura(5); 
06760:  MOVLW  05
06762:  MOVLB  5
06764:  MOVWF  xED
06766:  MOVLB  0
06768:  GOTO   46C6
0676C:  MOVFF  03,621
06770:  MOVFF  02,620
06774:  MOVFF  01,61F
06778:  MOVFF  00,61E
0677C:  CALL   307C
06780:  MOVFF  01,5E0
....................       Filtro_DownFlow=Leer_Sensor_Presion(8); 
06784:  MOVLW  08
06786:  MOVLB  5
06788:  MOVWF  xED
0678A:  MOVLB  0
0678C:  GOTO   4896
06790:  MOVFF  03,524
06794:  MOVFF  02,523
06798:  MOVFF  01,522
0679C:  MOVFF  00,521
067A0:  MOVLB  4
....................    } 
.................... //----------------------------------------// 
....................  
.................... //**Contador de Tiempo de Trabajo del filtro**// 
....................    if(minutos_trabajo>=3600){ // Tiempo de Trabajo 
067A2:  MOVF   xE8,W
067A4:  SUBLW  0D
067A6:  BTFSC  FD8.0
067A8:  BRA    6950
067AA:  XORLW  FF
067AC:  BNZ   67B6
067AE:  MOVF   xE7,W
067B0:  SUBLW  0F
067B2:  BTFSC  FD8.0
067B4:  BRA    6950
....................       minutos_trabajo=0; //Minutos Trabajo realmente son segundos. 
067B6:  CLRF   xE8
067B8:  CLRF   xE7
....................       write_eeprom(33,make8(minutos_trabajo,0)); 
067BA:  MOVFF  4E7,5ED
067BE:  CLRF   FAA
067C0:  MOVLW  21
067C2:  MOVWF  FA9
067C4:  MOVFF  5ED,FA8
067C8:  BCF    FA6.6
067CA:  BCF    FA6.7
067CC:  BSF    FA6.2
067CE:  MOVF   FF2,W
067D0:  MOVWF  00
067D2:  BCF    FF2.7
067D4:  MOVLB  F
067D6:  MOVLW  55
067D8:  MOVWF  FA7
067DA:  MOVLW  AA
067DC:  MOVWF  FA7
067DE:  BSF    FA6.1
067E0:  BTFSC  FA6.1
067E2:  BRA    67E0
067E4:  BCF    FA6.2
067E6:  MOVF   00,W
067E8:  IORWF  FF2,F
....................       delay_ms(20); 
067EA:  MOVLW  14
067EC:  MOVLB  6
067EE:  MOVWF  x01
067F0:  MOVLB  0
067F2:  CALL   1568
....................       write_eeprom(34,make8(minutos_trabajo,1)); 
067F6:  MOVFF  4E8,5ED
067FA:  CLRF   FAA
067FC:  MOVLW  22
067FE:  MOVWF  FA9
06800:  MOVFF  5ED,FA8
06804:  BCF    FA6.6
06806:  BCF    FA6.7
06808:  BSF    FA6.2
0680A:  MOVF   FF2,W
0680C:  MOVWF  00
0680E:  BCF    FF2.7
06810:  MOVLB  F
06812:  MOVLW  55
06814:  MOVWF  FA7
06816:  MOVLW  AA
06818:  MOVWF  FA7
0681A:  BSF    FA6.1
0681C:  BTFSC  FA6.1
0681E:  BRA    681C
06820:  BCF    FA6.2
06822:  MOVF   00,W
06824:  IORWF  FF2,F
....................       delay_ms(20); 
06826:  MOVLW  14
06828:  MOVLB  6
0682A:  MOVWF  x01
0682C:  MOVLB  0
0682E:  CALL   1568
....................       Ttrabajo[0]++; 
06832:  MOVLB  5
06834:  INCF   x0D,F
....................       if(Ttrabajo[0]>9){ 
06836:  BTFSC  x0D.7
06838:  BRA    6844
0683A:  MOVF   x0D,W
0683C:  SUBLW  09
0683E:  BC    6844
....................          Ttrabajo[0]=0; 
06840:  CLRF   x0D
....................          Ttrabajo[1]++; 
06842:  INCF   x0E,F
....................       } 
....................       if(Ttrabajo[1]>9){ 
06844:  BTFSC  x0E.7
06846:  BRA    6852
06848:  MOVF   x0E,W
0684A:  SUBLW  09
0684C:  BC    6852
....................          Ttrabajo[1]=0; 
0684E:  CLRF   x0E
....................          Ttrabajo[2]++; 
06850:  INCF   x0F,F
....................       } 
....................       if(Ttrabajo[2]>9){ 
06852:  BTFSC  x0F.7
06854:  BRA    6860
06856:  MOVF   x0F,W
06858:  SUBLW  09
0685A:  BC    6860
....................          Ttrabajo[2]=0; 
0685C:  CLRF   x0F
....................          Ttrabajo[3]++; 
0685E:  INCF   x10,F
....................       } 
....................       if(Ttrabajo[3]>9){ 
06860:  BTFSC  x10.7
06862:  BRA    686C
06864:  MOVF   x10,W
06866:  SUBLW  09
06868:  BC    686C
....................          Ttrabajo[3]=0; 
0686A:  CLRF   x10
....................       } 
....................       write_eeprom(16,Ttrabajo[0]); 
0686C:  CLRF   FAA
0686E:  MOVLW  10
06870:  MOVWF  FA9
06872:  MOVFF  50D,FA8
06876:  BCF    FA6.6
06878:  BCF    FA6.7
0687A:  BSF    FA6.2
0687C:  MOVF   FF2,W
0687E:  MOVWF  00
06880:  BCF    FF2.7
06882:  MOVLB  F
06884:  MOVLW  55
06886:  MOVWF  FA7
06888:  MOVLW  AA
0688A:  MOVWF  FA7
0688C:  BSF    FA6.1
0688E:  BTFSC  FA6.1
06890:  BRA    688E
06892:  BCF    FA6.2
06894:  MOVF   00,W
06896:  IORWF  FF2,F
....................       delay_ms(20); 
06898:  MOVLW  14
0689A:  MOVLB  6
0689C:  MOVWF  x01
0689E:  MOVLB  0
068A0:  CALL   1568
....................       write_eeprom(17,Ttrabajo[1]); 
068A4:  CLRF   FAA
068A6:  MOVLW  11
068A8:  MOVWF  FA9
068AA:  MOVFF  50E,FA8
068AE:  BCF    FA6.6
068B0:  BCF    FA6.7
068B2:  BSF    FA6.2
068B4:  MOVF   FF2,W
068B6:  MOVWF  00
068B8:  BCF    FF2.7
068BA:  MOVLB  F
068BC:  MOVLW  55
068BE:  MOVWF  FA7
068C0:  MOVLW  AA
068C2:  MOVWF  FA7
068C4:  BSF    FA6.1
068C6:  BTFSC  FA6.1
068C8:  BRA    68C6
068CA:  BCF    FA6.2
068CC:  MOVF   00,W
068CE:  IORWF  FF2,F
....................       delay_ms(20); 
068D0:  MOVLW  14
068D2:  MOVLB  6
068D4:  MOVWF  x01
068D6:  MOVLB  0
068D8:  CALL   1568
....................       write_eeprom(18,Ttrabajo[2]); 
068DC:  CLRF   FAA
068DE:  MOVLW  12
068E0:  MOVWF  FA9
068E2:  MOVFF  50F,FA8
068E6:  BCF    FA6.6
068E8:  BCF    FA6.7
068EA:  BSF    FA6.2
068EC:  MOVF   FF2,W
068EE:  MOVWF  00
068F0:  BCF    FF2.7
068F2:  MOVLB  F
068F4:  MOVLW  55
068F6:  MOVWF  FA7
068F8:  MOVLW  AA
068FA:  MOVWF  FA7
068FC:  BSF    FA6.1
068FE:  BTFSC  FA6.1
06900:  BRA    68FE
06902:  BCF    FA6.2
06904:  MOVF   00,W
06906:  IORWF  FF2,F
....................       delay_ms(20); 
06908:  MOVLW  14
0690A:  MOVLB  6
0690C:  MOVWF  x01
0690E:  MOVLB  0
06910:  CALL   1568
....................       write_eeprom(19,Ttrabajo[3]); 
06914:  CLRF   FAA
06916:  MOVLW  13
06918:  MOVWF  FA9
0691A:  MOVFF  510,FA8
0691E:  BCF    FA6.6
06920:  BCF    FA6.7
06922:  BSF    FA6.2
06924:  MOVF   FF2,W
06926:  MOVWF  00
06928:  BCF    FF2.7
0692A:  MOVLB  F
0692C:  MOVLW  55
0692E:  MOVWF  FA7
06930:  MOVLW  AA
06932:  MOVWF  FA7
06934:  BSF    FA6.1
06936:  BTFSC  FA6.1
06938:  BRA    6936
0693A:  BCF    FA6.2
0693C:  MOVF   00,W
0693E:  IORWF  FF2,F
....................       delay_ms(20); 
06940:  MOVLW  14
06942:  MOVLB  6
06944:  MOVWF  x01
06946:  MOVLB  0
06948:  CALL   1568
....................    }else if(minutos_trabajo==900 || minutos_trabajo==1800 || minutos_trabajo==2700 ){ 
0694C:  BRA    69EC
0694E:  MOVLB  4
06950:  MOVF   xE7,W
06952:  SUBLW  84
06954:  BNZ   695C
06956:  MOVF   xE8,W
06958:  SUBLW  03
0695A:  BZ    6974
0695C:  MOVF   xE7,W
0695E:  SUBLW  08
06960:  BNZ   6968
06962:  MOVF   xE8,W
06964:  SUBLW  07
06966:  BZ    6974
06968:  MOVF   xE7,W
0696A:  SUBLW  8C
0696C:  BNZ   69EE
0696E:  MOVF   xE8,W
06970:  SUBLW  0A
06972:  BNZ   69EE
....................       write_eeprom(33,make8(minutos_trabajo,0)); 
06974:  MOVFF  4E7,5ED
06978:  CLRF   FAA
0697A:  MOVLW  21
0697C:  MOVWF  FA9
0697E:  MOVFF  5ED,FA8
06982:  BCF    FA6.6
06984:  BCF    FA6.7
06986:  BSF    FA6.2
06988:  MOVF   FF2,W
0698A:  MOVWF  00
0698C:  BCF    FF2.7
0698E:  MOVLB  F
06990:  MOVLW  55
06992:  MOVWF  FA7
06994:  MOVLW  AA
06996:  MOVWF  FA7
06998:  BSF    FA6.1
0699A:  BTFSC  FA6.1
0699C:  BRA    699A
0699E:  BCF    FA6.2
069A0:  MOVF   00,W
069A2:  IORWF  FF2,F
....................       delay_ms(20); 
069A4:  MOVLW  14
069A6:  MOVLB  6
069A8:  MOVWF  x01
069AA:  MOVLB  0
069AC:  CALL   1568
....................       write_eeprom(34,make8(minutos_trabajo,1)); 
069B0:  MOVFF  4E8,5ED
069B4:  CLRF   FAA
069B6:  MOVLW  22
069B8:  MOVWF  FA9
069BA:  MOVFF  5ED,FA8
069BE:  BCF    FA6.6
069C0:  BCF    FA6.7
069C2:  BSF    FA6.2
069C4:  MOVF   FF2,W
069C6:  MOVWF  00
069C8:  BCF    FF2.7
069CA:  MOVLB  F
069CC:  MOVLW  55
069CE:  MOVWF  FA7
069D0:  MOVLW  AA
069D2:  MOVWF  FA7
069D4:  BSF    FA6.1
069D6:  BTFSC  FA6.1
069D8:  BRA    69D6
069DA:  BCF    FA6.2
069DC:  MOVF   00,W
069DE:  IORWF  FF2,F
....................       delay_ms(20); 
069E0:  MOVLW  14
069E2:  MOVLB  6
069E4:  MOVWF  x01
069E6:  MOVLB  0
069E8:  CALL   1568
069EC:  MOVLB  4
....................    } 
.................... //----------------------------------------//       
....................  
.................... //**Contador de Tiempo de Trabajo de UV**// 
....................          if(segundos_uv>=60){ 
069EE:  MOVF   xE2,F
069F0:  BNZ   69F8
069F2:  MOVF   xE1,W
069F4:  SUBLW  3B
069F6:  BC    6A02
....................             segundos_uv=0; 
069F8:  CLRF   xE2
069FA:  CLRF   xE1
....................             minutos_uv++; 
069FC:  INCF   xE5,F
069FE:  BTFSC  FD8.2
06A00:  INCF   xE6,F
....................          } 
....................           
....................          if(minutos_uv>=60){ 
06A02:  MOVF   xE6,F
06A04:  BNZ   6A0E
06A06:  MOVF   xE5,W
06A08:  SUBLW  3B
06A0A:  BTFSC  FD8.0
06A0C:  BRA    6B68
....................             minutos_uv=0; 
06A0E:  CLRF   xE6
06A10:  CLRF   xE5
....................             Tuv[0]++; 
06A12:  MOVLB  5
06A14:  INCF   x01,F
....................             if(Tuv[0]>9){ 
06A16:  BTFSC  x01.7
06A18:  BRA    6A24
06A1A:  MOVF   x01,W
06A1C:  SUBLW  09
06A1E:  BC    6A24
....................                Tuv[0]=0; 
06A20:  CLRF   x01
....................                Tuv[1]++; 
06A22:  INCF   x02,F
....................             } 
....................             if(Tuv[1]>9){ 
06A24:  BTFSC  x02.7
06A26:  BRA    6A32
06A28:  MOVF   x02,W
06A2A:  SUBLW  09
06A2C:  BC    6A32
....................                Tuv[1]=0; 
06A2E:  CLRF   x02
....................                Tuv[2]++; 
06A30:  INCF   x03,F
....................             } 
....................             if(Tuv[2]>9){ 
06A32:  BTFSC  x03.7
06A34:  BRA    6A40
06A36:  MOVF   x03,W
06A38:  SUBLW  09
06A3A:  BC    6A40
....................                Tuv[2]=0; 
06A3C:  CLRF   x03
....................                Tuv[3]++; 
06A3E:  INCF   x04,F
....................             } 
....................             if(Tuv[3]>9){ 
06A40:  BTFSC  x04.7
06A42:  BRA    6A4C
06A44:  MOVF   x04,W
06A46:  SUBLW  09
06A48:  BC    6A4C
....................                Tuv[3]=0; 
06A4A:  CLRF   x04
....................             } 
....................             write_eeprom(31,minutos_uv); 
06A4C:  CLRF   FAA
06A4E:  MOVLW  1F
06A50:  MOVWF  FA9
06A52:  MOVFF  4E5,FA8
06A56:  BCF    FA6.6
06A58:  BCF    FA6.7
06A5A:  BSF    FA6.2
06A5C:  MOVF   FF2,W
06A5E:  MOVWF  00
06A60:  BCF    FF2.7
06A62:  MOVLB  F
06A64:  MOVLW  55
06A66:  MOVWF  FA7
06A68:  MOVLW  AA
06A6A:  MOVWF  FA7
06A6C:  BSF    FA6.1
06A6E:  BTFSC  FA6.1
06A70:  BRA    6A6E
06A72:  BCF    FA6.2
06A74:  MOVF   00,W
06A76:  IORWF  FF2,F
....................             delay_ms(20); 
06A78:  MOVLW  14
06A7A:  MOVLB  6
06A7C:  MOVWF  x01
06A7E:  MOVLB  0
06A80:  CALL   1568
....................             write_eeprom(12,Tuv[0]); 
06A84:  CLRF   FAA
06A86:  MOVLW  0C
06A88:  MOVWF  FA9
06A8A:  MOVFF  501,FA8
06A8E:  BCF    FA6.6
06A90:  BCF    FA6.7
06A92:  BSF    FA6.2
06A94:  MOVF   FF2,W
06A96:  MOVWF  00
06A98:  BCF    FF2.7
06A9A:  MOVLB  F
06A9C:  MOVLW  55
06A9E:  MOVWF  FA7
06AA0:  MOVLW  AA
06AA2:  MOVWF  FA7
06AA4:  BSF    FA6.1
06AA6:  BTFSC  FA6.1
06AA8:  BRA    6AA6
06AAA:  BCF    FA6.2
06AAC:  MOVF   00,W
06AAE:  IORWF  FF2,F
....................             delay_ms(20); 
06AB0:  MOVLW  14
06AB2:  MOVLB  6
06AB4:  MOVWF  x01
06AB6:  MOVLB  0
06AB8:  CALL   1568
....................             write_eeprom(13,Tuv[1]); 
06ABC:  CLRF   FAA
06ABE:  MOVLW  0D
06AC0:  MOVWF  FA9
06AC2:  MOVFF  502,FA8
06AC6:  BCF    FA6.6
06AC8:  BCF    FA6.7
06ACA:  BSF    FA6.2
06ACC:  MOVF   FF2,W
06ACE:  MOVWF  00
06AD0:  BCF    FF2.7
06AD2:  MOVLB  F
06AD4:  MOVLW  55
06AD6:  MOVWF  FA7
06AD8:  MOVLW  AA
06ADA:  MOVWF  FA7
06ADC:  BSF    FA6.1
06ADE:  BTFSC  FA6.1
06AE0:  BRA    6ADE
06AE2:  BCF    FA6.2
06AE4:  MOVF   00,W
06AE6:  IORWF  FF2,F
....................             delay_ms(20); 
06AE8:  MOVLW  14
06AEA:  MOVLB  6
06AEC:  MOVWF  x01
06AEE:  MOVLB  0
06AF0:  CALL   1568
....................             write_eeprom(14,Tuv[2]); 
06AF4:  CLRF   FAA
06AF6:  MOVLW  0E
06AF8:  MOVWF  FA9
06AFA:  MOVFF  503,FA8
06AFE:  BCF    FA6.6
06B00:  BCF    FA6.7
06B02:  BSF    FA6.2
06B04:  MOVF   FF2,W
06B06:  MOVWF  00
06B08:  BCF    FF2.7
06B0A:  MOVLB  F
06B0C:  MOVLW  55
06B0E:  MOVWF  FA7
06B10:  MOVLW  AA
06B12:  MOVWF  FA7
06B14:  BSF    FA6.1
06B16:  BTFSC  FA6.1
06B18:  BRA    6B16
06B1A:  BCF    FA6.2
06B1C:  MOVF   00,W
06B1E:  IORWF  FF2,F
....................             delay_ms(20); 
06B20:  MOVLW  14
06B22:  MOVLB  6
06B24:  MOVWF  x01
06B26:  MOVLB  0
06B28:  CALL   1568
....................             write_eeprom(15,Tuv[3]); 
06B2C:  CLRF   FAA
06B2E:  MOVLW  0F
06B30:  MOVWF  FA9
06B32:  MOVFF  504,FA8
06B36:  BCF    FA6.6
06B38:  BCF    FA6.7
06B3A:  BSF    FA6.2
06B3C:  MOVF   FF2,W
06B3E:  MOVWF  00
06B40:  BCF    FF2.7
06B42:  MOVLB  F
06B44:  MOVLW  55
06B46:  MOVWF  FA7
06B48:  MOVLW  AA
06B4A:  MOVWF  FA7
06B4C:  BSF    FA6.1
06B4E:  BTFSC  FA6.1
06B50:  BRA    6B4E
06B52:  BCF    FA6.2
06B54:  MOVF   00,W
06B56:  IORWF  FF2,F
....................             delay_ms(20); 
06B58:  MOVLW  14
06B5A:  MOVLB  6
06B5C:  MOVWF  x01
06B5E:  MOVLB  0
06B60:  CALL   1568
....................          }else if(minutos_uv==15 || minutos_uv==30 || minutos_uv==45){ 
06B64:  BRA    6BBE
06B66:  MOVLB  4
06B68:  MOVF   xE5,W
06B6A:  SUBLW  0F
06B6C:  BNZ   6B72
06B6E:  MOVF   xE6,F
06B70:  BZ    6B86
06B72:  MOVF   xE5,W
06B74:  SUBLW  1E
06B76:  BNZ   6B7C
06B78:  MOVF   xE6,F
06B7A:  BZ    6B86
06B7C:  MOVF   xE5,W
06B7E:  SUBLW  2D
06B80:  BNZ   6BC0
06B82:  MOVF   xE6,F
06B84:  BNZ   6BC0
....................             write_eeprom(31,minutos_uv); 
06B86:  CLRF   FAA
06B88:  MOVLW  1F
06B8A:  MOVWF  FA9
06B8C:  MOVFF  4E5,FA8
06B90:  BCF    FA6.6
06B92:  BCF    FA6.7
06B94:  BSF    FA6.2
06B96:  MOVF   FF2,W
06B98:  MOVWF  00
06B9A:  BCF    FF2.7
06B9C:  MOVLB  F
06B9E:  MOVLW  55
06BA0:  MOVWF  FA7
06BA2:  MOVLW  AA
06BA4:  MOVWF  FA7
06BA6:  BSF    FA6.1
06BA8:  BTFSC  FA6.1
06BAA:  BRA    6BA8
06BAC:  BCF    FA6.2
06BAE:  MOVF   00,W
06BB0:  IORWF  FF2,F
....................             delay_ms(20); 
06BB2:  MOVLW  14
06BB4:  MOVLB  6
06BB6:  MOVWF  x01
06BB8:  MOVLB  0
06BBA:  CALL   1568
06BBE:  MOVLB  4
....................          } 
.................... //----------------------------------------// 
....................  
....................    if(Menu!=2){// Si no esta en el menu de estados apaga la alarma 
06BC0:  MOVF   xCD,W
06BC2:  SUBLW  02
06BC4:  BZ    6BCE
....................       Alarma_off; 
06BC6:  BCF    F8B.7
06BC8:  BCF    F94.7
....................       Alarma=10; 
06BCA:  MOVLW  0A
06BCC:  MOVWF  xDA
....................    } 
....................     
.................... //_-------------------------------------------------------------------------------------------------------------------------------------------------------- 
....................    if(Menu==0){ //Menu de Contrasea. 
06BCE:  MOVF   xCD,F
06BD0:  BNZ   6C08
....................       while(PidePassword(0,0,1,Password[0],Password[1],Password[2],Password[3])==0){ 
06BD2:  MOVLB  5
06BD4:  CLRF   xEE
06BD6:  CLRF   xEF
06BD8:  MOVLW  01
06BDA:  MOVWF  xF0
06BDC:  MOVFF  515,5F1
06BE0:  MOVFF  516,5F2
06BE4:  MOVFF  517,5F3
06BE8:  MOVFF  518,5F4
06BEC:  MOVLB  0
06BEE:  CALL   4FA2
06BF2:  MOVF   01,F
06BF4:  BNZ   6C0A
....................          VelocidadMotor(0); 
06BF6:  MOVLB  5
06BF8:  CLRF   xED
06BFA:  MOVLB  0
06BFC:  CALL   1590
....................          glcd_update(); 
06C00:  CALL   16A2
....................       }        
06C04:  MOVLB  4
06C06:  BRA    6BD2
06C08:  MOVLB  0
....................    } 
.................... //_--------------------------------------------------------------------------------------------------------------------------------------------------------        
....................  
.................... //_-------------------------------------------------------------------------------------------------------------------------------------------------------- 
....................       if(Menu==1){//Menu de Purga. 
06C0A:  MOVLB  4
06C0C:  DECFSZ xCD,W
06C0E:  BRA    6E8A
....................          glcd_text57(15, 1, Tiempo, 1, ON); 
06C10:  MOVLW  0F
06C12:  MOVLB  6
06C14:  MOVWF  x06
06C16:  MOVLW  01
06C18:  MOVWF  x07
06C1A:  MOVLW  04
06C1C:  MOVWF  x09
06C1E:  MOVLW  5A
06C20:  MOVWF  x08
06C22:  MOVLW  01
06C24:  MOVWF  x0A
06C26:  MOVWF  x0B
06C28:  MOVLB  0
06C2A:  CALL   18BE
....................          LuzBlanca_off;//Alarma_off; 
06C2E:  BCF    F8B.0
06C30:  BCF    F94.0
....................          glcd_rect(9, 54, 120, 64, YES, OFF);          
06C32:  MOVLW  09
06C34:  MOVLB  6
06C36:  MOVWF  x06
06C38:  MOVLW  36
06C3A:  MOVWF  x07
06C3C:  MOVLW  78
06C3E:  MOVWF  x08
06C40:  MOVLW  40
06C42:  MOVWF  x09
06C44:  MOVLW  01
06C46:  MOVWF  x0A
06C48:  CLRF   x0B
06C4A:  MOVLB  0
06C4C:  CALL   4D2E
....................          displayTiempo(Tpurga[3],20,20,0,2);displayTiempo(Tpurga[2],40,20,0,2);glcd_text57(60, 22, Dos_puntos, 2, ON); 
06C50:  MOVFF  4F8,5ED
06C54:  MOVLW  14
06C56:  MOVLB  5
06C58:  MOVWF  xEE
06C5A:  MOVWF  xEF
06C5C:  CLRF   xF0
06C5E:  MOVLW  02
06C60:  MOVWF  xF1
06C62:  MOVLB  0
06C64:  CALL   568A
06C68:  MOVFF  4F7,5ED
06C6C:  MOVLW  28
06C6E:  MOVLB  5
06C70:  MOVWF  xEE
06C72:  MOVLW  14
06C74:  MOVWF  xEF
06C76:  CLRF   xF0
06C78:  MOVLW  02
06C7A:  MOVWF  xF1
06C7C:  MOVLB  0
06C7E:  CALL   568A
06C82:  MOVLW  3C
06C84:  MOVLB  6
06C86:  MOVWF  x06
06C88:  MOVLW  16
06C8A:  MOVWF  x07
06C8C:  MOVLW  04
06C8E:  MOVWF  x09
06C90:  MOVLW  51
06C92:  MOVWF  x08
06C94:  MOVLW  02
06C96:  MOVWF  x0A
06C98:  MOVLW  01
06C9A:  MOVWF  x0B
06C9C:  MOVLB  0
06C9E:  CALL   18BE
....................          displayTiempo(Tpurga[1],70,20,0,2);displayTiempo(Tpurga[0],90,20,0,2);         
06CA2:  MOVFF  4F6,5ED
06CA6:  MOVLW  46
06CA8:  MOVLB  5
06CAA:  MOVWF  xEE
06CAC:  MOVLW  14
06CAE:  MOVWF  xEF
06CB0:  CLRF   xF0
06CB2:  MOVLW  02
06CB4:  MOVWF  xF1
06CB6:  MOVLB  0
06CB8:  CALL   568A
06CBC:  MOVFF  4F5,5ED
06CC0:  MOVLW  5A
06CC2:  MOVLB  5
06CC4:  MOVWF  xEE
06CC6:  MOVLW  14
06CC8:  MOVWF  xEF
06CCA:  CLRF   xF0
06CCC:  MOVLW  02
06CCE:  MOVWF  xF1
06CD0:  MOVLB  0
06CD2:  CALL   568A
....................           
....................          if(VIDRIODN){ 
06CD6:  BSF    F92.3
06CD8:  BTFSC  F80.3
06CDA:  BRA    6D66
....................             strcpy(Menus.Letra,"  !Abra Proteccion"); 
06CDC:  MOVLW  04
06CDE:  MOVWF  FEA
06CE0:  MOVLW  17
06CE2:  MOVWF  FE9
06CE4:  MOVFF  FF2,5ED
06CE8:  BCF    FF2.7
06CEA:  MOVLW  00
06CEC:  CALL   0F80
06CF0:  TBLRD*-
06CF2:  TBLRD*+
06CF4:  MOVF   FF5,W
06CF6:  MOVWF  FEE
06CF8:  IORLW  00
06CFA:  BNZ   6CF2
06CFC:  MOVLB  5
06CFE:  BTFSC  xED.7
06D00:  BSF    FF2.7
....................             displayMenu(Menus.Letra,0,46,1,1); 
06D02:  MOVLW  04
06D04:  MOVWF  xF6
06D06:  MOVLW  17
06D08:  MOVWF  xF5
06D0A:  CLRF   xF7
06D0C:  MOVLW  2E
06D0E:  MOVWF  xF8
06D10:  MOVLW  01
06D12:  MOVWF  xF9
06D14:  MOVWF  xFA
06D16:  MOVLB  0
06D18:  CALL   4EC6
....................             strcpy(Menus.Letra,"      Frontal!    "); 
06D1C:  MOVLW  04
06D1E:  MOVWF  FEA
06D20:  MOVLW  17
06D22:  MOVWF  FE9
06D24:  MOVFF  FF2,5ED
06D28:  BCF    FF2.7
06D2A:  MOVLW  00
06D2C:  CALL   0FB2
06D30:  TBLRD*-
06D32:  TBLRD*+
06D34:  MOVF   FF5,W
06D36:  MOVWF  FEE
06D38:  IORLW  00
06D3A:  BNZ   6D32
06D3C:  MOVLB  5
06D3E:  BTFSC  xED.7
06D40:  BSF    FF2.7
....................             displayMenu(Menus.Letra,0,55,1,1); 
06D42:  MOVLW  04
06D44:  MOVWF  xF6
06D46:  MOVLW  17
06D48:  MOVWF  xF5
06D4A:  CLRF   xF7
06D4C:  MOVLW  37
06D4E:  MOVWF  xF8
06D50:  MOVLW  01
06D52:  MOVWF  xF9
06D54:  MOVWF  xFA
06D56:  MOVLB  0
06D58:  CALL   4EC6
....................             tiempo_purga=0; 
06D5C:  MOVLB  4
06D5E:  BCF    x2E.4
....................             Purga=OFF; 
06D60:  BCF    x2F.7
....................          }else{ 
06D62:  BRA    6DEE
06D64:  MOVLB  0
....................             tiempo_purga=1; 
06D66:  MOVLB  4
06D68:  BSF    x2E.4
....................             Purga=ON; 
06D6A:  BSF    x2F.7
....................             strcpy(Menus.Letra,"                  "); 
06D6C:  MOVLW  04
06D6E:  MOVWF  FEA
06D70:  MOVLW  17
06D72:  MOVWF  FE9
06D74:  MOVFF  FF2,5ED
06D78:  BCF    FF2.7
06D7A:  MOVLW  00
06D7C:  MOVLB  0
06D7E:  CALL   0FE4
06D82:  TBLRD*-
06D84:  TBLRD*+
06D86:  MOVF   FF5,W
06D88:  MOVWF  FEE
06D8A:  IORLW  00
06D8C:  BNZ   6D84
06D8E:  MOVLB  5
06D90:  BTFSC  xED.7
06D92:  BSF    FF2.7
....................             displayMenu(Menus.Letra,0,46,0,1); 
06D94:  MOVLW  04
06D96:  MOVWF  xF6
06D98:  MOVLW  17
06D9A:  MOVWF  xF5
06D9C:  CLRF   xF7
06D9E:  MOVLW  2E
06DA0:  MOVWF  xF8
06DA2:  CLRF   xF9
06DA4:  MOVLW  01
06DA6:  MOVWF  xFA
06DA8:  MOVLB  0
06DAA:  CALL   4EC6
....................             strcpy(Menus.Letra,"                  "); 
06DAE:  MOVLW  04
06DB0:  MOVWF  FEA
06DB2:  MOVLW  17
06DB4:  MOVWF  FE9
06DB6:  MOVFF  FF2,5ED
06DBA:  BCF    FF2.7
06DBC:  MOVLW  00
06DBE:  CALL   0FE4
06DC2:  TBLRD*-
06DC4:  TBLRD*+
06DC6:  MOVF   FF5,W
06DC8:  MOVWF  FEE
06DCA:  IORLW  00
06DCC:  BNZ   6DC4
06DCE:  MOVLB  5
06DD0:  BTFSC  xED.7
06DD2:  BSF    FF2.7
....................             displayMenu(Menus.Letra,0,55,0,1); 
06DD4:  MOVLW  04
06DD6:  MOVWF  xF6
06DD8:  MOVLW  17
06DDA:  MOVWF  xF5
06DDC:  CLRF   xF7
06DDE:  MOVLW  37
06DE0:  MOVWF  xF8
06DE2:  CLRF   xF9
06DE4:  MOVLW  01
06DE6:  MOVWF  xFA
06DE8:  MOVLB  0
06DEA:  CALL   4EC6
....................          } 
....................           
....................          VelocidadMotor(VelMotor); 
06DEE:  MOVFF  5E4,5ED
06DF2:  MOVLB  0
06DF4:  CALL   1590
....................           
....................          if(RIGHT){ 
06DF8:  BSF    F96.1
06DFA:  BTFSC  F84.1
06DFC:  BRA    6E2E
....................             delay_ms(500); 
06DFE:  MOVLW  02
06E00:  MOVLB  5
06E02:  MOVWF  xED
06E04:  MOVLW  FA
06E06:  MOVLB  6
06E08:  MOVWF  x01
06E0A:  MOVLB  0
06E0C:  CALL   1568
06E10:  MOVLB  5
06E12:  DECFSZ xED,F
06E14:  BRA    6E04
....................             if(RIGHT){ 
06E16:  BSF    F96.1
06E18:  BTFSC  F84.1
06E1A:  BRA    6E30
....................                tiempo_purga=0;Menu=2;glcd_fillScreen(OFF); 
06E1C:  MOVLB  4
06E1E:  BCF    x2E.4
06E20:  MOVLW  02
06E22:  MOVWF  xCD
06E24:  MOVLB  5
06E26:  CLRF   xF5
06E28:  MOVLB  0
06E2A:  CALL   1648
06E2E:  MOVLB  5
....................             } 
....................          } 
....................         
....................          if((Tpurga[0]>=Tpurgap[0])&&(Tpurga[1]>=Tpurgap[1])&&(Tpurga[2]>=Tpurgap[2])&&(Tpurga[3]>=Tpurgap[3])){ 
06E30:  MOVLB  4
06E32:  MOVF   xF9,W
06E34:  XORLW  80
06E36:  MOVWF  00
06E38:  MOVF   xF5,W
06E3A:  XORLW  80
06E3C:  SUBWF  00,W
06E3E:  BZ    6E42
06E40:  BC    6E8A
06E42:  MOVF   xFA,W
06E44:  XORLW  80
06E46:  MOVWF  00
06E48:  MOVF   xF6,W
06E4A:  XORLW  80
06E4C:  SUBWF  00,W
06E4E:  BZ    6E52
06E50:  BC    6E8A
06E52:  MOVF   xFB,W
06E54:  XORLW  80
06E56:  MOVWF  00
06E58:  MOVF   xF7,W
06E5A:  XORLW  80
06E5C:  SUBWF  00,W
06E5E:  BZ    6E62
06E60:  BC    6E8A
06E62:  MOVF   xFC,W
06E64:  XORLW  80
06E66:  MOVWF  00
06E68:  MOVF   xF8,W
06E6A:  XORLW  80
06E6C:  SUBWF  00,W
06E6E:  BZ    6E72
06E70:  BC    6E8A
....................             tiempo_purga=0;Menu=2;glcd_fillScreen(OFF);flag_luz=1;flag_blower=1;flag_toma=1; 
06E72:  BCF    x2E.4
06E74:  MOVLW  02
06E76:  MOVWF  xCD
06E78:  MOVLB  5
06E7A:  CLRF   xF5
06E7C:  MOVLB  0
06E7E:  CALL   1648
06E82:  MOVLB  4
06E84:  BSF    x2E.1
06E86:  BSF    x2D.7
06E88:  BSF    x2E.0
....................          }       
....................       } 
.................... //_--------------------------------------------------------------------------------------------------------------------------------------------------------        
....................  
.................... //_-------------------------------------------------------------------------------------------------------------------------------------------------------- 
....................       if(Menu==2){ //Menu General. 
06E8A:  MOVF   xCD,W
06E8C:  SUBLW  02
06E8E:  BTFSS  FD8.2
06E90:  GOTO   7DEA
....................          Purga=OFF; 
06E94:  BCF    x2F.7
....................          w=0; 
06E96:  BCF    x2E.3
....................          //glcd_imagen(4); 
....................           
....................          if(VelMotor==1){ 
06E98:  MOVLB  5
06E9A:  DECFSZ xE4,W
06E9C:  BRA    6F54
....................             glcd_rect(0, 29, 13, 39, YES, ON); 
06E9E:  MOVLB  6
06EA0:  CLRF   x06
06EA2:  MOVLW  1D
06EA4:  MOVWF  x07
06EA6:  MOVLW  0D
06EA8:  MOVWF  x08
06EAA:  MOVLW  27
06EAC:  MOVWF  x09
06EAE:  MOVLW  01
06EB0:  MOVWF  x0A
06EB2:  MOVWF  x0B
06EB4:  MOVLB  0
06EB6:  CALL   4D2E
....................             glcd_rect(15, 26, 28, 39, NO, ON); 
06EBA:  MOVLW  0F
06EBC:  MOVLB  6
06EBE:  MOVWF  x06
06EC0:  MOVLW  1A
06EC2:  MOVWF  x07
06EC4:  MOVLW  1C
06EC6:  MOVWF  x08
06EC8:  MOVLW  27
06ECA:  MOVWF  x09
06ECC:  CLRF   x0A
06ECE:  MOVLW  01
06ED0:  MOVWF  x0B
06ED2:  MOVLB  0
06ED4:  CALL   4D2E
....................             glcd_rect(30, 23, 43, 39, NO, ON); 
06ED8:  MOVLW  1E
06EDA:  MOVLB  6
06EDC:  MOVWF  x06
06EDE:  MOVLW  17
06EE0:  MOVWF  x07
06EE2:  MOVLW  2B
06EE4:  MOVWF  x08
06EE6:  MOVLW  27
06EE8:  MOVWF  x09
06EEA:  CLRF   x0A
06EEC:  MOVLW  01
06EEE:  MOVWF  x0B
06EF0:  MOVLB  0
06EF2:  CALL   4D2E
....................             glcd_rect(45, 20, 58, 39, NO, ON); 
06EF6:  MOVLW  2D
06EF8:  MOVLB  6
06EFA:  MOVWF  x06
06EFC:  MOVLW  14
06EFE:  MOVWF  x07
06F00:  MOVLW  3A
06F02:  MOVWF  x08
06F04:  MOVLW  27
06F06:  MOVWF  x09
06F08:  CLRF   x0A
06F0A:  MOVLW  01
06F0C:  MOVWF  x0B
06F0E:  MOVLB  0
06F10:  CALL   4D2E
....................             glcd_rect(60, 17, 73, 39, NO, ON); 
06F14:  MOVLW  3C
06F16:  MOVLB  6
06F18:  MOVWF  x06
06F1A:  MOVLW  11
06F1C:  MOVWF  x07
06F1E:  MOVLW  49
06F20:  MOVWF  x08
06F22:  MOVLW  27
06F24:  MOVWF  x09
06F26:  CLRF   x0A
06F28:  MOVLW  01
06F2A:  MOVWF  x0B
06F2C:  MOVLB  0
06F2E:  CALL   4D2E
....................             glcd_rect(75, 14, 88, 39, NO, ON); 
06F32:  MOVLW  4B
06F34:  MOVLB  6
06F36:  MOVWF  x06
06F38:  MOVLW  0E
06F3A:  MOVWF  x07
06F3C:  MOVLW  58
06F3E:  MOVWF  x08
06F40:  MOVLW  27
06F42:  MOVWF  x09
06F44:  CLRF   x0A
06F46:  MOVLW  01
06F48:  MOVWF  x0B
06F4A:  MOVLB  0
06F4C:  CALL   4D2E
....................          }else if(VelMotor==2){ 
06F50:  BRA    72FC
06F52:  MOVLB  5
06F54:  MOVF   xE4,W
06F56:  SUBLW  02
06F58:  BNZ   7010
....................             glcd_rect(0, 29, 13, 39, YES, ON); 
06F5A:  MOVLB  6
06F5C:  CLRF   x06
06F5E:  MOVLW  1D
06F60:  MOVWF  x07
06F62:  MOVLW  0D
06F64:  MOVWF  x08
06F66:  MOVLW  27
06F68:  MOVWF  x09
06F6A:  MOVLW  01
06F6C:  MOVWF  x0A
06F6E:  MOVWF  x0B
06F70:  MOVLB  0
06F72:  CALL   4D2E
....................             glcd_rect(15, 26, 28, 39, YES, ON); 
06F76:  MOVLW  0F
06F78:  MOVLB  6
06F7A:  MOVWF  x06
06F7C:  MOVLW  1A
06F7E:  MOVWF  x07
06F80:  MOVLW  1C
06F82:  MOVWF  x08
06F84:  MOVLW  27
06F86:  MOVWF  x09
06F88:  MOVLW  01
06F8A:  MOVWF  x0A
06F8C:  MOVWF  x0B
06F8E:  MOVLB  0
06F90:  CALL   4D2E
....................             glcd_rect(30, 23, 43, 39, NO, ON); 
06F94:  MOVLW  1E
06F96:  MOVLB  6
06F98:  MOVWF  x06
06F9A:  MOVLW  17
06F9C:  MOVWF  x07
06F9E:  MOVLW  2B
06FA0:  MOVWF  x08
06FA2:  MOVLW  27
06FA4:  MOVWF  x09
06FA6:  CLRF   x0A
06FA8:  MOVLW  01
06FAA:  MOVWF  x0B
06FAC:  MOVLB  0
06FAE:  CALL   4D2E
....................             glcd_rect(45, 20, 58, 39, NO, ON); 
06FB2:  MOVLW  2D
06FB4:  MOVLB  6
06FB6:  MOVWF  x06
06FB8:  MOVLW  14
06FBA:  MOVWF  x07
06FBC:  MOVLW  3A
06FBE:  MOVWF  x08
06FC0:  MOVLW  27
06FC2:  MOVWF  x09
06FC4:  CLRF   x0A
06FC6:  MOVLW  01
06FC8:  MOVWF  x0B
06FCA:  MOVLB  0
06FCC:  CALL   4D2E
....................             glcd_rect(60, 17, 73, 39, NO, ON); 
06FD0:  MOVLW  3C
06FD2:  MOVLB  6
06FD4:  MOVWF  x06
06FD6:  MOVLW  11
06FD8:  MOVWF  x07
06FDA:  MOVLW  49
06FDC:  MOVWF  x08
06FDE:  MOVLW  27
06FE0:  MOVWF  x09
06FE2:  CLRF   x0A
06FE4:  MOVLW  01
06FE6:  MOVWF  x0B
06FE8:  MOVLB  0
06FEA:  CALL   4D2E
....................             glcd_rect(75, 14, 88, 39, NO, ON); 
06FEE:  MOVLW  4B
06FF0:  MOVLB  6
06FF2:  MOVWF  x06
06FF4:  MOVLW  0E
06FF6:  MOVWF  x07
06FF8:  MOVLW  58
06FFA:  MOVWF  x08
06FFC:  MOVLW  27
06FFE:  MOVWF  x09
07000:  CLRF   x0A
07002:  MOVLW  01
07004:  MOVWF  x0B
07006:  MOVLB  0
07008:  CALL   4D2E
....................          }else if(VelMotor==3){ 
0700C:  BRA    72FC
0700E:  MOVLB  5
07010:  MOVF   xE4,W
07012:  SUBLW  03
07014:  BNZ   70CC
....................             glcd_rect(0, 29, 13, 39, YES, ON); 
07016:  MOVLB  6
07018:  CLRF   x06
0701A:  MOVLW  1D
0701C:  MOVWF  x07
0701E:  MOVLW  0D
07020:  MOVWF  x08
07022:  MOVLW  27
07024:  MOVWF  x09
07026:  MOVLW  01
07028:  MOVWF  x0A
0702A:  MOVWF  x0B
0702C:  MOVLB  0
0702E:  CALL   4D2E
....................             glcd_rect(15, 26, 28, 39, YES, ON); 
07032:  MOVLW  0F
07034:  MOVLB  6
07036:  MOVWF  x06
07038:  MOVLW  1A
0703A:  MOVWF  x07
0703C:  MOVLW  1C
0703E:  MOVWF  x08
07040:  MOVLW  27
07042:  MOVWF  x09
07044:  MOVLW  01
07046:  MOVWF  x0A
07048:  MOVWF  x0B
0704A:  MOVLB  0
0704C:  CALL   4D2E
....................             glcd_rect(30, 23, 43, 39, YES, ON); 
07050:  MOVLW  1E
07052:  MOVLB  6
07054:  MOVWF  x06
07056:  MOVLW  17
07058:  MOVWF  x07
0705A:  MOVLW  2B
0705C:  MOVWF  x08
0705E:  MOVLW  27
07060:  MOVWF  x09
07062:  MOVLW  01
07064:  MOVWF  x0A
07066:  MOVWF  x0B
07068:  MOVLB  0
0706A:  CALL   4D2E
....................             glcd_rect(45, 20, 58, 39, NO, ON); 
0706E:  MOVLW  2D
07070:  MOVLB  6
07072:  MOVWF  x06
07074:  MOVLW  14
07076:  MOVWF  x07
07078:  MOVLW  3A
0707A:  MOVWF  x08
0707C:  MOVLW  27
0707E:  MOVWF  x09
07080:  CLRF   x0A
07082:  MOVLW  01
07084:  MOVWF  x0B
07086:  MOVLB  0
07088:  CALL   4D2E
....................             glcd_rect(60, 17, 73, 39, NO, ON); 
0708C:  MOVLW  3C
0708E:  MOVLB  6
07090:  MOVWF  x06
07092:  MOVLW  11
07094:  MOVWF  x07
07096:  MOVLW  49
07098:  MOVWF  x08
0709A:  MOVLW  27
0709C:  MOVWF  x09
0709E:  CLRF   x0A
070A0:  MOVLW  01
070A2:  MOVWF  x0B
070A4:  MOVLB  0
070A6:  CALL   4D2E
....................             glcd_rect(75, 14, 88, 39, NO, ON); 
070AA:  MOVLW  4B
070AC:  MOVLB  6
070AE:  MOVWF  x06
070B0:  MOVLW  0E
070B2:  MOVWF  x07
070B4:  MOVLW  58
070B6:  MOVWF  x08
070B8:  MOVLW  27
070BA:  MOVWF  x09
070BC:  CLRF   x0A
070BE:  MOVLW  01
070C0:  MOVWF  x0B
070C2:  MOVLB  0
070C4:  CALL   4D2E
....................          }else if(VelMotor==4){ 
070C8:  BRA    72FC
070CA:  MOVLB  5
070CC:  MOVF   xE4,W
070CE:  SUBLW  04
070D0:  BNZ   7188
....................             glcd_rect(0, 29, 13, 39, YES, ON); 
070D2:  MOVLB  6
070D4:  CLRF   x06
070D6:  MOVLW  1D
070D8:  MOVWF  x07
070DA:  MOVLW  0D
070DC:  MOVWF  x08
070DE:  MOVLW  27
070E0:  MOVWF  x09
070E2:  MOVLW  01
070E4:  MOVWF  x0A
070E6:  MOVWF  x0B
070E8:  MOVLB  0
070EA:  CALL   4D2E
....................             glcd_rect(15, 26, 28, 39, YES, ON); 
070EE:  MOVLW  0F
070F0:  MOVLB  6
070F2:  MOVWF  x06
070F4:  MOVLW  1A
070F6:  MOVWF  x07
070F8:  MOVLW  1C
070FA:  MOVWF  x08
070FC:  MOVLW  27
070FE:  MOVWF  x09
07100:  MOVLW  01
07102:  MOVWF  x0A
07104:  MOVWF  x0B
07106:  MOVLB  0
07108:  CALL   4D2E
....................             glcd_rect(30, 23, 43, 39, YES, ON); 
0710C:  MOVLW  1E
0710E:  MOVLB  6
07110:  MOVWF  x06
07112:  MOVLW  17
07114:  MOVWF  x07
07116:  MOVLW  2B
07118:  MOVWF  x08
0711A:  MOVLW  27
0711C:  MOVWF  x09
0711E:  MOVLW  01
07120:  MOVWF  x0A
07122:  MOVWF  x0B
07124:  MOVLB  0
07126:  CALL   4D2E
....................             glcd_rect(45, 20, 58, 39, YES, ON); 
0712A:  MOVLW  2D
0712C:  MOVLB  6
0712E:  MOVWF  x06
07130:  MOVLW  14
07132:  MOVWF  x07
07134:  MOVLW  3A
07136:  MOVWF  x08
07138:  MOVLW  27
0713A:  MOVWF  x09
0713C:  MOVLW  01
0713E:  MOVWF  x0A
07140:  MOVWF  x0B
07142:  MOVLB  0
07144:  CALL   4D2E
....................             glcd_rect(60, 17, 73, 39, NO, ON); 
07148:  MOVLW  3C
0714A:  MOVLB  6
0714C:  MOVWF  x06
0714E:  MOVLW  11
07150:  MOVWF  x07
07152:  MOVLW  49
07154:  MOVWF  x08
07156:  MOVLW  27
07158:  MOVWF  x09
0715A:  CLRF   x0A
0715C:  MOVLW  01
0715E:  MOVWF  x0B
07160:  MOVLB  0
07162:  CALL   4D2E
....................             glcd_rect(75, 14, 88, 39, NO, ON); 
07166:  MOVLW  4B
07168:  MOVLB  6
0716A:  MOVWF  x06
0716C:  MOVLW  0E
0716E:  MOVWF  x07
07170:  MOVLW  58
07172:  MOVWF  x08
07174:  MOVLW  27
07176:  MOVWF  x09
07178:  CLRF   x0A
0717A:  MOVLW  01
0717C:  MOVWF  x0B
0717E:  MOVLB  0
07180:  CALL   4D2E
....................          }else if(VelMotor==5){ 
07184:  BRA    72FC
07186:  MOVLB  5
07188:  MOVF   xE4,W
0718A:  SUBLW  05
0718C:  BNZ   7244
....................             glcd_rect(0, 29, 13, 39, YES, ON); 
0718E:  MOVLB  6
07190:  CLRF   x06
07192:  MOVLW  1D
07194:  MOVWF  x07
07196:  MOVLW  0D
07198:  MOVWF  x08
0719A:  MOVLW  27
0719C:  MOVWF  x09
0719E:  MOVLW  01
071A0:  MOVWF  x0A
071A2:  MOVWF  x0B
071A4:  MOVLB  0
071A6:  CALL   4D2E
....................             glcd_rect(15, 26, 28, 39, YES, ON); 
071AA:  MOVLW  0F
071AC:  MOVLB  6
071AE:  MOVWF  x06
071B0:  MOVLW  1A
071B2:  MOVWF  x07
071B4:  MOVLW  1C
071B6:  MOVWF  x08
071B8:  MOVLW  27
071BA:  MOVWF  x09
071BC:  MOVLW  01
071BE:  MOVWF  x0A
071C0:  MOVWF  x0B
071C2:  MOVLB  0
071C4:  CALL   4D2E
....................             glcd_rect(30, 23, 43, 39, YES, ON); 
071C8:  MOVLW  1E
071CA:  MOVLB  6
071CC:  MOVWF  x06
071CE:  MOVLW  17
071D0:  MOVWF  x07
071D2:  MOVLW  2B
071D4:  MOVWF  x08
071D6:  MOVLW  27
071D8:  MOVWF  x09
071DA:  MOVLW  01
071DC:  MOVWF  x0A
071DE:  MOVWF  x0B
071E0:  MOVLB  0
071E2:  CALL   4D2E
....................             glcd_rect(45, 20, 58, 39, YES, ON); 
071E6:  MOVLW  2D
071E8:  MOVLB  6
071EA:  MOVWF  x06
071EC:  MOVLW  14
071EE:  MOVWF  x07
071F0:  MOVLW  3A
071F2:  MOVWF  x08
071F4:  MOVLW  27
071F6:  MOVWF  x09
071F8:  MOVLW  01
071FA:  MOVWF  x0A
071FC:  MOVWF  x0B
071FE:  MOVLB  0
07200:  CALL   4D2E
....................             glcd_rect(60, 17, 73, 39, YES, ON); 
07204:  MOVLW  3C
07206:  MOVLB  6
07208:  MOVWF  x06
0720A:  MOVLW  11
0720C:  MOVWF  x07
0720E:  MOVLW  49
07210:  MOVWF  x08
07212:  MOVLW  27
07214:  MOVWF  x09
07216:  MOVLW  01
07218:  MOVWF  x0A
0721A:  MOVWF  x0B
0721C:  MOVLB  0
0721E:  CALL   4D2E
....................             glcd_rect(75, 14, 88, 39, NO, ON); 
07222:  MOVLW  4B
07224:  MOVLB  6
07226:  MOVWF  x06
07228:  MOVLW  0E
0722A:  MOVWF  x07
0722C:  MOVLW  58
0722E:  MOVWF  x08
07230:  MOVLW  27
07232:  MOVWF  x09
07234:  CLRF   x0A
07236:  MOVLW  01
07238:  MOVWF  x0B
0723A:  MOVLB  0
0723C:  CALL   4D2E
....................          }else if(VelMotor==6){ 
07240:  BRA    72FC
07242:  MOVLB  5
07244:  MOVF   xE4,W
07246:  SUBLW  06
07248:  BNZ   72FC
....................             glcd_rect(0, 29, 13, 39, YES, ON); 
0724A:  MOVLB  6
0724C:  CLRF   x06
0724E:  MOVLW  1D
07250:  MOVWF  x07
07252:  MOVLW  0D
07254:  MOVWF  x08
07256:  MOVLW  27
07258:  MOVWF  x09
0725A:  MOVLW  01
0725C:  MOVWF  x0A
0725E:  MOVWF  x0B
07260:  MOVLB  0
07262:  CALL   4D2E
....................             glcd_rect(15, 26, 28, 39, YES, ON); 
07266:  MOVLW  0F
07268:  MOVLB  6
0726A:  MOVWF  x06
0726C:  MOVLW  1A
0726E:  MOVWF  x07
07270:  MOVLW  1C
07272:  MOVWF  x08
07274:  MOVLW  27
07276:  MOVWF  x09
07278:  MOVLW  01
0727A:  MOVWF  x0A
0727C:  MOVWF  x0B
0727E:  MOVLB  0
07280:  CALL   4D2E
....................             glcd_rect(30, 23, 43, 39, YES, ON); 
07284:  MOVLW  1E
07286:  MOVLB  6
07288:  MOVWF  x06
0728A:  MOVLW  17
0728C:  MOVWF  x07
0728E:  MOVLW  2B
07290:  MOVWF  x08
07292:  MOVLW  27
07294:  MOVWF  x09
07296:  MOVLW  01
07298:  MOVWF  x0A
0729A:  MOVWF  x0B
0729C:  MOVLB  0
0729E:  CALL   4D2E
....................             glcd_rect(45, 20, 58, 39, YES, ON); 
072A2:  MOVLW  2D
072A4:  MOVLB  6
072A6:  MOVWF  x06
072A8:  MOVLW  14
072AA:  MOVWF  x07
072AC:  MOVLW  3A
072AE:  MOVWF  x08
072B0:  MOVLW  27
072B2:  MOVWF  x09
072B4:  MOVLW  01
072B6:  MOVWF  x0A
072B8:  MOVWF  x0B
072BA:  MOVLB  0
072BC:  CALL   4D2E
....................             glcd_rect(60, 17, 73, 39, YES, ON); 
072C0:  MOVLW  3C
072C2:  MOVLB  6
072C4:  MOVWF  x06
072C6:  MOVLW  11
072C8:  MOVWF  x07
072CA:  MOVLW  49
072CC:  MOVWF  x08
072CE:  MOVLW  27
072D0:  MOVWF  x09
072D2:  MOVLW  01
072D4:  MOVWF  x0A
072D6:  MOVWF  x0B
072D8:  MOVLB  0
072DA:  CALL   4D2E
....................             glcd_rect(75, 14, 88, 39, YES, ON); 
072DE:  MOVLW  4B
072E0:  MOVLB  6
072E2:  MOVWF  x06
072E4:  MOVLW  0E
072E6:  MOVWF  x07
072E8:  MOVLW  58
072EA:  MOVWF  x08
072EC:  MOVLW  27
072EE:  MOVWF  x09
072F0:  MOVLW  01
072F2:  MOVWF  x0A
072F4:  MOVWF  x0B
072F6:  MOVLB  0
072F8:  CALL   4D2E
....................          } 
....................           
....................          if(imprimir==1){ 
072FC:  MOVLB  4
072FE:  BTFSS  x2D.6
07300:  BRA    7544
....................             glcd_text57(2, 12, Inflowt, 1, ON); 
07302:  MOVLW  02
07304:  MOVLB  6
07306:  MOVWF  x06
07308:  MOVLW  0C
0730A:  MOVWF  x07
0730C:  MOVLW  04
0730E:  MOVWF  x09
07310:  MOVLW  6D
07312:  MOVWF  x08
07314:  MOVLW  01
07316:  MOVWF  x0A
07318:  MOVWF  x0B
0731A:  MOVLB  0
0731C:  CALL   18BE
....................             displayTiempo(VelMotor,23,11,0,1);   
07320:  MOVFF  5E4,5ED
07324:  MOVLW  17
07326:  MOVLB  5
07328:  MOVWF  xEE
0732A:  MOVLW  0B
0732C:  MOVWF  xEF
0732E:  CLRF   xF0
07330:  MOVLW  01
07332:  MOVWF  xF1
07334:  MOVLB  0
07336:  CALL   568A
....................             glcd_rect(0, 10, 95, 63, NO, ON); 
0733A:  MOVLB  6
0733C:  CLRF   x06
0733E:  MOVLW  0A
07340:  MOVWF  x07
07342:  MOVLW  5F
07344:  MOVWF  x08
07346:  MOVLW  3F
07348:  MOVWF  x09
0734A:  CLRF   x0A
0734C:  MOVLW  01
0734E:  MOVWF  x0B
07350:  MOVLB  0
07352:  CALL   4D2E
....................             glcd_rect(100, 10, 127, 63, NO, ON); 
07356:  MOVLW  64
07358:  MOVLB  6
0735A:  MOVWF  x06
0735C:  MOVLW  0A
0735E:  MOVWF  x07
07360:  MOVLW  7F
07362:  MOVWF  x08
07364:  MOVLW  3F
07366:  MOVWF  x09
07368:  CLRF   x0A
0736A:  MOVLW  01
0736C:  MOVWF  x0B
0736E:  MOVLB  0
07370:  CALL   4D2E
....................             //glcd_text57(35, 12, Downflowt, 1, ON); 
....................             glcd_text57(2, 41, Vida_Filtro, 1, ON); 
07374:  MOVLW  02
07376:  MOVLB  6
07378:  MOVWF  x06
0737A:  MOVLW  29
0737C:  MOVWF  x07
0737E:  MOVLW  04
07380:  MOVWF  x09
07382:  MOVLW  93
07384:  MOVWF  x08
07386:  MOVLW  01
07388:  MOVWF  x0A
0738A:  MOVWF  x0B
0738C:  MOVLB  0
0738E:  CALL   18BE
....................             //displayTiempo(Ttrabajo[3],60,41,0,1);displayTiempo(Ttrabajo[2],67,41,0,1);displayTiempo(Ttrabajo[1],74,41,0,1);displayTiempo(Ttrabajo[0],82,41,0,1); 
....................             if(Filtro_Downflow>=0.9){ 
07392:  MOVLW  66
07394:  MOVLB  6
07396:  MOVWF  x21
07398:  MOVWF  x20
0739A:  MOVWF  x1F
0739C:  MOVLW  7E
0739E:  MOVWF  x1E
073A0:  MOVFF  524,625
073A4:  MOVFF  523,624
073A8:  MOVFF  522,623
073AC:  MOVFF  521,622
073B0:  MOVLB  0
073B2:  CALL   2610
073B6:  BC    73BA
073B8:  BNZ   741A
....................                strcpy(Menus.Letra,"Filtro Saturado"); 
073BA:  MOVLW  04
073BC:  MOVWF  FEA
073BE:  MOVLW  17
073C0:  MOVWF  FE9
073C2:  MOVFF  FF2,5ED
073C6:  BCF    FF2.7
073C8:  MOVLW  00
073CA:  CALL   1016
073CE:  TBLRD*-
073D0:  TBLRD*+
073D2:  MOVF   FF5,W
073D4:  MOVWF  FEE
073D6:  IORLW  00
073D8:  BNZ   73D0
073DA:  MOVLB  5
073DC:  BTFSC  xED.7
073DE:  BSF    FF2.7
....................                displayMenu(Menus.Letra,0,0,1,1); 
073E0:  MOVLW  04
073E2:  MOVWF  xF6
073E4:  MOVLW  17
073E6:  MOVWF  xF5
073E8:  CLRF   xF7
073EA:  CLRF   xF8
073EC:  MOVLW  01
073EE:  MOVWF  xF9
073F0:  MOVWF  xFA
073F2:  MOVLB  0
073F4:  CALL   4EC6
....................                Alarma_on; 
073F8:  BSF    F8B.7
073FA:  BCF    F94.7
....................                delay_ms(50); 
073FC:  MOVLW  32
073FE:  MOVLB  6
07400:  MOVWF  x01
07402:  MOVLB  0
07404:  CALL   1568
....................                Alarma_off; 
07408:  BCF    F8B.7
0740A:  BCF    F94.7
....................                delay_ms(50); 
0740C:  MOVLW  32
0740E:  MOVLB  6
07410:  MOVWF  x01
07412:  MOVLB  0
07414:  CALL   1568
....................             }else{ 
07418:  BRA    745A
....................                strcpy(Menus.Letra,"JPCV36-PCR-EC"); 
0741A:  MOVLW  04
0741C:  MOVWF  FEA
0741E:  MOVLW  17
07420:  MOVWF  FE9
07422:  MOVFF  FF2,5ED
07426:  BCF    FF2.7
07428:  MOVLW  00
0742A:  CALL   1044
0742E:  TBLRD*-
07430:  TBLRD*+
07432:  MOVF   FF5,W
07434:  MOVWF  FEE
07436:  IORLW  00
07438:  BNZ   7430
0743A:  MOVLB  5
0743C:  BTFSC  xED.7
0743E:  BSF    FF2.7
....................                displayMenu(Menus.Letra,2,0,1,1); 
07440:  MOVLW  04
07442:  MOVWF  xF6
07444:  MOVLW  17
07446:  MOVWF  xF5
07448:  MOVLW  02
0744A:  MOVWF  xF7
0744C:  CLRF   xF8
0744E:  MOVLW  01
07450:  MOVWF  xF9
07452:  MOVWF  xFA
07454:  MOVLB  0
07456:  CALL   4EC6
....................             } 
....................             displayfloat2(Temperatura,90,0,1,1); 
0745A:  MOVLB  6
0745C:  CLRF   x23
0745E:  MOVFF  5E0,622
07462:  MOVLB  0
07464:  CALL   1A76
07468:  MOVFF  00,5ED
0746C:  MOVFF  01,5EE
07470:  MOVFF  02,5EF
07474:  MOVFF  03,5F0
07478:  MOVFF  03,5F4
0747C:  MOVFF  02,5F3
07480:  MOVFF  01,5F2
07484:  MOVFF  00,5F1
07488:  MOVLW  5A
0748A:  MOVLB  5
0748C:  MOVWF  xF5
0748E:  CLRF   xF6
07490:  MOVLW  01
07492:  MOVWF  xF7
07494:  MOVWF  xF8
07496:  MOVLB  0
07498:  GOTO   5C64
....................              
....................             glcd_text57(2, 52, Tempo, 1, ON); 
0749C:  MOVLW  02
0749E:  MOVLB  6
074A0:  MOVWF  x06
074A2:  MOVLW  34
074A4:  MOVWF  x07
074A6:  MOVLW  04
074A8:  MOVWF  x09
074AA:  MOVLW  BB
074AC:  MOVWF  x08
074AE:  MOVLW  01
074B0:  MOVWF  x0A
074B2:  MOVWF  x0B
074B4:  MOVLB  0
074B6:  CALL   18BE
....................             displayTiempo(Tempouv[3],59,51,0,1); 
074BA:  MOVFF  50C,5ED
074BE:  MOVLW  3B
074C0:  MOVLB  5
074C2:  MOVWF  xEE
074C4:  MOVLW  33
074C6:  MOVWF  xEF
074C8:  CLRF   xF0
074CA:  MOVLW  01
074CC:  MOVWF  xF1
074CE:  MOVLB  0
074D0:  CALL   568A
....................             displayTiempo(Tempouv[2],67,51,0,1); 
074D4:  MOVFF  50B,5ED
074D8:  MOVLW  43
074DA:  MOVLB  5
074DC:  MOVWF  xEE
074DE:  MOVLW  33
074E0:  MOVWF  xEF
074E2:  CLRF   xF0
074E4:  MOVLW  01
074E6:  MOVWF  xF1
074E8:  MOVLB  0
074EA:  CALL   568A
....................             glcd_text57(75, 52, Dos_puntos, 1, ON); 
074EE:  MOVLW  4B
074F0:  MOVLB  6
074F2:  MOVWF  x06
074F4:  MOVLW  34
074F6:  MOVWF  x07
074F8:  MOVLW  04
074FA:  MOVWF  x09
074FC:  MOVLW  51
074FE:  MOVWF  x08
07500:  MOVLW  01
07502:  MOVWF  x0A
07504:  MOVWF  x0B
07506:  MOVLB  0
07508:  CALL   18BE
....................             displayTiempo(Tempouv[1],79,51,0,1); 
0750C:  MOVFF  50A,5ED
07510:  MOVLW  4F
07512:  MOVLB  5
07514:  MOVWF  xEE
07516:  MOVLW  33
07518:  MOVWF  xEF
0751A:  CLRF   xF0
0751C:  MOVLW  01
0751E:  MOVWF  xF1
07520:  MOVLB  0
07522:  CALL   568A
....................             displayTiempo(Tempouv[0],87,51,0,1); 
07526:  MOVFF  509,5ED
0752A:  MOVLW  57
0752C:  MOVLB  5
0752E:  MOVWF  xEE
07530:  MOVLW  33
07532:  MOVWF  xEF
07534:  CLRF   xF0
07536:  MOVLW  01
07538:  MOVWF  xF1
0753A:  MOVLB  0
0753C:  CALL   568A
....................             imprimir=0; 
07540:  MOVLB  4
07542:  BCF    x2D.6
....................          } 
....................           
....................          // Dibujo de barra de estado de filtro                   
....................          barra=100.0*(Filtro_Downflow/1); 
07544:  MOVFF  524,621
07548:  MOVFF  523,620
0754C:  MOVFF  522,61F
07550:  MOVFF  521,61E
07554:  MOVLB  6
07556:  CLRF   x25
07558:  CLRF   x24
0755A:  CLRF   x23
0755C:  MOVLW  7F
0755E:  MOVWF  x22
07560:  MOVLB  0
07562:  CALL   1AAC
07566:  MOVLB  6
07568:  CLRF   x21
0756A:  CLRF   x20
0756C:  MOVLW  48
0756E:  MOVWF  x1F
07570:  MOVLW  85
07572:  MOVWF  x1E
07574:  MOVFF  03,625
07578:  MOVFF  02,624
0757C:  MOVFF  01,623
07580:  MOVFF  00,622
07584:  MOVLB  0
07586:  CALL   30B8
0758A:  MOVFF  03,52C
0758E:  MOVFF  02,52B
07592:  MOVFF  01,52A
07596:  MOVFF  00,529
....................          if(barra>100.0) 
0759A:  MOVLB  6
0759C:  CLRF   x21
0759E:  CLRF   x20
075A0:  MOVLW  48
075A2:  MOVWF  x1F
075A4:  MOVLW  85
075A6:  MOVWF  x1E
075A8:  MOVFF  52C,625
075AC:  MOVFF  52B,624
075B0:  MOVFF  52A,623
075B4:  MOVFF  529,622
075B8:  MOVLB  0
075BA:  CALL   2610
075BE:  BNC   75CE
....................             barra=100.0; 
075C0:  MOVLB  5
075C2:  CLRF   x2C
075C4:  CLRF   x2B
075C6:  MOVLW  48
075C8:  MOVWF  x2A
075CA:  MOVLW  85
075CC:  MOVWF  x29
....................          barra=barra/2; 
075CE:  MOVFF  52C,621
075D2:  MOVFF  52B,620
075D6:  MOVFF  52A,61F
075DA:  MOVFF  529,61E
075DE:  MOVLB  6
075E0:  CLRF   x25
075E2:  CLRF   x24
075E4:  CLRF   x23
075E6:  MOVLW  80
075E8:  MOVWF  x22
075EA:  MOVLB  0
075EC:  CALL   1AAC
075F0:  MOVFF  03,52C
075F4:  MOVFF  02,52B
075F8:  MOVFF  01,52A
075FC:  MOVFF  00,529
....................          glcd_rect(42, 41, (int8)(barra_old)+42, 48, YES, OFF);  // Clears the old bar 
07600:  MOVFF  530,621
07604:  MOVFF  52F,620
07608:  MOVFF  52E,61F
0760C:  MOVFF  52D,61E
07610:  CALL   307C
07614:  MOVLW  2A
07616:  ADDWF  01,W
07618:  MOVLB  5
0761A:  MOVWF  xED
0761C:  MOVLW  2A
0761E:  MOVLB  6
07620:  MOVWF  x06
07622:  MOVLW  29
07624:  MOVWF  x07
07626:  MOVFF  5ED,608
0762A:  MOVLW  30
0762C:  MOVWF  x09
0762E:  MOVLW  01
07630:  MOVWF  x0A
07632:  CLRF   x0B
07634:  MOVLB  0
07636:  CALL   4D2E
....................          glcd_rect(42, 41, (int8)(barra)+42, 48, YES, ON);             // Draws a new bar 
0763A:  MOVFF  52C,621
0763E:  MOVFF  52B,620
07642:  MOVFF  52A,61F
07646:  MOVFF  529,61E
0764A:  CALL   307C
0764E:  MOVLW  2A
07650:  ADDWF  01,W
07652:  MOVLB  5
07654:  MOVWF  xED
07656:  MOVLW  2A
07658:  MOVLB  6
0765A:  MOVWF  x06
0765C:  MOVLW  29
0765E:  MOVWF  x07
07660:  MOVFF  5ED,608
07664:  MOVLW  30
07666:  MOVWF  x09
07668:  MOVLW  01
0766A:  MOVWF  x0A
0766C:  MOVWF  x0B
0766E:  MOVLB  0
07670:  CALL   4D2E
....................          glcd_rect(42, 41, 94, 48, NO, ON);             // Draws a new bar 
07674:  MOVLW  2A
07676:  MOVLB  6
07678:  MOVWF  x06
0767A:  MOVLW  29
0767C:  MOVWF  x07
0767E:  MOVLW  5E
07680:  MOVWF  x08
07682:  MOVLW  30
07684:  MOVWF  x09
07686:  CLRF   x0A
07688:  MOVLW  01
0768A:  MOVWF  x0B
0768C:  MOVLB  0
0768E:  CALL   4D2E
....................          barra_old=barra; 
07692:  MOVFF  52C,530
07696:  MOVFF  52B,52F
0769A:  MOVFF  52A,52E
0769E:  MOVFF  529,52D
.................... // Fin de Dibujo de barra de estado de Filtro 
....................           
....................          if(tvidrio>=30){//Si se activa switch magnetico de vidrio 
076A2:  MOVLB  4
076A4:  MOVF   xF4,F
076A6:  BNZ   76AE
076A8:  MOVF   xF3,W
076AA:  SUBLW  1D
076AC:  BC    76B4
....................            flag_blower=0; 
076AE:  BCF    x2D.7
....................            flag_luz=0; 
076B0:  BCF    x2E.1
....................          }else{ 
076B2:  BRA    76B6
....................            flag_uv=0;  
076B4:  BCF    x2E.7
....................          } 
....................           
....................          if(flag_blower==1 && flag_uv==0){ 
076B6:  BTFSS  x2D.7
076B8:  BRA    7862
076BA:  BTFSC  x2E.7
076BC:  BRA    7862
....................             glcd_imagen(5);tiempo_trabajo=1; 
076BE:  MOVLW  05
076C0:  MOVLB  5
076C2:  MOVWF  xED
076C4:  MOVLB  0
076C6:  CALL   5DEA
076CA:  MOVLB  4
076CC:  BSF    x2E.5
....................             if(guardatrabajo==1){ 
076CE:  BTFSS  x2F.3
076D0:  BRA    7854
....................                VelocidadMotor(6); 
076D2:  MOVLW  06
076D4:  MOVLB  5
076D6:  MOVWF  xED
076D8:  MOVLB  0
076DA:  CALL   1590
....................                guardatrabajo=0; 
076DE:  MOVLB  4
076E0:  BCF    x2F.3
....................                write_eeprom(33,make8(minutos_trabajo,0)); 
076E2:  MOVFF  4E7,5ED
076E6:  CLRF   FAA
076E8:  MOVLW  21
076EA:  MOVWF  FA9
076EC:  MOVFF  5ED,FA8
076F0:  BCF    FA6.6
076F2:  BCF    FA6.7
076F4:  BSF    FA6.2
076F6:  MOVF   FF2,W
076F8:  MOVWF  00
076FA:  BCF    FF2.7
076FC:  MOVLB  F
076FE:  MOVLW  55
07700:  MOVWF  FA7
07702:  MOVLW  AA
07704:  MOVWF  FA7
07706:  BSF    FA6.1
07708:  BTFSC  FA6.1
0770A:  BRA    7708
0770C:  BCF    FA6.2
0770E:  MOVF   00,W
07710:  IORWF  FF2,F
....................                delay_ms(10); 
07712:  MOVLW  0A
07714:  MOVLB  6
07716:  MOVWF  x01
07718:  MOVLB  0
0771A:  CALL   1568
....................                write_eeprom(34,make8(minutos_trabajo,1)); 
0771E:  MOVFF  4E8,5ED
07722:  CLRF   FAA
07724:  MOVLW  22
07726:  MOVWF  FA9
07728:  MOVFF  5ED,FA8
0772C:  BCF    FA6.6
0772E:  BCF    FA6.7
07730:  BSF    FA6.2
07732:  MOVF   FF2,W
07734:  MOVWF  00
07736:  BCF    FF2.7
07738:  MOVLB  F
0773A:  MOVLW  55
0773C:  MOVWF  FA7
0773E:  MOVLW  AA
07740:  MOVWF  FA7
07742:  BSF    FA6.1
07744:  BTFSC  FA6.1
07746:  BRA    7744
07748:  BCF    FA6.2
0774A:  MOVF   00,W
0774C:  IORWF  FF2,F
....................                delay_ms(10); 
0774E:  MOVLW  0A
07750:  MOVLB  6
07752:  MOVWF  x01
07754:  MOVLB  0
07756:  CALL   1568
....................                write_eeprom(16,Ttrabajo[0]); 
0775A:  CLRF   FAA
0775C:  MOVLW  10
0775E:  MOVWF  FA9
07760:  MOVFF  50D,FA8
07764:  BCF    FA6.6
07766:  BCF    FA6.7
07768:  BSF    FA6.2
0776A:  MOVF   FF2,W
0776C:  MOVWF  00
0776E:  BCF    FF2.7
07770:  MOVLB  F
07772:  MOVLW  55
07774:  MOVWF  FA7
07776:  MOVLW  AA
07778:  MOVWF  FA7
0777A:  BSF    FA6.1
0777C:  BTFSC  FA6.1
0777E:  BRA    777C
07780:  BCF    FA6.2
07782:  MOVF   00,W
07784:  IORWF  FF2,F
....................                delay_ms(10); 
07786:  MOVLW  0A
07788:  MOVLB  6
0778A:  MOVWF  x01
0778C:  MOVLB  0
0778E:  CALL   1568
....................                write_eeprom(17,Ttrabajo[1]); 
07792:  CLRF   FAA
07794:  MOVLW  11
07796:  MOVWF  FA9
07798:  MOVFF  50E,FA8
0779C:  BCF    FA6.6
0779E:  BCF    FA6.7
077A0:  BSF    FA6.2
077A2:  MOVF   FF2,W
077A4:  MOVWF  00
077A6:  BCF    FF2.7
077A8:  MOVLB  F
077AA:  MOVLW  55
077AC:  MOVWF  FA7
077AE:  MOVLW  AA
077B0:  MOVWF  FA7
077B2:  BSF    FA6.1
077B4:  BTFSC  FA6.1
077B6:  BRA    77B4
077B8:  BCF    FA6.2
077BA:  MOVF   00,W
077BC:  IORWF  FF2,F
....................                delay_ms(10); 
077BE:  MOVLW  0A
077C0:  MOVLB  6
077C2:  MOVWF  x01
077C4:  MOVLB  0
077C6:  CALL   1568
....................                write_eeprom(18,Ttrabajo[2]); 
077CA:  CLRF   FAA
077CC:  MOVLW  12
077CE:  MOVWF  FA9
077D0:  MOVFF  50F,FA8
077D4:  BCF    FA6.6
077D6:  BCF    FA6.7
077D8:  BSF    FA6.2
077DA:  MOVF   FF2,W
077DC:  MOVWF  00
077DE:  BCF    FF2.7
077E0:  MOVLB  F
077E2:  MOVLW  55
077E4:  MOVWF  FA7
077E6:  MOVLW  AA
077E8:  MOVWF  FA7
077EA:  BSF    FA6.1
077EC:  BTFSC  FA6.1
077EE:  BRA    77EC
077F0:  BCF    FA6.2
077F2:  MOVF   00,W
077F4:  IORWF  FF2,F
....................                delay_ms(10); 
077F6:  MOVLW  0A
077F8:  MOVLB  6
077FA:  MOVWF  x01
077FC:  MOVLB  0
077FE:  CALL   1568
....................                write_eeprom(19,Ttrabajo[3]); 
07802:  CLRF   FAA
07804:  MOVLW  13
07806:  MOVWF  FA9
07808:  MOVFF  510,FA8
0780C:  BCF    FA6.6
0780E:  BCF    FA6.7
07810:  BSF    FA6.2
07812:  MOVF   FF2,W
07814:  MOVWF  00
07816:  BCF    FF2.7
07818:  MOVLB  F
0781A:  MOVLW  55
0781C:  MOVWF  FA7
0781E:  MOVLW  AA
07820:  MOVWF  FA7
07822:  BSF    FA6.1
07824:  BTFSC  FA6.1
07826:  BRA    7824
07828:  BCF    FA6.2
0782A:  MOVF   00,W
0782C:  IORWF  FF2,F
....................                delay_ms(10); 
0782E:  MOVLW  0A
07830:  MOVLB  6
07832:  MOVWF  x01
07834:  MOVLB  0
07836:  CALL   1568
....................                glcd_init(ON);             //Inicializa la glcd 
0783A:  MOVLW  01
0783C:  MOVLB  5
0783E:  MOVWF  xED
07840:  MOVLB  0
07842:  CALL   175A
....................                glcd_fillScreen(OFF);      //Limpia la pantalla 
07846:  MOVLB  5
07848:  CLRF   xF5
0784A:  MOVLB  0
0784C:  CALL   1648
....................                glcd_update();   
07850:  CALL   16A2
....................             } 
....................             VelocidadMotor(VelMotor); 
07854:  MOVFF  5E4,5ED
07858:  MOVLB  0
0785A:  CALL   1590
....................          }else{ 
0785E:  BRA    79FC
07860:  MOVLB  4
....................             Filtro_Downflow=0; 
07862:  MOVLB  5
07864:  CLRF   x24
07866:  CLRF   x23
07868:  CLRF   x22
0786A:  CLRF   x21
....................             glcd_rect(102, 45, 126, 62, YES, OFF);tiempo_trabajo=0;VelocidadMotor(0); 
0786C:  MOVLW  66
0786E:  MOVLB  6
07870:  MOVWF  x06
07872:  MOVLW  2D
07874:  MOVWF  x07
07876:  MOVLW  7E
07878:  MOVWF  x08
0787A:  MOVLW  3E
0787C:  MOVWF  x09
0787E:  MOVLW  01
07880:  MOVWF  x0A
07882:  CLRF   x0B
07884:  MOVLB  0
07886:  CALL   4D2E
0788A:  MOVLB  4
0788C:  BCF    x2E.5
0788E:  MOVLB  5
07890:  CLRF   xED
07892:  MOVLB  0
07894:  CALL   1590
....................             if(guardatrabajo==0){ 
07898:  MOVLB  4
0789A:  BTFSC  x2F.3
0789C:  BRA    79FE
....................                guardatrabajo=1; 
0789E:  BSF    x2F.3
....................                write_eeprom(33,make8(minutos_trabajo,0)); 
078A0:  MOVFF  4E7,5ED
078A4:  CLRF   FAA
078A6:  MOVLW  21
078A8:  MOVWF  FA9
078AA:  MOVFF  5ED,FA8
078AE:  BCF    FA6.6
078B0:  BCF    FA6.7
078B2:  BSF    FA6.2
078B4:  MOVF   FF2,W
078B6:  MOVWF  00
078B8:  BCF    FF2.7
078BA:  MOVLB  F
078BC:  MOVLW  55
078BE:  MOVWF  FA7
078C0:  MOVLW  AA
078C2:  MOVWF  FA7
078C4:  BSF    FA6.1
078C6:  BTFSC  FA6.1
078C8:  BRA    78C6
078CA:  BCF    FA6.2
078CC:  MOVF   00,W
078CE:  IORWF  FF2,F
....................                delay_ms(10); 
078D0:  MOVLW  0A
078D2:  MOVLB  6
078D4:  MOVWF  x01
078D6:  MOVLB  0
078D8:  CALL   1568
....................                write_eeprom(34,make8(minutos_trabajo,1)); 
078DC:  MOVFF  4E8,5ED
078E0:  CLRF   FAA
078E2:  MOVLW  22
078E4:  MOVWF  FA9
078E6:  MOVFF  5ED,FA8
078EA:  BCF    FA6.6
078EC:  BCF    FA6.7
078EE:  BSF    FA6.2
078F0:  MOVF   FF2,W
078F2:  MOVWF  00
078F4:  BCF    FF2.7
078F6:  MOVLB  F
078F8:  MOVLW  55
078FA:  MOVWF  FA7
078FC:  MOVLW  AA
078FE:  MOVWF  FA7
07900:  BSF    FA6.1
07902:  BTFSC  FA6.1
07904:  BRA    7902
07906:  BCF    FA6.2
07908:  MOVF   00,W
0790A:  IORWF  FF2,F
....................                delay_ms(10); 
0790C:  MOVLW  0A
0790E:  MOVLB  6
07910:  MOVWF  x01
07912:  MOVLB  0
07914:  CALL   1568
....................                write_eeprom(16,Ttrabajo[0]); 
07918:  CLRF   FAA
0791A:  MOVLW  10
0791C:  MOVWF  FA9
0791E:  MOVFF  50D,FA8
07922:  BCF    FA6.6
07924:  BCF    FA6.7
07926:  BSF    FA6.2
07928:  MOVF   FF2,W
0792A:  MOVWF  00
0792C:  BCF    FF2.7
0792E:  MOVLB  F
07930:  MOVLW  55
07932:  MOVWF  FA7
07934:  MOVLW  AA
07936:  MOVWF  FA7
07938:  BSF    FA6.1
0793A:  BTFSC  FA6.1
0793C:  BRA    793A
0793E:  BCF    FA6.2
07940:  MOVF   00,W
07942:  IORWF  FF2,F
....................                delay_ms(10); 
07944:  MOVLW  0A
07946:  MOVLB  6
07948:  MOVWF  x01
0794A:  MOVLB  0
0794C:  CALL   1568
....................                write_eeprom(17,Ttrabajo[1]); 
07950:  CLRF   FAA
07952:  MOVLW  11
07954:  MOVWF  FA9
07956:  MOVFF  50E,FA8
0795A:  BCF    FA6.6
0795C:  BCF    FA6.7
0795E:  BSF    FA6.2
07960:  MOVF   FF2,W
07962:  MOVWF  00
07964:  BCF    FF2.7
07966:  MOVLB  F
07968:  MOVLW  55
0796A:  MOVWF  FA7
0796C:  MOVLW  AA
0796E:  MOVWF  FA7
07970:  BSF    FA6.1
07972:  BTFSC  FA6.1
07974:  BRA    7972
07976:  BCF    FA6.2
07978:  MOVF   00,W
0797A:  IORWF  FF2,F
....................                delay_ms(10); 
0797C:  MOVLW  0A
0797E:  MOVLB  6
07980:  MOVWF  x01
07982:  MOVLB  0
07984:  CALL   1568
....................                write_eeprom(18,Ttrabajo[2]); 
07988:  CLRF   FAA
0798A:  MOVLW  12
0798C:  MOVWF  FA9
0798E:  MOVFF  50F,FA8
07992:  BCF    FA6.6
07994:  BCF    FA6.7
07996:  BSF    FA6.2
07998:  MOVF   FF2,W
0799A:  MOVWF  00
0799C:  BCF    FF2.7
0799E:  MOVLB  F
079A0:  MOVLW  55
079A2:  MOVWF  FA7
079A4:  MOVLW  AA
079A6:  MOVWF  FA7
079A8:  BSF    FA6.1
079AA:  BTFSC  FA6.1
079AC:  BRA    79AA
079AE:  BCF    FA6.2
079B0:  MOVF   00,W
079B2:  IORWF  FF2,F
....................                delay_ms(10); 
079B4:  MOVLW  0A
079B6:  MOVLB  6
079B8:  MOVWF  x01
079BA:  MOVLB  0
079BC:  CALL   1568
....................                write_eeprom(19,Ttrabajo[3]); 
079C0:  CLRF   FAA
079C2:  MOVLW  13
079C4:  MOVWF  FA9
079C6:  MOVFF  510,FA8
079CA:  BCF    FA6.6
079CC:  BCF    FA6.7
079CE:  BSF    FA6.2
079D0:  MOVF   FF2,W
079D2:  MOVWF  00
079D4:  BCF    FF2.7
079D6:  MOVLB  F
079D8:  MOVLW  55
079DA:  MOVWF  FA7
079DC:  MOVLW  AA
079DE:  MOVWF  FA7
079E0:  BSF    FA6.1
079E2:  BTFSC  FA6.1
079E4:  BRA    79E2
079E6:  BCF    FA6.2
079E8:  MOVF   00,W
079EA:  IORWF  FF2,F
....................                delay_ms(10); 
079EC:  MOVLW  0A
079EE:  MOVLB  6
079F0:  MOVWF  x01
079F2:  MOVLB  0
079F4:  CALL   1568
....................                //glcd_init(ON);             //Inicializa la glcd 
....................                //glcd_fillScreen(OFF);      //Limpia la pantalla 
....................                glcd_update();   
079F8:  CALL   16A2
079FC:  MOVLB  4
....................             } 
....................          } 
....................           
....................       if(flag_luz==1 && flag_uv==0){ 
079FE:  BTFSS  x2E.1
07A00:  BRA    7A1A
07A02:  BTFSC  x2E.7
07A04:  BRA    7A1A
....................          glcd_imagen(3);LuzBlanca_on; 
07A06:  MOVLW  03
07A08:  MOVLB  5
07A0A:  MOVWF  xED
07A0C:  MOVLB  0
07A0E:  CALL   5DEA
07A12:  BSF    F8B.0
07A14:  BCF    F94.0
....................       }else{ 
07A16:  BRA    7A3C
07A18:  MOVLB  4
....................          glcd_rect(102, 14, 126, 28, YES, OFF);LuzBlanca_off; 
07A1A:  MOVLW  66
07A1C:  MOVLB  6
07A1E:  MOVWF  x06
07A20:  MOVLW  0E
07A22:  MOVWF  x07
07A24:  MOVLW  7E
07A26:  MOVWF  x08
07A28:  MOVLW  1C
07A2A:  MOVWF  x09
07A2C:  MOVLW  01
07A2E:  MOVWF  x0A
07A30:  CLRF   x0B
07A32:  MOVLB  0
07A34:  CALL   4D2E
07A38:  BCF    F8B.0
07A3A:  BCF    F94.0
....................       } 
....................           
....................       if(flag_uv){ 
07A3C:  MOVLB  4
07A3E:  BTFSS  x2E.7
07A40:  BRA    7B90
....................          tiempo_uv=1; 
07A42:  BSF    x2F.0
....................          LuzUV_on;flag_luz=0;flag_blower=0; 
07A44:  BSF    F8B.1
07A46:  BCF    F94.1
07A48:  BCF    x2E.1
07A4A:  BCF    x2D.7
....................          glcd_text57(105, 30, UV, 2, ON); 
07A4C:  MOVLW  69
07A4E:  MOVLB  6
07A50:  MOVWF  x06
07A52:  MOVLW  1E
07A54:  MOVWF  x07
07A56:  MOVLW  04
07A58:  MOVWF  x09
07A5A:  MOVLW  6A
07A5C:  MOVWF  x08
07A5E:  MOVLW  02
07A60:  MOVWF  x0A
07A62:  MOVLW  01
07A64:  MOVWF  x0B
07A66:  MOVLB  0
07A68:  CALL   18BE
....................          if(guardauv==1){ 
07A6C:  MOVLB  4
07A6E:  BTFSS  x2F.1
07A70:  BRA    7B8E
....................             guardauv=0; 
07A72:  BCF    x2F.1
....................             write_eeprom(31,minutos_uv); 
07A74:  CLRF   FAA
07A76:  MOVLW  1F
07A78:  MOVWF  FA9
07A7A:  MOVFF  4E5,FA8
07A7E:  BCF    FA6.6
07A80:  BCF    FA6.7
07A82:  BSF    FA6.2
07A84:  MOVF   FF2,W
07A86:  MOVWF  00
07A88:  BCF    FF2.7
07A8A:  MOVLB  F
07A8C:  MOVLW  55
07A8E:  MOVWF  FA7
07A90:  MOVLW  AA
07A92:  MOVWF  FA7
07A94:  BSF    FA6.1
07A96:  BTFSC  FA6.1
07A98:  BRA    7A96
07A9A:  BCF    FA6.2
07A9C:  MOVF   00,W
07A9E:  IORWF  FF2,F
....................             delay_ms(20); 
07AA0:  MOVLW  14
07AA2:  MOVLB  6
07AA4:  MOVWF  x01
07AA6:  MOVLB  0
07AA8:  CALL   1568
....................             write_eeprom(12,Tuv[0]); 
07AAC:  CLRF   FAA
07AAE:  MOVLW  0C
07AB0:  MOVWF  FA9
07AB2:  MOVFF  501,FA8
07AB6:  BCF    FA6.6
07AB8:  BCF    FA6.7
07ABA:  BSF    FA6.2
07ABC:  MOVF   FF2,W
07ABE:  MOVWF  00
07AC0:  BCF    FF2.7
07AC2:  MOVLB  F
07AC4:  MOVLW  55
07AC6:  MOVWF  FA7
07AC8:  MOVLW  AA
07ACA:  MOVWF  FA7
07ACC:  BSF    FA6.1
07ACE:  BTFSC  FA6.1
07AD0:  BRA    7ACE
07AD2:  BCF    FA6.2
07AD4:  MOVF   00,W
07AD6:  IORWF  FF2,F
....................             delay_ms(20); 
07AD8:  MOVLW  14
07ADA:  MOVLB  6
07ADC:  MOVWF  x01
07ADE:  MOVLB  0
07AE0:  CALL   1568
....................             write_eeprom(13,Tuv[1]); 
07AE4:  CLRF   FAA
07AE6:  MOVLW  0D
07AE8:  MOVWF  FA9
07AEA:  MOVFF  502,FA8
07AEE:  BCF    FA6.6
07AF0:  BCF    FA6.7
07AF2:  BSF    FA6.2
07AF4:  MOVF   FF2,W
07AF6:  MOVWF  00
07AF8:  BCF    FF2.7
07AFA:  MOVLB  F
07AFC:  MOVLW  55
07AFE:  MOVWF  FA7
07B00:  MOVLW  AA
07B02:  MOVWF  FA7
07B04:  BSF    FA6.1
07B06:  BTFSC  FA6.1
07B08:  BRA    7B06
07B0A:  BCF    FA6.2
07B0C:  MOVF   00,W
07B0E:  IORWF  FF2,F
....................             delay_ms(20); 
07B10:  MOVLW  14
07B12:  MOVLB  6
07B14:  MOVWF  x01
07B16:  MOVLB  0
07B18:  CALL   1568
....................             write_eeprom(14,Tuv[2]); 
07B1C:  CLRF   FAA
07B1E:  MOVLW  0E
07B20:  MOVWF  FA9
07B22:  MOVFF  503,FA8
07B26:  BCF    FA6.6
07B28:  BCF    FA6.7
07B2A:  BSF    FA6.2
07B2C:  MOVF   FF2,W
07B2E:  MOVWF  00
07B30:  BCF    FF2.7
07B32:  MOVLB  F
07B34:  MOVLW  55
07B36:  MOVWF  FA7
07B38:  MOVLW  AA
07B3A:  MOVWF  FA7
07B3C:  BSF    FA6.1
07B3E:  BTFSC  FA6.1
07B40:  BRA    7B3E
07B42:  BCF    FA6.2
07B44:  MOVF   00,W
07B46:  IORWF  FF2,F
....................             delay_ms(20); 
07B48:  MOVLW  14
07B4A:  MOVLB  6
07B4C:  MOVWF  x01
07B4E:  MOVLB  0
07B50:  CALL   1568
....................             write_eeprom(15,Tuv[3]); 
07B54:  CLRF   FAA
07B56:  MOVLW  0F
07B58:  MOVWF  FA9
07B5A:  MOVFF  504,FA8
07B5E:  BCF    FA6.6
07B60:  BCF    FA6.7
07B62:  BSF    FA6.2
07B64:  MOVF   FF2,W
07B66:  MOVWF  00
07B68:  BCF    FF2.7
07B6A:  MOVLB  F
07B6C:  MOVLW  55
07B6E:  MOVWF  FA7
07B70:  MOVLW  AA
07B72:  MOVWF  FA7
07B74:  BSF    FA6.1
07B76:  BTFSC  FA6.1
07B78:  BRA    7B76
07B7A:  BCF    FA6.2
07B7C:  MOVF   00,W
07B7E:  IORWF  FF2,F
....................             delay_ms(20); 
07B80:  MOVLW  14
07B82:  MOVLB  6
07B84:  MOVWF  x01
07B86:  MOVLB  0
07B88:  CALL   1568
07B8C:  MOVLB  4
....................          }                
....................       }else{ 
07B8E:  BRA    7CD6
....................          LuzUV_off;tiempo_uv=0; 
07B90:  BCF    F8B.1
07B92:  BCF    F94.1
07B94:  BCF    x2F.0
....................          glcd_rect(102, 30, 126, 44, YES, OFF); 
07B96:  MOVLW  66
07B98:  MOVLB  6
07B9A:  MOVWF  x06
07B9C:  MOVLW  1E
07B9E:  MOVWF  x07
07BA0:  MOVLW  7E
07BA2:  MOVWF  x08
07BA4:  MOVLW  2C
07BA6:  MOVWF  x09
07BA8:  MOVLW  01
07BAA:  MOVWF  x0A
07BAC:  CLRF   x0B
07BAE:  MOVLB  0
07BB0:  CALL   4D2E
....................          if(guardauv==0){ 
07BB4:  MOVLB  4
07BB6:  BTFSC  x2F.1
07BB8:  BRA    7CD6
....................             guardauv=1; 
07BBA:  BSF    x2F.1
....................             write_eeprom(31,minutos_uv); 
07BBC:  CLRF   FAA
07BBE:  MOVLW  1F
07BC0:  MOVWF  FA9
07BC2:  MOVFF  4E5,FA8
07BC6:  BCF    FA6.6
07BC8:  BCF    FA6.7
07BCA:  BSF    FA6.2
07BCC:  MOVF   FF2,W
07BCE:  MOVWF  00
07BD0:  BCF    FF2.7
07BD2:  MOVLB  F
07BD4:  MOVLW  55
07BD6:  MOVWF  FA7
07BD8:  MOVLW  AA
07BDA:  MOVWF  FA7
07BDC:  BSF    FA6.1
07BDE:  BTFSC  FA6.1
07BE0:  BRA    7BDE
07BE2:  BCF    FA6.2
07BE4:  MOVF   00,W
07BE6:  IORWF  FF2,F
....................             delay_ms(20); 
07BE8:  MOVLW  14
07BEA:  MOVLB  6
07BEC:  MOVWF  x01
07BEE:  MOVLB  0
07BF0:  CALL   1568
....................             write_eeprom(12,Tuv[0]); 
07BF4:  CLRF   FAA
07BF6:  MOVLW  0C
07BF8:  MOVWF  FA9
07BFA:  MOVFF  501,FA8
07BFE:  BCF    FA6.6
07C00:  BCF    FA6.7
07C02:  BSF    FA6.2
07C04:  MOVF   FF2,W
07C06:  MOVWF  00
07C08:  BCF    FF2.7
07C0A:  MOVLB  F
07C0C:  MOVLW  55
07C0E:  MOVWF  FA7
07C10:  MOVLW  AA
07C12:  MOVWF  FA7
07C14:  BSF    FA6.1
07C16:  BTFSC  FA6.1
07C18:  BRA    7C16
07C1A:  BCF    FA6.2
07C1C:  MOVF   00,W
07C1E:  IORWF  FF2,F
....................             delay_ms(20); 
07C20:  MOVLW  14
07C22:  MOVLB  6
07C24:  MOVWF  x01
07C26:  MOVLB  0
07C28:  CALL   1568
....................             write_eeprom(13,Tuv[1]); 
07C2C:  CLRF   FAA
07C2E:  MOVLW  0D
07C30:  MOVWF  FA9
07C32:  MOVFF  502,FA8
07C36:  BCF    FA6.6
07C38:  BCF    FA6.7
07C3A:  BSF    FA6.2
07C3C:  MOVF   FF2,W
07C3E:  MOVWF  00
07C40:  BCF    FF2.7
07C42:  MOVLB  F
07C44:  MOVLW  55
07C46:  MOVWF  FA7
07C48:  MOVLW  AA
07C4A:  MOVWF  FA7
07C4C:  BSF    FA6.1
07C4E:  BTFSC  FA6.1
07C50:  BRA    7C4E
07C52:  BCF    FA6.2
07C54:  MOVF   00,W
07C56:  IORWF  FF2,F
....................             delay_ms(20); 
07C58:  MOVLW  14
07C5A:  MOVLB  6
07C5C:  MOVWF  x01
07C5E:  MOVLB  0
07C60:  CALL   1568
....................             write_eeprom(14,Tuv[2]); 
07C64:  CLRF   FAA
07C66:  MOVLW  0E
07C68:  MOVWF  FA9
07C6A:  MOVFF  503,FA8
07C6E:  BCF    FA6.6
07C70:  BCF    FA6.7
07C72:  BSF    FA6.2
07C74:  MOVF   FF2,W
07C76:  MOVWF  00
07C78:  BCF    FF2.7
07C7A:  MOVLB  F
07C7C:  MOVLW  55
07C7E:  MOVWF  FA7
07C80:  MOVLW  AA
07C82:  MOVWF  FA7
07C84:  BSF    FA6.1
07C86:  BTFSC  FA6.1
07C88:  BRA    7C86
07C8A:  BCF    FA6.2
07C8C:  MOVF   00,W
07C8E:  IORWF  FF2,F
....................             delay_ms(20); 
07C90:  MOVLW  14
07C92:  MOVLB  6
07C94:  MOVWF  x01
07C96:  MOVLB  0
07C98:  CALL   1568
....................             write_eeprom(15,Tuv[3]); 
07C9C:  CLRF   FAA
07C9E:  MOVLW  0F
07CA0:  MOVWF  FA9
07CA2:  MOVFF  504,FA8
07CA6:  BCF    FA6.6
07CA8:  BCF    FA6.7
07CAA:  BSF    FA6.2
07CAC:  MOVF   FF2,W
07CAE:  MOVWF  00
07CB0:  BCF    FF2.7
07CB2:  MOVLB  F
07CB4:  MOVLW  55
07CB6:  MOVWF  FA7
07CB8:  MOVLW  AA
07CBA:  MOVWF  FA7
07CBC:  BSF    FA6.1
07CBE:  BTFSC  FA6.1
07CC0:  BRA    7CBE
07CC2:  BCF    FA6.2
07CC4:  MOVF   00,W
07CC6:  IORWF  FF2,F
....................             delay_ms(20); 
07CC8:  MOVLW  14
07CCA:  MOVLB  6
07CCC:  MOVWF  x01
07CCE:  MOVLB  0
07CD0:  CALL   1568
07CD4:  MOVLB  4
....................          } 
....................       } 
....................        
....................       if(tiempocumplido){ 
07CD6:  BTFSS  x2F.2
07CD8:  BRA    7D42
....................          tiempo_uv=0;flag_uv=0;glcd_rect(102, 30, 126, 44, YES, OFF); 
07CDA:  BCF    x2F.0
07CDC:  BCF    x2E.7
07CDE:  MOVLW  66
07CE0:  MOVLB  6
07CE2:  MOVWF  x06
07CE4:  MOVLW  1E
07CE6:  MOVWF  x07
07CE8:  MOVLW  7E
07CEA:  MOVWF  x08
07CEC:  MOVLW  2C
07CEE:  MOVWF  x09
07CF0:  MOVLW  01
07CF2:  MOVWF  x0A
07CF4:  CLRF   x0B
07CF6:  MOVLB  0
07CF8:  CALL   4D2E
....................          Tempouv[0]=Tempouvp[0];Tempouv[1]=Tempouvp[1];Tempouv[2]=Tempouvp[2];Tempouv[3]=Tempouvp[3];tiempocumplido=0; 
07CFC:  MOVFF  505,509
07D00:  MOVFF  506,50A
07D04:  MOVFF  507,50B
07D08:  MOVFF  508,50C
07D0C:  MOVLB  4
07D0E:  BCF    x2F.2
....................          for(i=0;i<3;i++){ 
07D10:  MOVLB  5
07D12:  CLRF   xDD
07D14:  MOVF   xDD,W
07D16:  SUBLW  02
07D18:  BNC   7D40
....................             Alarma_on; 
07D1A:  BSF    F8B.7
07D1C:  BCF    F94.7
....................             delay_ms(100); 
07D1E:  MOVLW  64
07D20:  MOVLB  6
07D22:  MOVWF  x01
07D24:  MOVLB  0
07D26:  CALL   1568
....................             Alarma_off; 
07D2A:  BCF    F8B.7
07D2C:  BCF    F94.7
....................             delay_ms(100); 
07D2E:  MOVLW  64
07D30:  MOVLB  6
07D32:  MOVWF  x01
07D34:  MOVLB  0
07D36:  CALL   1568
....................          } 
07D3A:  MOVLB  5
07D3C:  INCF   xDD,F
07D3E:  BRA    7D14
07D40:  MOVLB  4
....................       } 
....................              
....................       if(tright>=30){//Si oprime boton de Blower. 
07D42:  MOVF   xF0,F
07D44:  BNZ   7D4C
07D46:  MOVF   xEF,W
07D48:  SUBLW  1D
07D4A:  BC    7D64
....................          if(Flanco3 == 0){ 
07D4C:  BTFSC  x2D.3
07D4E:  BRA    7D62
....................             Flanco3 = 1;delay_ms(1);flag_blower=!flag_blower; 
07D50:  BSF    x2D.3
07D52:  MOVLW  01
07D54:  MOVLB  6
07D56:  MOVWF  x01
07D58:  MOVLB  0
07D5A:  CALL   1568
07D5E:  MOVLB  4
07D60:  BTG    x2D.7
....................          } 
....................       }else{ 
07D62:  BRA    7D66
....................          Flanco3 = 0; 
07D64:  BCF    x2D.3
....................       } 
....................        
....................       if(tleft>=30){//Si oprime boton de UV. 
07D66:  MOVF   xF2,F
07D68:  BNZ   7D70
07D6A:  MOVF   xF1,W
07D6C:  SUBLW  1D
07D6E:  BC    7D88
....................          if(Flanco4 == 0){ 
07D70:  BTFSC  x2D.4
07D72:  BRA    7D86
....................             Flanco4 = 1;delay_ms(1);flag_uv=!flag_uv; 
07D74:  BSF    x2D.4
07D76:  MOVLW  01
07D78:  MOVLB  6
07D7A:  MOVWF  x01
07D7C:  MOVLB  0
07D7E:  CALL   1568
07D82:  MOVLB  4
07D84:  BTG    x2E.7
....................          } 
....................       }else{ 
07D86:  BRA    7D8A
....................          Flanco4 = 0; 
07D88:  BCF    x2D.4
....................       } 
....................              
....................       if(tdown>=30){//Si oprime boton de Luz Blanca. 
07D8A:  MOVF   xEE,F
07D8C:  BNZ   7D94
07D8E:  MOVF   xED,W
07D90:  SUBLW  1D
07D92:  BC    7DAC
....................          if(Flanco5 == 0){ 
07D94:  BTFSC  x2D.5
07D96:  BRA    7DAA
....................             Flanco5 = 1;delay_ms(1);flag_luz=!flag_luz; 
07D98:  BSF    x2D.5
07D9A:  MOVLW  01
07D9C:  MOVLB  6
07D9E:  MOVWF  x01
07DA0:  MOVLB  0
07DA2:  CALL   1568
07DA6:  MOVLB  4
07DA8:  BTG    x2E.1
....................          } 
....................       }else{ 
07DAA:  BRA    7DAE
....................          Flanco5 = 0; 
07DAC:  BCF    x2D.5
....................       } 
....................        
....................       if(tup>=30){//Si oprime boton de Toma.  
07DAE:  MOVF   xEC,F
07DB0:  BNZ   7DB8
07DB2:  MOVF   xEB,W
07DB4:  SUBLW  1D
07DB6:  BC    7DEA
....................          delay_ms(5);Menu=3;//glcd_fillScreen(OFF); 
07DB8:  MOVLW  05
07DBA:  MOVLB  6
07DBC:  MOVWF  x01
07DBE:  MOVLB  0
07DC0:  CALL   1568
07DC4:  MOVLW  03
07DC6:  MOVLB  4
07DC8:  MOVWF  xCD
....................          glcd_init(ON);             //Inicializa la glcd 
07DCA:  MOVLW  01
07DCC:  MOVLB  5
07DCE:  MOVWF  xED
07DD0:  MOVLB  0
07DD2:  CALL   175A
....................          glcd_fillScreen(OFF);      //Limpia la pantalla 
07DD6:  MOVLB  5
07DD8:  CLRF   xF5
07DDA:  MOVLB  0
07DDC:  CALL   1648
....................          glcd_update();   
07DE0:  CALL   16A2
....................          LuzBlanca_off; 
07DE4:  BCF    F8B.0
07DE6:  BCF    F94.0
07DE8:  MOVLB  4
....................       } 
....................              
....................     } 
.................... //_--------------------------------------------------------------------------------------------------------------------------------------------------------        
....................  
.................... //_-------------------------------------------------------------------------------------------------------------------------------------------------------- 
....................       if(Menu==3){ //Menu Principal. 
07DEA:  MOVF   xCD,W
07DEC:  SUBLW  03
07DEE:  BTFSS  FD8.2
07DF0:  BRA    80D2
....................              
....................       strcpy(Menus.Letra,"Menu"); 
07DF2:  MOVLW  04
07DF4:  MOVWF  FEA
07DF6:  MOVLW  17
07DF8:  MOVWF  FE9
07DFA:  MOVFF  FF2,5ED
07DFE:  BCF    FF2.7
07E00:  MOVLW  00
07E02:  MOVLB  0
07E04:  CALL   1070
07E08:  TBLRD*-
07E0A:  TBLRD*+
07E0C:  MOVF   FF5,W
07E0E:  MOVWF  FEE
07E10:  IORLW  00
07E12:  BNZ   7E0A
07E14:  MOVLB  5
07E16:  BTFSC  xED.7
07E18:  BSF    FF2.7
....................       displayMenu(Menus.Letra,40,0,1,2); 
07E1A:  MOVLW  04
07E1C:  MOVWF  xF6
07E1E:  MOVLW  17
07E20:  MOVWF  xF5
07E22:  MOVLW  28
07E24:  MOVWF  xF7
07E26:  CLRF   xF8
07E28:  MOVLW  01
07E2A:  MOVWF  xF9
07E2C:  MOVLW  02
07E2E:  MOVWF  xFA
07E30:  MOVLB  0
07E32:  CALL   4EC6
....................        
....................       if(Opcion==1){ 
07E36:  MOVLB  4
07E38:  DECFSZ xCF,W
07E3A:  BRA    7E82
....................          strcpy(Menus.Letra,"Ajustes"); 
07E3C:  MOVLW  04
07E3E:  MOVWF  FEA
07E40:  MOVLW  17
07E42:  MOVWF  FE9
07E44:  MOVFF  FF2,5ED
07E48:  BCF    FF2.7
07E4A:  MOVLW  00
07E4C:  MOVLB  0
07E4E:  CALL   1094
07E52:  TBLRD*-
07E54:  TBLRD*+
07E56:  MOVF   FF5,W
07E58:  MOVWF  FEE
07E5A:  IORLW  00
07E5C:  BNZ   7E54
07E5E:  MOVLB  5
07E60:  BTFSC  xED.7
07E62:  BSF    FF2.7
....................          displayMenu(Menus.Letra,0,19,1,1); 
07E64:  MOVLW  04
07E66:  MOVWF  xF6
07E68:  MOVLW  17
07E6A:  MOVWF  xF5
07E6C:  CLRF   xF7
07E6E:  MOVLW  13
07E70:  MOVWF  xF8
07E72:  MOVLW  01
07E74:  MOVWF  xF9
07E76:  MOVWF  xFA
07E78:  MOVLB  0
07E7A:  CALL   4EC6
....................       }else{ 
07E7E:  BRA    7EC4
07E80:  MOVLB  4
....................          strcpy(Menus.Letra,"Ajustes"); 
07E82:  MOVLW  04
07E84:  MOVWF  FEA
07E86:  MOVLW  17
07E88:  MOVWF  FE9
07E8A:  MOVFF  FF2,5ED
07E8E:  BCF    FF2.7
07E90:  MOVLW  00
07E92:  MOVLB  0
07E94:  CALL   1094
07E98:  TBLRD*-
07E9A:  TBLRD*+
07E9C:  MOVF   FF5,W
07E9E:  MOVWF  FEE
07EA0:  IORLW  00
07EA2:  BNZ   7E9A
07EA4:  MOVLB  5
07EA6:  BTFSC  xED.7
07EA8:  BSF    FF2.7
....................          displayMenu(Menus.Letra,0,19,0,1); 
07EAA:  MOVLW  04
07EAC:  MOVWF  xF6
07EAE:  MOVLW  17
07EB0:  MOVWF  xF5
07EB2:  CLRF   xF7
07EB4:  MOVLW  13
07EB6:  MOVWF  xF8
07EB8:  CLRF   xF9
07EBA:  MOVLW  01
07EBC:  MOVWF  xFA
07EBE:  MOVLB  0
07EC0:  CALL   4EC6
....................       } 
....................           
....................       if(Opcion==2){ 
07EC4:  MOVLB  4
07EC6:  MOVF   xCF,W
07EC8:  SUBLW  02
07ECA:  BNZ   7F12
....................          strcpy(Menus.Letra,"Cambio de Clave"); 
07ECC:  MOVLW  04
07ECE:  MOVWF  FEA
07ED0:  MOVLW  17
07ED2:  MOVWF  FE9
07ED4:  MOVFF  FF2,5ED
07ED8:  BCF    FF2.7
07EDA:  MOVLW  00
07EDC:  MOVLB  0
07EDE:  CALL   10BA
07EE2:  TBLRD*-
07EE4:  TBLRD*+
07EE6:  MOVF   FF5,W
07EE8:  MOVWF  FEE
07EEA:  IORLW  00
07EEC:  BNZ   7EE4
07EEE:  MOVLB  5
07EF0:  BTFSC  xED.7
07EF2:  BSF    FF2.7
....................          displayMenu(Menus.Letra,0,35,1,1); 
07EF4:  MOVLW  04
07EF6:  MOVWF  xF6
07EF8:  MOVLW  17
07EFA:  MOVWF  xF5
07EFC:  CLRF   xF7
07EFE:  MOVLW  23
07F00:  MOVWF  xF8
07F02:  MOVLW  01
07F04:  MOVWF  xF9
07F06:  MOVWF  xFA
07F08:  MOVLB  0
07F0A:  CALL   4EC6
....................       }else{ 
07F0E:  BRA    7F54
07F10:  MOVLB  4
....................          strcpy(Menus.Letra,"Cambio de Clave"); 
07F12:  MOVLW  04
07F14:  MOVWF  FEA
07F16:  MOVLW  17
07F18:  MOVWF  FE9
07F1A:  MOVFF  FF2,5ED
07F1E:  BCF    FF2.7
07F20:  MOVLW  00
07F22:  MOVLB  0
07F24:  CALL   10BA
07F28:  TBLRD*-
07F2A:  TBLRD*+
07F2C:  MOVF   FF5,W
07F2E:  MOVWF  FEE
07F30:  IORLW  00
07F32:  BNZ   7F2A
07F34:  MOVLB  5
07F36:  BTFSC  xED.7
07F38:  BSF    FF2.7
....................          displayMenu(Menus.Letra,0,35,0,1); 
07F3A:  MOVLW  04
07F3C:  MOVWF  xF6
07F3E:  MOVLW  17
07F40:  MOVWF  xF5
07F42:  CLRF   xF7
07F44:  MOVLW  23
07F46:  MOVWF  xF8
07F48:  CLRF   xF9
07F4A:  MOVLW  01
07F4C:  MOVWF  xFA
07F4E:  MOVLB  0
07F50:  CALL   4EC6
....................       } 
....................           
....................       if(Opcion==3){ 
07F54:  MOVLB  4
07F56:  MOVF   xCF,W
07F58:  SUBLW  03
07F5A:  BNZ   7FA2
....................          strcpy(Menus.Letra,"Modo"); 
07F5C:  MOVLW  04
07F5E:  MOVWF  FEA
07F60:  MOVLW  17
07F62:  MOVWF  FE9
07F64:  MOVFF  FF2,5ED
07F68:  BCF    FF2.7
07F6A:  MOVLW  00
07F6C:  MOVLB  0
07F6E:  CALL   10E8
07F72:  TBLRD*-
07F74:  TBLRD*+
07F76:  MOVF   FF5,W
07F78:  MOVWF  FEE
07F7A:  IORLW  00
07F7C:  BNZ   7F74
07F7E:  MOVLB  5
07F80:  BTFSC  xED.7
07F82:  BSF    FF2.7
....................          displayMenu(Menus.Letra,0,51,1,1); 
07F84:  MOVLW  04
07F86:  MOVWF  xF6
07F88:  MOVLW  17
07F8A:  MOVWF  xF5
07F8C:  CLRF   xF7
07F8E:  MOVLW  33
07F90:  MOVWF  xF8
07F92:  MOVLW  01
07F94:  MOVWF  xF9
07F96:  MOVWF  xFA
07F98:  MOVLB  0
07F9A:  CALL   4EC6
....................       }else{ 
07F9E:  BRA    7FE4
07FA0:  MOVLB  4
....................          strcpy(Menus.Letra,"Modo"); 
07FA2:  MOVLW  04
07FA4:  MOVWF  FEA
07FA6:  MOVLW  17
07FA8:  MOVWF  FE9
07FAA:  MOVFF  FF2,5ED
07FAE:  BCF    FF2.7
07FB0:  MOVLW  00
07FB2:  MOVLB  0
07FB4:  CALL   10E8
07FB8:  TBLRD*-
07FBA:  TBLRD*+
07FBC:  MOVF   FF5,W
07FBE:  MOVWF  FEE
07FC0:  IORLW  00
07FC2:  BNZ   7FBA
07FC4:  MOVLB  5
07FC6:  BTFSC  xED.7
07FC8:  BSF    FF2.7
....................          displayMenu(Menus.Letra,0,51,0,1); 
07FCA:  MOVLW  04
07FCC:  MOVWF  xF6
07FCE:  MOVLW  17
07FD0:  MOVWF  xF5
07FD2:  CLRF   xF7
07FD4:  MOVLW  33
07FD6:  MOVWF  xF8
07FD8:  CLRF   xF9
07FDA:  MOVLW  01
07FDC:  MOVWF  xFA
07FDE:  MOVLB  0
07FE0:  CALL   4EC6
....................       } 
....................       glcd_update();  
07FE4:  CALL   16A2
....................        
....................       if(w==0){ 
07FE8:  MOVLB  4
07FEA:  BTFSC  x2E.3
07FEC:  BRA    800A
....................          delay_ms(500);w=1; 
07FEE:  MOVLW  02
07FF0:  MOVLB  5
07FF2:  MOVWF  xED
07FF4:  MOVLW  FA
07FF6:  MOVLB  6
07FF8:  MOVWF  x01
07FFA:  MOVLB  0
07FFC:  CALL   1568
08000:  MOVLB  5
08002:  DECFSZ xED,F
08004:  BRA    7FF4
08006:  MOVLB  4
08008:  BSF    x2E.3
....................       } 
....................           
....................       if(UP){//Si oprime hacia arriba         
0800A:  BSF    F92.5
0800C:  BTFSC  F80.5
0800E:  BRA    8028
....................          if(Flanco == 0){ 
08010:  BTFSC  x2D.0
08012:  BRA    8026
....................             Flanco = 1;delay_ms(30);Opcion--; 
08014:  BSF    x2D.0
08016:  MOVLW  1E
08018:  MOVLB  6
0801A:  MOVWF  x01
0801C:  MOVLB  0
0801E:  CALL   1568
08022:  MOVLB  4
08024:  DECF   xCF,F
....................          } 
....................       }else{ 
08026:  BRA    802A
....................          Flanco = 0; 
08028:  BCF    x2D.0
....................       } 
....................              
....................       if(DOWN){//Si oprime hacia abajo 
0802A:  BSF    F96.0
0802C:  BTFSC  F84.0
0802E:  BRA    8048
....................          if(Flanco2 == 0){ 
08030:  BTFSC  x2D.2
08032:  BRA    8046
....................             Flanco2 = 1;delay_ms(30);Opcion++; 
08034:  BSF    x2D.2
08036:  MOVLW  1E
08038:  MOVLB  6
0803A:  MOVWF  x01
0803C:  MOVLB  0
0803E:  CALL   1568
08042:  MOVLB  4
08044:  INCF   xCF,F
....................          } 
....................       }else{ 
08046:  BRA    804A
....................          Flanco2 = 0; 
08048:  BCF    x2D.2
....................       } 
....................              
....................       if(RIGHT){//Si oprime SET 
0804A:  BSF    F96.1
0804C:  BTFSC  F84.1
0804E:  BRA    808E
....................          if(Flanco1 == 0){ 
08050:  BTFSC  x2D.1
08052:  BRA    808C
....................             Flanco1 = 1;delay_ms(50);Menu=Opcion+3;Opcion=1;glcd_fillscreen(OFF);unidad=1; 
08054:  BSF    x2D.1
08056:  MOVLW  32
08058:  MOVLB  6
0805A:  MOVWF  x01
0805C:  MOVLB  0
0805E:  CALL   1568
08062:  MOVLW  03
08064:  MOVLB  4
08066:  ADDWF  xCF,W
08068:  MOVWF  xCD
0806A:  MOVLW  01
0806C:  MOVWF  xCF
0806E:  MOVLB  5
08070:  CLRF   xF5
08072:  MOVLB  0
08074:  CALL   1648
08078:  MOVLW  01
0807A:  MOVLB  4
0807C:  MOVWF  xCE
....................             Contrasena[0]=0;Contrasena[1]=0;Contrasena[2]=0;Contrasena[3]=0;n=0; 
0807E:  MOVLB  5
08080:  CLRF   x11
08082:  CLRF   x12
08084:  CLRF   x13
08086:  CLRF   x14
08088:  MOVLB  4
0808A:  BCF    x2F.5
....................          } 
....................       }else{ 
0808C:  BRA    8090
....................          Flanco1 = 0; 
0808E:  BCF    x2D.1
....................       } 
....................              
....................       if(LEFT){//Si oprime boton de Toma. 
08090:  BSF    F96.2
08092:  BTFSC  F84.2
08094:  BRA    80C0
....................          delay_ms(700);Menu=2;glcd_fillscreen(OFF); 
08096:  MOVLW  04
08098:  MOVLB  5
0809A:  MOVWF  xED
0809C:  MOVLW  AF
0809E:  MOVLB  6
080A0:  MOVWF  x01
080A2:  MOVLB  0
080A4:  CALL   1568
080A8:  MOVLB  5
080AA:  DECFSZ xED,F
080AC:  BRA    809C
080AE:  MOVLW  02
080B0:  MOVLB  4
080B2:  MOVWF  xCD
080B4:  MOVLB  5
080B6:  CLRF   xF5
080B8:  MOVLB  0
080BA:  CALL   1648
080BE:  MOVLB  4
....................       } 
....................              
....................       if(Opcion>3) 
080C0:  MOVF   xCF,W
080C2:  SUBLW  03
080C4:  BC    80CA
....................          Opcion=1; 
080C6:  MOVLW  01
080C8:  MOVWF  xCF
....................       if(Opcion<1) 
080CA:  MOVF   xCF,F
080CC:  BNZ   80D2
....................          Opcion=3; 
080CE:  MOVLW  03
080D0:  MOVWF  xCF
....................     } 
.................... //_--------------------------------------------------------------------------------------------------------------------------------------------------------        
....................  
.................... //_-------------------------------------------------------------------------------------------------------------------------------------------------------- 
....................       if(Menu==4){ //Menu de Ajustes. 
080D2:  MOVF   xCD,W
080D4:  SUBLW  04
080D6:  BTFSS  FD8.2
080D8:  BRA    82F0
....................        
....................       strcpy(Menus.Letra,"Ajustes"); 
080DA:  MOVLW  04
080DC:  MOVWF  FEA
080DE:  MOVLW  17
080E0:  MOVWF  FE9
080E2:  MOVFF  FF2,5ED
080E6:  BCF    FF2.7
080E8:  MOVLW  00
080EA:  MOVLB  0
080EC:  CALL   1094
080F0:  TBLRD*-
080F2:  TBLRD*+
080F4:  MOVF   FF5,W
080F6:  MOVWF  FEE
080F8:  IORLW  00
080FA:  BNZ   80F2
080FC:  MOVLB  5
080FE:  BTFSC  xED.7
08100:  BSF    FF2.7
....................       displayMenu(Menus.Letra,0,0,1,2); 
08102:  MOVLW  04
08104:  MOVWF  xF6
08106:  MOVLW  17
08108:  MOVWF  xF5
0810A:  CLRF   xF7
0810C:  CLRF   xF8
0810E:  MOVLW  01
08110:  MOVWF  xF9
08112:  MOVLW  02
08114:  MOVWF  xFA
08116:  MOVLB  0
08118:  CALL   4EC6
....................        
....................       if(Opcion==1)    
0811C:  MOVLB  4
0811E:  DECFSZ xCF,W
08120:  BRA    8168
....................          {strcpy(Menus.Letra,"Tiempo Purga"); 
08122:  MOVLW  04
08124:  MOVWF  FEA
08126:  MOVLW  17
08128:  MOVWF  FE9
0812A:  MOVFF  FF2,5ED
0812E:  BCF    FF2.7
08130:  MOVLW  00
08132:  MOVLB  0
08134:  CALL   110C
08138:  TBLRD*-
0813A:  TBLRD*+
0813C:  MOVF   FF5,W
0813E:  MOVWF  FEE
08140:  IORLW  00
08142:  BNZ   813A
08144:  MOVLB  5
08146:  BTFSC  xED.7
08148:  BSF    FF2.7
....................          displayMenu(Menus.Letra,0,20,1,1);} 
0814A:  MOVLW  04
0814C:  MOVWF  xF6
0814E:  MOVLW  17
08150:  MOVWF  xF5
08152:  CLRF   xF7
08154:  MOVLW  14
08156:  MOVWF  xF8
08158:  MOVLW  01
0815A:  MOVWF  xF9
0815C:  MOVWF  xFA
0815E:  MOVLB  0
08160:  CALL   4EC6
....................       else 
08164:  BRA    81AA
08166:  MOVLB  4
....................          {strcpy(Menus.Letra,"Tiempo Purga"); 
08168:  MOVLW  04
0816A:  MOVWF  FEA
0816C:  MOVLW  17
0816E:  MOVWF  FE9
08170:  MOVFF  FF2,5ED
08174:  BCF    FF2.7
08176:  MOVLW  00
08178:  MOVLB  0
0817A:  CALL   110C
0817E:  TBLRD*-
08180:  TBLRD*+
08182:  MOVF   FF5,W
08184:  MOVWF  FEE
08186:  IORLW  00
08188:  BNZ   8180
0818A:  MOVLB  5
0818C:  BTFSC  xED.7
0818E:  BSF    FF2.7
....................          displayMenu(Menus.Letra,0,20,0,1);}              
08190:  MOVLW  04
08192:  MOVWF  xF6
08194:  MOVLW  17
08196:  MOVWF  xF5
08198:  CLRF   xF7
0819A:  MOVLW  14
0819C:  MOVWF  xF8
0819E:  CLRF   xF9
081A0:  MOVLW  01
081A2:  MOVWF  xFA
081A4:  MOVLB  0
081A6:  CALL   4EC6
....................        
....................       if(Opcion==2)    
081AA:  MOVLB  4
081AC:  MOVF   xCF,W
081AE:  SUBLW  02
081B0:  BNZ   81F8
....................          {strcpy(Menus.Letra,"Tempo UV"); 
081B2:  MOVLW  04
081B4:  MOVWF  FEA
081B6:  MOVLW  17
081B8:  MOVWF  FE9
081BA:  MOVFF  FF2,5ED
081BE:  BCF    FF2.7
081C0:  MOVLW  00
081C2:  MOVLB  0
081C4:  CALL   1138
081C8:  TBLRD*-
081CA:  TBLRD*+
081CC:  MOVF   FF5,W
081CE:  MOVWF  FEE
081D0:  IORLW  00
081D2:  BNZ   81CA
081D4:  MOVLB  5
081D6:  BTFSC  xED.7
081D8:  BSF    FF2.7
....................          displayMenu(Menus.Letra,0,35,1,1);} 
081DA:  MOVLW  04
081DC:  MOVWF  xF6
081DE:  MOVLW  17
081E0:  MOVWF  xF5
081E2:  CLRF   xF7
081E4:  MOVLW  23
081E6:  MOVWF  xF8
081E8:  MOVLW  01
081EA:  MOVWF  xF9
081EC:  MOVWF  xFA
081EE:  MOVLB  0
081F0:  CALL   4EC6
....................       else 
081F4:  BRA    823A
081F6:  MOVLB  4
....................          {strcpy(Menus.Letra,"Tempo UV"); 
081F8:  MOVLW  04
081FA:  MOVWF  FEA
081FC:  MOVLW  17
081FE:  MOVWF  FE9
08200:  MOVFF  FF2,5ED
08204:  BCF    FF2.7
08206:  MOVLW  00
08208:  MOVLB  0
0820A:  CALL   1138
0820E:  TBLRD*-
08210:  TBLRD*+
08212:  MOVF   FF5,W
08214:  MOVWF  FEE
08216:  IORLW  00
08218:  BNZ   8210
0821A:  MOVLB  5
0821C:  BTFSC  xED.7
0821E:  BSF    FF2.7
....................          displayMenu(Menus.Letra,0,35,0,1);}  
08220:  MOVLW  04
08222:  MOVWF  xF6
08224:  MOVLW  17
08226:  MOVWF  xF5
08228:  CLRF   xF7
0822A:  MOVLW  23
0822C:  MOVWF  xF8
0822E:  CLRF   xF9
08230:  MOVLW  01
08232:  MOVWF  xFA
08234:  MOVLB  0
08236:  CALL   4EC6
....................        
....................       if(UP)//Si oprime hacia arriba 
0823A:  BSF    F92.5
0823C:  BTFSC  F80.5
0823E:  BRA    825A
....................       {  if(Flanco == 0)  
08240:  MOVLB  4
08242:  BTFSC  x2D.0
08244:  BRA    8258
....................             {Flanco = 1;delay_ms(30);Opcion--; 
08246:  BSF    x2D.0
08248:  MOVLW  1E
0824A:  MOVLB  6
0824C:  MOVWF  x01
0824E:  MOVLB  0
08250:  CALL   1568
08254:  MOVLB  4
08256:  DECF   xCF,F
....................             } 
....................       } 
....................          else 
08258:  BRA    825E
....................             {Flanco = 0;} 
0825A:  MOVLB  4
0825C:  BCF    x2D.0
....................              
....................       if(DOWN)//Si oprime hacia abajo 
0825E:  BSF    F96.0
08260:  BTFSC  F84.0
08262:  BRA    827C
....................       {  if(Flanco2 == 0)  
08264:  BTFSC  x2D.2
08266:  BRA    827A
....................             {Flanco2 = 1;delay_ms(30);Opcion++; 
08268:  BSF    x2D.2
0826A:  MOVLW  1E
0826C:  MOVLB  6
0826E:  MOVWF  x01
08270:  MOVLB  0
08272:  CALL   1568
08276:  MOVLB  4
08278:  INCF   xCF,F
....................             }      
....................       } 
....................          else 
0827A:  BRA    827E
....................             {Flanco2 = 0;}   
0827C:  BCF    x2D.2
....................              
....................       if(RIGHT)//Si oprime SET 
0827E:  BSF    F96.1
08280:  BTFSC  F84.1
08282:  BRA    82AC
....................       {  if(Flanco1 == 0)  
08284:  BTFSC  x2D.1
08286:  BRA    82AA
....................             {Flanco1 = 1;delay_ms(50);Menu=Opcion+10;glcd_fillScreen(OFF); 
08288:  BSF    x2D.1
0828A:  MOVLW  32
0828C:  MOVLB  6
0828E:  MOVWF  x01
08290:  MOVLB  0
08292:  CALL   1568
08296:  MOVLW  0A
08298:  MOVLB  4
0829A:  ADDWF  xCF,W
0829C:  MOVWF  xCD
0829E:  MOVLB  5
082A0:  CLRF   xF5
082A2:  MOVLB  0
082A4:  CALL   1648
082A8:  MOVLB  4
....................             } 
....................       } 
....................          else 
082AA:  BRA    82AE
....................             {Flanco1 = 0;}   
082AC:  BCF    x2D.1
....................              
....................       if(LEFT)//Si oprime boton de Toma. 
082AE:  BSF    F96.2
082B0:  BTFSC  F84.2
082B2:  BRA    82DE
....................         {delay_ms(700);Menu=3;glcd_fillscreen(OFF);} 
082B4:  MOVLW  04
082B6:  MOVLB  5
082B8:  MOVWF  xED
082BA:  MOVLW  AF
082BC:  MOVLB  6
082BE:  MOVWF  x01
082C0:  MOVLB  0
082C2:  CALL   1568
082C6:  MOVLB  5
082C8:  DECFSZ xED,F
082CA:  BRA    82BA
082CC:  MOVLW  03
082CE:  MOVLB  4
082D0:  MOVWF  xCD
082D2:  MOVLB  5
082D4:  CLRF   xF5
082D6:  MOVLB  0
082D8:  CALL   1648
082DC:  MOVLB  4
....................        
....................       if(Opcion>2) 
082DE:  MOVF   xCF,W
082E0:  SUBLW  02
082E2:  BC    82E8
....................       {Opcion=1;} 
082E4:  MOVLW  01
082E6:  MOVWF  xCF
....................       if(Opcion<1) 
082E8:  MOVF   xCF,F
082EA:  BNZ   82F0
....................       {Opcion=2;} 
082EC:  MOVLW  02
082EE:  MOVWF  xCF
....................      
....................     } 
.................... //_--------------------------------------------------------------------------------------------------------------------------------------------------------        
....................  
.................... //_-------------------------------------------------------------------------------------------------------------------------------------------------------- 
....................       if(Menu==6){ //Menu de Modo. 
082F0:  MOVF   xCD,W
082F2:  SUBLW  06
082F4:  BTFSS  FD8.2
082F6:  BRA    8516
....................        
....................       strcpy(Menus.Letra,"Modo"); 
082F8:  MOVLW  04
082FA:  MOVWF  FEA
082FC:  MOVLW  17
082FE:  MOVWF  FE9
08300:  MOVFF  FF2,5ED
08304:  BCF    FF2.7
08306:  MOVLW  00
08308:  MOVLB  0
0830A:  CALL   10E8
0830E:  TBLRD*-
08310:  TBLRD*+
08312:  MOVF   FF5,W
08314:  MOVWF  FEE
08316:  IORLW  00
08318:  BNZ   8310
0831A:  MOVLB  5
0831C:  BTFSC  xED.7
0831E:  BSF    FF2.7
....................       displayMenu(Menus.Letra,40,0,1,2); 
08320:  MOVLW  04
08322:  MOVWF  xF6
08324:  MOVLW  17
08326:  MOVWF  xF5
08328:  MOVLW  28
0832A:  MOVWF  xF7
0832C:  CLRF   xF8
0832E:  MOVLW  01
08330:  MOVWF  xF9
08332:  MOVLW  02
08334:  MOVWF  xFA
08336:  MOVLB  0
08338:  CALL   4EC6
....................           
....................       if(Opcion==1)    
0833C:  MOVLB  4
0833E:  DECFSZ xCF,W
08340:  BRA    8388
....................          {strcpy(Menus.Letra,"Mantenimiento"); 
08342:  MOVLW  04
08344:  MOVWF  FEA
08346:  MOVLW  17
08348:  MOVWF  FE9
0834A:  MOVFF  FF2,5ED
0834E:  BCF    FF2.7
08350:  MOVLW  00
08352:  MOVLB  0
08354:  CALL   1160
08358:  TBLRD*-
0835A:  TBLRD*+
0835C:  MOVF   FF5,W
0835E:  MOVWF  FEE
08360:  IORLW  00
08362:  BNZ   835A
08364:  MOVLB  5
08366:  BTFSC  xED.7
08368:  BSF    FF2.7
....................          displayMenu(Menus.Letra,0,19,1,1);} 
0836A:  MOVLW  04
0836C:  MOVWF  xF6
0836E:  MOVLW  17
08370:  MOVWF  xF5
08372:  CLRF   xF7
08374:  MOVLW  13
08376:  MOVWF  xF8
08378:  MOVLW  01
0837A:  MOVWF  xF9
0837C:  MOVWF  xFA
0837E:  MOVLB  0
08380:  CALL   4EC6
....................       else 
08384:  BRA    83CA
08386:  MOVLB  4
....................          {strcpy(Menus.Letra,"Mantenimiento"); 
08388:  MOVLW  04
0838A:  MOVWF  FEA
0838C:  MOVLW  17
0838E:  MOVWF  FE9
08390:  MOVFF  FF2,5ED
08394:  BCF    FF2.7
08396:  MOVLW  00
08398:  MOVLB  0
0839A:  CALL   1160
0839E:  TBLRD*-
083A0:  TBLRD*+
083A2:  MOVF   FF5,W
083A4:  MOVWF  FEE
083A6:  IORLW  00
083A8:  BNZ   83A0
083AA:  MOVLB  5
083AC:  BTFSC  xED.7
083AE:  BSF    FF2.7
....................          displayMenu(Menus.Letra,0,19,0,1);}    
083B0:  MOVLW  04
083B2:  MOVWF  xF6
083B4:  MOVLW  17
083B6:  MOVWF  xF5
083B8:  CLRF   xF7
083BA:  MOVLW  13
083BC:  MOVWF  xF8
083BE:  CLRF   xF9
083C0:  MOVLW  01
083C2:  MOVWF  xFA
083C4:  MOVLB  0
083C6:  CALL   4EC6
....................           
....................       if(Opcion==2)    
083CA:  MOVLB  4
083CC:  MOVF   xCF,W
083CE:  SUBLW  02
083D0:  BNZ   8418
....................          {strcpy(Menus.Letra,"Servicio"); 
083D2:  MOVLW  04
083D4:  MOVWF  FEA
083D6:  MOVLW  17
083D8:  MOVWF  FE9
083DA:  MOVFF  FF2,5ED
083DE:  BCF    FF2.7
083E0:  MOVLW  00
083E2:  MOVLB  0
083E4:  CALL   118C
083E8:  TBLRD*-
083EA:  TBLRD*+
083EC:  MOVF   FF5,W
083EE:  MOVWF  FEE
083F0:  IORLW  00
083F2:  BNZ   83EA
083F4:  MOVLB  5
083F6:  BTFSC  xED.7
083F8:  BSF    FF2.7
....................          displayMenu(Menus.Letra,0,35,1,1);} 
083FA:  MOVLW  04
083FC:  MOVWF  xF6
083FE:  MOVLW  17
08400:  MOVWF  xF5
08402:  CLRF   xF7
08404:  MOVLW  23
08406:  MOVWF  xF8
08408:  MOVLW  01
0840A:  MOVWF  xF9
0840C:  MOVWF  xFA
0840E:  MOVLB  0
08410:  CALL   4EC6
....................       else 
08414:  BRA    845A
08416:  MOVLB  4
....................          {strcpy(Menus.Letra,"Servicio"); 
08418:  MOVLW  04
0841A:  MOVWF  FEA
0841C:  MOVLW  17
0841E:  MOVWF  FE9
08420:  MOVFF  FF2,5ED
08424:  BCF    FF2.7
08426:  MOVLW  00
08428:  MOVLB  0
0842A:  CALL   118C
0842E:  TBLRD*-
08430:  TBLRD*+
08432:  MOVF   FF5,W
08434:  MOVWF  FEE
08436:  IORLW  00
08438:  BNZ   8430
0843A:  MOVLB  5
0843C:  BTFSC  xED.7
0843E:  BSF    FF2.7
....................          displayMenu(Menus.Letra,0,35,0,1);} 
08440:  MOVLW  04
08442:  MOVWF  xF6
08444:  MOVLW  17
08446:  MOVWF  xF5
08448:  CLRF   xF7
0844A:  MOVLW  23
0844C:  MOVWF  xF8
0844E:  CLRF   xF9
08450:  MOVLW  01
08452:  MOVWF  xFA
08454:  MOVLB  0
08456:  CALL   4EC6
....................           
....................       if(UP)//Si oprime hacia arriba 
0845A:  BSF    F92.5
0845C:  BTFSC  F80.5
0845E:  BRA    847A
....................       {  if(Flanco == 0)  
08460:  MOVLB  4
08462:  BTFSC  x2D.0
08464:  BRA    8478
....................             {Flanco = 1;delay_ms(30);Opcion--; 
08466:  BSF    x2D.0
08468:  MOVLW  1E
0846A:  MOVLB  6
0846C:  MOVWF  x01
0846E:  MOVLB  0
08470:  CALL   1568
08474:  MOVLB  4
08476:  DECF   xCF,F
....................             } 
....................       } 
....................          else 
08478:  BRA    847E
....................             {Flanco = 0;} 
0847A:  MOVLB  4
0847C:  BCF    x2D.0
....................              
....................       if(DOWN)//Si oprime hacia abajo 
0847E:  BSF    F96.0
08480:  BTFSC  F84.0
08482:  BRA    849C
....................       {  if(Flanco2 == 0)  
08484:  BTFSC  x2D.2
08486:  BRA    849A
....................             {Flanco2 = 1;delay_ms(30);Opcion++; 
08488:  BSF    x2D.2
0848A:  MOVLW  1E
0848C:  MOVLB  6
0848E:  MOVWF  x01
08490:  MOVLB  0
08492:  CALL   1568
08496:  MOVLB  4
08498:  INCF   xCF,F
....................             }      
....................       } 
....................          else 
0849A:  BRA    849E
....................             {Flanco2 = 0;}   
0849C:  BCF    x2D.2
....................              
....................       if(RIGHT)//Si oprime SET 
0849E:  BSF    F96.1
084A0:  BTFSC  F84.1
084A2:  BRA    84D2
....................       {  if(Flanco1 == 0)  
084A4:  BTFSC  x2D.1
084A6:  BRA    84D0
....................             {Flanco1 = 1;delay_ms(50);Menu=Opcion+30;glcd_fillScreen(OFF);Opcion=1;unidad=1; 
084A8:  BSF    x2D.1
084AA:  MOVLW  32
084AC:  MOVLB  6
084AE:  MOVWF  x01
084B0:  MOVLB  0
084B2:  CALL   1568
084B6:  MOVLW  1E
084B8:  MOVLB  4
084BA:  ADDWF  xCF,W
084BC:  MOVWF  xCD
084BE:  MOVLB  5
084C0:  CLRF   xF5
084C2:  MOVLB  0
084C4:  CALL   1648
084C8:  MOVLW  01
084CA:  MOVLB  4
084CC:  MOVWF  xCF
084CE:  MOVWF  xCE
....................             } 
....................       } 
....................          else 
084D0:  BRA    84D4
....................             {Flanco1 = 0;}   
084D2:  BCF    x2D.1
....................              
....................       if(LEFT)//Si oprime boton de Toma. 
084D4:  BSF    F96.2
084D6:  BTFSC  F84.2
084D8:  BRA    8504
....................         {delay_ms(700);Menu=3;glcd_fillscreen(OFF);} 
084DA:  MOVLW  04
084DC:  MOVLB  5
084DE:  MOVWF  xED
084E0:  MOVLW  AF
084E2:  MOVLB  6
084E4:  MOVWF  x01
084E6:  MOVLB  0
084E8:  CALL   1568
084EC:  MOVLB  5
084EE:  DECFSZ xED,F
084F0:  BRA    84E0
084F2:  MOVLW  03
084F4:  MOVLB  4
084F6:  MOVWF  xCD
084F8:  MOVLB  5
084FA:  CLRF   xF5
084FC:  MOVLB  0
084FE:  CALL   1648
08502:  MOVLB  4
....................       if(Opcion>2) 
08504:  MOVF   xCF,W
08506:  SUBLW  02
08508:  BC    850E
....................       {Opcion=1;} 
0850A:  MOVLW  01
0850C:  MOVWF  xCF
....................       if(Opcion<1) 
0850E:  MOVF   xCF,F
08510:  BNZ   8516
....................       {Opcion=2;} 
08512:  MOVLW  02
08514:  MOVWF  xCF
....................      
....................     } 
.................... //_--------------------------------------------------------------------------------------------------------------------------------------------------------        
....................  
.................... //_-------------------------------------------------------------------------------------------------------------------------------------------------------- 
....................       if(Menu==11){ //Menu de Purga. 
08516:  MOVF   xCD,W
08518:  SUBLW  0B
0851A:  BTFSS  FD8.2
0851C:  BRA    88D6
....................        
....................       strcpy(Menus.Letra,"T. Purga"); 
0851E:  MOVLW  04
08520:  MOVWF  FEA
08522:  MOVLW  17
08524:  MOVWF  FE9
08526:  MOVFF  FF2,5ED
0852A:  BCF    FF2.7
0852C:  MOVLW  00
0852E:  MOVLB  0
08530:  CALL   11B4
08534:  TBLRD*-
08536:  TBLRD*+
08538:  MOVF   FF5,W
0853A:  MOVWF  FEE
0853C:  IORLW  00
0853E:  BNZ   8536
08540:  MOVLB  5
08542:  BTFSC  xED.7
08544:  BSF    FF2.7
....................       displayMenu(Menus.Letra,10,0,1,2); 
08546:  MOVLW  04
08548:  MOVWF  xF6
0854A:  MOVLW  17
0854C:  MOVWF  xF5
0854E:  MOVLW  0A
08550:  MOVWF  xF7
08552:  CLRF   xF8
08554:  MOVLW  01
08556:  MOVWF  xF9
08558:  MOVLW  02
0855A:  MOVWF  xFA
0855C:  MOVLB  0
0855E:  CALL   4EC6
....................        
....................       if(unidad==4) 
08562:  MOVLB  4
08564:  MOVF   xCE,W
08566:  SUBLW  04
08568:  BNZ   8588
....................       {displayTiempo(Tpurgap[3],20,40,1,2);} 
0856A:  MOVFF  4FC,5ED
0856E:  MOVLW  14
08570:  MOVLB  5
08572:  MOVWF  xEE
08574:  MOVLW  28
08576:  MOVWF  xEF
08578:  MOVLW  01
0857A:  MOVWF  xF0
0857C:  MOVLW  02
0857E:  MOVWF  xF1
08580:  MOVLB  0
08582:  CALL   568A
....................       else 
08586:  BRA    85A2
....................       {displayTiempo(Tpurgap[3],20,40,0,2);} 
08588:  MOVFF  4FC,5ED
0858C:  MOVLW  14
0858E:  MOVLB  5
08590:  MOVWF  xEE
08592:  MOVLW  28
08594:  MOVWF  xEF
08596:  CLRF   xF0
08598:  MOVLW  02
0859A:  MOVWF  xF1
0859C:  MOVLB  0
0859E:  CALL   568A
....................        
....................       if(unidad==3) 
085A2:  MOVLB  4
085A4:  MOVF   xCE,W
085A6:  SUBLW  03
085A8:  BNZ   85C6
....................       {displayTiempo(Tpurgap[2],40,40,1,2);} 
085AA:  MOVFF  4FB,5ED
085AE:  MOVLW  28
085B0:  MOVLB  5
085B2:  MOVWF  xEE
085B4:  MOVWF  xEF
085B6:  MOVLW  01
085B8:  MOVWF  xF0
085BA:  MOVLW  02
085BC:  MOVWF  xF1
085BE:  MOVLB  0
085C0:  CALL   568A
....................       else 
085C4:  BRA    85DE
....................       {displayTiempo(Tpurgap[2],40,40,0,2);} 
085C6:  MOVFF  4FB,5ED
085CA:  MOVLW  28
085CC:  MOVLB  5
085CE:  MOVWF  xEE
085D0:  MOVWF  xEF
085D2:  CLRF   xF0
085D4:  MOVLW  02
085D6:  MOVWF  xF1
085D8:  MOVLB  0
085DA:  CALL   568A
....................        
....................       if(unidad==2) 
085DE:  MOVLB  4
085E0:  MOVF   xCE,W
085E2:  SUBLW  02
085E4:  BNZ   8604
....................       {displayTiempo(Tpurgap[1],70,40,1,2);} 
085E6:  MOVFF  4FA,5ED
085EA:  MOVLW  46
085EC:  MOVLB  5
085EE:  MOVWF  xEE
085F0:  MOVLW  28
085F2:  MOVWF  xEF
085F4:  MOVLW  01
085F6:  MOVWF  xF0
085F8:  MOVLW  02
085FA:  MOVWF  xF1
085FC:  MOVLB  0
085FE:  CALL   568A
....................       else 
08602:  BRA    861E
....................       {displayTiempo(Tpurgap[1],70,40,0,2);} 
08604:  MOVFF  4FA,5ED
08608:  MOVLW  46
0860A:  MOVLB  5
0860C:  MOVWF  xEE
0860E:  MOVLW  28
08610:  MOVWF  xEF
08612:  CLRF   xF0
08614:  MOVLW  02
08616:  MOVWF  xF1
08618:  MOVLB  0
0861A:  CALL   568A
....................        
....................       if(unidad==1) 
0861E:  MOVLB  4
08620:  DECFSZ xCE,W
08622:  BRA    8642
....................       {displayTiempo(Tpurgap[0],90,40,1,2);} 
08624:  MOVFF  4F9,5ED
08628:  MOVLW  5A
0862A:  MOVLB  5
0862C:  MOVWF  xEE
0862E:  MOVLW  28
08630:  MOVWF  xEF
08632:  MOVLW  01
08634:  MOVWF  xF0
08636:  MOVLW  02
08638:  MOVWF  xF1
0863A:  MOVLB  0
0863C:  CALL   568A
....................       else 
08640:  BRA    865C
....................       {displayTiempo(Tpurgap[0],90,40,0,2);} 
08642:  MOVFF  4F9,5ED
08646:  MOVLW  5A
08648:  MOVLB  5
0864A:  MOVWF  xEE
0864C:  MOVLW  28
0864E:  MOVWF  xEF
08650:  CLRF   xF0
08652:  MOVLW  02
08654:  MOVWF  xF1
08656:  MOVLB  0
08658:  CALL   568A
....................        
....................       glcd_text57(60, 42, Dos_puntos, 2, ON); 
0865C:  MOVLW  3C
0865E:  MOVLB  6
08660:  MOVWF  x06
08662:  MOVLW  2A
08664:  MOVWF  x07
08666:  MOVLW  04
08668:  MOVWF  x09
0866A:  MOVLW  51
0866C:  MOVWF  x08
0866E:  MOVLW  02
08670:  MOVWF  x0A
08672:  MOVLW  01
08674:  MOVWF  x0B
08676:  MOVLB  0
08678:  CALL   18BE
....................           
....................          
....................       if(UP)//Si oprime hacia arriba 
0867C:  BSF    F92.5
0867E:  BTFSC  F80.5
08680:  BRA    86AC
....................       {  if(Flanco == 0)  
08682:  MOVLB  4
08684:  BTFSC  x2D.0
08686:  BRA    86AA
....................             {Flanco = 1;delay_ms(30);Tpurgap[unidad-1]++; 
08688:  BSF    x2D.0
0868A:  MOVLW  1E
0868C:  MOVLB  6
0868E:  MOVWF  x01
08690:  MOVLB  0
08692:  CALL   1568
08696:  MOVLW  01
08698:  MOVLB  4
0869A:  SUBWF  xCE,W
0869C:  CLRF   03
0869E:  ADDLW  F9
086A0:  MOVWF  FE9
086A2:  MOVLW  04
086A4:  ADDWFC 03,W
086A6:  MOVWF  FEA
086A8:  INCF   FEF,F
....................             } 
....................       } 
....................          else 
086AA:  BRA    86B0
....................             {Flanco = 0;} 
086AC:  MOVLB  4
086AE:  BCF    x2D.0
....................              
....................       if(DOWN)//Si oprime hacia abajo 
086B0:  BSF    F96.0
086B2:  BTFSC  F84.0
086B4:  BRA    86DE
....................       {  if(Flanco2 == 0)  
086B6:  BTFSC  x2D.2
086B8:  BRA    86DC
....................             {Flanco2 = 1;delay_ms(30);Tpurgap[unidad-1]--; 
086BA:  BSF    x2D.2
086BC:  MOVLW  1E
086BE:  MOVLB  6
086C0:  MOVWF  x01
086C2:  MOVLB  0
086C4:  CALL   1568
086C8:  MOVLW  01
086CA:  MOVLB  4
086CC:  SUBWF  xCE,W
086CE:  CLRF   03
086D0:  ADDLW  F9
086D2:  MOVWF  FE9
086D4:  MOVLW  04
086D6:  ADDWFC 03,W
086D8:  MOVWF  FEA
086DA:  DECF   FEF,F
....................             }      
....................       } 
....................          else 
086DC:  BRA    86E0
....................             {Flanco2 = 0;}   
086DE:  BCF    x2D.2
....................              
....................       if(RIGHT)//Si oprime SET 
086E0:  BSF    F96.1
086E2:  BTFSC  F84.1
086E4:  BRA    86FE
....................       {  if(Flanco1 == 0)  
086E6:  BTFSC  x2D.1
086E8:  BRA    86FC
....................             {Flanco1 = 1;delay_ms(30);unidad--; 
086EA:  BSF    x2D.1
086EC:  MOVLW  1E
086EE:  MOVLB  6
086F0:  MOVWF  x01
086F2:  MOVLB  0
086F4:  CALL   1568
086F8:  MOVLB  4
086FA:  DECF   xCE,F
....................             } 
....................       } 
....................          else 
086FC:  BRA    8700
....................             {Flanco1 = 0;}   
086FE:  BCF    x2D.1
....................              
....................       if(LEFT)//Si oprime boton de Toma. 
08700:  BSF    F96.2
08702:  BTFSC  F84.2
08704:  BRA    880A
....................       { 
....................          delay_ms(70);Menu=4;glcd_fillscreen(OFF);Opcion=1;unidad=1; 
08706:  MOVLW  46
08708:  MOVLB  6
0870A:  MOVWF  x01
0870C:  MOVLB  0
0870E:  CALL   1568
08712:  MOVLW  04
08714:  MOVLB  4
08716:  MOVWF  xCD
08718:  MOVLB  5
0871A:  CLRF   xF5
0871C:  MOVLB  0
0871E:  CALL   1648
08722:  MOVLW  01
08724:  MOVLB  4
08726:  MOVWF  xCF
08728:  MOVWF  xCE
....................          write_eeprom(4,Tpurgap[0]); 
0872A:  CLRF   FAA
0872C:  MOVLW  04
0872E:  MOVWF  FA9
08730:  MOVFF  4F9,FA8
08734:  BCF    FA6.6
08736:  BCF    FA6.7
08738:  BSF    FA6.2
0873A:  MOVF   FF2,W
0873C:  MOVWF  00
0873E:  BCF    FF2.7
08740:  MOVLB  F
08742:  MOVLW  55
08744:  MOVWF  FA7
08746:  MOVLW  AA
08748:  MOVWF  FA7
0874A:  BSF    FA6.1
0874C:  BTFSC  FA6.1
0874E:  BRA    874C
08750:  BCF    FA6.2
08752:  MOVF   00,W
08754:  IORWF  FF2,F
....................          delay_ms(20); 
08756:  MOVLW  14
08758:  MOVLB  6
0875A:  MOVWF  x01
0875C:  MOVLB  0
0875E:  CALL   1568
....................          write_eeprom(5,Tpurgap[1]); 
08762:  CLRF   FAA
08764:  MOVLW  05
08766:  MOVWF  FA9
08768:  MOVFF  4FA,FA8
0876C:  BCF    FA6.6
0876E:  BCF    FA6.7
08770:  BSF    FA6.2
08772:  MOVF   FF2,W
08774:  MOVWF  00
08776:  BCF    FF2.7
08778:  MOVLB  F
0877A:  MOVLW  55
0877C:  MOVWF  FA7
0877E:  MOVLW  AA
08780:  MOVWF  FA7
08782:  BSF    FA6.1
08784:  BTFSC  FA6.1
08786:  BRA    8784
08788:  BCF    FA6.2
0878A:  MOVF   00,W
0878C:  IORWF  FF2,F
....................          delay_ms(20); 
0878E:  MOVLW  14
08790:  MOVLB  6
08792:  MOVWF  x01
08794:  MOVLB  0
08796:  CALL   1568
....................          write_eeprom(6,Tpurgap[2]); 
0879A:  CLRF   FAA
0879C:  MOVLW  06
0879E:  MOVWF  FA9
087A0:  MOVFF  4FB,FA8
087A4:  BCF    FA6.6
087A6:  BCF    FA6.7
087A8:  BSF    FA6.2
087AA:  MOVF   FF2,W
087AC:  MOVWF  00
087AE:  BCF    FF2.7
087B0:  MOVLB  F
087B2:  MOVLW  55
087B4:  MOVWF  FA7
087B6:  MOVLW  AA
087B8:  MOVWF  FA7
087BA:  BSF    FA6.1
087BC:  BTFSC  FA6.1
087BE:  BRA    87BC
087C0:  BCF    FA6.2
087C2:  MOVF   00,W
087C4:  IORWF  FF2,F
....................          delay_ms(20); 
087C6:  MOVLW  14
087C8:  MOVLB  6
087CA:  MOVWF  x01
087CC:  MOVLB  0
087CE:  CALL   1568
....................          write_eeprom(7,Tpurgap[3]); 
087D2:  CLRF   FAA
087D4:  MOVLW  07
087D6:  MOVWF  FA9
087D8:  MOVFF  4FC,FA8
087DC:  BCF    FA6.6
087DE:  BCF    FA6.7
087E0:  BSF    FA6.2
087E2:  MOVF   FF2,W
087E4:  MOVWF  00
087E6:  BCF    FF2.7
087E8:  MOVLB  F
087EA:  MOVLW  55
087EC:  MOVWF  FA7
087EE:  MOVLW  AA
087F0:  MOVWF  FA7
087F2:  BSF    FA6.1
087F4:  BTFSC  FA6.1
087F6:  BRA    87F4
087F8:  BCF    FA6.2
087FA:  MOVF   00,W
087FC:  IORWF  FF2,F
....................          delay_ms(20); 
087FE:  MOVLW  14
08800:  MOVLB  6
08802:  MOVWF  x01
08804:  MOVLB  0
08806:  CALL   1568
....................       } 
....................        
....................       for(i=0;i<4;i++) 
0880A:  MOVLB  5
0880C:  CLRF   xDD
0880E:  MOVF   xDD,W
08810:  SUBLW  03
08812:  BNC   8866
....................       { 
....................          if(Tpurgap[i]>9) 
08814:  CLRF   03
08816:  MOVF   xDD,W
08818:  ADDLW  F9
0881A:  MOVWF  FE9
0881C:  MOVLW  04
0881E:  ADDWFC 03,W
08820:  MOVWF  FEA
08822:  BTFSC  FEF.7
08824:  BRA    883C
08826:  MOVF   FEF,W
08828:  SUBLW  09
0882A:  BC    883C
....................          {Tpurgap[i]=0;} 
0882C:  CLRF   03
0882E:  MOVF   xDD,W
08830:  ADDLW  F9
08832:  MOVWF  FE9
08834:  MOVLW  04
08836:  ADDWFC 03,W
08838:  MOVWF  FEA
0883A:  CLRF   FEF
....................           
....................          if(Tpurgap[i]<0) 
0883C:  CLRF   03
0883E:  MOVF   xDD,W
08840:  ADDLW  F9
08842:  MOVWF  FE9
08844:  MOVLW  04
08846:  ADDWFC 03,W
08848:  MOVWF  FEA
0884A:  BTFSC  FEF.7
0884C:  BRA    8850
0884E:  BRA    8862
....................          {Tpurgap[i]=9;} 
08850:  CLRF   03
08852:  MOVF   xDD,W
08854:  ADDLW  F9
08856:  MOVWF  FE9
08858:  MOVLW  04
0885A:  ADDWFC 03,W
0885C:  MOVWF  FEA
0885E:  MOVLW  09
08860:  MOVWF  FEF
....................       }       
08862:  INCF   xDD,F
08864:  BRA    880E
....................       for(i=1;i<4;i++) 
08866:  MOVLW  01
08868:  MOVWF  xDD
0886A:  MOVF   xDD,W
0886C:  SUBLW  03
0886E:  BNC   88C4
....................       { 
....................          if(Tpurgap[i]>5) 
08870:  CLRF   03
08872:  MOVF   xDD,W
08874:  ADDLW  F9
08876:  MOVWF  FE9
08878:  MOVLW  04
0887A:  ADDWFC 03,W
0887C:  MOVWF  FEA
0887E:  BTFSC  FEF.7
08880:  BRA    8898
08882:  MOVF   FEF,W
08884:  SUBLW  05
08886:  BC    8898
....................          {Tpurgap[i]=0;} 
08888:  CLRF   03
0888A:  MOVF   xDD,W
0888C:  ADDLW  F9
0888E:  MOVWF  FE9
08890:  MOVLW  04
08892:  ADDWFC 03,W
08894:  MOVWF  FEA
08896:  CLRF   FEF
....................           
....................          if(Tpurgap[i]<0) 
08898:  CLRF   03
0889A:  MOVF   xDD,W
0889C:  ADDLW  F9
0889E:  MOVWF  FE9
088A0:  MOVLW  04
088A2:  ADDWFC 03,W
088A4:  MOVWF  FEA
088A6:  BTFSC  FEF.7
088A8:  BRA    88AC
088AA:  BRA    88BE
....................          {Tpurgap[i]=5;} 
088AC:  CLRF   03
088AE:  MOVF   xDD,W
088B0:  ADDLW  F9
088B2:  MOVWF  FE9
088B4:  MOVLW  04
088B6:  ADDWFC 03,W
088B8:  MOVWF  FEA
088BA:  MOVLW  05
088BC:  MOVWF  FEF
....................         i++;  
088BE:  INCF   xDD,F
....................       } 
088C0:  INCF   xDD,F
088C2:  BRA    886A
....................       if(unidad<1) 
088C4:  MOVLB  4
088C6:  MOVF   xCE,F
088C8:  BNZ   88CE
....................       {unidad=4;} 
088CA:  MOVLW  04
088CC:  MOVWF  xCE
....................       if(Opcion<1) 
088CE:  MOVF   xCF,F
088D0:  BNZ   88D6
....................       {Opcion=4;} 
088D2:  MOVLW  04
088D4:  MOVWF  xCF
....................      
....................     } 
.................... //_--------------------------------------------------------------------------------------------------------------------------------------------------------        
....................  
.................... //_-------------------------------------------------------------------------------------------------------------------------------------------------------- 
....................       if(Menu==12){ //Menu de Tempo UV. 
088D6:  MOVF   xCD,W
088D8:  SUBLW  0C
088DA:  BTFSS  FD8.2
088DC:  BRA    8CA6
....................        
....................       strcpy(Menus.Letra,"T. UV"); 
088DE:  MOVLW  04
088E0:  MOVWF  FEA
088E2:  MOVLW  17
088E4:  MOVWF  FE9
088E6:  MOVFF  FF2,5ED
088EA:  BCF    FF2.7
088EC:  MOVLW  00
088EE:  MOVLB  0
088F0:  CALL   11DC
088F4:  TBLRD*-
088F6:  TBLRD*+
088F8:  MOVF   FF5,W
088FA:  MOVWF  FEE
088FC:  IORLW  00
088FE:  BNZ   88F6
08900:  MOVLB  5
08902:  BTFSC  xED.7
08904:  BSF    FF2.7
....................       displayMenu(Menus.Letra,30,0,1,2); 
08906:  MOVLW  04
08908:  MOVWF  xF6
0890A:  MOVLW  17
0890C:  MOVWF  xF5
0890E:  MOVLW  1E
08910:  MOVWF  xF7
08912:  CLRF   xF8
08914:  MOVLW  01
08916:  MOVWF  xF9
08918:  MOVLW  02
0891A:  MOVWF  xFA
0891C:  MOVLB  0
0891E:  CALL   4EC6
....................        
....................       if(unidad==4) 
08922:  MOVLB  4
08924:  MOVF   xCE,W
08926:  SUBLW  04
08928:  BNZ   8948
....................       {displayTiempo(Tempouvp[3],20,40,1,2);} 
0892A:  MOVFF  508,5ED
0892E:  MOVLW  14
08930:  MOVLB  5
08932:  MOVWF  xEE
08934:  MOVLW  28
08936:  MOVWF  xEF
08938:  MOVLW  01
0893A:  MOVWF  xF0
0893C:  MOVLW  02
0893E:  MOVWF  xF1
08940:  MOVLB  0
08942:  CALL   568A
....................       else 
08946:  BRA    8962
....................       {displayTiempo(Tempouvp[3],20,40,0,2);} 
08948:  MOVFF  508,5ED
0894C:  MOVLW  14
0894E:  MOVLB  5
08950:  MOVWF  xEE
08952:  MOVLW  28
08954:  MOVWF  xEF
08956:  CLRF   xF0
08958:  MOVLW  02
0895A:  MOVWF  xF1
0895C:  MOVLB  0
0895E:  CALL   568A
....................        
....................       if(unidad==3) 
08962:  MOVLB  4
08964:  MOVF   xCE,W
08966:  SUBLW  03
08968:  BNZ   8986
....................       {displayTiempo(Tempouvp[2],40,40,1,2);} 
0896A:  MOVFF  507,5ED
0896E:  MOVLW  28
08970:  MOVLB  5
08972:  MOVWF  xEE
08974:  MOVWF  xEF
08976:  MOVLW  01
08978:  MOVWF  xF0
0897A:  MOVLW  02
0897C:  MOVWF  xF1
0897E:  MOVLB  0
08980:  CALL   568A
....................       else 
08984:  BRA    899E
....................       {displayTiempo(Tempouvp[2],40,40,0,2);} 
08986:  MOVFF  507,5ED
0898A:  MOVLW  28
0898C:  MOVLB  5
0898E:  MOVWF  xEE
08990:  MOVWF  xEF
08992:  CLRF   xF0
08994:  MOVLW  02
08996:  MOVWF  xF1
08998:  MOVLB  0
0899A:  CALL   568A
....................        
....................       if(unidad==2) 
0899E:  MOVLB  4
089A0:  MOVF   xCE,W
089A2:  SUBLW  02
089A4:  BNZ   89C4
....................       {displayTiempo(Tempouvp[1],70,40,1,2);} 
089A6:  MOVFF  506,5ED
089AA:  MOVLW  46
089AC:  MOVLB  5
089AE:  MOVWF  xEE
089B0:  MOVLW  28
089B2:  MOVWF  xEF
089B4:  MOVLW  01
089B6:  MOVWF  xF0
089B8:  MOVLW  02
089BA:  MOVWF  xF1
089BC:  MOVLB  0
089BE:  CALL   568A
....................       else 
089C2:  BRA    89DE
....................       {displayTiempo(Tempouvp[1],70,40,0,2);} 
089C4:  MOVFF  506,5ED
089C8:  MOVLW  46
089CA:  MOVLB  5
089CC:  MOVWF  xEE
089CE:  MOVLW  28
089D0:  MOVWF  xEF
089D2:  CLRF   xF0
089D4:  MOVLW  02
089D6:  MOVWF  xF1
089D8:  MOVLB  0
089DA:  CALL   568A
....................        
....................       if(unidad==1) 
089DE:  MOVLB  4
089E0:  DECFSZ xCE,W
089E2:  BRA    8A02
....................       {displayTiempo(Tempouvp[0],90,40,1,2);} 
089E4:  MOVFF  505,5ED
089E8:  MOVLW  5A
089EA:  MOVLB  5
089EC:  MOVWF  xEE
089EE:  MOVLW  28
089F0:  MOVWF  xEF
089F2:  MOVLW  01
089F4:  MOVWF  xF0
089F6:  MOVLW  02
089F8:  MOVWF  xF1
089FA:  MOVLB  0
089FC:  CALL   568A
....................       else 
08A00:  BRA    8A1C
....................       {displayTiempo(Tempouvp[0],90,40,0,2);} 
08A02:  MOVFF  505,5ED
08A06:  MOVLW  5A
08A08:  MOVLB  5
08A0A:  MOVWF  xEE
08A0C:  MOVLW  28
08A0E:  MOVWF  xEF
08A10:  CLRF   xF0
08A12:  MOVLW  02
08A14:  MOVWF  xF1
08A16:  MOVLB  0
08A18:  CALL   568A
....................        
....................       glcd_text57(60, 42, Dos_puntos, 2, ON); 
08A1C:  MOVLW  3C
08A1E:  MOVLB  6
08A20:  MOVWF  x06
08A22:  MOVLW  2A
08A24:  MOVWF  x07
08A26:  MOVLW  04
08A28:  MOVWF  x09
08A2A:  MOVLW  51
08A2C:  MOVWF  x08
08A2E:  MOVLW  02
08A30:  MOVWF  x0A
08A32:  MOVLW  01
08A34:  MOVWF  x0B
08A36:  MOVLB  0
08A38:  CALL   18BE
....................           
....................          
....................       if(UP)//Si oprime hacia arriba 
08A3C:  BSF    F92.5
08A3E:  BTFSC  F80.5
08A40:  BRA    8A6C
....................       {  if(Flanco == 0)  
08A42:  MOVLB  4
08A44:  BTFSC  x2D.0
08A46:  BRA    8A6A
....................             {Flanco = 1;delay_ms(30);Tempouvp[unidad-1]++; 
08A48:  BSF    x2D.0
08A4A:  MOVLW  1E
08A4C:  MOVLB  6
08A4E:  MOVWF  x01
08A50:  MOVLB  0
08A52:  CALL   1568
08A56:  MOVLW  01
08A58:  MOVLB  4
08A5A:  SUBWF  xCE,W
08A5C:  CLRF   03
08A5E:  ADDLW  05
08A60:  MOVWF  FE9
08A62:  MOVLW  05
08A64:  ADDWFC 03,W
08A66:  MOVWF  FEA
08A68:  INCF   FEF,F
....................             } 
....................       } 
....................          else 
08A6A:  BRA    8A70
....................             {Flanco = 0;} 
08A6C:  MOVLB  4
08A6E:  BCF    x2D.0
....................              
....................       if(DOWN )//Si oprime hacia abajo 
08A70:  BSF    F96.0
08A72:  BTFSC  F84.0
08A74:  BRA    8A9E
....................       {  if(Flanco2 == 0)  
08A76:  BTFSC  x2D.2
08A78:  BRA    8A9C
....................             {Flanco2 = 1;delay_ms(30);Tempouvp[unidad-1]--; 
08A7A:  BSF    x2D.2
08A7C:  MOVLW  1E
08A7E:  MOVLB  6
08A80:  MOVWF  x01
08A82:  MOVLB  0
08A84:  CALL   1568
08A88:  MOVLW  01
08A8A:  MOVLB  4
08A8C:  SUBWF  xCE,W
08A8E:  CLRF   03
08A90:  ADDLW  05
08A92:  MOVWF  FE9
08A94:  MOVLW  05
08A96:  ADDWFC 03,W
08A98:  MOVWF  FEA
08A9A:  DECF   FEF,F
....................             }      
....................       } 
....................          else 
08A9C:  BRA    8AA0
....................             {Flanco2 = 0;}   
08A9E:  BCF    x2D.2
....................              
....................       if(RIGHT)//Si oprime SET 
08AA0:  BSF    F96.1
08AA2:  BTFSC  F84.1
08AA4:  BRA    8ABE
....................       {  if(Flanco1 == 0)  
08AA6:  BTFSC  x2D.1
08AA8:  BRA    8ABC
....................             {Flanco1 = 1;delay_ms(30);unidad--; 
08AAA:  BSF    x2D.1
08AAC:  MOVLW  1E
08AAE:  MOVLB  6
08AB0:  MOVWF  x01
08AB2:  MOVLB  0
08AB4:  CALL   1568
08AB8:  MOVLB  4
08ABA:  DECF   xCE,F
....................             } 
....................       } 
....................          else 
08ABC:  BRA    8AC0
....................             {Flanco1 = 0;}   
08ABE:  BCF    x2D.1
....................              
....................       if(LEFT)//Si oprime boton de Toma. 
08AC0:  BSF    F96.2
08AC2:  BTFSC  F84.2
08AC4:  BRA    8BD8
....................       { 
....................          delay_ms(70);Menu=4;glcd_fillscreen(OFF);Opcion=1;unidad=1; 
08AC6:  MOVLW  46
08AC8:  MOVLB  6
08ACA:  MOVWF  x01
08ACC:  MOVLB  0
08ACE:  CALL   1568
08AD2:  MOVLW  04
08AD4:  MOVLB  4
08AD6:  MOVWF  xCD
08AD8:  MOVLB  5
08ADA:  CLRF   xF5
08ADC:  MOVLB  0
08ADE:  CALL   1648
08AE2:  MOVLW  01
08AE4:  MOVLB  4
08AE6:  MOVWF  xCF
08AE8:  MOVWF  xCE
....................          write_eeprom(21,Tempouvp[0]); 
08AEA:  CLRF   FAA
08AEC:  MOVLW  15
08AEE:  MOVWF  FA9
08AF0:  MOVFF  505,FA8
08AF4:  BCF    FA6.6
08AF6:  BCF    FA6.7
08AF8:  BSF    FA6.2
08AFA:  MOVF   FF2,W
08AFC:  MOVWF  00
08AFE:  BCF    FF2.7
08B00:  MOVLB  F
08B02:  MOVLW  55
08B04:  MOVWF  FA7
08B06:  MOVLW  AA
08B08:  MOVWF  FA7
08B0A:  BSF    FA6.1
08B0C:  BTFSC  FA6.1
08B0E:  BRA    8B0C
08B10:  BCF    FA6.2
08B12:  MOVF   00,W
08B14:  IORWF  FF2,F
....................          delay_ms(20); 
08B16:  MOVLW  14
08B18:  MOVLB  6
08B1A:  MOVWF  x01
08B1C:  MOVLB  0
08B1E:  CALL   1568
....................          write_eeprom(22,Tempouvp[1]); 
08B22:  CLRF   FAA
08B24:  MOVLW  16
08B26:  MOVWF  FA9
08B28:  MOVFF  506,FA8
08B2C:  BCF    FA6.6
08B2E:  BCF    FA6.7
08B30:  BSF    FA6.2
08B32:  MOVF   FF2,W
08B34:  MOVWF  00
08B36:  BCF    FF2.7
08B38:  MOVLB  F
08B3A:  MOVLW  55
08B3C:  MOVWF  FA7
08B3E:  MOVLW  AA
08B40:  MOVWF  FA7
08B42:  BSF    FA6.1
08B44:  BTFSC  FA6.1
08B46:  BRA    8B44
08B48:  BCF    FA6.2
08B4A:  MOVF   00,W
08B4C:  IORWF  FF2,F
....................          delay_ms(20); 
08B4E:  MOVLW  14
08B50:  MOVLB  6
08B52:  MOVWF  x01
08B54:  MOVLB  0
08B56:  CALL   1568
....................          write_eeprom(23,Tempouvp[2]); 
08B5A:  CLRF   FAA
08B5C:  MOVLW  17
08B5E:  MOVWF  FA9
08B60:  MOVFF  507,FA8
08B64:  BCF    FA6.6
08B66:  BCF    FA6.7
08B68:  BSF    FA6.2
08B6A:  MOVF   FF2,W
08B6C:  MOVWF  00
08B6E:  BCF    FF2.7
08B70:  MOVLB  F
08B72:  MOVLW  55
08B74:  MOVWF  FA7
08B76:  MOVLW  AA
08B78:  MOVWF  FA7
08B7A:  BSF    FA6.1
08B7C:  BTFSC  FA6.1
08B7E:  BRA    8B7C
08B80:  BCF    FA6.2
08B82:  MOVF   00,W
08B84:  IORWF  FF2,F
....................          delay_ms(20); 
08B86:  MOVLW  14
08B88:  MOVLB  6
08B8A:  MOVWF  x01
08B8C:  MOVLB  0
08B8E:  CALL   1568
....................          write_eeprom(24,Tempouvp[3]); 
08B92:  CLRF   FAA
08B94:  MOVLW  18
08B96:  MOVWF  FA9
08B98:  MOVFF  508,FA8
08B9C:  BCF    FA6.6
08B9E:  BCF    FA6.7
08BA0:  BSF    FA6.2
08BA2:  MOVF   FF2,W
08BA4:  MOVWF  00
08BA6:  BCF    FF2.7
08BA8:  MOVLB  F
08BAA:  MOVLW  55
08BAC:  MOVWF  FA7
08BAE:  MOVLW  AA
08BB0:  MOVWF  FA7
08BB2:  BSF    FA6.1
08BB4:  BTFSC  FA6.1
08BB6:  BRA    8BB4
08BB8:  BCF    FA6.2
08BBA:  MOVF   00,W
08BBC:  IORWF  FF2,F
....................          delay_ms(20); 
08BBE:  MOVLW  14
08BC0:  MOVLB  6
08BC2:  MOVWF  x01
08BC4:  MOVLB  0
08BC6:  CALL   1568
....................          Tempouv[0]=0;Tempouv[1]=0;Tempouv[2]=0;Tempouv[3]=0; 
08BCA:  MOVLB  5
08BCC:  CLRF   x09
08BCE:  CLRF   x0A
08BD0:  CLRF   x0B
08BD2:  CLRF   x0C
....................          tiempocumplido=1; 
08BD4:  MOVLB  4
08BD6:  BSF    x2F.2
....................       } 
....................              
....................       for(i=0;i<3;i++) 
08BD8:  MOVLB  5
08BDA:  CLRF   xDD
08BDC:  MOVF   xDD,W
08BDE:  SUBLW  02
08BE0:  BNC   8C36
....................       { 
....................          if(Tempouvp[i]>9) 
08BE2:  CLRF   03
08BE4:  MOVF   xDD,W
08BE6:  ADDLW  05
08BE8:  MOVWF  FE9
08BEA:  MOVLW  05
08BEC:  ADDWFC 03,W
08BEE:  MOVWF  FEA
08BF0:  BTFSC  FEF.7
08BF2:  BRA    8C0A
08BF4:  MOVF   FEF,W
08BF6:  SUBLW  09
08BF8:  BC    8C0A
....................          {Tempouvp[i]=0;} 
08BFA:  CLRF   03
08BFC:  MOVF   xDD,W
08BFE:  ADDLW  05
08C00:  MOVWF  FE9
08C02:  MOVLW  05
08C04:  ADDWFC 03,W
08C06:  MOVWF  FEA
08C08:  CLRF   FEF
....................           
....................          if(Tempouvp[i]<0) 
08C0A:  CLRF   03
08C0C:  MOVF   xDD,W
08C0E:  ADDLW  05
08C10:  MOVWF  FE9
08C12:  MOVLW  05
08C14:  ADDWFC 03,W
08C16:  MOVWF  FEA
08C18:  BTFSC  FEF.7
08C1A:  BRA    8C1E
08C1C:  BRA    8C30
....................          {Tempouvp[i]=9;} 
08C1E:  CLRF   03
08C20:  MOVF   xDD,W
08C22:  ADDLW  05
08C24:  MOVWF  FE9
08C26:  MOVLW  05
08C28:  ADDWFC 03,W
08C2A:  MOVWF  FEA
08C2C:  MOVLW  09
08C2E:  MOVWF  FEF
....................          i++; 
08C30:  INCF   xDD,F
....................       }       
08C32:  INCF   xDD,F
08C34:  BRA    8BDC
....................       for(i=1;i<4;i++) 
08C36:  MOVLW  01
08C38:  MOVWF  xDD
08C3A:  MOVF   xDD,W
08C3C:  SUBLW  03
08C3E:  BNC   8C94
....................       { 
....................          if(Tempouvp[i]>5) 
08C40:  CLRF   03
08C42:  MOVF   xDD,W
08C44:  ADDLW  05
08C46:  MOVWF  FE9
08C48:  MOVLW  05
08C4A:  ADDWFC 03,W
08C4C:  MOVWF  FEA
08C4E:  BTFSC  FEF.7
08C50:  BRA    8C68
08C52:  MOVF   FEF,W
08C54:  SUBLW  05
08C56:  BC    8C68
....................          {Tempouvp[i]=0;} 
08C58:  CLRF   03
08C5A:  MOVF   xDD,W
08C5C:  ADDLW  05
08C5E:  MOVWF  FE9
08C60:  MOVLW  05
08C62:  ADDWFC 03,W
08C64:  MOVWF  FEA
08C66:  CLRF   FEF
....................           
....................          if(Tempouvp[i]<0) 
08C68:  CLRF   03
08C6A:  MOVF   xDD,W
08C6C:  ADDLW  05
08C6E:  MOVWF  FE9
08C70:  MOVLW  05
08C72:  ADDWFC 03,W
08C74:  MOVWF  FEA
08C76:  BTFSC  FEF.7
08C78:  BRA    8C7C
08C7A:  BRA    8C8E
....................          {Tempouvp[i]=5;} 
08C7C:  CLRF   03
08C7E:  MOVF   xDD,W
08C80:  ADDLW  05
08C82:  MOVWF  FE9
08C84:  MOVLW  05
08C86:  ADDWFC 03,W
08C88:  MOVWF  FEA
08C8A:  MOVLW  05
08C8C:  MOVWF  FEF
....................         i++;  
08C8E:  INCF   xDD,F
....................       }       
08C90:  INCF   xDD,F
08C92:  BRA    8C3A
....................       if(unidad<1) 
08C94:  MOVLB  4
08C96:  MOVF   xCE,F
08C98:  BNZ   8C9E
....................       {unidad=4;} 
08C9A:  MOVLW  04
08C9C:  MOVWF  xCE
....................       if(Opcion<1) 
08C9E:  MOVF   xCF,F
08CA0:  BNZ   8CA6
....................       {Opcion=4;} 
08CA2:  MOVLW  04
08CA4:  MOVWF  xCF
....................      
....................     } 
.................... //_--------------------------------------------------------------------------------------------------------------------------------------------------------        
....................  
.................... //_-------------------------------------------------------------------------------------------------------------------------------------------------------- 
....................       if(Menu==5){ //Menu de Clave. 
08CA6:  MOVF   xCD,W
08CA8:  SUBLW  05
08CAA:  BNZ   8D0A
....................  
....................       PidePassword(3,5,211,Password[0],Password[1],Password[2],Password[3]); 
08CAC:  MOVLW  03
08CAE:  MOVLB  5
08CB0:  MOVWF  xEE
08CB2:  MOVLW  05
08CB4:  MOVWF  xEF
08CB6:  MOVLW  D3
08CB8:  MOVWF  xF0
08CBA:  MOVFF  515,5F1
08CBE:  MOVFF  516,5F2
08CC2:  MOVFF  517,5F3
08CC6:  MOVFF  518,5F4
08CCA:  MOVLB  0
08CCC:  CALL   4FA2
....................              
....................       if(LEFT)//Si oprime boton de Toma. 
08CD0:  BSF    F96.2
08CD2:  BTFSC  F84.2
08CD4:  BRA    8D0C
....................       { 
....................          delay_ms(200); 
08CD6:  MOVLW  C8
08CD8:  MOVLB  6
08CDA:  MOVWF  x01
08CDC:  MOVLB  0
08CDE:  CALL   1568
....................          if(unidad==1){ 
08CE2:  MOVLB  4
08CE4:  DECFSZ xCE,W
08CE6:  BRA    8D0A
....................             Menu=3;glcd_fillscreen(OFF);Opcion=1;unidad=1;Contrasena[0]=0;Contrasena[1]=0;Contrasena[2]=0;Contrasena[3]=0; 
08CE8:  MOVLW  03
08CEA:  MOVWF  xCD
08CEC:  MOVLB  5
08CEE:  CLRF   xF5
08CF0:  MOVLB  0
08CF2:  CALL   1648
08CF6:  MOVLW  01
08CF8:  MOVLB  4
08CFA:  MOVWF  xCF
08CFC:  MOVWF  xCE
08CFE:  MOVLB  5
08D00:  CLRF   x11
08D02:  CLRF   x12
08D04:  CLRF   x13
08D06:  CLRF   x14
08D08:  MOVLB  4
08D0A:  MOVLB  0
....................          } 
....................       }  
....................     } 
.................... //_--------------------------------------------------------------------------------------------------------------------------------------------------------        
....................  
.................... //_-------------------------------------------------------------------------------------------------------------------------------------------------------- 
....................       if(Menu==211){ //Menu de Cambio Clave. 
08D0C:  MOVLB  4
08D0E:  MOVF   xCD,W
08D10:  SUBLW  D3
08D12:  BTFSS  FD8.2
08D14:  BRA    91B8
....................        
....................       if(n==0) 
08D16:  BTFSC  x2F.5
08D18:  BRA    8D78
....................       { 
....................          displayContrasena(Contrasena[0],20,30,1);displayContrasena(Contrasena[1],40,30,0); 
08D1A:  MOVFF  511,5F7
08D1E:  MOVLW  14
08D20:  MOVLB  5
08D22:  MOVWF  xF8
08D24:  MOVLW  1E
08D26:  MOVWF  xF9
08D28:  MOVLW  01
08D2A:  MOVWF  xFA
08D2C:  MOVLB  0
08D2E:  CALL   4DF2
08D32:  MOVFF  512,5F7
08D36:  MOVLW  28
08D38:  MOVLB  5
08D3A:  MOVWF  xF8
08D3C:  MOVLW  1E
08D3E:  MOVWF  xF9
08D40:  CLRF   xFA
08D42:  MOVLB  0
08D44:  CALL   4DF2
....................          displayContrasena(Contrasena[2],60,30,0);displayContrasena(Contrasena[0],80,30,0); 
08D48:  MOVFF  513,5F7
08D4C:  MOVLW  3C
08D4E:  MOVLB  5
08D50:  MOVWF  xF8
08D52:  MOVLW  1E
08D54:  MOVWF  xF9
08D56:  CLRF   xFA
08D58:  MOVLB  0
08D5A:  CALL   4DF2
08D5E:  MOVFF  511,5F7
08D62:  MOVLW  50
08D64:  MOVLB  5
08D66:  MOVWF  xF8
08D68:  MOVLW  1E
08D6A:  MOVWF  xF9
08D6C:  CLRF   xFA
08D6E:  MOVLB  0
08D70:  CALL   4DF2
....................          n=1; 
08D74:  MOVLB  4
08D76:  BSF    x2F.5
....................       } 
....................       strcpy(Menus.Letra,"Clave Nueva"); 
08D78:  MOVLW  04
08D7A:  MOVWF  FEA
08D7C:  MOVLW  17
08D7E:  MOVWF  FE9
08D80:  MOVFF  FF2,5ED
08D84:  BCF    FF2.7
08D86:  MOVLW  00
08D88:  MOVLB  0
08D8A:  CALL   1200
08D8E:  TBLRD*-
08D90:  TBLRD*+
08D92:  MOVF   FF5,W
08D94:  MOVWF  FEE
08D96:  IORLW  00
08D98:  BNZ   8D90
08D9A:  MOVLB  5
08D9C:  BTFSC  xED.7
08D9E:  BSF    FF2.7
....................       displayMenu(Menus.Letra,0,0,1,2); 
08DA0:  MOVLW  04
08DA2:  MOVWF  xF6
08DA4:  MOVLW  17
08DA6:  MOVWF  xF5
08DA8:  CLRF   xF7
08DAA:  CLRF   xF8
08DAC:  MOVLW  01
08DAE:  MOVWF  xF9
08DB0:  MOVLW  02
08DB2:  MOVWF  xFA
08DB4:  MOVLB  0
08DB6:  CALL   4EC6
....................          
....................        
....................       if(UP)//Si oprime hacia arriba 
08DBA:  BSF    F92.5
08DBC:  BTFSC  F80.5
08DBE:  BRA    8E98
....................       {  if(Flanco == 0)  
08DC0:  MOVLB  4
08DC2:  BTFSC  x2D.0
08DC4:  BRA    8E96
....................             {Flanco = 1;delay_ms(30); 
08DC6:  BSF    x2D.0
08DC8:  MOVLW  1E
08DCA:  MOVLB  6
08DCC:  MOVWF  x01
08DCE:  MOVLB  0
08DD0:  CALL   1568
....................             for(i=1;i<=4;i++) 
08DD4:  MOVLW  01
08DD6:  MOVLB  5
08DD8:  MOVWF  xDD
08DDA:  MOVF   xDD,W
08DDC:  SUBLW  04
08DDE:  BNC   8E94
....................                { 
....................                   if(unidad==i) 
08DE0:  MOVF   xDD,W
08DE2:  MOVLB  4
08DE4:  SUBWF  xCE,W
08DE6:  BNZ   8E5C
....................                   {Contrasena[i-1]++; 
08DE8:  MOVLW  01
08DEA:  MOVLB  5
08DEC:  SUBWF  xDD,W
08DEE:  CLRF   03
08DF0:  ADDLW  11
08DF2:  MOVWF  FE9
08DF4:  MOVLW  05
08DF6:  ADDWFC 03,W
08DF8:  MOVWF  FEA
08DFA:  INCF   FEF,F
....................                   if(Contrasena[i-1]>9) 
08DFC:  MOVLW  01
08DFE:  SUBWF  xDD,W
08E00:  CLRF   03
08E02:  ADDLW  11
08E04:  MOVWF  FE9
08E06:  MOVLW  05
08E08:  ADDWFC 03,W
08E0A:  MOVWF  FEA
08E0C:  BTFSC  FEF.7
08E0E:  BRA    8E28
08E10:  MOVF   FEF,W
08E12:  SUBLW  09
08E14:  BC    8E28
....................                         {Contrasena[i-1]=0;} 
08E16:  MOVLW  01
08E18:  SUBWF  xDD,W
08E1A:  CLRF   03
08E1C:  ADDLW  11
08E1E:  MOVWF  FE9
08E20:  MOVLW  05
08E22:  ADDWFC 03,W
08E24:  MOVWF  FEA
08E26:  CLRF   FEF
....................                   displayContrasena(Contrasena[i-1],i*20,30,1);} 
08E28:  MOVLW  01
08E2A:  SUBWF  xDD,W
08E2C:  CLRF   03
08E2E:  ADDLW  11
08E30:  MOVWF  FE9
08E32:  MOVLW  05
08E34:  ADDWFC 03,W
08E36:  MOVWF  FEA
08E38:  MOVFF  FEF,5ED
08E3C:  MOVF   xDD,W
08E3E:  MULLW  14
08E40:  MOVFF  FF3,5EE
08E44:  MOVFF  5ED,5F7
08E48:  MOVFF  5EE,5F8
08E4C:  MOVLW  1E
08E4E:  MOVWF  xF9
08E50:  MOVLW  01
08E52:  MOVWF  xFA
08E54:  MOVLB  0
08E56:  CALL   4DF2
....................                   else 
08E5A:  BRA    8E8E
....................                   {displayContrasena(Contrasena[i-1],i*20,30,0);} 
08E5C:  MOVLW  01
08E5E:  MOVLB  5
08E60:  SUBWF  xDD,W
08E62:  CLRF   03
08E64:  ADDLW  11
08E66:  MOVWF  FE9
08E68:  MOVLW  05
08E6A:  ADDWFC 03,W
08E6C:  MOVWF  FEA
08E6E:  MOVFF  FEF,5ED
08E72:  MOVF   xDD,W
08E74:  MULLW  14
08E76:  MOVFF  FF3,5EE
08E7A:  MOVFF  5ED,5F7
08E7E:  MOVFF  5EE,5F8
08E82:  MOVLW  1E
08E84:  MOVWF  xF9
08E86:  CLRF   xFA
08E88:  MOVLB  0
08E8A:  CALL   4DF2
....................                } 
08E8E:  MOVLB  5
08E90:  INCF   xDD,F
08E92:  BRA    8DDA
08E94:  MOVLB  4
....................             } 
....................       } 
....................          else 
08E96:  BRA    8E9C
....................             {Flanco = 0;} 
08E98:  MOVLB  4
08E9A:  BCF    x2D.0
....................              
....................       if(DOWN )//Si oprime hacia abajo 
08E9C:  BSF    F96.0
08E9E:  BTFSC  F84.0
08EA0:  BRA    8F76
....................       {  if(Flanco2 == 0)  
08EA2:  BTFSC  x2D.2
08EA4:  BRA    8F74
....................             {Flanco2 = 1;delay_ms(30); 
08EA6:  BSF    x2D.2
08EA8:  MOVLW  1E
08EAA:  MOVLB  6
08EAC:  MOVWF  x01
08EAE:  MOVLB  0
08EB0:  CALL   1568
....................                for(i=1;i<=4;i++) 
08EB4:  MOVLW  01
08EB6:  MOVLB  5
08EB8:  MOVWF  xDD
08EBA:  MOVF   xDD,W
08EBC:  SUBLW  04
08EBE:  BNC   8F72
....................                { 
....................                   if(unidad==i) 
08EC0:  MOVF   xDD,W
08EC2:  MOVLB  4
08EC4:  SUBWF  xCE,W
08EC6:  BNZ   8F3A
....................                   {Contrasena[i-1]--;  
08EC8:  MOVLW  01
08ECA:  MOVLB  5
08ECC:  SUBWF  xDD,W
08ECE:  CLRF   03
08ED0:  ADDLW  11
08ED2:  MOVWF  FE9
08ED4:  MOVLW  05
08ED6:  ADDWFC 03,W
08ED8:  MOVWF  FEA
08EDA:  DECF   FEF,F
....................                      if(Contrasena[i-1]<0) 
08EDC:  MOVLW  01
08EDE:  SUBWF  xDD,W
08EE0:  CLRF   03
08EE2:  ADDLW  11
08EE4:  MOVWF  FE9
08EE6:  MOVLW  05
08EE8:  ADDWFC 03,W
08EEA:  MOVWF  FEA
08EEC:  BTFSC  FEF.7
08EEE:  BRA    8EF2
08EF0:  BRA    8F06
....................                         {Contrasena[i-1]=9;} 
08EF2:  MOVLW  01
08EF4:  SUBWF  xDD,W
08EF6:  CLRF   03
08EF8:  ADDLW  11
08EFA:  MOVWF  FE9
08EFC:  MOVLW  05
08EFE:  ADDWFC 03,W
08F00:  MOVWF  FEA
08F02:  MOVLW  09
08F04:  MOVWF  FEF
....................                    displayContrasena(Contrasena[i-1],i*20,30,1);} 
08F06:  MOVLW  01
08F08:  SUBWF  xDD,W
08F0A:  CLRF   03
08F0C:  ADDLW  11
08F0E:  MOVWF  FE9
08F10:  MOVLW  05
08F12:  ADDWFC 03,W
08F14:  MOVWF  FEA
08F16:  MOVFF  FEF,5ED
08F1A:  MOVF   xDD,W
08F1C:  MULLW  14
08F1E:  MOVFF  FF3,5EE
08F22:  MOVFF  5ED,5F7
08F26:  MOVFF  5EE,5F8
08F2A:  MOVLW  1E
08F2C:  MOVWF  xF9
08F2E:  MOVLW  01
08F30:  MOVWF  xFA
08F32:  MOVLB  0
08F34:  CALL   4DF2
....................                   else 
08F38:  BRA    8F6C
....................                   {displayContrasena(Contrasena[i-1],i*20,30,0);} 
08F3A:  MOVLW  01
08F3C:  MOVLB  5
08F3E:  SUBWF  xDD,W
08F40:  CLRF   03
08F42:  ADDLW  11
08F44:  MOVWF  FE9
08F46:  MOVLW  05
08F48:  ADDWFC 03,W
08F4A:  MOVWF  FEA
08F4C:  MOVFF  FEF,5ED
08F50:  MOVF   xDD,W
08F52:  MULLW  14
08F54:  MOVFF  FF3,5EE
08F58:  MOVFF  5ED,5F7
08F5C:  MOVFF  5EE,5F8
08F60:  MOVLW  1E
08F62:  MOVWF  xF9
08F64:  CLRF   xFA
08F66:  MOVLB  0
08F68:  CALL   4DF2
....................                }       
08F6C:  MOVLB  5
08F6E:  INCF   xDD,F
08F70:  BRA    8EBA
08F72:  MOVLB  4
....................             }      
....................       } 
....................          else 
08F74:  BRA    8F78
....................             {Flanco2 = 0;}   
08F76:  BCF    x2D.2
....................              
....................       if(RIGHT)//Si oprime SET 
08F78:  BSF    F96.1
08F7A:  BTFSC  F84.1
08F7C:  BRA    901A
....................       {  if(Flanco1 == 0)  
08F7E:  BTFSC  x2D.1
08F80:  BRA    9018
....................             {Flanco1 = 1;delay_ms(30);unidad++; 
08F82:  BSF    x2D.1
08F84:  MOVLW  1E
08F86:  MOVLB  6
08F88:  MOVWF  x01
08F8A:  MOVLB  0
08F8C:  CALL   1568
08F90:  MOVLB  4
08F92:  INCF   xCE,F
....................                for(i=1;i<=4;i++) 
08F94:  MOVLW  01
08F96:  MOVLB  5
08F98:  MOVWF  xDD
08F9A:  MOVF   xDD,W
08F9C:  SUBLW  04
08F9E:  BNC   9016
....................                { 
....................                   if(unidad==i) 
08FA0:  MOVF   xDD,W
08FA2:  MOVLB  4
08FA4:  SUBWF  xCE,W
08FA6:  BNZ   8FDE
....................                   {displayContrasena(Contrasena[i-1],i*20,30,1);} 
08FA8:  MOVLW  01
08FAA:  MOVLB  5
08FAC:  SUBWF  xDD,W
08FAE:  CLRF   03
08FB0:  ADDLW  11
08FB2:  MOVWF  FE9
08FB4:  MOVLW  05
08FB6:  ADDWFC 03,W
08FB8:  MOVWF  FEA
08FBA:  MOVFF  FEF,5ED
08FBE:  MOVF   xDD,W
08FC0:  MULLW  14
08FC2:  MOVFF  FF3,5EE
08FC6:  MOVFF  5ED,5F7
08FCA:  MOVFF  5EE,5F8
08FCE:  MOVLW  1E
08FD0:  MOVWF  xF9
08FD2:  MOVLW  01
08FD4:  MOVWF  xFA
08FD6:  MOVLB  0
08FD8:  CALL   4DF2
....................                   else 
08FDC:  BRA    9010
....................                   {displayContrasena(Contrasena[i-1],i*20,30,0);} 
08FDE:  MOVLW  01
08FE0:  MOVLB  5
08FE2:  SUBWF  xDD,W
08FE4:  CLRF   03
08FE6:  ADDLW  11
08FE8:  MOVWF  FE9
08FEA:  MOVLW  05
08FEC:  ADDWFC 03,W
08FEE:  MOVWF  FEA
08FF0:  MOVFF  FEF,5ED
08FF4:  MOVF   xDD,W
08FF6:  MULLW  14
08FF8:  MOVFF  FF3,5EE
08FFC:  MOVFF  5ED,5F7
09000:  MOVFF  5EE,5F8
09004:  MOVLW  1E
09006:  MOVWF  xF9
09008:  CLRF   xFA
0900A:  MOVLB  0
0900C:  CALL   4DF2
....................                } 
09010:  MOVLB  5
09012:  INCF   xDD,F
09014:  BRA    8F9A
09016:  MOVLB  4
....................             } 
....................       } 
....................          else 
09018:  BRA    901C
....................             {Flanco1 = 0;}   
0901A:  BCF    x2D.1
....................              
....................       if(LEFT)//Si oprime boton de Toma. 
0901C:  BSF    F96.2
0901E:  BTFSC  F84.2
09020:  BRA    9062
....................       { 
....................          
....................          delay_ms(700); 
09022:  MOVLW  04
09024:  MOVLB  5
09026:  MOVWF  xED
09028:  MOVLW  AF
0902A:  MOVLB  6
0902C:  MOVWF  x01
0902E:  MOVLB  0
09030:  CALL   1568
09034:  MOVLB  5
09036:  DECFSZ xED,F
09038:  BRA    9028
....................          if(unidad==1){ 
0903A:  MOVLB  4
0903C:  DECFSZ xCE,W
0903E:  BRA    9062
....................             Menu=3;glcd_fillscreen(OFF);Opcion=1;unidad=1;Contrasena[0]=0;Contrasena[1]=0;Contrasena[2]=0;Contrasena[3]=0; 
09040:  MOVLW  03
09042:  MOVWF  xCD
09044:  MOVLB  5
09046:  CLRF   xF5
09048:  MOVLB  0
0904A:  CALL   1648
0904E:  MOVLW  01
09050:  MOVLB  4
09052:  MOVWF  xCF
09054:  MOVWF  xCE
09056:  MOVLB  5
09058:  CLRF   x11
0905A:  CLRF   x12
0905C:  CLRF   x13
0905E:  CLRF   x14
09060:  MOVLB  4
....................          } 
....................       } 
....................        
....................       if(unidad>4) 
09062:  MOVF   xCE,W
09064:  SUBLW  04
09066:  BTFSC  FD8.0
09068:  BRA    91B8
....................       { 
....................          Opcion=1;glcd_fillscreen(OFF);unidad=1;n=0; 
0906A:  MOVLW  01
0906C:  MOVWF  xCF
0906E:  MOVLB  5
09070:  CLRF   xF5
09072:  MOVLB  0
09074:  CALL   1648
09078:  MOVLW  01
0907A:  MOVLB  4
0907C:  MOVWF  xCE
0907E:  BCF    x2F.5
....................          Password[0]=Contrasena[0];Password[1]=Contrasena[1];Password[2]=Contrasena[2];Password[3]=Contrasena[3]; 
09080:  MOVFF  511,515
09084:  MOVFF  512,516
09088:  MOVFF  513,517
0908C:  MOVFF  514,518
....................          write_eeprom(0,Password[0]); 
09090:  CLRF   FAA
09092:  CLRF   FA9
09094:  MOVFF  515,FA8
09098:  BCF    FA6.6
0909A:  BCF    FA6.7
0909C:  BSF    FA6.2
0909E:  MOVF   FF2,W
090A0:  MOVWF  00
090A2:  BCF    FF2.7
090A4:  MOVLB  F
090A6:  MOVLW  55
090A8:  MOVWF  FA7
090AA:  MOVLW  AA
090AC:  MOVWF  FA7
090AE:  BSF    FA6.1
090B0:  BTFSC  FA6.1
090B2:  BRA    90B0
090B4:  BCF    FA6.2
090B6:  MOVF   00,W
090B8:  IORWF  FF2,F
....................          delay_ms(20); 
090BA:  MOVLW  14
090BC:  MOVLB  6
090BE:  MOVWF  x01
090C0:  MOVLB  0
090C2:  CALL   1568
....................          write_eeprom(1,Password[1]); 
090C6:  CLRF   FAA
090C8:  MOVLW  01
090CA:  MOVWF  FA9
090CC:  MOVFF  516,FA8
090D0:  BCF    FA6.6
090D2:  BCF    FA6.7
090D4:  BSF    FA6.2
090D6:  MOVF   FF2,W
090D8:  MOVWF  00
090DA:  BCF    FF2.7
090DC:  MOVLB  F
090DE:  MOVLW  55
090E0:  MOVWF  FA7
090E2:  MOVLW  AA
090E4:  MOVWF  FA7
090E6:  BSF    FA6.1
090E8:  BTFSC  FA6.1
090EA:  BRA    90E8
090EC:  BCF    FA6.2
090EE:  MOVF   00,W
090F0:  IORWF  FF2,F
....................          delay_ms(20); 
090F2:  MOVLW  14
090F4:  MOVLB  6
090F6:  MOVWF  x01
090F8:  MOVLB  0
090FA:  CALL   1568
....................          write_eeprom(2,Password[2]); 
090FE:  CLRF   FAA
09100:  MOVLW  02
09102:  MOVWF  FA9
09104:  MOVFF  517,FA8
09108:  BCF    FA6.6
0910A:  BCF    FA6.7
0910C:  BSF    FA6.2
0910E:  MOVF   FF2,W
09110:  MOVWF  00
09112:  BCF    FF2.7
09114:  MOVLB  F
09116:  MOVLW  55
09118:  MOVWF  FA7
0911A:  MOVLW  AA
0911C:  MOVWF  FA7
0911E:  BSF    FA6.1
09120:  BTFSC  FA6.1
09122:  BRA    9120
09124:  BCF    FA6.2
09126:  MOVF   00,W
09128:  IORWF  FF2,F
....................          delay_ms(20); 
0912A:  MOVLW  14
0912C:  MOVLB  6
0912E:  MOVWF  x01
09130:  MOVLB  0
09132:  CALL   1568
....................          write_eeprom(3,Password[3]); 
09136:  CLRF   FAA
09138:  MOVLW  03
0913A:  MOVWF  FA9
0913C:  MOVFF  518,FA8
09140:  BCF    FA6.6
09142:  BCF    FA6.7
09144:  BSF    FA6.2
09146:  MOVF   FF2,W
09148:  MOVWF  00
0914A:  BCF    FF2.7
0914C:  MOVLB  F
0914E:  MOVLW  55
09150:  MOVWF  FA7
09152:  MOVLW  AA
09154:  MOVWF  FA7
09156:  BSF    FA6.1
09158:  BTFSC  FA6.1
0915A:  BRA    9158
0915C:  BCF    FA6.2
0915E:  MOVF   00,W
09160:  IORWF  FF2,F
....................          delay_ms(20); 
09162:  MOVLW  14
09164:  MOVLB  6
09166:  MOVWF  x01
09168:  MOVLB  0
0916A:  CALL   1568
....................          glcd_imagen(1);glcd_update();Menu=211;delay_ms(1000);glcd_fillScreen(OFF);Menu=3; 
0916E:  MOVLW  01
09170:  MOVLB  5
09172:  MOVWF  xED
09174:  MOVLB  0
09176:  CALL   5DEA
0917A:  CALL   16A2
0917E:  MOVLW  D3
09180:  MOVLB  4
09182:  MOVWF  xCD
09184:  MOVLW  04
09186:  MOVLB  5
09188:  MOVWF  xED
0918A:  MOVLW  FA
0918C:  MOVLB  6
0918E:  MOVWF  x01
09190:  MOVLB  0
09192:  CALL   1568
09196:  MOVLB  5
09198:  DECFSZ xED,F
0919A:  BRA    918A
0919C:  CLRF   xF5
0919E:  MOVLB  0
091A0:  CALL   1648
091A4:  MOVLW  03
091A6:  MOVLB  4
091A8:  MOVWF  xCD
....................          n=0; 
091AA:  BCF    x2F.5
....................          Contrasena[0]=0;Contrasena[1]=0;Contrasena[2]=0;Contrasena[3]=0; 
091AC:  MOVLB  5
091AE:  CLRF   x11
091B0:  CLRF   x12
091B2:  CLRF   x13
091B4:  CLRF   x14
091B6:  MOVLB  4
....................       } 
....................      
....................     } 
.................... //_--------------------------------------------------------------------------------------------------------------------------------------------------------        
....................  
.................... //_-------------------------------------------------------------------------------------------------------------------------------------------------------- 
....................       if(Menu==31){ //Menu de Mantenimiento. 
091B8:  MOVF   xCD,W
091BA:  SUBLW  1F
091BC:  BTFSS  FD8.2
091BE:  BRA    95E6
....................        
....................          strcpy(Menus.Letra,"Manteniento"); 
091C0:  MOVLW  04
091C2:  MOVWF  FEA
091C4:  MOVLW  17
091C6:  MOVWF  FE9
091C8:  MOVFF  FF2,5ED
091CC:  BCF    FF2.7
091CE:  MOVLW  00
091D0:  MOVLB  0
091D2:  CALL   122A
091D6:  TBLRD*-
091D8:  TBLRD*+
091DA:  MOVF   FF5,W
091DC:  MOVWF  FEE
091DE:  IORLW  00
091E0:  BNZ   91D8
091E2:  MOVLB  5
091E4:  BTFSC  xED.7
091E6:  BSF    FF2.7
....................          displayMenu(Menus.Letra,0,0,1,2); 
091E8:  MOVLW  04
091EA:  MOVWF  xF6
091EC:  MOVLW  17
091EE:  MOVWF  xF5
091F0:  CLRF   xF7
091F2:  CLRF   xF8
091F4:  MOVLW  01
091F6:  MOVWF  xF9
091F8:  MOVLW  02
091FA:  MOVWF  xFA
091FC:  MOVLB  0
091FE:  CALL   4EC6
....................           
....................          strcpy(Menus.Letra,"Trabajo Filtro(h):"); 
09202:  MOVLW  04
09204:  MOVWF  FEA
09206:  MOVLW  17
09208:  MOVWF  FE9
0920A:  MOVFF  FF2,5ED
0920E:  BCF    FF2.7
09210:  MOVLW  00
09212:  CALL   1254
09216:  TBLRD*-
09218:  TBLRD*+
0921A:  MOVF   FF5,W
0921C:  MOVWF  FEE
0921E:  IORLW  00
09220:  BNZ   9218
09222:  MOVLB  5
09224:  BTFSC  xED.7
09226:  BSF    FF2.7
....................          displayMenu(Menus.Letra,10,20,1,1); 
09228:  MOVLW  04
0922A:  MOVWF  xF6
0922C:  MOVLW  17
0922E:  MOVWF  xF5
09230:  MOVLW  0A
09232:  MOVWF  xF7
09234:  MOVLW  14
09236:  MOVWF  xF8
09238:  MOVLW  01
0923A:  MOVWF  xF9
0923C:  MOVWF  xFA
0923E:  MOVLB  0
09240:  CALL   4EC6
....................          glcd_text57(0, 31, Vida_Filtro, 1, ON); 
09244:  MOVLB  6
09246:  CLRF   x06
09248:  MOVLW  1F
0924A:  MOVWF  x07
0924C:  MOVLW  04
0924E:  MOVWF  x09
09250:  MOVLW  93
09252:  MOVWF  x08
09254:  MOVLW  01
09256:  MOVWF  x0A
09258:  MOVWF  x0B
0925A:  MOVLB  0
0925C:  CALL   18BE
....................          displayTiempo(Ttrabajo[3],60,30,0,1);displayTiempo(Ttrabajo[2],67,30,0,1);displayTiempo(Ttrabajo[1],74,30,0,1);displayTiempo(Ttrabajo[0],82,30,0,1); 
09260:  MOVFF  510,5ED
09264:  MOVLW  3C
09266:  MOVLB  5
09268:  MOVWF  xEE
0926A:  MOVLW  1E
0926C:  MOVWF  xEF
0926E:  CLRF   xF0
09270:  MOVLW  01
09272:  MOVWF  xF1
09274:  MOVLB  0
09276:  CALL   568A
0927A:  MOVFF  50F,5ED
0927E:  MOVLW  43
09280:  MOVLB  5
09282:  MOVWF  xEE
09284:  MOVLW  1E
09286:  MOVWF  xEF
09288:  CLRF   xF0
0928A:  MOVLW  01
0928C:  MOVWF  xF1
0928E:  MOVLB  0
09290:  CALL   568A
09294:  MOVFF  50E,5ED
09298:  MOVLW  4A
0929A:  MOVLB  5
0929C:  MOVWF  xEE
0929E:  MOVLW  1E
092A0:  MOVWF  xEF
092A2:  CLRF   xF0
092A4:  MOVLW  01
092A6:  MOVWF  xF1
092A8:  MOVLB  0
092AA:  CALL   568A
092AE:  MOVFF  50D,5ED
092B2:  MOVLW  52
092B4:  MOVLB  5
092B6:  MOVWF  xEE
092B8:  MOVLW  1E
092BA:  MOVWF  xEF
092BC:  CLRF   xF0
092BE:  MOVLW  01
092C0:  MOVWF  xF1
092C2:  MOVLB  0
092C4:  CALL   568A
....................           
....................          strcpy(Menus.Letra,"Trabajo Luz UV(h):"); 
092C8:  MOVLW  04
092CA:  MOVWF  FEA
092CC:  MOVLW  17
092CE:  MOVWF  FE9
092D0:  MOVFF  FF2,5ED
092D4:  BCF    FF2.7
092D6:  MOVLW  00
092D8:  CALL   1286
092DC:  TBLRD*-
092DE:  TBLRD*+
092E0:  MOVF   FF5,W
092E2:  MOVWF  FEE
092E4:  IORLW  00
092E6:  BNZ   92DE
092E8:  MOVLB  5
092EA:  BTFSC  xED.7
092EC:  BSF    FF2.7
....................          displayMenu(Menus.Letra,0,40,1,1); 
092EE:  MOVLW  04
092F0:  MOVWF  xF6
092F2:  MOVLW  17
092F4:  MOVWF  xF5
092F6:  CLRF   xF7
092F8:  MOVLW  28
092FA:  MOVWF  xF8
092FC:  MOVLW  01
092FE:  MOVWF  xF9
09300:  MOVWF  xFA
09302:  MOVLB  0
09304:  CALL   4EC6
....................          glcd_text57(0, 53, Vida_UV, 1, ON); 
09308:  MOVLB  6
0930A:  CLRF   x06
0930C:  MOVLW  35
0930E:  MOVWF  x07
09310:  MOVLW  04
09312:  MOVWF  x09
09314:  MOVLW  C5
09316:  MOVWF  x08
09318:  MOVLW  01
0931A:  MOVWF  x0A
0931C:  MOVWF  x0B
0931E:  MOVLB  0
09320:  CALL   18BE
....................          displayTiempo(Tuv[3],60,52,0,1);displayTiempo(Tuv[2],67,52,0,1);displayTiempo(Tuv[1],74,52,0,1);displayTiempo(Tuv[0],82,52,0,1);                  
09324:  MOVFF  504,5ED
09328:  MOVLW  3C
0932A:  MOVLB  5
0932C:  MOVWF  xEE
0932E:  MOVLW  34
09330:  MOVWF  xEF
09332:  CLRF   xF0
09334:  MOVLW  01
09336:  MOVWF  xF1
09338:  MOVLB  0
0933A:  CALL   568A
0933E:  MOVFF  503,5ED
09342:  MOVLW  43
09344:  MOVLB  5
09346:  MOVWF  xEE
09348:  MOVLW  34
0934A:  MOVWF  xEF
0934C:  CLRF   xF0
0934E:  MOVLW  01
09350:  MOVWF  xF1
09352:  MOVLB  0
09354:  CALL   568A
09358:  MOVFF  502,5ED
0935C:  MOVLW  4A
0935E:  MOVLB  5
09360:  MOVWF  xEE
09362:  MOVLW  34
09364:  MOVWF  xEF
09366:  CLRF   xF0
09368:  MOVLW  01
0936A:  MOVWF  xF1
0936C:  MOVLB  0
0936E:  CALL   568A
09372:  MOVFF  501,5ED
09376:  MOVLW  52
09378:  MOVLB  5
0937A:  MOVWF  xEE
0937C:  MOVLW  34
0937E:  MOVWF  xEF
09380:  CLRF   xF0
09382:  MOVLW  01
09384:  MOVWF  xF1
09386:  MOVLB  0
09388:  CALL   568A
....................           
....................          LuzBlanca_on; 
0938C:  BSF    F8B.0
0938E:  BCF    F94.0
....................           
....................             if(UP && RIGHT) // Reinicia Tiempo de Luz UV 
09390:  BSF    F92.5
09392:  BTFSC  F80.5
09394:  BRA    94AA
09396:  BSF    F96.1
09398:  BTFSC  F84.1
0939A:  BRA    94AA
....................             { 
....................                   delay_ms(2000); 
0939C:  MOVLW  08
0939E:  MOVLB  5
093A0:  MOVWF  xED
093A2:  MOVLW  FA
093A4:  MOVLB  6
093A6:  MOVWF  x01
093A8:  MOVLB  0
093AA:  CALL   1568
093AE:  MOVLB  5
093B0:  DECFSZ xED,F
093B2:  BRA    93A2
....................                   write_eeprom(12,0); 
093B4:  CLRF   FAA
093B6:  MOVLW  0C
093B8:  MOVWF  FA9
093BA:  CLRF   FA8
093BC:  BCF    FA6.6
093BE:  BCF    FA6.7
093C0:  BSF    FA6.2
093C2:  MOVF   FF2,W
093C4:  MOVWF  00
093C6:  BCF    FF2.7
093C8:  MOVLB  F
093CA:  MOVLW  55
093CC:  MOVWF  FA7
093CE:  MOVLW  AA
093D0:  MOVWF  FA7
093D2:  BSF    FA6.1
093D4:  BTFSC  FA6.1
093D6:  BRA    93D4
093D8:  BCF    FA6.2
093DA:  MOVF   00,W
093DC:  IORWF  FF2,F
....................                   delay_ms(20); 
093DE:  MOVLW  14
093E0:  MOVLB  6
093E2:  MOVWF  x01
093E4:  MOVLB  0
093E6:  CALL   1568
....................                   write_eeprom(13,0); 
093EA:  CLRF   FAA
093EC:  MOVLW  0D
093EE:  MOVWF  FA9
093F0:  CLRF   FA8
093F2:  BCF    FA6.6
093F4:  BCF    FA6.7
093F6:  BSF    FA6.2
093F8:  MOVF   FF2,W
093FA:  MOVWF  00
093FC:  BCF    FF2.7
093FE:  MOVLB  F
09400:  MOVLW  55
09402:  MOVWF  FA7
09404:  MOVLW  AA
09406:  MOVWF  FA7
09408:  BSF    FA6.1
0940A:  BTFSC  FA6.1
0940C:  BRA    940A
0940E:  BCF    FA6.2
09410:  MOVF   00,W
09412:  IORWF  FF2,F
....................                   delay_ms(20); 
09414:  MOVLW  14
09416:  MOVLB  6
09418:  MOVWF  x01
0941A:  MOVLB  0
0941C:  CALL   1568
....................                   write_eeprom(14,0); 
09420:  CLRF   FAA
09422:  MOVLW  0E
09424:  MOVWF  FA9
09426:  CLRF   FA8
09428:  BCF    FA6.6
0942A:  BCF    FA6.7
0942C:  BSF    FA6.2
0942E:  MOVF   FF2,W
09430:  MOVWF  00
09432:  BCF    FF2.7
09434:  MOVLB  F
09436:  MOVLW  55
09438:  MOVWF  FA7
0943A:  MOVLW  AA
0943C:  MOVWF  FA7
0943E:  BSF    FA6.1
09440:  BTFSC  FA6.1
09442:  BRA    9440
09444:  BCF    FA6.2
09446:  MOVF   00,W
09448:  IORWF  FF2,F
....................                   delay_ms(20); 
0944A:  MOVLW  14
0944C:  MOVLB  6
0944E:  MOVWF  x01
09450:  MOVLB  0
09452:  CALL   1568
....................                   write_eeprom(15,0); 
09456:  CLRF   FAA
09458:  MOVLW  0F
0945A:  MOVWF  FA9
0945C:  CLRF   FA8
0945E:  BCF    FA6.6
09460:  BCF    FA6.7
09462:  BSF    FA6.2
09464:  MOVF   FF2,W
09466:  MOVWF  00
09468:  BCF    FF2.7
0946A:  MOVLB  F
0946C:  MOVLW  55
0946E:  MOVWF  FA7
09470:  MOVLW  AA
09472:  MOVWF  FA7
09474:  BSF    FA6.1
09476:  BTFSC  FA6.1
09478:  BRA    9476
0947A:  BCF    FA6.2
0947C:  MOVF   00,W
0947E:  IORWF  FF2,F
....................                   delay_ms(20); 
09480:  MOVLW  14
09482:  MOVLB  6
09484:  MOVWF  x01
09486:  MOVLB  0
09488:  CALL   1568
....................                   Tuv[3]=0;Tuv[2]=0;Tuv[1]=0;Tuv[0]=0; 
0948C:  MOVLB  5
0948E:  CLRF   x04
09490:  CLRF   x03
09492:  CLRF   x02
09494:  CLRF   x01
....................                   Menu=3;glcd_fillscreen(OFF);LuzBlanca_off; 
09496:  MOVLW  03
09498:  MOVLB  4
0949A:  MOVWF  xCD
0949C:  MOVLB  5
0949E:  CLRF   xF5
094A0:  MOVLB  0
094A2:  CALL   1648
094A6:  BCF    F8B.0
094A8:  BCF    F94.0
....................                 
....................             } 
....................             if(DOWN && RIGHT) // Reinicia Tiempo de Trabajo 
094AA:  BSF    F96.0
094AC:  BTFSC  F84.0
094AE:  BRA    95C4
094B0:  BSF    F96.1
094B2:  BTFSC  F84.1
094B4:  BRA    95C4
....................             { 
....................                   delay_ms(2000); 
094B6:  MOVLW  08
094B8:  MOVLB  5
094BA:  MOVWF  xED
094BC:  MOVLW  FA
094BE:  MOVLB  6
094C0:  MOVWF  x01
094C2:  MOVLB  0
094C4:  CALL   1568
094C8:  MOVLB  5
094CA:  DECFSZ xED,F
094CC:  BRA    94BC
....................                   write_eeprom(16,0); 
094CE:  CLRF   FAA
094D0:  MOVLW  10
094D2:  MOVWF  FA9
094D4:  CLRF   FA8
094D6:  BCF    FA6.6
094D8:  BCF    FA6.7
094DA:  BSF    FA6.2
094DC:  MOVF   FF2,W
094DE:  MOVWF  00
094E0:  BCF    FF2.7
094E2:  MOVLB  F
094E4:  MOVLW  55
094E6:  MOVWF  FA7
094E8:  MOVLW  AA
094EA:  MOVWF  FA7
094EC:  BSF    FA6.1
094EE:  BTFSC  FA6.1
094F0:  BRA    94EE
094F2:  BCF    FA6.2
094F4:  MOVF   00,W
094F6:  IORWF  FF2,F
....................                   delay_ms(20); 
094F8:  MOVLW  14
094FA:  MOVLB  6
094FC:  MOVWF  x01
094FE:  MOVLB  0
09500:  CALL   1568
....................                   write_eeprom(17,0); 
09504:  CLRF   FAA
09506:  MOVLW  11
09508:  MOVWF  FA9
0950A:  CLRF   FA8
0950C:  BCF    FA6.6
0950E:  BCF    FA6.7
09510:  BSF    FA6.2
09512:  MOVF   FF2,W
09514:  MOVWF  00
09516:  BCF    FF2.7
09518:  MOVLB  F
0951A:  MOVLW  55
0951C:  MOVWF  FA7
0951E:  MOVLW  AA
09520:  MOVWF  FA7
09522:  BSF    FA6.1
09524:  BTFSC  FA6.1
09526:  BRA    9524
09528:  BCF    FA6.2
0952A:  MOVF   00,W
0952C:  IORWF  FF2,F
....................                   delay_ms(20); 
0952E:  MOVLW  14
09530:  MOVLB  6
09532:  MOVWF  x01
09534:  MOVLB  0
09536:  CALL   1568
....................                   write_eeprom(18,0); 
0953A:  CLRF   FAA
0953C:  MOVLW  12
0953E:  MOVWF  FA9
09540:  CLRF   FA8
09542:  BCF    FA6.6
09544:  BCF    FA6.7
09546:  BSF    FA6.2
09548:  MOVF   FF2,W
0954A:  MOVWF  00
0954C:  BCF    FF2.7
0954E:  MOVLB  F
09550:  MOVLW  55
09552:  MOVWF  FA7
09554:  MOVLW  AA
09556:  MOVWF  FA7
09558:  BSF    FA6.1
0955A:  BTFSC  FA6.1
0955C:  BRA    955A
0955E:  BCF    FA6.2
09560:  MOVF   00,W
09562:  IORWF  FF2,F
....................                   delay_ms(20); 
09564:  MOVLW  14
09566:  MOVLB  6
09568:  MOVWF  x01
0956A:  MOVLB  0
0956C:  CALL   1568
....................                   write_eeprom(19,0); 
09570:  CLRF   FAA
09572:  MOVLW  13
09574:  MOVWF  FA9
09576:  CLRF   FA8
09578:  BCF    FA6.6
0957A:  BCF    FA6.7
0957C:  BSF    FA6.2
0957E:  MOVF   FF2,W
09580:  MOVWF  00
09582:  BCF    FF2.7
09584:  MOVLB  F
09586:  MOVLW  55
09588:  MOVWF  FA7
0958A:  MOVLW  AA
0958C:  MOVWF  FA7
0958E:  BSF    FA6.1
09590:  BTFSC  FA6.1
09592:  BRA    9590
09594:  BCF    FA6.2
09596:  MOVF   00,W
09598:  IORWF  FF2,F
....................                   delay_ms(20); 
0959A:  MOVLW  14
0959C:  MOVLB  6
0959E:  MOVWF  x01
095A0:  MOVLB  0
095A2:  CALL   1568
....................                   Ttrabajo[3]=0;Ttrabajo[2]=0;Ttrabajo[1]=0;Ttrabajo[0]=0; 
095A6:  MOVLB  5
095A8:  CLRF   x10
095AA:  CLRF   x0F
095AC:  CLRF   x0E
095AE:  CLRF   x0D
....................                   Menu=3;glcd_fillscreen(OFF);LuzBlanca_off; 
095B0:  MOVLW  03
095B2:  MOVLB  4
095B4:  MOVWF  xCD
095B6:  MOVLB  5
095B8:  CLRF   xF5
095BA:  MOVLB  0
095BC:  CALL   1648
095C0:  BCF    F8B.0
095C2:  BCF    F94.0
....................             } 
....................              
....................             if(LEFT) 
095C4:  BSF    F96.2
095C6:  BTFSC  F84.2
095C8:  BRA    95E8
....................             { 
....................                Menu=6;glcd_fillscreen(OFF);LuzBlanca_off;Opcion=1;unidad=1; 
095CA:  MOVLW  06
095CC:  MOVLB  4
095CE:  MOVWF  xCD
095D0:  MOVLB  5
095D2:  CLRF   xF5
095D4:  MOVLB  0
095D6:  CALL   1648
095DA:  BCF    F8B.0
095DC:  BCF    F94.0
095DE:  MOVLW  01
095E0:  MOVLB  4
095E2:  MOVWF  xCF
095E4:  MOVWF  xCE
095E6:  MOVLB  0
....................             } 
....................     } 
.................... //_--------------------------------------------------------------------------------------------------------------------------------------------------------        
....................  
.................... //_-------------------------------------------------------------------------------------------------------------------------------------------------------- 
....................       if(Menu==32){ //Menu de Servicio 
095E8:  MOVLB  4
095EA:  MOVF   xCD,W
095EC:  SUBLW  20
095EE:  BTFSS  FD8.2
095F0:  BRA    990A
....................        
....................       strcpy(Menus.Letra,"Servicio"); 
095F2:  MOVLW  04
095F4:  MOVWF  FEA
095F6:  MOVLW  17
095F8:  MOVWF  FE9
095FA:  MOVFF  FF2,5ED
095FE:  BCF    FF2.7
09600:  MOVLW  00
09602:  MOVLB  0
09604:  CALL   118C
09608:  TBLRD*-
0960A:  TBLRD*+
0960C:  MOVF   FF5,W
0960E:  MOVWF  FEE
09610:  IORLW  00
09612:  BNZ   960A
09614:  MOVLB  5
09616:  BTFSC  xED.7
09618:  BSF    FF2.7
....................       displayMenu(Menus.Letra,10,0,1,2); 
0961A:  MOVLW  04
0961C:  MOVWF  xF6
0961E:  MOVLW  17
09620:  MOVWF  xF5
09622:  MOVLW  0A
09624:  MOVWF  xF7
09626:  CLRF   xF8
09628:  MOVLW  01
0962A:  MOVWF  xF9
0962C:  MOVLW  02
0962E:  MOVWF  xFA
09630:  MOVLB  0
09632:  CALL   4EC6
....................        
....................       if(Opcion==1)    
09636:  MOVLB  4
09638:  DECFSZ xCF,W
0963A:  BRA    9682
....................          {strcpy(Menus.Letra,"Sensor de Flujo"); 
0963C:  MOVLW  04
0963E:  MOVWF  FEA
09640:  MOVLW  17
09642:  MOVWF  FE9
09644:  MOVFF  FF2,5ED
09648:  BCF    FF2.7
0964A:  MOVLW  00
0964C:  MOVLB  0
0964E:  CALL   12B8
09652:  TBLRD*-
09654:  TBLRD*+
09656:  MOVF   FF5,W
09658:  MOVWF  FEE
0965A:  IORLW  00
0965C:  BNZ   9654
0965E:  MOVLB  5
09660:  BTFSC  xED.7
09662:  BSF    FF2.7
....................          displayMenu(Menus.Letra,0,18,1,1);} 
09664:  MOVLW  04
09666:  MOVWF  xF6
09668:  MOVLW  17
0966A:  MOVWF  xF5
0966C:  CLRF   xF7
0966E:  MOVLW  12
09670:  MOVWF  xF8
09672:  MOVLW  01
09674:  MOVWF  xF9
09676:  MOVWF  xFA
09678:  MOVLB  0
0967A:  CALL   4EC6
....................       else 
0967E:  BRA    96C4
09680:  MOVLB  4
....................          {strcpy(Menus.Letra,"Sensor de Flujo"); 
09682:  MOVLW  04
09684:  MOVWF  FEA
09686:  MOVLW  17
09688:  MOVWF  FE9
0968A:  MOVFF  FF2,5ED
0968E:  BCF    FF2.7
09690:  MOVLW  00
09692:  MOVLB  0
09694:  CALL   12B8
09698:  TBLRD*-
0969A:  TBLRD*+
0969C:  MOVF   FF5,W
0969E:  MOVWF  FEE
096A0:  IORLW  00
096A2:  BNZ   969A
096A4:  MOVLB  5
096A6:  BTFSC  xED.7
096A8:  BSF    FF2.7
....................          displayMenu(Menus.Letra,0,18,0,1);}  
096AA:  MOVLW  04
096AC:  MOVWF  xF6
096AE:  MOVLW  17
096B0:  MOVWF  xF5
096B2:  CLRF   xF7
096B4:  MOVLW  12
096B6:  MOVWF  xF8
096B8:  CLRF   xF9
096BA:  MOVLW  01
096BC:  MOVWF  xFA
096BE:  MOVLB  0
096C0:  CALL   4EC6
....................           
....................       if(Opcion==2)    
096C4:  MOVLB  4
096C6:  MOVF   xCF,W
096C8:  SUBLW  02
096CA:  BNZ   9712
....................          {strcpy(Menus.Letra,"Sensor de Presion"); 
096CC:  MOVLW  04
096CE:  MOVWF  FEA
096D0:  MOVLW  17
096D2:  MOVWF  FE9
096D4:  MOVFF  FF2,5ED
096D8:  BCF    FF2.7
096DA:  MOVLW  00
096DC:  MOVLB  0
096DE:  CALL   12E6
096E2:  TBLRD*-
096E4:  TBLRD*+
096E6:  MOVF   FF5,W
096E8:  MOVWF  FEE
096EA:  IORLW  00
096EC:  BNZ   96E4
096EE:  MOVLB  5
096F0:  BTFSC  xED.7
096F2:  BSF    FF2.7
....................          displayMenu(Menus.Letra,0,29,1,1);} 
096F4:  MOVLW  04
096F6:  MOVWF  xF6
096F8:  MOVLW  17
096FA:  MOVWF  xF5
096FC:  CLRF   xF7
096FE:  MOVLW  1D
09700:  MOVWF  xF8
09702:  MOVLW  01
09704:  MOVWF  xF9
09706:  MOVWF  xFA
09708:  MOVLB  0
0970A:  CALL   4EC6
....................       else 
0970E:  BRA    9754
09710:  MOVLB  4
....................          {strcpy(Menus.Letra,"Sensor de Presion"); 
09712:  MOVLW  04
09714:  MOVWF  FEA
09716:  MOVLW  17
09718:  MOVWF  FE9
0971A:  MOVFF  FF2,5ED
0971E:  BCF    FF2.7
09720:  MOVLW  00
09722:  MOVLB  0
09724:  CALL   12E6
09728:  TBLRD*-
0972A:  TBLRD*+
0972C:  MOVF   FF5,W
0972E:  MOVWF  FEE
09730:  IORLW  00
09732:  BNZ   972A
09734:  MOVLB  5
09736:  BTFSC  xED.7
09738:  BSF    FF2.7
....................          displayMenu(Menus.Letra,0,29,0,1);}   
0973A:  MOVLW  04
0973C:  MOVWF  xF6
0973E:  MOVLW  17
09740:  MOVWF  xF5
09742:  CLRF   xF7
09744:  MOVLW  1D
09746:  MOVWF  xF8
09748:  CLRF   xF9
0974A:  MOVLW  01
0974C:  MOVWF  xFA
0974E:  MOVLB  0
09750:  CALL   4EC6
....................        
....................       if(Opcion==3)    
09754:  MOVLB  4
09756:  MOVF   xCF,W
09758:  SUBLW  03
0975A:  BNZ   97A2
....................          {strcpy(Menus.Letra,"Velocidad Ventilador"); 
0975C:  MOVLW  04
0975E:  MOVWF  FEA
09760:  MOVLW  17
09762:  MOVWF  FE9
09764:  MOVFF  FF2,5ED
09768:  BCF    FF2.7
0976A:  MOVLW  00
0976C:  MOVLB  0
0976E:  CALL   1316
09772:  TBLRD*-
09774:  TBLRD*+
09776:  MOVF   FF5,W
09778:  MOVWF  FEE
0977A:  IORLW  00
0977C:  BNZ   9774
0977E:  MOVLB  5
09780:  BTFSC  xED.7
09782:  BSF    FF2.7
....................          displayMenu(Menus.Letra,0,40,1,1);} 
09784:  MOVLW  04
09786:  MOVWF  xF6
09788:  MOVLW  17
0978A:  MOVWF  xF5
0978C:  CLRF   xF7
0978E:  MOVLW  28
09790:  MOVWF  xF8
09792:  MOVLW  01
09794:  MOVWF  xF9
09796:  MOVWF  xFA
09798:  MOVLB  0
0979A:  CALL   4EC6
....................       else 
0979E:  BRA    97E4
097A0:  MOVLB  4
....................          {strcpy(Menus.Letra,"Velocidad Ventilador"); 
097A2:  MOVLW  04
097A4:  MOVWF  FEA
097A6:  MOVLW  17
097A8:  MOVWF  FE9
097AA:  MOVFF  FF2,5ED
097AE:  BCF    FF2.7
097B0:  MOVLW  00
097B2:  MOVLB  0
097B4:  CALL   1316
097B8:  TBLRD*-
097BA:  TBLRD*+
097BC:  MOVF   FF5,W
097BE:  MOVWF  FEE
097C0:  IORLW  00
097C2:  BNZ   97BA
097C4:  MOVLB  5
097C6:  BTFSC  xED.7
097C8:  BSF    FF2.7
....................          displayMenu(Menus.Letra,0,40,0,1);}  
097CA:  MOVLW  04
097CC:  MOVWF  xF6
097CE:  MOVLW  17
097D0:  MOVWF  xF5
097D2:  CLRF   xF7
097D4:  MOVLW  28
097D6:  MOVWF  xF8
097D8:  CLRF   xF9
097DA:  MOVLW  01
097DC:  MOVWF  xFA
097DE:  MOVLB  0
097E0:  CALL   4EC6
....................        
....................          
....................       if(UP)//Si oprime hacia arriba 
097E4:  BSF    F92.5
097E6:  BTFSC  F80.5
097E8:  BRA    9804
....................       {  if(Flanco == 0)  
097EA:  MOVLB  4
097EC:  BTFSC  x2D.0
097EE:  BRA    9802
....................             {Flanco = 1;delay_ms(30);Opcion--; 
097F0:  BSF    x2D.0
097F2:  MOVLW  1E
097F4:  MOVLB  6
097F6:  MOVWF  x01
097F8:  MOVLB  0
097FA:  CALL   1568
097FE:  MOVLB  4
09800:  DECF   xCF,F
....................             } 
....................       } 
....................          else 
09802:  BRA    9808
....................             {Flanco = 0;} 
09804:  MOVLB  4
09806:  BCF    x2D.0
....................              
....................       if(DOWN)//Si oprime hacia abajo 
09808:  BSF    F96.0
0980A:  BTFSC  F84.0
0980C:  BRA    9826
....................       {  if(Flanco2 == 0)  
0980E:  BTFSC  x2D.2
09810:  BRA    9824
....................             {Flanco2 = 1;delay_ms(30);Opcion++; 
09812:  BSF    x2D.2
09814:  MOVLW  1E
09816:  MOVLB  6
09818:  MOVWF  x01
0981A:  MOVLB  0
0981C:  CALL   1568
09820:  MOVLB  4
09822:  INCF   xCF,F
....................             }      
....................       } 
....................          else 
09824:  BRA    9828
....................             {Flanco2 = 0;}   
09826:  BCF    x2D.2
....................              
....................       if(RIGHT)//Si oprime SET 
09828:  BSF    F96.1
0982A:  BTFSC  F84.1
0982C:  BRA    98BE
....................       {   
....................          delay_ms(20); 
0982E:  MOVLW  14
09830:  MOVLB  6
09832:  MOVWF  x01
09834:  MOVLB  0
09836:  CALL   1568
....................          if(RIGHT){ 
0983A:  BSF    F96.1
0983C:  BTFSC  F84.1
0983E:  BRA    98C0
....................             delay_ms(100); 
09840:  MOVLW  64
09842:  MOVLB  6
09844:  MOVWF  x01
09846:  MOVLB  0
09848:  CALL   1568
....................             glcd_fillScreen(OFF); 
0984C:  MOVLB  5
0984E:  CLRF   xF5
09850:  MOVLB  0
09852:  CALL   1648
....................             while(!PidePassword(6,32,Opcion+40,4,4,4,4)){ 
09856:  MOVLW  28
09858:  MOVLB  4
0985A:  ADDWF  xCF,W
0985C:  MOVLB  5
0985E:  MOVWF  xED
09860:  MOVLW  06
09862:  MOVWF  xEE
09864:  MOVLW  20
09866:  MOVWF  xEF
09868:  MOVFF  5ED,5F0
0986C:  MOVLW  04
0986E:  MOVWF  xF1
09870:  MOVWF  xF2
09872:  MOVWF  xF3
09874:  MOVWF  xF4
09876:  MOVLB  0
09878:  CALL   4FA2
0987C:  MOVF   01,F
0987E:  BNZ   98AC
....................                PidePassword(6,32,Opcion+40,4,4,4,4);glcd_update(); 
09880:  MOVLW  28
09882:  MOVLB  4
09884:  ADDWF  xCF,W
09886:  MOVLB  5
09888:  MOVWF  xED
0988A:  MOVLW  06
0988C:  MOVWF  xEE
0988E:  MOVLW  20
09890:  MOVWF  xEF
09892:  MOVFF  5ED,5F0
09896:  MOVLW  04
09898:  MOVWF  xF1
0989A:  MOVWF  xF2
0989C:  MOVWF  xF3
0989E:  MOVWF  xF4
098A0:  MOVLB  0
098A2:  CALL   4FA2
098A6:  CALL   16A2
....................             }             
098AA:  BRA    9856
....................             glcd_fillScreen(OFF);Opcion=1;unidad=1; 
098AC:  MOVLB  5
098AE:  CLRF   xF5
098B0:  MOVLB  0
098B2:  CALL   1648
098B6:  MOVLW  01
098B8:  MOVLB  4
098BA:  MOVWF  xCF
098BC:  MOVWF  xCE
098BE:  MOVLB  0
....................          } 
....................       } 
....................              
....................       if(LEFT)//Si oprime boton de Toma. 
098C0:  BSF    F96.2
098C2:  BTFSC  F84.2
098C4:  BRA    98F6
....................         {delay_ms(700);Menu=6;glcd_fillscreen(OFF);Opcion=1;unidad=1;} 
098C6:  MOVLW  04
098C8:  MOVLB  5
098CA:  MOVWF  xED
098CC:  MOVLW  AF
098CE:  MOVLB  6
098D0:  MOVWF  x01
098D2:  MOVLB  0
098D4:  CALL   1568
098D8:  MOVLB  5
098DA:  DECFSZ xED,F
098DC:  BRA    98CC
098DE:  MOVLW  06
098E0:  MOVLB  4
098E2:  MOVWF  xCD
098E4:  MOVLB  5
098E6:  CLRF   xF5
098E8:  MOVLB  0
098EA:  CALL   1648
098EE:  MOVLW  01
098F0:  MOVLB  4
098F2:  MOVWF  xCF
098F4:  MOVWF  xCE
....................          
....................       if(Opcion>3) 
098F6:  MOVLB  4
098F8:  MOVF   xCF,W
098FA:  SUBLW  03
098FC:  BC    9902
....................       {Opcion=1;} 
098FE:  MOVLW  01
09900:  MOVWF  xCF
....................       if(Opcion<1) 
09902:  MOVF   xCF,F
09904:  BNZ   990A
....................       {Opcion=3;} 
09906:  MOVLW  03
09908:  MOVWF  xCF
....................     } 
.................... //_--------------------------------------------------------------------------------------------------------------------------------------------------------        
....................  
.................... //_-------------------------------------------------------------------------------------------------------------------------------------------------------- 
....................       if(Menu==41){ //Menu de Sensor de Flujo. 
0990A:  MOVF   xCD,W
0990C:  SUBLW  29
0990E:  BTFSS  FD8.2
09910:  BRA    9ED6
....................        
....................       if(Ajuste1>10.0) 
09912:  MOVLB  6
09914:  CLRF   x21
09916:  CLRF   x20
09918:  MOVLW  20
0991A:  MOVWF  x1F
0991C:  MOVLW  82
0991E:  MOVWF  x1E
09920:  MOVFF  544,625
09924:  MOVFF  543,624
09928:  MOVFF  542,623
0992C:  MOVFF  541,622
09930:  MOVLB  0
09932:  CALL   2610
09936:  BNC   9944
....................          Ajuste1=0.0; 
09938:  MOVLB  5
0993A:  CLRF   x44
0993C:  CLRF   x43
0993E:  CLRF   x42
09940:  CLRF   x41
09942:  MOVLB  0
....................        
....................       strcpy(Menus.Letra,"Sensor de Flujo"); 
09944:  MOVLW  04
09946:  MOVWF  FEA
09948:  MOVLW  17
0994A:  MOVWF  FE9
0994C:  MOVFF  FF2,5ED
09950:  BCF    FF2.7
09952:  MOVLW  00
09954:  CALL   12B8
09958:  TBLRD*-
0995A:  TBLRD*+
0995C:  MOVF   FF5,W
0995E:  MOVWF  FEE
09960:  IORLW  00
09962:  BNZ   995A
09964:  MOVLB  5
09966:  BTFSC  xED.7
09968:  BSF    FF2.7
....................       displayMenu(Menus.Letra,10,0,1,1); 
0996A:  MOVLW  04
0996C:  MOVWF  xF6
0996E:  MOVLW  17
09970:  MOVWF  xF5
09972:  MOVLW  0A
09974:  MOVWF  xF7
09976:  CLRF   xF8
09978:  MOVLW  01
0997A:  MOVWF  xF9
0997C:  MOVWF  xFA
0997E:  MOVLB  0
09980:  CALL   4EC6
....................        
....................       glcd_text57(0, 12, ZF, 1, ON); 
09984:  MOVLB  6
09986:  CLRF   x06
09988:  MOVLW  0C
0998A:  MOVWF  x07
0998C:  MOVLW  04
0998E:  MOVWF  x09
09990:  MOVLW  75
09992:  MOVWF  x08
09994:  MOVLW  01
09996:  MOVWF  x0A
09998:  MOVWF  x0B
0999A:  MOVLB  0
0999C:  CALL   18BE
....................        
....................       glcd_text57(0, 20, ZA, 1, ON); 
099A0:  MOVLB  6
099A2:  CLRF   x06
099A4:  MOVLW  14
099A6:  MOVWF  x07
099A8:  MOVLW  04
099AA:  MOVWF  x09
099AC:  MOVLW  83
099AE:  MOVWF  x08
099B0:  MOVLW  01
099B2:  MOVWF  x0A
099B4:  MOVWF  x0B
099B6:  MOVLB  0
099B8:  CALL   18BE
....................        
....................       glcd_text57(0, 30, AJ, 1, ON);            
099BC:  MOVLB  6
099BE:  CLRF   x06
099C0:  MOVLW  1E
099C2:  MOVWF  x07
099C4:  MOVLW  04
099C6:  MOVWF  x09
099C8:  MOVLW  8B
099CA:  MOVWF  x08
099CC:  MOVLW  01
099CE:  MOVWF  x0A
099D0:  MOVWF  x0B
099D2:  MOVLB  0
099D4:  CALL   18BE
....................        
....................       displayfloat(zero_actual,44,20,0,1); 
099D8:  MOVFF  5CC,5F4
099DC:  MOVFF  5CB,5F3
099E0:  MOVFF  5CA,5F2
099E4:  MOVFF  5C9,5F1
099E8:  MOVLW  2C
099EA:  MOVLB  5
099EC:  MOVWF  xF5
099EE:  MOVLW  14
099F0:  MOVWF  xF6
099F2:  CLRF   xF7
099F4:  MOVLW  01
099F6:  MOVWF  xF8
099F8:  MOVLB  0
099FA:  CALL   5FF4
....................       displayfloat(Ajuste1,44,30,0,1); 
099FE:  MOVFF  544,5F4
09A02:  MOVFF  543,5F3
09A06:  MOVFF  542,5F2
09A0A:  MOVFF  541,5F1
09A0E:  MOVLW  2C
09A10:  MOVLB  5
09A12:  MOVWF  xF5
09A14:  MOVLW  1E
09A16:  MOVWF  xF6
09A18:  CLRF   xF7
09A1A:  MOVLW  01
09A1C:  MOVWF  xF8
09A1E:  MOVLB  0
09A20:  CALL   5FF4
....................       displayfloat(Inflow_adc,0,40,0,1); 
09A24:  MOVFF  4DC,623
09A28:  MOVFF  4DB,622
09A2C:  CALL   1A76
09A30:  MOVFF  00,5ED
09A34:  MOVFF  01,5EE
09A38:  MOVFF  02,5EF
09A3C:  MOVFF  03,5F0
09A40:  MOVFF  03,5F4
09A44:  MOVFF  02,5F3
09A48:  MOVFF  01,5F2
09A4C:  MOVFF  00,5F1
09A50:  MOVLB  5
09A52:  CLRF   xF5
09A54:  MOVLW  28
09A56:  MOVWF  xF6
09A58:  CLRF   xF7
09A5A:  MOVLW  01
09A5C:  MOVWF  xF8
09A5E:  MOVLB  0
09A60:  CALL   5FF4
.................... //      displayfloat(Diferencia,0,50,0,1); 
....................        
....................       if(UP)//Si oprime hacia arriba 
09A64:  BSF    F92.5
09A66:  BTFSC  F80.5
09A68:  BRA    9AB0
....................       {   
....................          delay_ms(30);Ajuste1+=0.01; 
09A6A:  MOVLW  1E
09A6C:  MOVLB  6
09A6E:  MOVWF  x01
09A70:  MOVLB  0
09A72:  CALL   1568
09A76:  BCF    FD8.1
09A78:  MOVFF  544,625
09A7C:  MOVFF  543,624
09A80:  MOVFF  542,623
09A84:  MOVFF  541,622
09A88:  MOVLW  0A
09A8A:  MOVLB  6
09A8C:  MOVWF  x29
09A8E:  MOVLW  D7
09A90:  MOVWF  x28
09A92:  MOVLW  23
09A94:  MOVWF  x27
09A96:  MOVLW  78
09A98:  MOVWF  x26
09A9A:  MOVLB  0
09A9C:  CALL   1C0A
09AA0:  MOVFF  03,544
09AA4:  MOVFF  02,543
09AA8:  MOVFF  01,542
09AAC:  MOVFF  00,541
....................       } 
....................              
....................       if(DOWN)//Si oprime hacia abajo 
09AB0:  BSF    F96.0
09AB2:  BTFSC  F84.0
09AB4:  BRA    9AFC
....................       {    
....................          delay_ms(30);Ajuste1-=0.01; 
09AB6:  MOVLW  1E
09AB8:  MOVLB  6
09ABA:  MOVWF  x01
09ABC:  MOVLB  0
09ABE:  CALL   1568
09AC2:  BSF    FD8.1
09AC4:  MOVFF  544,625
09AC8:  MOVFF  543,624
09ACC:  MOVFF  542,623
09AD0:  MOVFF  541,622
09AD4:  MOVLW  0A
09AD6:  MOVLB  6
09AD8:  MOVWF  x29
09ADA:  MOVLW  D7
09ADC:  MOVWF  x28
09ADE:  MOVLW  23
09AE0:  MOVWF  x27
09AE2:  MOVLW  78
09AE4:  MOVWF  x26
09AE6:  MOVLB  0
09AE8:  CALL   1C0A
09AEC:  MOVFF  03,544
09AF0:  MOVFF  02,543
09AF4:  MOVFF  01,542
09AF8:  MOVFF  00,541
....................       } 
....................              
....................       if(RIGHT)//Si oprime SET 
09AFC:  BSF    F96.1
09AFE:  BTFSC  F84.1
09B00:  BRA    9D6E
....................       {   
....................          zero_actual=Inflow_adc; 
09B02:  MOVFF  4DC,623
09B06:  MOVFF  4DB,622
09B0A:  CALL   1A76
09B0E:  MOVFF  03,5CC
09B12:  MOVFF  02,5CB
09B16:  MOVFF  01,5CA
09B1A:  MOVFF  00,5C9
....................          Diferencia=zero_fabrica-Inflow_adc; 
09B1E:  MOVFF  4DC,623
09B22:  MOVFF  4DB,622
09B26:  CALL   1A76
09B2A:  BSF    FD8.1
09B2C:  MOVFF  5C8,625
09B30:  MOVFF  5C7,624
09B34:  MOVFF  5C6,623
09B38:  MOVFF  5C5,622
09B3C:  MOVFF  03,629
09B40:  MOVFF  02,628
09B44:  MOVFF  01,627
09B48:  MOVFF  00,626
09B4C:  CALL   1C0A
09B50:  MOVFF  03,528
09B54:  MOVFF  02,527
09B58:  MOVFF  01,526
09B5C:  MOVFF  00,525
....................              
....................          if(Diferencia>=0) 
09B60:  MOVLB  6
09B62:  CLRF   x21
09B64:  CLRF   x20
09B66:  CLRF   x1F
09B68:  CLRF   x1E
09B6A:  MOVFF  528,625
09B6E:  MOVFF  527,624
09B72:  MOVFF  526,623
09B76:  MOVFF  525,622
09B7A:  MOVLB  0
09B7C:  CALL   2610
09B80:  BC    9B84
09B82:  BNZ   9BC2
....................          { 
....................             negativo=10;write_eeprom(50,negativo);delay_ms(20); 
09B84:  MOVLW  0A
09B86:  MOVLB  4
09B88:  MOVWF  xD0
09B8A:  CLRF   FAA
09B8C:  MOVLW  32
09B8E:  MOVWF  FA9
09B90:  MOVFF  4D0,FA8
09B94:  BCF    FA6.6
09B96:  BCF    FA6.7
09B98:  BSF    FA6.2
09B9A:  MOVF   FF2,W
09B9C:  MOVWF  00
09B9E:  BCF    FF2.7
09BA0:  MOVLB  F
09BA2:  MOVLW  55
09BA4:  MOVWF  FA7
09BA6:  MOVLW  AA
09BA8:  MOVWF  FA7
09BAA:  BSF    FA6.1
09BAC:  BTFSC  FA6.1
09BAE:  BRA    9BAC
09BB0:  BCF    FA6.2
09BB2:  MOVF   00,W
09BB4:  IORWF  FF2,F
09BB6:  MOVLW  14
09BB8:  MOVLB  6
09BBA:  MOVWF  x01
09BBC:  MOVLB  0
09BBE:  CALL   1568
....................          } 
....................          if(Diferencia<0) 
09BC2:  MOVFF  528,621
09BC6:  MOVFF  527,620
09BCA:  MOVFF  526,61F
09BCE:  MOVFF  525,61E
09BD2:  MOVLB  6
09BD4:  CLRF   x25
09BD6:  CLRF   x24
09BD8:  CLRF   x23
09BDA:  CLRF   x22
09BDC:  MOVLB  0
09BDE:  CALL   2610
09BE2:  BNC   9C22
....................          { 
....................             negativo=20;write_eeprom(50,negativo);delay_ms(20); 
09BE4:  MOVLW  14
09BE6:  MOVLB  4
09BE8:  MOVWF  xD0
09BEA:  CLRF   FAA
09BEC:  MOVLW  32
09BEE:  MOVWF  FA9
09BF0:  MOVFF  4D0,FA8
09BF4:  BCF    FA6.6
09BF6:  BCF    FA6.7
09BF8:  BSF    FA6.2
09BFA:  MOVF   FF2,W
09BFC:  MOVWF  00
09BFE:  BCF    FF2.7
09C00:  MOVLB  F
09C02:  MOVLW  55
09C04:  MOVWF  FA7
09C06:  MOVLW  AA
09C08:  MOVWF  FA7
09C0A:  BSF    FA6.1
09C0C:  BTFSC  FA6.1
09C0E:  BRA    9C0C
09C10:  BCF    FA6.2
09C12:  MOVF   00,W
09C14:  IORWF  FF2,F
09C16:  MOVLW  14
09C18:  MOVLB  6
09C1A:  MOVWF  x01
09C1C:  MOVLB  0
09C1E:  CALL   1568
....................          } 
....................          Diferencia=abs(Diferencia); 
09C22:  MOVFF  525,00
09C26:  MOVFF  526,01
09C2A:  MOVFF  527,02
09C2E:  MOVFF  528,03
09C32:  BCF    01.7
09C34:  MOVFF  528,528
09C38:  MOVFF  527,527
09C3C:  MOVFF  01,526
09C40:  MOVFF  525,525
....................          Temporal1=(int16)Diferencia; 
09C44:  MOVFF  528,621
09C48:  MOVFF  527,620
09C4C:  MOVFF  526,61F
09C50:  MOVFF  525,61E
09C54:  CALL   307C
09C58:  MOVFF  02,4E0
09C5C:  MOVFF  01,4DF
....................          write_eeprom(60,make8(Temporal1,0)); 
09C60:  MOVFF  4DF,5ED
09C64:  CLRF   FAA
09C66:  MOVLW  3C
09C68:  MOVWF  FA9
09C6A:  MOVFF  5ED,FA8
09C6E:  BCF    FA6.6
09C70:  BCF    FA6.7
09C72:  BSF    FA6.2
09C74:  MOVF   FF2,W
09C76:  MOVWF  00
09C78:  BCF    FF2.7
09C7A:  MOVLB  F
09C7C:  MOVLW  55
09C7E:  MOVWF  FA7
09C80:  MOVLW  AA
09C82:  MOVWF  FA7
09C84:  BSF    FA6.1
09C86:  BTFSC  FA6.1
09C88:  BRA    9C86
09C8A:  BCF    FA6.2
09C8C:  MOVF   00,W
09C8E:  IORWF  FF2,F
....................          delay_ms(20); 
09C90:  MOVLW  14
09C92:  MOVLB  6
09C94:  MOVWF  x01
09C96:  MOVLB  0
09C98:  CALL   1568
....................          write_eeprom(61,make8(Temporal1,1));//Guardar valor de Setpoint en eeprom 
09C9C:  MOVFF  4E0,5ED
09CA0:  CLRF   FAA
09CA2:  MOVLW  3D
09CA4:  MOVWF  FA9
09CA6:  MOVFF  5ED,FA8
09CAA:  BCF    FA6.6
09CAC:  BCF    FA6.7
09CAE:  BSF    FA6.2
09CB0:  MOVF   FF2,W
09CB2:  MOVWF  00
09CB4:  BCF    FF2.7
09CB6:  MOVLB  F
09CB8:  MOVLW  55
09CBA:  MOVWF  FA7
09CBC:  MOVLW  AA
09CBE:  MOVWF  FA7
09CC0:  BSF    FA6.1
09CC2:  BTFSC  FA6.1
09CC4:  BRA    9CC2
09CC6:  BCF    FA6.2
09CC8:  MOVF   00,W
09CCA:  IORWF  FF2,F
....................          delay_ms(20); 
09CCC:  MOVLW  14
09CCE:  MOVLB  6
09CD0:  MOVWF  x01
09CD2:  MOVLB  0
09CD4:  CALL   1568
....................  
....................          Temporal1=(int16)zero_actual; 
09CD8:  MOVFF  5CC,621
09CDC:  MOVFF  5CB,620
09CE0:  MOVFF  5CA,61F
09CE4:  MOVFF  5C9,61E
09CE8:  CALL   307C
09CEC:  MOVFF  02,4E0
09CF0:  MOVFF  01,4DF
....................          write_eeprom(29,make8(Temporal1,0)); 
09CF4:  MOVFF  4DF,5ED
09CF8:  CLRF   FAA
09CFA:  MOVLW  1D
09CFC:  MOVWF  FA9
09CFE:  MOVFF  5ED,FA8
09D02:  BCF    FA6.6
09D04:  BCF    FA6.7
09D06:  BSF    FA6.2
09D08:  MOVF   FF2,W
09D0A:  MOVWF  00
09D0C:  BCF    FF2.7
09D0E:  MOVLB  F
09D10:  MOVLW  55
09D12:  MOVWF  FA7
09D14:  MOVLW  AA
09D16:  MOVWF  FA7
09D18:  BSF    FA6.1
09D1A:  BTFSC  FA6.1
09D1C:  BRA    9D1A
09D1E:  BCF    FA6.2
09D20:  MOVF   00,W
09D22:  IORWF  FF2,F
....................          delay_ms(20); 
09D24:  MOVLW  14
09D26:  MOVLB  6
09D28:  MOVWF  x01
09D2A:  MOVLB  0
09D2C:  CALL   1568
....................          write_eeprom(30,make8(Temporal1,1));//Guardar valor de Setpoint en eeprom 
09D30:  MOVFF  4E0,5ED
09D34:  CLRF   FAA
09D36:  MOVLW  1E
09D38:  MOVWF  FA9
09D3A:  MOVFF  5ED,FA8
09D3E:  BCF    FA6.6
09D40:  BCF    FA6.7
09D42:  BSF    FA6.2
09D44:  MOVF   FF2,W
09D46:  MOVWF  00
09D48:  BCF    FF2.7
09D4A:  MOVLB  F
09D4C:  MOVLW  55
09D4E:  MOVWF  FA7
09D50:  MOVLW  AA
09D52:  MOVWF  FA7
09D54:  BSF    FA6.1
09D56:  BTFSC  FA6.1
09D58:  BRA    9D56
09D5A:  BCF    FA6.2
09D5C:  MOVF   00,W
09D5E:  IORWF  FF2,F
....................          delay_ms(20); 
09D60:  MOVLW  14
09D62:  MOVLB  6
09D64:  MOVWF  x01
09D66:  MOVLB  0
09D68:  CALL   1568
....................       } 
....................          else 
09D6C:  BRA    9D74
....................             {Flanco1 = 0;}   
09D6E:  MOVLB  4
09D70:  BCF    x2D.1
09D72:  MOVLB  0
....................              
....................       if(LEFT)//Si oprime boton de Toma. 
09D74:  BSF    F96.2
09D76:  BTFSC  F84.2
09D78:  BRA    9ED4
....................       { 
....................          delay_ms(700);Menu=32;glcd_fillscreen(OFF);Opcion=1;unidad=1; 
09D7A:  MOVLW  04
09D7C:  MOVLB  5
09D7E:  MOVWF  xED
09D80:  MOVLW  AF
09D82:  MOVLB  6
09D84:  MOVWF  x01
09D86:  MOVLB  0
09D88:  CALL   1568
09D8C:  MOVLB  5
09D8E:  DECFSZ xED,F
09D90:  BRA    9D80
09D92:  MOVLW  20
09D94:  MOVLB  4
09D96:  MOVWF  xCD
09D98:  MOVLB  5
09D9A:  CLRF   xF5
09D9C:  MOVLB  0
09D9E:  CALL   1648
09DA2:  MOVLW  01
09DA4:  MOVLB  4
09DA6:  MOVWF  xCF
09DA8:  MOVWF  xCE
....................          Temporal=Ajuste1; 
09DAA:  MOVFF  544,54C
09DAE:  MOVFF  543,54B
09DB2:  MOVFF  542,54A
09DB6:  MOVFF  541,549
....................          Entero=(int)Ajuste1; 
09DBA:  MOVFF  544,621
09DBE:  MOVFF  543,620
09DC2:  MOVFF  542,61F
09DC6:  MOVFF  541,61E
09DCA:  MOVLB  0
09DCC:  CALL   307C
09DD0:  MOVFF  01,4D8
....................          Temporal=Temporal-Entero; 
09DD4:  MOVLB  6
09DD6:  CLRF   x23
09DD8:  MOVFF  4D8,622
09DDC:  MOVLB  0
09DDE:  CALL   1A76
09DE2:  BSF    FD8.1
09DE4:  MOVFF  54C,625
09DE8:  MOVFF  54B,624
09DEC:  MOVFF  54A,623
09DF0:  MOVFF  549,622
09DF4:  MOVFF  03,629
09DF8:  MOVFF  02,628
09DFC:  MOVFF  01,627
09E00:  MOVFF  00,626
09E04:  CALL   1C0A
09E08:  MOVFF  03,54C
09E0C:  MOVFF  02,54B
09E10:  MOVFF  01,54A
09E14:  MOVFF  00,549
....................          Temporal2=Temporal*10.0; 
09E18:  MOVFF  54C,621
09E1C:  MOVFF  54B,620
09E20:  MOVFF  54A,61F
09E24:  MOVFF  549,61E
09E28:  MOVLB  6
09E2A:  CLRF   x25
09E2C:  CLRF   x24
09E2E:  MOVLW  20
09E30:  MOVWF  x23
09E32:  MOVLW  82
09E34:  MOVWF  x22
09E36:  MOVLB  0
09E38:  CALL   30B8
09E3C:  MOVFF  03,550
09E40:  MOVFF  02,54F
09E44:  MOVFF  01,54E
09E48:  MOVFF  00,54D
....................          Decimal1=(int8)Temporal2; 
09E4C:  MOVFF  550,621
09E50:  MOVFF  54F,620
09E54:  MOVFF  54E,61F
09E58:  MOVFF  54D,61E
09E5C:  CALL   307C
09E60:  MOVFF  01,4D9
....................          write_eeprom(25,Entero); 
09E64:  CLRF   FAA
09E66:  MOVLW  19
09E68:  MOVWF  FA9
09E6A:  MOVFF  4D8,FA8
09E6E:  BCF    FA6.6
09E70:  BCF    FA6.7
09E72:  BSF    FA6.2
09E74:  MOVF   FF2,W
09E76:  MOVWF  00
09E78:  BCF    FF2.7
09E7A:  MOVLB  F
09E7C:  MOVLW  55
09E7E:  MOVWF  FA7
09E80:  MOVLW  AA
09E82:  MOVWF  FA7
09E84:  BSF    FA6.1
09E86:  BTFSC  FA6.1
09E88:  BRA    9E86
09E8A:  BCF    FA6.2
09E8C:  MOVF   00,W
09E8E:  IORWF  FF2,F
....................          delay_ms(20); 
09E90:  MOVLW  14
09E92:  MOVLB  6
09E94:  MOVWF  x01
09E96:  MOVLB  0
09E98:  CALL   1568
....................          write_eeprom(26,Decimal1); 
09E9C:  CLRF   FAA
09E9E:  MOVLW  1A
09EA0:  MOVWF  FA9
09EA2:  MOVFF  4D9,FA8
09EA6:  BCF    FA6.6
09EA8:  BCF    FA6.7
09EAA:  BSF    FA6.2
09EAC:  MOVF   FF2,W
09EAE:  MOVWF  00
09EB0:  BCF    FF2.7
09EB2:  MOVLB  F
09EB4:  MOVLW  55
09EB6:  MOVWF  FA7
09EB8:  MOVLW  AA
09EBA:  MOVWF  FA7
09EBC:  BSF    FA6.1
09EBE:  BTFSC  FA6.1
09EC0:  BRA    9EBE
09EC2:  BCF    FA6.2
09EC4:  MOVF   00,W
09EC6:  IORWF  FF2,F
....................          delay_ms(20); 
09EC8:  MOVLW  14
09ECA:  MOVLB  6
09ECC:  MOVWF  x01
09ECE:  MOVLB  0
09ED0:  CALL   1568
09ED4:  MOVLB  4
....................       } 
....................     } 
.................... //_--------------------------------------------------------------------------------------------------------------------------------------------------------        
....................  
.................... //_-------------------------------------------------------------------------------------------------------------------------------------------------------- 
....................       if(Menu==42){ //Menu de Sensor de Presin. 
09ED6:  MOVF   xCD,W
09ED8:  SUBLW  2A
09EDA:  BTFSS  FD8.2
09EDC:  BRA    A30C
....................        
....................       if(Ajuste2>10.0) 
09EDE:  MOVLB  6
09EE0:  CLRF   x21
09EE2:  CLRF   x20
09EE4:  MOVLW  20
09EE6:  MOVWF  x1F
09EE8:  MOVLW  82
09EEA:  MOVWF  x1E
09EEC:  MOVFF  548,625
09EF0:  MOVFF  547,624
09EF4:  MOVFF  546,623
09EF8:  MOVFF  545,622
09EFC:  MOVLB  0
09EFE:  CALL   2610
09F02:  BNC   9F10
....................          Ajuste2=0.0; 
09F04:  MOVLB  5
09F06:  CLRF   x48
09F08:  CLRF   x47
09F0A:  CLRF   x46
09F0C:  CLRF   x45
09F0E:  MOVLB  0
....................        
....................       strcpy(Menus.Letra,"Sensor de Presion"); 
09F10:  MOVLW  04
09F12:  MOVWF  FEA
09F14:  MOVLW  17
09F16:  MOVWF  FE9
09F18:  MOVFF  FF2,5ED
09F1C:  BCF    FF2.7
09F1E:  MOVLW  00
09F20:  CALL   12E6
09F24:  TBLRD*-
09F26:  TBLRD*+
09F28:  MOVF   FF5,W
09F2A:  MOVWF  FEE
09F2C:  IORLW  00
09F2E:  BNZ   9F26
09F30:  MOVLB  5
09F32:  BTFSC  xED.7
09F34:  BSF    FF2.7
....................       displayMenu(Menus.Letra,10,0,1,1); 
09F36:  MOVLW  04
09F38:  MOVWF  xF6
09F3A:  MOVLW  17
09F3C:  MOVWF  xF5
09F3E:  MOVLW  0A
09F40:  MOVWF  xF7
09F42:  CLRF   xF8
09F44:  MOVLW  01
09F46:  MOVWF  xF9
09F48:  MOVWF  xFA
09F4A:  MOVLB  0
09F4C:  CALL   4EC6
....................        
....................       glcd_text57(0, 12, ZFP, 1, ON); 
09F50:  MOVLB  6
09F52:  CLRF   x06
09F54:  MOVLW  0C
09F56:  MOVWF  x07
09F58:  MOVLW  04
09F5A:  MOVWF  x09
09F5C:  MOVLW  9B
09F5E:  MOVWF  x08
09F60:  MOVLW  01
09F62:  MOVWF  x0A
09F64:  MOVWF  x0B
09F66:  MOVLB  0
09F68:  CALL   18BE
....................        
....................       glcd_text57(0, 20, ZA, 1, ON); 
09F6C:  MOVLB  6
09F6E:  CLRF   x06
09F70:  MOVLW  14
09F72:  MOVWF  x07
09F74:  MOVLW  04
09F76:  MOVWF  x09
09F78:  MOVLW  83
09F7A:  MOVWF  x08
09F7C:  MOVLW  01
09F7E:  MOVWF  x0A
09F80:  MOVWF  x0B
09F82:  MOVLB  0
09F84:  CALL   18BE
....................        
....................       glcd_text57(0, 30, AJ, 1, ON);            
09F88:  MOVLB  6
09F8A:  CLRF   x06
09F8C:  MOVLW  1E
09F8E:  MOVWF  x07
09F90:  MOVLW  04
09F92:  MOVWF  x09
09F94:  MOVLW  8B
09F96:  MOVWF  x08
09F98:  MOVLW  01
09F9A:  MOVWF  x0A
09F9C:  MOVWF  x0B
09F9E:  MOVLB  0
09FA0:  CALL   18BE
....................        
....................       displayfloat(G,44,20,0,1); 
09FA4:  MOVFF  5D8,5F4
09FA8:  MOVFF  5D7,5F3
09FAC:  MOVFF  5D6,5F2
09FB0:  MOVFF  5D5,5F1
09FB4:  MOVLW  2C
09FB6:  MOVLB  5
09FB8:  MOVWF  xF5
09FBA:  MOVLW  14
09FBC:  MOVWF  xF6
09FBE:  CLRF   xF7
09FC0:  MOVLW  01
09FC2:  MOVWF  xF8
09FC4:  MOVLB  0
09FC6:  CALL   5FF4
....................       displayfloat(Ajuste2,44,30,0,1); 
09FCA:  MOVFF  548,5F4
09FCE:  MOVFF  547,5F3
09FD2:  MOVFF  546,5F2
09FD6:  MOVFF  545,5F1
09FDA:  MOVLW  2C
09FDC:  MOVLB  5
09FDE:  MOVWF  xF5
09FE0:  MOVLW  1E
09FE2:  MOVWF  xF6
09FE4:  CLRF   xF7
09FE6:  MOVLW  01
09FE8:  MOVWF  xF8
09FEA:  MOVLB  0
09FEC:  CALL   5FF4
....................       displayfloat(Filtro_DownFlow_adc,0,40,0,1); 
09FF0:  MOVFF  4DE,623
09FF4:  MOVFF  4DD,622
09FF8:  CALL   1A76
09FFC:  MOVFF  00,5ED
0A000:  MOVFF  01,5EE
0A004:  MOVFF  02,5EF
0A008:  MOVFF  03,5F0
0A00C:  MOVFF  03,5F4
0A010:  MOVFF  02,5F3
0A014:  MOVFF  01,5F2
0A018:  MOVFF  00,5F1
0A01C:  MOVLB  5
0A01E:  CLRF   xF5
0A020:  MOVLW  28
0A022:  MOVWF  xF6
0A024:  CLRF   xF7
0A026:  MOVLW  01
0A028:  MOVWF  xF8
0A02A:  MOVLB  0
0A02C:  CALL   5FF4
....................       displayfloat(Filtro_DownFlow,0,50,0,1); 
0A030:  MOVFF  524,5F4
0A034:  MOVFF  523,5F3
0A038:  MOVFF  522,5F2
0A03C:  MOVFF  521,5F1
0A040:  MOVLB  5
0A042:  CLRF   xF5
0A044:  MOVLW  32
0A046:  MOVWF  xF6
0A048:  CLRF   xF7
0A04A:  MOVLW  01
0A04C:  MOVWF  xF8
0A04E:  MOVLB  0
0A050:  CALL   5FF4
....................        
....................       if(UP)//Si oprime hacia arriba 
0A054:  BSF    F92.5
0A056:  BTFSC  F80.5
0A058:  BRA    A0A0
....................       {   
....................          delay_ms(30);Ajuste2+=0.01; 
0A05A:  MOVLW  1E
0A05C:  MOVLB  6
0A05E:  MOVWF  x01
0A060:  MOVLB  0
0A062:  CALL   1568
0A066:  BCF    FD8.1
0A068:  MOVFF  548,625
0A06C:  MOVFF  547,624
0A070:  MOVFF  546,623
0A074:  MOVFF  545,622
0A078:  MOVLW  0A
0A07A:  MOVLB  6
0A07C:  MOVWF  x29
0A07E:  MOVLW  D7
0A080:  MOVWF  x28
0A082:  MOVLW  23
0A084:  MOVWF  x27
0A086:  MOVLW  78
0A088:  MOVWF  x26
0A08A:  MOVLB  0
0A08C:  CALL   1C0A
0A090:  MOVFF  03,548
0A094:  MOVFF  02,547
0A098:  MOVFF  01,546
0A09C:  MOVFF  00,545
....................       } 
....................              
....................       if(DOWN)//Si oprime hacia abajo 
0A0A0:  BSF    F96.0
0A0A2:  BTFSC  F84.0
0A0A4:  BRA    A0EC
....................       {   
....................          delay_ms(30);Ajuste2-=0.01; 
0A0A6:  MOVLW  1E
0A0A8:  MOVLB  6
0A0AA:  MOVWF  x01
0A0AC:  MOVLB  0
0A0AE:  CALL   1568
0A0B2:  BSF    FD8.1
0A0B4:  MOVFF  548,625
0A0B8:  MOVFF  547,624
0A0BC:  MOVFF  546,623
0A0C0:  MOVFF  545,622
0A0C4:  MOVLW  0A
0A0C6:  MOVLB  6
0A0C8:  MOVWF  x29
0A0CA:  MOVLW  D7
0A0CC:  MOVWF  x28
0A0CE:  MOVLW  23
0A0D0:  MOVWF  x27
0A0D2:  MOVLW  78
0A0D4:  MOVWF  x26
0A0D6:  MOVLB  0
0A0D8:  CALL   1C0A
0A0DC:  MOVFF  03,548
0A0E0:  MOVFF  02,547
0A0E4:  MOVFF  01,546
0A0E8:  MOVFF  00,545
....................       } 
....................              
....................       if(RIGHT)//Si oprime SET 
0A0EC:  BSF    F96.1
0A0EE:  BTFSC  F84.1
0A0F0:  BRA    A1A4
....................       {            
....................          G=Filtro_Downflow_adc; 
0A0F2:  MOVFF  4DE,623
0A0F6:  MOVFF  4DD,622
0A0FA:  CALL   1A76
0A0FE:  MOVFF  03,5D8
0A102:  MOVFF  02,5D7
0A106:  MOVFF  01,5D6
0A10A:  MOVFF  00,5D5
....................          G16=(int16)G; 
0A10E:  MOVFF  5D8,621
0A112:  MOVFF  5D7,620
0A116:  MOVFF  5D6,61F
0A11A:  MOVFF  5D5,61E
0A11E:  CALL   307C
0A122:  MOVFF  02,4EA
0A126:  MOVFF  01,4E9
....................          G_l=G16; G_h=(G16>>8); 
0A12A:  MOVFF  4E9,4D1
0A12E:  MOVFF  4EA,4D2
....................              
....................          write_eeprom(62,G_l); 
0A132:  CLRF   FAA
0A134:  MOVLW  3E
0A136:  MOVWF  FA9
0A138:  MOVFF  4D1,FA8
0A13C:  BCF    FA6.6
0A13E:  BCF    FA6.7
0A140:  BSF    FA6.2
0A142:  MOVF   FF2,W
0A144:  MOVWF  00
0A146:  BCF    FF2.7
0A148:  MOVLB  F
0A14A:  MOVLW  55
0A14C:  MOVWF  FA7
0A14E:  MOVLW  AA
0A150:  MOVWF  FA7
0A152:  BSF    FA6.1
0A154:  BTFSC  FA6.1
0A156:  BRA    A154
0A158:  BCF    FA6.2
0A15A:  MOVF   00,W
0A15C:  IORWF  FF2,F
....................          delay_ms(20); 
0A15E:  MOVLW  14
0A160:  MOVLB  6
0A162:  MOVWF  x01
0A164:  MOVLB  0
0A166:  CALL   1568
....................          write_eeprom(63,G_h);//Guardar valor de Setpoint en eeprom 
0A16A:  CLRF   FAA
0A16C:  MOVLW  3F
0A16E:  MOVWF  FA9
0A170:  MOVFF  4D2,FA8
0A174:  BCF    FA6.6
0A176:  BCF    FA6.7
0A178:  BSF    FA6.2
0A17A:  MOVF   FF2,W
0A17C:  MOVWF  00
0A17E:  BCF    FF2.7
0A180:  MOVLB  F
0A182:  MOVLW  55
0A184:  MOVWF  FA7
0A186:  MOVLW  AA
0A188:  MOVWF  FA7
0A18A:  BSF    FA6.1
0A18C:  BTFSC  FA6.1
0A18E:  BRA    A18C
0A190:  BCF    FA6.2
0A192:  MOVF   00,W
0A194:  IORWF  FF2,F
....................          delay_ms(20); 
0A196:  MOVLW  14
0A198:  MOVLB  6
0A19A:  MOVWF  x01
0A19C:  MOVLB  0
0A19E:  CALL   1568
....................       } 
....................          else 
0A1A2:  BRA    A1AA
....................             {Flanco1 = 0;}   
0A1A4:  MOVLB  4
0A1A6:  BCF    x2D.1
0A1A8:  MOVLB  0
....................              
....................       if(LEFT)//Si oprime boton de Toma. 
0A1AA:  BSF    F96.2
0A1AC:  BTFSC  F84.2
0A1AE:  BRA    A30A
....................       {                   
....................          delay_ms(700);Menu=32;glcd_fillscreen(OFF);Opcion=1;unidad=1; 
0A1B0:  MOVLW  04
0A1B2:  MOVLB  5
0A1B4:  MOVWF  xED
0A1B6:  MOVLW  AF
0A1B8:  MOVLB  6
0A1BA:  MOVWF  x01
0A1BC:  MOVLB  0
0A1BE:  CALL   1568
0A1C2:  MOVLB  5
0A1C4:  DECFSZ xED,F
0A1C6:  BRA    A1B6
0A1C8:  MOVLW  20
0A1CA:  MOVLB  4
0A1CC:  MOVWF  xCD
0A1CE:  MOVLB  5
0A1D0:  CLRF   xF5
0A1D2:  MOVLB  0
0A1D4:  CALL   1648
0A1D8:  MOVLW  01
0A1DA:  MOVLB  4
0A1DC:  MOVWF  xCF
0A1DE:  MOVWF  xCE
....................          Temporal=Ajuste2; 
0A1E0:  MOVFF  548,54C
0A1E4:  MOVFF  547,54B
0A1E8:  MOVFF  546,54A
0A1EC:  MOVFF  545,549
....................          Entero=(int)Ajuste2; 
0A1F0:  MOVFF  548,621
0A1F4:  MOVFF  547,620
0A1F8:  MOVFF  546,61F
0A1FC:  MOVFF  545,61E
0A200:  MOVLB  0
0A202:  CALL   307C
0A206:  MOVFF  01,4D8
....................          Temporal=Temporal-Entero; 
0A20A:  MOVLB  6
0A20C:  CLRF   x23
0A20E:  MOVFF  4D8,622
0A212:  MOVLB  0
0A214:  CALL   1A76
0A218:  BSF    FD8.1
0A21A:  MOVFF  54C,625
0A21E:  MOVFF  54B,624
0A222:  MOVFF  54A,623
0A226:  MOVFF  549,622
0A22A:  MOVFF  03,629
0A22E:  MOVFF  02,628
0A232:  MOVFF  01,627
0A236:  MOVFF  00,626
0A23A:  CALL   1C0A
0A23E:  MOVFF  03,54C
0A242:  MOVFF  02,54B
0A246:  MOVFF  01,54A
0A24A:  MOVFF  00,549
....................          Temporal2=Temporal*10.0; 
0A24E:  MOVFF  54C,621
0A252:  MOVFF  54B,620
0A256:  MOVFF  54A,61F
0A25A:  MOVFF  549,61E
0A25E:  MOVLB  6
0A260:  CLRF   x25
0A262:  CLRF   x24
0A264:  MOVLW  20
0A266:  MOVWF  x23
0A268:  MOVLW  82
0A26A:  MOVWF  x22
0A26C:  MOVLB  0
0A26E:  CALL   30B8
0A272:  MOVFF  03,550
0A276:  MOVFF  02,54F
0A27A:  MOVFF  01,54E
0A27E:  MOVFF  00,54D
....................          Decimal1=(int8)Temporal2; 
0A282:  MOVFF  550,621
0A286:  MOVFF  54F,620
0A28A:  MOVFF  54E,61F
0A28E:  MOVFF  54D,61E
0A292:  CALL   307C
0A296:  MOVFF  01,4D9
....................          write_eeprom(27,Entero); 
0A29A:  CLRF   FAA
0A29C:  MOVLW  1B
0A29E:  MOVWF  FA9
0A2A0:  MOVFF  4D8,FA8
0A2A4:  BCF    FA6.6
0A2A6:  BCF    FA6.7
0A2A8:  BSF    FA6.2
0A2AA:  MOVF   FF2,W
0A2AC:  MOVWF  00
0A2AE:  BCF    FF2.7
0A2B0:  MOVLB  F
0A2B2:  MOVLW  55
0A2B4:  MOVWF  FA7
0A2B6:  MOVLW  AA
0A2B8:  MOVWF  FA7
0A2BA:  BSF    FA6.1
0A2BC:  BTFSC  FA6.1
0A2BE:  BRA    A2BC
0A2C0:  BCF    FA6.2
0A2C2:  MOVF   00,W
0A2C4:  IORWF  FF2,F
....................          delay_ms(20); 
0A2C6:  MOVLW  14
0A2C8:  MOVLB  6
0A2CA:  MOVWF  x01
0A2CC:  MOVLB  0
0A2CE:  CALL   1568
....................          write_eeprom(28,Decimal1); 
0A2D2:  CLRF   FAA
0A2D4:  MOVLW  1C
0A2D6:  MOVWF  FA9
0A2D8:  MOVFF  4D9,FA8
0A2DC:  BCF    FA6.6
0A2DE:  BCF    FA6.7
0A2E0:  BSF    FA6.2
0A2E2:  MOVF   FF2,W
0A2E4:  MOVWF  00
0A2E6:  BCF    FF2.7
0A2E8:  MOVLB  F
0A2EA:  MOVLW  55
0A2EC:  MOVWF  FA7
0A2EE:  MOVLW  AA
0A2F0:  MOVWF  FA7
0A2F2:  BSF    FA6.1
0A2F4:  BTFSC  FA6.1
0A2F6:  BRA    A2F4
0A2F8:  BCF    FA6.2
0A2FA:  MOVF   00,W
0A2FC:  IORWF  FF2,F
....................          delay_ms(20); 
0A2FE:  MOVLW  14
0A300:  MOVLB  6
0A302:  MOVWF  x01
0A304:  MOVLB  0
0A306:  CALL   1568
0A30A:  MOVLB  4
....................       } 
....................     } 
.................... //_--------------------------------------------------------------------------------------------------------------------------------------------------------        
....................  
.................... //_-------------------------------------------------------------------------------------------------------------------------------------------------------- 
....................       if(Menu==43){ //Menu de Velocidad de Motor 
0A30C:  MOVF   xCD,W
0A30E:  SUBLW  2B
0A310:  BTFSS  FD8.2
0A312:  BRA    A4E4
....................        
....................       if(VelMotor>6)VelMotor=6; 
0A314:  MOVLB  5
0A316:  MOVF   xE4,W
0A318:  SUBLW  06
0A31A:  BC    A320
0A31C:  MOVLW  06
0A31E:  MOVWF  xE4
....................        
....................       strcpy(Menus.Letra,"Seleccion Vel"); 
0A320:  MOVLW  04
0A322:  MOVWF  FEA
0A324:  MOVLW  17
0A326:  MOVWF  FE9
0A328:  MOVFF  FF2,5ED
0A32C:  BCF    FF2.7
0A32E:  MOVLW  00
0A330:  MOVLB  0
0A332:  CALL   134A
0A336:  TBLRD*-
0A338:  TBLRD*+
0A33A:  MOVF   FF5,W
0A33C:  MOVWF  FEE
0A33E:  IORLW  00
0A340:  BNZ   A338
0A342:  MOVLB  5
0A344:  BTFSC  xED.7
0A346:  BSF    FF2.7
....................       displayMenu(Menus.Letra,10,0,1,1); 
0A348:  MOVLW  04
0A34A:  MOVWF  xF6
0A34C:  MOVLW  17
0A34E:  MOVWF  xF5
0A350:  MOVLW  0A
0A352:  MOVWF  xF7
0A354:  CLRF   xF8
0A356:  MOVLW  01
0A358:  MOVWF  xF9
0A35A:  MOVWF  xFA
0A35C:  MOVLB  0
0A35E:  CALL   4EC6
....................        
....................       displayTiempo(VelMotor,50,40,1,2); 
0A362:  MOVFF  5E4,5ED
0A366:  MOVLW  32
0A368:  MOVLB  5
0A36A:  MOVWF  xEE
0A36C:  MOVLW  28
0A36E:  MOVWF  xEF
0A370:  MOVLW  01
0A372:  MOVWF  xF0
0A374:  MOVLW  02
0A376:  MOVWF  xF1
0A378:  MOVLB  0
0A37A:  CALL   568A
....................        
....................       if(UP && VelMotor<6)//Si oprime hacia arriba 
0A37E:  BSF    F92.5
0A380:  BTFSC  F80.5
0A382:  BRA    A3A4
0A384:  MOVLB  5
0A386:  MOVF   xE4,W
0A388:  SUBLW  05
0A38A:  BTFSC  FD8.0
0A38C:  BRA    A392
0A38E:  MOVLB  0
0A390:  BRA    A3A4
....................       {   
....................          delay_ms(200);VelMotor++; 
0A392:  MOVLW  C8
0A394:  MOVLB  6
0A396:  MOVWF  x01
0A398:  MOVLB  0
0A39A:  CALL   1568
0A39E:  MOVLB  5
0A3A0:  INCF   xE4,F
0A3A2:  MOVLB  0
....................       } 
....................              
....................       if(DOWN && VelMotor>0)//Si oprime hacia abajo 
0A3A4:  BSF    F96.0
0A3A6:  BTFSC  F84.0
0A3A8:  BRA    A3C8
0A3AA:  MOVLB  5
0A3AC:  MOVF   xE4,F
0A3AE:  BTFSS  FD8.2
0A3B0:  BRA    A3B6
0A3B2:  MOVLB  0
0A3B4:  BRA    A3C8
....................       {   
....................          delay_ms(200);VelMotor--; 
0A3B6:  MOVLW  C8
0A3B8:  MOVLB  6
0A3BA:  MOVWF  x01
0A3BC:  MOVLB  0
0A3BE:  CALL   1568
0A3C2:  MOVLB  5
0A3C4:  DECF   xE4,F
0A3C6:  MOVLB  0
....................       } 
....................              
....................       if(RIGHT)//Si oprime SET 
0A3C8:  BSF    F96.1
0A3CA:  BTFSC  F84.1
0A3CC:  BRA    A3D6
....................       {            
....................          VelocidadMotor(VelMotor); 
0A3CE:  MOVFF  5E4,5ED
0A3D2:  CALL   1590
....................       }  
....................              
....................       if(LEFT)//Si oprime boton de Toma. 
0A3D6:  BSF    F96.2
0A3D8:  BTFSC  F84.2
0A3DA:  BRA    A4E6
....................       {                   
....................          delay_ms(100);glcd_fillscreen(OFF);Opcion=1;unidad=1; 
0A3DC:  MOVLW  64
0A3DE:  MOVLB  6
0A3E0:  MOVWF  x01
0A3E2:  MOVLB  0
0A3E4:  CALL   1568
0A3E8:  MOVLB  5
0A3EA:  CLRF   xF5
0A3EC:  MOVLB  0
0A3EE:  CALL   1648
0A3F2:  MOVLW  01
0A3F4:  MOVLB  4
0A3F6:  MOVWF  xCF
0A3F8:  MOVWF  xCE
....................          write_eeprom(32,VelMotor);//Guardar valor de Setpoint en eeprom 
0A3FA:  CLRF   FAA
0A3FC:  MOVLW  20
0A3FE:  MOVWF  FA9
0A400:  MOVFF  5E4,FA8
0A404:  BCF    FA6.6
0A406:  BCF    FA6.7
0A408:  BSF    FA6.2
0A40A:  MOVF   FF2,W
0A40C:  MOVWF  00
0A40E:  BCF    FF2.7
0A410:  MOVLB  F
0A412:  MOVLW  55
0A414:  MOVWF  FA7
0A416:  MOVLW  AA
0A418:  MOVWF  FA7
0A41A:  BSF    FA6.1
0A41C:  BTFSC  FA6.1
0A41E:  BRA    A41C
0A420:  BCF    FA6.2
0A422:  MOVF   00,W
0A424:  IORWF  FF2,F
....................          delay_ms(20); 
0A426:  MOVLW  14
0A428:  MOVLB  6
0A42A:  MOVWF  x01
0A42C:  MOVLB  0
0A42E:  CALL   1568
....................          glcd_fillScreen(OFF); 
0A432:  MOVLB  5
0A434:  CLRF   xF5
0A436:  MOVLB  0
0A438:  CALL   1648
....................          strcpy(Menus.Letra,"Velocidad"); 
0A43C:  MOVLW  04
0A43E:  MOVWF  FEA
0A440:  MOVLW  17
0A442:  MOVWF  FE9
0A444:  MOVFF  FF2,5ED
0A448:  BCF    FF2.7
0A44A:  MOVLW  00
0A44C:  CALL   1376
0A450:  TBLRD*-
0A452:  TBLRD*+
0A454:  MOVF   FF5,W
0A456:  MOVWF  FEE
0A458:  IORLW  00
0A45A:  BNZ   A452
0A45C:  MOVLB  5
0A45E:  BTFSC  xED.7
0A460:  BSF    FF2.7
....................          displayMenu(Menus.Letra,0,0,0,2); 
0A462:  MOVLW  04
0A464:  MOVWF  xF6
0A466:  MOVLW  17
0A468:  MOVWF  xF5
0A46A:  CLRF   xF7
0A46C:  CLRF   xF8
0A46E:  CLRF   xF9
0A470:  MOVLW  02
0A472:  MOVWF  xFA
0A474:  MOVLB  0
0A476:  CALL   4EC6
....................          strcpy(Menus.Letra,"Guardada"); 
0A47A:  MOVLW  04
0A47C:  MOVWF  FEA
0A47E:  MOVLW  17
0A480:  MOVWF  FE9
0A482:  MOVFF  FF2,5ED
0A486:  BCF    FF2.7
0A488:  MOVLW  00
0A48A:  CALL   139E
0A48E:  TBLRD*-
0A490:  TBLRD*+
0A492:  MOVF   FF5,W
0A494:  MOVWF  FEE
0A496:  IORLW  00
0A498:  BNZ   A490
0A49A:  MOVLB  5
0A49C:  BTFSC  xED.7
0A49E:  BSF    FF2.7
....................          displayMenu(Menus.Letra,0,30,0,2); 
0A4A0:  MOVLW  04
0A4A2:  MOVWF  xF6
0A4A4:  MOVLW  17
0A4A6:  MOVWF  xF5
0A4A8:  CLRF   xF7
0A4AA:  MOVLW  1E
0A4AC:  MOVWF  xF8
0A4AE:  CLRF   xF9
0A4B0:  MOVLW  02
0A4B2:  MOVWF  xFA
0A4B4:  MOVLB  0
0A4B6:  CALL   4EC6
....................          glcd_update(); 
0A4BA:  CALL   16A2
....................          delay_ms(1000); 
0A4BE:  MOVLW  04
0A4C0:  MOVLB  5
0A4C2:  MOVWF  xED
0A4C4:  MOVLW  FA
0A4C6:  MOVLB  6
0A4C8:  MOVWF  x01
0A4CA:  MOVLB  0
0A4CC:  CALL   1568
0A4D0:  MOVLB  5
0A4D2:  DECFSZ xED,F
0A4D4:  BRA    A4C4
....................          glcd_fillScreen(OFF); 
0A4D6:  CLRF   xF5
0A4D8:  MOVLB  0
0A4DA:  CALL   1648
....................          Menu=32; 
0A4DE:  MOVLW  20
0A4E0:  MOVLB  4
0A4E2:  MOVWF  xCD
0A4E4:  MOVLB  0
....................       } 
....................     } 
.................... //_--------------------------------------------------------------------------------------------------------------------------------------------------------        
....................  
....................    if(tiemporeset>=60) 
0A4E6:  MOVLB  4
0A4E8:  MOVF   xD3,W
0A4EA:  SUBLW  3B
0A4EC:  BC    A504
....................    { 
....................       if(Menu!=200){ 
0A4EE:  MOVF   xCD,W
0A4F0:  SUBLW  C8
0A4F2:  BZ    A504
....................          glcd_init(ON); 
0A4F4:  MOVLW  01
0A4F6:  MOVLB  5
0A4F8:  MOVWF  xED
0A4FA:  MOVLB  0
0A4FC:  CALL   175A
....................          tiemporeset=0; 
0A500:  MOVLB  4
0A502:  CLRF   xD3
....................       } 
....................    }  
.................... } 
0A504:  MOVLB  0
0A506:  GOTO   6738
....................  
.................... } 
....................  
0A50A:  SLEEP 

Configuration Fuses:
   Word  1: 0200   HS NOIESO NOFCMEN
   Word  2: 1E1F   BROWNOUT NOWDT BORV20 NOPUT WDT32768
   Word  3: 0000   NOPBADEN NOLPT1OSC NOMCLR
   Word  4: 00B0   NOSTVREN NODEBUG NOLVP NOXINST BBSIZ4K
   Word  5: C03F   NOPROTECT NOCPD NOCPB
   Word  6: E03F   NOWRT NOWRTD NOWRTC NOWRTB
   Word  7: 403F   NOEBTR NOEBTRB
