CCS PCH C Compiler, Version 4.104, 5967               17-abr.-20 11:35

               Filename: D:\Laboratorio\Cabina de PCR\2020\CPCR Trabajo Lorena Vejarano D4X20 #0045881XX OP2020109\Firmware\CabinaCFLH.lst

               ROM used: 4058 bytes (12%)
                         Largest free fragment is 28706
               RAM used: 46 (2%) at main() level
                         64 (3%) worst case
               Stack:    8 worst case (7 in main + 1 for interrupts)

*
0000:  GOTO   095E
*
0008:  MOVWF  04
000A:  MOVFF  FD8,05
000E:  MOVFF  FE0,06
0012:  MOVLB  0
0014:  MOVFF  FE9,0C
0018:  MOVFF  FEA,07
001C:  MOVFF  FE1,08
0020:  MOVFF  FE2,09
0024:  MOVFF  FD9,0A
0028:  MOVFF  FDA,0B
002C:  MOVFF  FF3,12
0030:  MOVFF  FF4,13
0034:  MOVFF  FFA,14
0038:  MOVFF  00,0E
003C:  MOVFF  01,0F
0040:  MOVFF  02,10
0044:  MOVFF  03,11
0048:  BTFSS  F9D.0
004A:  GOTO   0054
004E:  BTFSC  F9E.0
0050:  GOTO   011C
0054:  MOVFF  0E,00
0058:  MOVFF  0F,01
005C:  MOVFF  10,02
0060:  MOVFF  11,03
0064:  MOVFF  0C,FE9
0068:  MOVFF  07,FEA
006C:  BSF    07.7
006E:  MOVFF  08,FE1
0072:  MOVFF  09,FE2
0076:  MOVFF  0A,FD9
007A:  MOVFF  0B,FDA
007E:  MOVFF  12,FF3
0082:  MOVFF  13,FF4
0086:  MOVFF  14,FFA
008A:  MOVF   04,W
008C:  MOVFF  06,FE0
0090:  MOVFF  05,FD8
0094:  RETFIE 0
.................... // JP Inglobal. 
....................  
.................... #include <18F4550.h> 
.................... //////// Standard Header file for the PIC18F4550 device //////////////// 
.................... #device PIC18F4550 
.................... #list 
....................  
.................... #device adc=10 
.................... #fuses XTPLL,NOWDT,NOPROTECT,NOLVP,NODEBUG,USBDIV,PLL1,CPUDIV4,VREGEN,NOMCLR,NOPUT 
.................... #use delay(clock=16000000) 
*
02D6:  CLRF   FEA
02D8:  MOVLW  3C
02DA:  MOVWF  FE9
02DC:  MOVF   FEF,W
02DE:  BZ    02FC
02E0:  MOVLW  05
02E2:  MOVWF  01
02E4:  CLRF   00
02E6:  DECFSZ 00,F
02E8:  BRA    02E6
02EA:  DECFSZ 01,F
02EC:  BRA    02E4
02EE:  MOVLW  2E
02F0:  MOVWF  00
02F2:  DECFSZ 00,F
02F4:  BRA    02F2
02F6:  BRA    02F8
02F8:  DECFSZ FEF,F
02FA:  BRA    02E0
02FC:  RETLW  00
.................... #include <MATH.h> 
.................... //////////////////////////////////////////////////////////////////////////// 
.................... ////        (C) Copyright 1996,2008 Custom Computer Services            //// 
.................... //// This source code may only be used by licensed users of the CCS C   //// 
.................... //// compiler.  This source code may only be distributed to other       //// 
.................... //// licensed users of the CCS C compiler.  No other use, reproduction  //// 
.................... //// or distribution is permitted without written permission.           //// 
.................... //// Derivative programs created using this software in object code     //// 
.................... //// form are not restricted in any way.                                //// 
.................... //////////////////////////////////////////////////////////////////////////// 
.................... ////                                                                    //// 
.................... //// History:                                                           //// 
.................... ////  * 9/20/2001 :  Improvments are made to sin/cos code.              //// 
.................... ////                 The code now is small, much faster,                //// 
.................... ////                 and more accurate.                                 //// 
.................... ////  * 2/21/2007 :  Compiler handles & operator differently and does 
.................... ////                 not return generic (int8 *) so type cast is done   //// 
.................... ////                                                                    //// 
.................... //////////////////////////////////////////////////////////////////////////// 
....................  
.................... #ifndef MATH_H 
.................... #define MATH_H 
....................  
.................... #ifdef PI 
.................... #undef  PI 
.................... #endif 
.................... #define PI     3.1415926535897932 
....................  
....................  
.................... #define SQRT2  1.4142135623730950 
....................  
.................... //float const ps[4] = {5.9304945, 21.125224, 8.9403076, 0.29730279}; 
.................... //float const qs[4] = {1.0000000, 15.035723, 17.764134, 2.4934718}; 
....................  
.................... ///////////////////////////// Round Functions ////////////////////////////// 
....................  
.................... float32 CEIL_FLOOR(float32 x, unsigned int8 n) 
.................... { 
....................    float32 y, res; 
....................    unsigned int16 l; 
....................    int1 s; 
....................  
....................    s = 0; 
....................    y = x; 
....................  
....................    if (x < 0) 
....................    { 
....................       s = 1; 
....................       y = -y; 
....................    } 
....................  
....................    if (y <= 32768.0) 
....................   res = (float32)(unsigned int16)y; 
....................  
....................  else if (y < 10000000.0) 
....................    { 
....................   l = (unsigned int16)(y/32768.0); 
....................       y = 32768.0*(y/32768.0 - (float32)l); 
....................   res = 32768.0*(float32)l; 
....................   res += (float32)(unsigned int16)y; 
....................  } 
....................  
....................  else 
....................   res = y; 
....................  
....................  y = y - (float32)(unsigned int16)y; 
....................  
....................  if (s) 
....................   res = -res; 
....................  
....................  if (y != 0) 
....................  { 
....................   if (s == 1 && n == 0) 
....................    res -= 1.0; 
....................  
....................   if (s == 0 && n == 1) 
....................    res += 1.0; 
....................  } 
....................  if (x == 0) 
....................     res = 0; 
....................  
....................  return (res); 
.................... } 
....................  
.................... // Overloaded Functions to take care for new Data types in PCD 
.................... // Overloaded function CEIL_FLOOR() for data type - Float48 
.................... #if defined(__PCD__) 
.................... float48 CEIL_FLOOR(float48 x, unsigned int8 n) 
.................... { 
....................    float48 y, res; 
....................    unsigned int16 l; 
....................    int1 s; 
....................  
....................    s = 0; 
....................    y = x; 
....................  
....................    if (x < 0) 
....................    { 
....................       s = 1; 
....................       y = -y; 
....................    } 
....................  
....................    if (y <= 32768.0) 
....................   res = (float48)(unsigned int16)y; 
....................  
....................  else if (y < 10000000.0) 
....................    { 
....................   l = (unsigned int16)(y/32768.0); 
....................       y = 32768.0*(y/32768.0 - (float48)l); 
....................   res = 32768.0*(float32)l; 
....................   res += (float48)(unsigned int16)y; 
....................  } 
....................  
....................  else 
....................   res = y; 
....................  
....................  y = y - (float48)(unsigned int16)y; 
....................  
....................  if (s) 
....................   res = -res; 
....................  
....................  if (y != 0) 
....................  { 
....................   if (s == 1 && n == 0) 
....................    res -= 1.0; 
....................  
....................   if (s == 0 && n == 1) 
....................    res += 1.0; 
....................  } 
....................  if (x == 0) 
....................     res = 0; 
....................  
....................  return (res); 
.................... } 
....................  
....................  
.................... // Overloaded function CEIL_FLOOR() for data type - Float64 
.................... float64 CEIL_FLOOR(float64 x, unsigned int8 n) 
.................... { 
....................    float64 y, res; 
....................    unsigned int16 l; 
....................    int1 s; 
....................  
....................    s = 0; 
....................    y = x; 
....................  
....................    if (x < 0) 
....................    { 
....................       s = 1; 
....................       y = -y; 
....................    } 
....................  
....................    if (y <= 32768.0) 
....................   res = (float64)(unsigned int16)y; 
....................  
....................  else if (y < 10000000.0) 
....................    { 
....................   l = (unsigned int16)(y/32768.0); 
....................       y = 32768.0*(y/32768.0 - (float64)l); 
....................   res = 32768.0*(float64)l; 
....................   res += (float64)(unsigned int16)y; 
....................  } 
....................  
....................  else 
....................   res = y; 
....................  
....................  y = y - (float64)(unsigned int16)y; 
....................  
....................  if (s) 
....................   res = -res; 
....................  
....................  if (y != 0) 
....................  { 
....................   if (s == 1 && n == 0) 
....................    res -= 1.0; 
....................  
....................   if (s == 0 && n == 1) 
....................    res += 1.0; 
....................  } 
....................  if (x == 0) 
....................     res = 0; 
....................  
....................  return (res); 
.................... } 
.................... #endif 
....................  
.................... //////////////////////////////////////////////////////////////////////////// 
.................... //   float floor(float x) 
.................... //////////////////////////////////////////////////////////////////////////// 
.................... // Description : rounds down the number x. 
.................... // Date : N/A 
.................... // 
.................... float32 floor(float32 x) 
.................... { 
....................    return CEIL_FLOOR(x, 0); 
.................... } 
.................... // Following 2 functions are overloaded functions of floor() for PCD 
.................... // Overloaded function floor() for data type - Float48 
.................... #if defined(__PCD__) 
.................... float48 floor(float48 x) 
.................... { 
....................    return CEIL_FLOOR(x, 0); 
.................... } 
....................  
.................... // Overloaded function floor() for data type - Float64 
.................... float64 floor(float64 x) 
.................... { 
....................    return CEIL_FLOOR(x, 0); 
.................... } 
.................... #endif 
....................  
....................  
.................... //////////////////////////////////////////////////////////////////////////// 
.................... //   float ceil(float x) 
.................... //////////////////////////////////////////////////////////////////////////// 
.................... // Description : rounds up the number x. 
.................... // Date : N/A 
.................... // 
.................... float32 ceil(float32 x) 
.................... { 
....................    return CEIL_FLOOR(x, 1); 
.................... } 
.................... // Following 2 functions are overloaded functions of ceil() for PCD 
.................... // Overloaded function ceil() for data type - Float48 
.................... #if defined(__PCD__) 
.................... float48 ceil(float48 x) 
.................... { 
....................    return CEIL_FLOOR(x, 1); 
.................... } 
....................  
.................... // Overloaded function ceil() for data type - Float64 
.................... float64 ceil(float64 x) 
.................... { 
....................    return CEIL_FLOOR(x, 1); 
.................... } 
.................... #endif 
....................  
....................  //////////////////////////////////////////////////////////////////////////// 
.................... //   float fabs(float x) 
.................... //////////////////////////////////////////////////////////////////////////// 
.................... // Description : Computes the absolute value of floating point number x 
.................... // Returns : returns the absolute value of x 
.................... // Date : N/A 
.................... // 
.................... #define fabs abs 
....................  
.................... //////////////////////////////////////////////////////////////////////////// 
.................... //   float fmod(float x) 
.................... //////////////////////////////////////////////////////////////////////////// 
.................... // Description : Computes the floating point remainder of x/y 
.................... // Returns : returns the value of x= i*y, for some integer i such that, if y 
.................... // is non zero, the result has the same isgn of x na dmagnitude less than the 
.................... // magnitude of y. If y is zero then a domain error occurs. 
.................... // Date : N/A 
.................... // 
....................  
.................... float fmod(float32 x,float32 y) 
.................... { 
....................    float32 i; 
....................    if (y!=0.0) 
....................    { 
....................       i=(x/y < 0.0)? ceil(x/y): floor(x/y); 
....................       return(x-(i*y)); 
....................    } 
....................    else 
....................    { 
....................    #ifdef _ERRNO 
....................    { 
....................       errno=EDOM; 
....................    } 
....................    #endif 
....................    } 
.................... } 
.................... //Overloaded function for fmod() for PCD 
.................... // Overloaded function fmod() for data type - Float48 
.................... #if defined(__PCD__) 
.................... float48 fmod(float48 x,float48 y) 
.................... { 
....................    float48 i; 
....................    if (y!=0.0) 
....................    { 
....................       i=(x/y < 0.0)? ceil(x/y): floor(x/y); 
....................       return(x-(i*y)); 
....................    } 
....................    else 
....................    { 
....................    #ifdef _ERRNO 
....................    { 
....................       errno=EDOM; 
....................    } 
....................    #endif 
....................    } 
.................... } 
.................... // Overloaded function fmod() for data type - Float64 
.................... float64 fmod(float64 x,float64 y) 
.................... { 
....................    float64 i; 
....................    if (y!=0.0) 
....................    { 
....................       i=(x/y < 0.0)? ceil(x/y): floor(x/y); 
....................       return(x-(i*y)); 
....................    } 
....................    else 
....................    { 
....................    #ifdef _ERRNO 
....................    { 
....................       errno=EDOM; 
....................    } 
....................    #endif 
....................    } 
.................... } 
.................... #endif 
.................... //////////////////// Exponential and logarithmic functions //////////////////// 
.................... //////////////////////////////////////////////////////////////////////////// 
.................... //   float exp(float x) 
.................... //////////////////////////////////////////////////////////////////////////// 
.................... // Description : returns the value (e^x) 
.................... // Date : N/A 
.................... // 
.................... #define LN2 0.6931471805599453 
....................  
.................... float const pe[6] = {0.000207455774, 0.00127100575, 0.00965065093, 
....................                      0.0554965651,  0.240227138,  0.693147172}; 
....................  
....................  
.................... float32 exp(float32 x) 
.................... { 
....................    float32 y, res, r; 
....................    #if defined(__PCD__) 
....................    int8 data1; 
....................    #endif 
....................    signed int8 n; 
....................    int1 s; 
....................    #ifdef _ERRNO 
....................    if(x > 88.722838) 
....................    { 
....................       errno=ERANGE; 
....................       return(0); 
....................    } 
....................    #endif 
....................    n = (signed int16)(x/LN2); 
....................    s = 0; 
....................    y = x; 
....................  
....................    if (x < 0) 
....................    { 
....................       s = 1; 
....................       n = -n; 
....................       y = -y; 
....................    } 
....................  
....................    res = 0.0; 
.................... #if !defined(__PCD__) 
....................    *((unsigned int8 *)(&res)) = n + 0x7F; 
.................... #endif 
....................  
.................... #if defined(__PCD__)  // Takes care of IEEE format for PCD 
....................    data1 = n+0x7F; 
....................    if(bit_test(data1,0)) 
....................    bit_set(*(((unsigned int8 *)(&res)+2)),7); 
....................    rotate_right(&data1,1); 
....................    bit_clear(data1,7); 
....................    *(((unsigned int8 *)(&res)+3)) = data1; 
.................... #endif 
....................  
....................    y = y/LN2 - (float32)n; 
....................  
....................    r = pe[0]*y + pe[1]; 
....................    r = r*y + pe[2]; 
....................    r = r*y + pe[3]; 
....................    r = r*y + pe[4]; 
....................    r = r*y + pe[5]; 
....................  
....................    res = res*(1.0 + y*r); 
....................  
....................    if (s) 
....................       res = 1.0/res; 
....................    return(res); 
.................... } 
....................  
....................  
.................... //Overloaded function for exp() for PCD 
.................... // Overloaded function exp() for data type - Float48 
.................... #if defined(__PCD__) 
.................... float48 exp(float48 x) 
.................... { 
....................    float48 y, res, r; 
....................    int8 data1; 
....................    signed int8 n; 
....................    int1 s; 
....................    #ifdef _ERRNO 
....................    if(x > 88.722838) 
....................    { 
....................       errno=ERANGE; 
....................       return(0); 
....................    } 
....................    #endif 
....................    n = (signed int16)(x/LN2); 
....................    s = 0; 
....................    y = x; 
....................  
....................    if (x < 0) 
....................    { 
....................       s = 1; 
....................       n = -n; 
....................       y = -y; 
....................    } 
....................  
....................    res = 0.0; 
....................  
....................    data1 = n+0x7F; 
....................    if(bit_test(data1,0)) 
....................    bit_set(*(((unsigned int8 *)(&res)+4)),7); 
....................    rotate_right(&data1,1); 
....................    bit_clear(data1,7); 
....................    *(((unsigned int8 *)(&res)+5)) = data1; 
....................  
....................    y = y/LN2 - (float48)n; 
....................  
....................    r = pe[0]*y + pe[1]; 
....................    r = r*y + pe[2]; 
....................    r = r*y + pe[3]; 
....................    r = r*y + pe[4]; 
....................    r = r*y + pe[5]; 
....................  
....................    res = res*(1.0 + y*r); 
....................  
....................    if (s) 
....................       res = 1.0/res; 
....................    return(res); 
.................... } 
....................  
.................... // Overloaded function exp() for data type - Float64 
.................... float64 exp(float64 x) 
.................... { 
....................    float64 y, res, r; 
....................    unsigned int16 data1, data2; 
....................    unsigned int16 *p; 
....................    signed int16 n; 
....................    int1 s; 
....................    #ifdef _ERRNO 
....................    if(x > 709.7827128) 
....................    { 
....................       errno=ERANGE; 
....................       return(0); 
....................    } 
....................    #endif 
....................    n = (signed int16)(x/LN2); 
....................    s = 0; 
....................    y = x; 
....................  
....................    if (x < 0) 
....................    { 
....................       s = 1; 
....................       n = -n; 
....................       y = -y; 
....................    } 
....................  
....................    res = 0.0; 
....................  
.................... #if !defined(__PCD__) 
....................    *((unsigned int16 *)(&res)) = n + 0x7F; 
.................... #endif 
....................    p= (((unsigned int16 *)(&res))+3); 
....................    data1 = *p; 
....................    data2 = *p;    
....................    data1 = n + 0x3FF; 
....................    data1 = data1 <<4; 
....................    if(bit_test(data2,15)) 
....................    bit_set(data1,15); 
....................    data2 = data2 & 0x000F; 
....................    data1 ^= data2; 
....................  
....................    *(((unsigned int16 *)(&res)+3)) = data1; 
....................  
....................  
....................    y = y/LN2 - (float64)n; 
....................  
....................    r = pe[0]*y + pe[1]; 
....................    r = r*y + pe[2]; 
....................    r = r*y + pe[3]; 
....................    r = r*y + pe[4]; 
....................    r = r*y + pe[5]; 
....................  
....................    res = res*(1.0 + y*r); 
....................  
....................    if (s) 
....................       res = 1.0/res; 
....................    return(res); 
.................... } 
....................  
.................... #ENDIF 
....................  
....................  
.................... /************************************************************/ 
....................  
.................... float32 const pl[4] = {0.45145214, -9.0558803, 26.940971, -19.860189}; 
.................... float32 const ql[4] = {1.0000000,  -8.1354259, 16.780517, -9.9300943}; 
....................  
.................... //////////////////////////////////////////////////////////////////////////// 
.................... //   float log(float x) 
.................... //////////////////////////////////////////////////////////////////////////// 
.................... // Description : returns the the natural log of x 
.................... // Date : N/A 
.................... // 
.................... float32 log(float32 x) 
.................... { 
....................    float32 y, res, r, y2; 
....................    #if defined(__PCD__) 
....................    unsigned int8  data1,data2; 
....................    #endif 
....................    signed int8 n; 
....................    #ifdef _ERRNO 
....................    if(x <0) 
....................    { 
....................       errno=EDOM; 
....................    } 
....................    if(x ==0) 
....................    { 
....................       errno=ERANGE; 
....................       return(0); 
....................    } 
....................    #endif 
....................    y = x; 
....................  
....................    if (y != 1.0) 
....................    { 
.................... #if !defined(__PCD__) 
....................     *((unsigned int8 *)(&y)) = 0x7E;  
.................... #endif 
....................  
.................... #if defined(__PCD__) // Takes care of IEEE format 
....................    data2 = *(((unsigned int8 *)(&y))+3); 
....................    *(((unsigned int8 *)(&y))+3) = 0x3F; 
....................    data1 = *(((unsigned int8 *)(&y))+2); 
....................    bit_clear(data1,7); 
....................    *(((unsigned int8 *)(&y))+2) = data1; 
....................    if(bit_test(data2,7)) 
....................    bit_set(*(((unsigned int8 *)(&y))+3),7); 
.................... #endif 
....................  
....................       y = (y - 1.0)/(y + 1.0); 
....................  
....................       y2=y*y; 
....................  
....................       res = pl[0]*y2 + pl[1]; 
....................       res = res*y2 + pl[2]; 
....................       res = res*y2 + pl[3]; 
....................  
....................       r = ql[0]*y2 + ql[1]; 
....................       r = r*y2 + ql[2]; 
....................       r = r*y2 + ql[3]; 
....................  
....................       res = y*res/r; 
.................... #if !defined(__PCD__) 
....................       n = *((unsigned int8 *)(&x)) - 0x7E; 
.................... #endif 
.................... #if defined(__PCD__)  
....................     data1 = *(((unsigned int8 *)(&x)+3)); 
....................     rotate_left(&data1,1); 
....................     data2 = *(((unsigned int8 *)(&x)+2)); 
....................     if(bit_test (data2,7)) 
....................       bit_set(data1,0); 
....................     n = data1 - 0x7E; 
.................... #endif 
....................  
....................       if (n<0)  
....................          r = -(float32)-n; 
....................       else 
....................          r = (float32)n; 
....................  
....................       res += r*LN2; 
....................    } 
....................  
....................    else 
....................       res = 0.0; 
....................  
....................    return(res); 
.................... } 
....................  
.................... //Overloaded function for log() for PCD 
.................... // Overloaded function log() for data type - Float48 
.................... #if defined(__PCD__) 
.................... float48 log(float48 x) 
.................... { 
....................    float48 y, res, r, y2; 
....................    unsigned int8  data1,data2; 
....................    signed int8 n; 
....................    #ifdef _ERRNO 
....................    if(x <0) 
....................    { 
....................       errno=EDOM; 
....................    } 
....................    if(x ==0) 
....................    { 
....................       errno=ERANGE; 
....................       return(0); 
....................    } 
....................    #endif 
....................    y = x; 
....................  
....................    if (y != 1.0) 
....................    { 
....................     
....................    #if !defined(__PCD__) 
....................        *((unsigned int8 *)(&y)) = 0x7E;  
....................    #endif 
....................       data2 = *(((unsigned int8 *)(&y))+5); 
....................       *(((unsigned int8 *)(&y))+5) = 0x3F; 
....................       data1 = *(((unsigned int8 *)(&y))+4); 
....................       bit_clear(data1,7); 
....................       *(((unsigned int8 *)(&y))+4) = data1; 
....................    
....................       if(bit_test(data2,7)) 
....................          bit_set(*(((unsigned int8 *)(&y))+4),7); 
....................       y = (y - 1.0)/(y + 1.0); 
....................  
....................       y2=y*y; 
....................  
....................       res = pl[0]*y2 + pl[1]; 
....................       res = res*y2 + pl[2]; 
....................       res = res*y2 + pl[3]; 
....................  
....................       r = ql[0]*y2 + ql[1]; 
....................       r = r*y2 + ql[2]; 
....................       r = r*y2 + ql[3]; 
....................  
....................       res = y*res/r; 
....................  
....................     data1 = *(((unsigned int8 *)(&x)+5)); 
....................     rotate_left(&data1,1); 
....................     data2 = *(((unsigned int8 *)(&x)+4)); 
....................     if(bit_test (data2,7)) 
....................        bit_set(data1,0); 
....................       
....................     n = data1 - 0x7E; 
....................  
....................       if (n<0) 
....................          r = -(float48)-n; 
....................       else 
....................          r = (float48)n; 
....................  
....................       res += r*LN2; 
....................    } 
....................  
....................    else 
....................       res = 0.0; 
....................  
....................    return(res); 
.................... } 
....................  
.................... // Overloaded function log() for data type - Float48 
.................... #if defined(__PCD__) 
.................... float32 const pl_64[4] = {0.45145214, -9.0558803, 26.940971, -19.860189}; 
.................... float32 const ql_64[4] = {1.0000000,  -8.1354259, 16.780517, -9.9300943}; 
.................... #endif 
.................... float64 log(float64 x) 
.................... { 
....................    float64 y, res, r, y2; 
....................    unsigned int16  data1,data2; 
....................    unsigned int16 *p; 
....................    signed int16 n; 
....................    #ifdef _ERRNO 
....................    if(x <0) 
....................    { 
....................       errno=EDOM; 
....................    } 
....................    if(x ==0) 
....................    { 
....................       errno=ERANGE; 
....................       return(0); 
....................    } 
....................    #endif 
....................    y = x; 
....................  
....................    if (y != 1.0) 
....................    { 
....................    #if !defined(__PCD__) 
....................        *((unsigned int8 *)(&y)) = 0x7E;  
....................    #endif 
....................       p= (((unsigned int16 *)(&y))+3); 
....................       data1 = *p; 
....................       data2 = *p; 
....................       data1 = 0x3FE; 
....................       data1 = data1 <<4; 
....................       if(bit_test (data2,15)) 
....................       bit_set(data1,15); 
....................       data2 = data2 & 0x000F; 
....................       data1 ^=data2; 
....................  
....................       *p = data1; 
....................  
....................       y = (y - 1.0)/(y + 1.0); 
....................  
....................       y2=y*y; 
....................  
....................       res = pl_64[0]*y2 + pl_64[1]; 
....................       res = res*y2 + pl_64[2]; 
....................       res = res*y2 + pl_64[3]; 
....................  
....................       r = ql_64[0]*y2 + ql_64[1]; 
....................       r = r*y2 + ql_64[2]; 
....................       r = r*y2 + ql_64[3]; 
....................  
....................       res = y*res/r; 
....................   
....................       p= (((unsigned int16 *)(&x))+3); 
....................       data1 = *p; 
....................       bit_clear(data1,15); 
....................       data1 = data1 >>4;     
....................       n = data1 - 0x3FE; 
....................  
....................  
....................       if (n<0) 
....................          r = -(float64)-n; 
....................       else 
....................          r = (float64)n; 
....................  
....................       res += r*LN2; 
....................    } 
....................  
....................    else 
....................       res = 0.0; 
....................  
....................    return(res); 
.................... } 
.................... #endif 
....................  
....................  
.................... #define LN10 2.3025850929940456 
....................  
.................... //////////////////////////////////////////////////////////////////////////// 
.................... //   float log10(float x) 
.................... //////////////////////////////////////////////////////////////////////////// 
.................... // Description : returns the the log base 10 of x 
.................... // Date : N/A 
.................... // 
.................... float32 log10(float32 x) 
.................... { 
....................    float32 r; 
....................  
....................    r = log(x); 
....................    r = r/LN10; 
....................    return(r); 
.................... } 
....................  
.................... //Overloaded functions for log10() for PCD 
.................... // Overloaded function log10() for data type - Float48 
.................... #if defined(__PCD__) 
.................... float48 log10(float48 x) 
.................... { 
....................    float48 r; 
....................  
....................    r = log(x); 
....................    r = r/LN10; 
....................    return(r); 
.................... } 
....................  
.................... // Overloaded function log10() for data type - Float64 
.................... float64 log10(float64 x) 
.................... { 
....................    float64 r; 
....................  
....................    r = log(x); 
....................    r = r/LN10; 
....................    return(r); 
.................... } 
.................... #endif 
.................... //////////////////////////////////////////////////////////////////////////// 
.................... //   float modf(float x) 
.................... //////////////////////////////////////////////////////////////////////////// 
.................... // Description :breaks the argument value int integral and fractional parts, 
.................... // ach of which have the same sign as the argument.  It stores the integral part 
.................... // as a float in the object pointed to by the iptr 
.................... // Returns : returns the signed fractional part of value. 
.................... // Date : N/A 
.................... // 
....................  
.................... float32 modf(float32 value,float32 *iptr) 
.................... { 
....................    *iptr=(value < 0.0)? ceil(value): floor(value); 
....................    return(value - *iptr); 
.................... } 
.................... //Overloaded functions for modf() for PCD 
.................... // Overloaded function modf() for data type - Float48 
.................... #if defined(__PCD__) 
.................... float48 modf(float48 value,float48 *iptr) 
.................... { 
....................    *iptr=(value < 0.0)? ceil(value): floor(value); 
....................    return(value - *iptr); 
.................... } 
.................... // Overloaded function modf() for data type - Float64 
.................... float64 modf(float64 value,float64 *iptr) 
.................... { 
....................    *iptr=(value < 0.0)? ceil(value): floor(value); 
....................    return(value - *iptr); 
.................... } 
.................... #endif 
....................  
.................... //////////////////////////////////////////////////////////////////////////// 
.................... //   float pwr(float x,float y) 
.................... //////////////////////////////////////////////////////////////////////////// 
.................... // Description : returns the value (x^y) 
.................... // Date : N/A 
.................... // Note : 0 is returned when the function will generate an imaginary number 
.................... // 
.................... float32 pwr(float32 x,float32 y) 
.................... { 
....................    if(0 > x && fmod(y, 1) == 0) { 
....................       if(fmod(y, 2) == 0) { 
....................          return (exp(log(-x) * y)); 
....................       } else { 
....................          return (-exp(log(-x) * y)); 
....................       } 
....................    } else if(0 > x && fmod(y, 1) != 0) { 
....................       return 0; 
....................    } else { 
....................       if(x != 0 || 0 >= y) { 
....................          return (exp(log(x) * y)); 
....................       } 
....................    } 
.................... } 
.................... //Overloaded functions for pwr() for PCD 
.................... // Overloaded function pwr() for data type - Float48 
.................... #if defined(__PCD__) 
.................... float48 pwr(float48 x,float48 y) 
.................... { 
....................    if(0 > x && fmod(y, 1) == 0) { 
....................       if(fmod(y, 2) == 0) { 
....................          return (exp(log(-x) * y)); 
....................       } else { 
....................          return (-exp(log(-x) * y)); 
....................       } 
....................    } else if(0 > x && fmod(y, 1) != 0) { 
....................       return 0; 
....................    } else { 
....................       if(x != 0 || 0 >= y) { 
....................          return (exp(log(x) * y)); 
....................       } 
....................    } 
.................... } 
.................... // Overloaded function pwr() for data type - Float64 
.................... float64 pwr(float64 x,float64 y) 
.................... { 
....................    if(0 > x && fmod(y, 1) == 0) { 
....................       if(fmod(y, 2) == 0) { 
....................          return (exp(log(-x) * y)); 
....................       } else { 
....................          return (-exp(log(-x) * y)); 
....................       } 
....................    } else if(0 > x && fmod(y, 1) != 0) { 
....................       return 0; 
....................    } else { 
....................       if(x != 0 || 0 >= y) { 
....................          return (exp(log(x) * y)); 
....................       } 
....................    } 
.................... } 
.................... #endif 
....................  
.................... //////////////////// Power functions //////////////////// 
....................  
.................... //////////////////////////////////////////////////////////////////////////// 
.................... //   float pow(float x,float y) 
.................... //////////////////////////////////////////////////////////////////////////// 
.................... // Description : returns the value (x^y) 
.................... // Date : N/A 
.................... // Note : 0 is returned when the function will generate an imaginary number 
.................... // 
.................... float32 pow(float32 x,float32 y) 
.................... { 
....................    if(0 > x && fmod(y, 1) == 0) { 
....................       if(fmod(y, 2) == 0) { 
....................          return (exp(log(-x) * y)); 
....................       } else { 
....................          return (-exp(log(-x) * y)); 
....................       } 
....................    } else if(0 > x && fmod(y, 1) != 0) { 
....................       return 0; 
....................    } else { 
....................       if(x != 0 || 0 >= y) { 
....................          return (exp(log(x) * y)); 
....................       } 
....................    } 
.................... } 
.................... //Overloaded functions for pow() for PCD 
.................... // Overloaded function for pow() data type - Float48 
.................... #if defined(__PCD__) 
.................... float48 pow(float48 x,float48 y) 
.................... { 
....................    if(0 > x && fmod(y, 1) == 0) { 
....................       if(fmod(y, 2) == 0) { 
....................          return (exp(log(-x) * y)); 
....................       } else { 
....................          return (-exp(log(-x) * y)); 
....................       } 
....................    } else if(0 > x && fmod(y, 1) != 0) { 
....................       return 0; 
....................    } else { 
....................       if(x != 0 || 0 >= y) { 
....................          return (exp(log(x) * y)); 
....................       } 
....................    } 
.................... } 
....................  
.................... // Overloaded function pow() for data type - Float64 
.................... float64 pow(float64 x,float64 y) 
.................... { 
....................    if(0 > x && fmod(y, 1) == 0) { 
....................       if(fmod(y, 2) == 0) { 
....................          return (exp(log(-x) * y)); 
....................       } else { 
....................          return (-exp(log(-x) * y)); 
....................       } 
....................    } else if(0 > x && fmod(y, 1) != 0) { 
....................       return 0; 
....................    } else { 
....................       if(x != 0 || 0 >= y) { 
....................          return (exp(log(x) * y)); 
....................       } 
....................    } 
.................... } 
.................... #endif 
....................  
.................... //////////////////////////////////////////////////////////////////////////// 
.................... //   float sqrt(float x) 
.................... //////////////////////////////////////////////////////////////////////////// 
.................... // Description : returns the square root of x 
.................... // Date : N/A 
.................... // 
.................... float32 sqrt(float32 x) 
.................... { 
....................    float32 y, res; 
....................    #if defined(__PCD__) 
....................    unsigned int16 data1,data2; 
....................    #endif 
....................    BYTE *p; 
....................  
....................    #ifdef _ERRNO 
....................    if(x < 0) 
....................    { 
....................       errno=EDOM; 
....................    } 
....................    #endif 
....................  
....................    if( x<=0.0) 
....................       return(0.0); 
....................  
....................    y=x; 
....................     
....................    #if !defined(__PCD__) 
....................     p=&y; 
....................    (*p)=(BYTE)((((unsigned int16)(*p)) + 127) >> 1); 
....................    #endif 
....................     
....................    #if defined(__PCD__) 
....................     p = (((unsigned int8 *)(&y))+3); 
....................     data1 = *(((unsigned int8 *)(&y))+3); 
....................     data2 = *(((unsigned int8 *)(&y))+2); 
....................     rotate_left(&data1,1);     
....................     if(bit_test(data2,7))     
....................     bit_set(data1,0);     
....................     data1 = ((data1+127) >>1); 
....................     bit_clear(data2,7); 
....................     if(bit_test(data1,0)) 
....................     bit_set(data2,7); 
....................     data1 = data1 >>1; 
....................     *(((unsigned int8 *)(&y))+3) = data1; 
....................     *(((unsigned int8 *)(&y))+2) = data2; 
....................      
....................   #endif 
....................  
....................    do { 
....................       res=y; 
....................       y+=(x/y); 
....................  
....................       #if !defined(__PCD__) 
....................      (*p)--; 
....................    #endif 
....................     
....................    #if defined(__PCD__) 
....................     data1 = *(((unsigned int8 *)(&y))+3); 
....................     data2 = *(((unsigned int8 *)(&y))+2); 
....................     rotate_left(&data1,1); 
....................     if(bit_test(data2,7)) 
....................     bit_set(data1,0);     
....................     data1--; 
....................     bit_clear(data2,7); 
....................     if(bit_test(data1,0)) 
....................     bit_set(data2,7); 
....................     data1 = data1 >>1; 
....................     *(((unsigned int8 *)(&y))+3) = data1; 
....................     *(((unsigned int8 *)(&y))+2) = data2; 
....................      
....................   #endif 
....................    } while(res != y); 
....................  
....................    return(res); 
.................... } 
.................... //Overloaded functions for sqrt() for PCD 
.................... // Overloaded function sqrt() for data type - Float48 
.................... #if defined(__PCD__) 
.................... float48 sqrt(float48 x) 
.................... { 
....................    float48 y, res; 
....................    unsigned int16 data1,data2; 
....................    BYTE *p; 
....................  
....................    #ifdef _ERRNO 
....................    if(x < 0) 
....................    { 
....................       errno=EDOM; 
....................    } 
....................    #endif 
....................  
....................    if( x<=0.0) 
....................       return(0.0); 
....................  
....................    y=x; 
....................     
....................    #if !defined(__PCD__) 
....................     p=&y; 
....................    (*p)=(BYTE)((((unsigned int16)(*p)) + 127) >> 1); 
....................    #endif 
....................     
....................    #if defined(__PCD__) 
....................     p = (((unsigned int8 *)(&y))+5); 
....................     data1 = *(((unsigned int8 *)(&y))+5); 
....................     data2 = *(((unsigned int8 *)(&y))+4); 
....................     rotate_left(&data1,1); 
....................     if(bit_test(data2,7)) 
....................     bit_set(data1,0);     
....................     data1 = ((data1+127) >>1); 
....................     bit_clear(data2,7); 
....................     if(bit_test(data1,0)) 
....................     bit_set(data2,7); 
....................     data1 = data1 >>1; 
....................     *(((unsigned int8 *)(&y))+5) = data1; 
....................     *(((unsigned int8 *)(&y))+4) = data2; 
....................      
....................   #endif 
....................  
....................    do { 
....................       res=y; 
....................       y+=(x/y); 
....................  
....................       #if !defined(__PCD__) 
....................      (*p)--; 
....................    #endif 
....................     
....................     data1 = *(((unsigned int8 *)(&y))+5); 
....................     data2 = *(((unsigned int8 *)(&y))+4); 
....................     rotate_left(&data1,1); 
....................     if(bit_test(data2,7)) 
....................     bit_set(data1,0);     
....................     data1--; 
....................     bit_clear(data2,7); 
....................     if(bit_test(data1,0)) 
....................     bit_set(data2,7); 
....................     data1 = data1 >>1; 
....................     *(((unsigned int8 *)(&y))+5) = data1; 
....................     *(((unsigned int8 *)(&y))+4) = data2; 
....................      
....................    } while(res != y); 
....................  
....................    return(res); 
.................... } 
....................  
.................... // Overloaded function sqrt() for data type - Float64 
.................... float64 sqrt(float64 x) 
.................... { 
....................    float64 y, res; 
....................    unsigned int16 *p; 
....................    unsigned int16 temp1,temp2; 
....................  
....................    #ifdef _ERRNO 
....................    if(x < 0) 
....................    { 
....................       errno=EDOM; 
....................    } 
....................    #endif 
....................  
....................    if( x<=0.0) 
....................       return(0.0); 
....................  
....................    y=x; 
....................    p= (((unsigned int16 *)(&y))+3); 
....................    temp1 = *p; 
....................    temp2 = *p; 
....................    bit_clear(temp1,15); 
....................    temp1 = (temp1>>4)+1023; 
....................    temp1 = temp1 >> 1; 
....................    temp1 = (temp1<<4) & 0xFFF0; 
....................    if(bit_test(temp2,15)) 
....................    bit_set(temp1,15); 
....................    temp2 = temp2 & 0x000F; 
....................    temp1 ^= temp2; 
....................     
....................    (*p) = temp1; 
....................     
....................    do { 
....................       res=y; 
....................       y+=(x/y); 
....................      temp1 = *p; 
....................      temp2 = *p; 
....................      bit_clear(temp1,15); 
....................      temp1 = (temp1>>4); 
....................      temp1--; 
....................      temp1 = (temp1<<4) & 0xFFF0; 
....................      if(bit_test(temp2,15)) 
....................      bit_set(temp1,15); 
....................      temp2 = temp2 & 0x000F; 
....................      temp1 ^= temp2; 
....................      (*p) = temp1; 
....................  
....................    } while(res != y); 
....................  
....................    return(res); 
.................... } 
.................... #endif 
....................  
.................... ////////////////////////////// Trig Functions ////////////////////////////// 
.................... #ifdef PI_DIV_BY_TWO 
.................... #undef PI_DIV_BY_TWO 
.................... #endif 
.................... #define PI_DIV_BY_TWO   1.5707963267948966 
.................... #ifdef TWOBYPI 
.................... #undef TWOBYPI 
.................... #define TWOBYPI          0.6366197723675813 
.................... #endif 
.................... //////////////////////////////////////////////////////////////////////////// 
.................... //   float cos(float x) 
.................... //////////////////////////////////////////////////////////////////////////// 
.................... // Description : returns the cosine value of the angle x, which is in radian 
.................... // Date : 9/20/2001 
.................... // 
.................... float32 cos(float32 x) 
.................... { 
....................    float32 y, t, t2 = 1.0; 
....................    unsigned int8 quad, i; 
....................    float32 frac; 
....................    float32 p[6] = {                    //by the series definition for cosine 
....................       -0.5,                            // sum ( ( (-1)^n * x^2n )/(2n)! ) 
....................        0.04166666666667, 
....................       -0.00138888888889, 
....................        0.00002480158730, 
....................       -0.00000027557319, 
....................        0.00000000208767, 
....................       //-0.00000000001147, 
....................       // 0.00000000000005 
....................    }; 
....................  
....................    if (x < 0) x = -x;                  // absolute value of input 
....................  
....................    quad = (unsigned int8)(x / PI_DIV_BY_TWO);    // quadrant 
....................    frac = (x / PI_DIV_BY_TWO) - quad;  // fractional part of input 
....................    quad = quad % 4;                    // quadrant (0 to 3) 
....................  
....................    if (quad == 0 || quad == 2) 
....................       t = frac * PI_DIV_BY_TWO; 
....................    else if (quad == 1) 
....................       t = (1-frac) * PI_DIV_BY_TWO; 
....................    else // should be 3 
....................       t = (frac-1) * PI_DIV_BY_TWO; 
....................  
....................    y = 1.0; 
....................    t = t * t; 
....................    for (i = 0; i <= 5; i++) 
....................    { 
....................       t2 = t2 * t; 
....................       y = y + p[i] * t2; 
....................    } 
....................  
....................    if (quad == 2 || quad == 1) 
....................       y = -y;  // correct sign 
....................  
....................    return (y); 
.................... } 
....................  
....................  
.................... //Overloaded functions for cos() for PCD 
.................... // Overloaded function cos() for data type - Float48 
.................... #if defined(__PCD__) 
.................... float48 cos(float48 x) 
.................... { 
....................    float48 y, t, t2 = 1.0; 
....................    unsigned int8 quad, i; 
....................    float48 frac; 
....................    float48 p[6] = {                    //by the series definition for cosine 
....................       -0.5,                            // sum ( ( (-1)^n * x^2n )/(2n)! ) 
....................        0.04166666666667, 
....................       -0.00138888888889, 
....................        0.00002480158730, 
....................       -0.00000027557319, 
....................        0.00000000208767, 
....................       //-0.00000000001147, 
....................       // 0.00000000000005 
....................    }; 
....................  
....................    if (x < 0) x = -x;                  // absolute value of input 
....................  
....................    quad = (unsigned int8)(x / PI_DIV_BY_TWO);    // quadrant 
....................    frac = (x / PI_DIV_BY_TWO) - quad;  // fractional part of input 
....................    quad = quad % 4;                    // quadrant (0 to 3) 
....................  
....................    if (quad == 0 || quad == 2) 
....................       t = frac * PI_DIV_BY_TWO; 
....................    else if (quad == 1) 
....................       t = (1-frac) * PI_DIV_BY_TWO; 
....................    else // should be 3 
....................       t = (frac-1) * PI_DIV_BY_TWO; 
....................  
....................    y = 0.999999999781; 
....................    t = t * t; 
....................    for (i = 0; i <= 5; i++) 
....................    { 
....................       t2 = t2 * t; 
....................       y = y + p[i] * t2; 
....................    } 
....................  
....................    if (quad == 2 || quad == 1) 
....................       y = -y;  // correct sign 
....................  
....................    return (y); 
.................... } 
....................  
.................... // Overloaded function cos() for data type - Float48 
.................... float64 cos(float64 x) 
.................... { 
....................    float64 y, t, t2 = 1.0; 
....................    unsigned int8 quad, i; 
....................    float64 frac; 
....................    float64 p[6] = {                    //by the series definition for cosine 
....................       -0.5,                            // sum ( ( (-1)^n * x^2n )/(2n)! ) 
....................        0.04166666666667, 
....................       -0.00138888888889, 
....................        0.00002480158730, 
....................       -0.00000027557319, 
....................        0.00000000208767, 
....................       //-0.00000000001147, 
....................       // 0.00000000000005 
....................    }; 
....................  
....................    if (x < 0) x = -x;                  // absolute value of input 
....................  
....................    quad = (unsigned int8)(x / PI_DIV_BY_TWO);    // quadrant 
....................    frac = (x / PI_DIV_BY_TWO) - quad;  // fractional part of input 
....................    quad = quad % 4;                    // quadrant (0 to 3) 
....................  
....................    if (quad == 0 || quad == 2) 
....................       t = frac * PI_DIV_BY_TWO; 
....................    else if (quad == 1) 
....................       t = (1-frac) * PI_DIV_BY_TWO; 
....................    else // should be 3 
....................       t = (frac-1) * PI_DIV_BY_TWO; 
....................  
....................    y = 0.999999999781; 
....................    t = t * t; 
....................    for (i = 0; i <= 5; i++) 
....................    { 
....................       t2 = t2 * t; 
....................       y = y + p[i] * t2; 
....................    } 
....................  
....................    if (quad == 2 || quad == 1) 
....................       y = -y;  // correct sign 
....................  
....................    return (y); 
.................... } 
....................  
.................... #endif 
....................  
.................... //////////////////////////////////////////////////////////////////////////// 
.................... //   float sin(float x) 
.................... //////////////////////////////////////////////////////////////////////////// 
.................... // Description : returns the sine value of the angle x, which is in radian 
.................... // Date : 9/20/2001 
.................... // 
.................... float32 sin(float32 x) 
.................... { 
....................    return cos(x - PI_DIV_BY_TWO); 
.................... } 
....................  
.................... //Overloaded functions for sin() for PCD 
.................... // Overloaded function sin() for data type - Float48 
.................... #if defined(__PCD__) 
.................... float48 sin(float48 x) 
.................... { 
....................    return cos(x - PI_DIV_BY_TWO); 
.................... } 
....................  
.................... // Overloaded function sin() for data type - Float48 
.................... float64 sin(float64 x) 
.................... { 
....................    return cos(x - PI_DIV_BY_TWO); 
.................... } 
.................... #endif 
....................  
.................... //////////////////////////////////////////////////////////////////////////// 
.................... //   float tan(float x) 
.................... //////////////////////////////////////////////////////////////////////////// 
.................... // Description : returns the tangent value of the angle x, which is in radian 
.................... // Date : 9/20/2001 
.................... // 
.................... float32 tan(float32 x) 
.................... { 
....................    float32 c, s; 
....................  
....................    c = cos(x); 
....................    if (c == 0.0) 
....................       return (1.0e+36); 
....................  
....................    s = sin(x); 
....................    return(s/c); 
.................... } 
.................... //Overloaded functions for tan() for PCD 
.................... // Overloaded function tan() for data type - Float48 
.................... #if defined(__PCD__) 
.................... float48 tan(float48 x) 
.................... { 
....................    float48 c, s; 
....................  
....................    c = cos(x); 
....................    if (c == 0.0) 
....................       return (1.0e+36); 
....................  
....................    s = sin(x); 
....................    return(s/c); 
.................... } 
....................  
.................... // Overloaded function tan() for data type - Float48 
.................... float64 tan(float64 x) 
.................... { 
....................    float64 c, s; 
....................  
....................    c = cos(x); 
....................    if (c == 0.0) 
....................       return (1.0e+36); 
....................  
....................    s = sin(x); 
....................    return(s/c); 
.................... } 
.................... #endif 
....................  
.................... float32 const pas[3] = {0.49559947, -4.6145309, 5.6036290}; 
.................... float32 const qas[3] = {1.0000000,  -5.5484666, 5.6036290}; 
....................  
.................... float32 ASIN_COS(float32 x, unsigned int8 n) 
.................... { 
....................    float32 y, res, r, y2; 
....................    int1 s; 
....................    #ifdef _ERRNO 
....................    if(x <-1 || x > 1) 
....................    { 
....................       errno=EDOM; 
....................    } 
....................    #endif 
....................    s = 0; 
....................    y = x; 
....................  
....................    if (x < 0) 
....................    { 
....................       s = 1; 
....................       y = -y; 
....................    } 
....................  
....................    if (y > 0.5) 
....................    { 
....................       y = sqrt((1.0 - y)/2.0); 
....................       n += 2; 
....................    } 
....................  
....................    y2=y*y; 
....................  
....................    res = pas[0]*y2 + pas[1]; 
....................    res = res*y2 + pas[2]; 
....................  
....................    r = qas[0]*y2 + qas[1]; 
....................    r = r*y2 + qas[2]; 
....................  
....................    res = y*res/r; 
....................  
....................    if (n & 2)     // |x| > 0.5 
....................       res = PI_DIV_BY_TWO - 2.0*res; 
....................    if (s) 
....................       res = -res; 
....................    if (n & 1)           // take arccos 
....................       res = PI_DIV_BY_TWO - res; 
....................  
....................    return(res); 
.................... } 
....................  
.................... //Overloaded functions for ASIN_COS() for PCD 
.................... // Overloaded function ASIN_COS() for data type - Float48 
.................... #if defined(__PCD__) 
.................... float48 ASIN_COS(float48 x, unsigned int8 n) 
.................... { 
....................    float48 y, res, r, y2; 
....................    int1 s; 
....................    #ifdef _ERRNO 
....................    if(x <-1 || x > 1) 
....................    { 
....................       errno=EDOM; 
....................    } 
....................    #endif 
....................    s = 0; 
....................    y = x; 
....................  
....................    if (x < 0) 
....................    { 
....................       s = 1; 
....................       y = -y; 
....................    } 
....................  
....................    if (y > 0.5) 
....................    { 
....................       y = sqrt((1.0 - y)/2.0); 
....................       n += 2; 
....................    } 
....................  
....................    y2=y*y; 
....................  
....................    res = pas[0]*y2 + pas[1]; 
....................    res = res*y2 + pas[2]; 
....................  
....................    r = qas[0]*y2 + qas[1]; 
....................    r = r*y2 + qas[2]; 
....................  
....................    res = y*res/r; 
....................  
....................    if (n & 2)     // |x| > 0.5 
....................       res = PI_DIV_BY_TWO - 2.0*res; 
....................    if (s) 
....................       res = -res; 
....................    if (n & 1)           // take arccos 
....................       res = PI_DIV_BY_TWO - res; 
....................  
....................    return(res); 
.................... } 
....................  
.................... // Overloaded function ASIN_COS() for data type - Float64 
.................... float64 ASIN_COS(float64 x, unsigned int8 n) 
.................... { 
....................    float64 y, res, r, y2; 
....................    int1 s; 
....................    #ifdef _ERRNO 
....................    if(x <-1 || x > 1) 
....................    { 
....................       errno=EDOM; 
....................    } 
....................    #endif 
....................    s = 0; 
....................    y = x; 
....................  
....................    if (x < 0) 
....................    { 
....................       s = 1; 
....................       y = -y; 
....................    } 
....................  
....................    if (y > 0.5) 
....................    { 
....................       y = sqrt((1.0 - y)/2.0); 
....................       n += 2; 
....................    } 
....................  
....................    y2=y*y; 
....................  
....................    res = pas[0]*y2 + pas[1]; 
....................    res = res*y2 + pas[2]; 
....................  
....................    r = qas[0]*y2 + qas[1]; 
....................    r = r*y2 + qas[2]; 
....................  
....................    res = y*res/r; 
....................  
....................    if (n & 2)     // |x| > 0.5 
....................       res = PI_DIV_BY_TWO - 2.0*res; 
....................    if (s) 
....................       res = -res; 
....................    if (n & 1)           // take arccos 
....................       res = PI_DIV_BY_TWO - res; 
....................  
....................    return(res); 
.................... } 
.................... #endif 
....................  
.................... //////////////////////////////////////////////////////////////////////////// 
.................... //   float asin(float x) 
.................... //////////////////////////////////////////////////////////////////////////// 
.................... // Description : returns the arcsine value of the value x. 
.................... // Date : N/A 
.................... // 
.................... float32 asin(float32 x) 
.................... { 
....................    float32 r; 
....................  
....................    r = ASIN_COS(x, 0); 
....................    return(r); 
.................... } 
.................... //Overloaded functions for asin() for PCD 
.................... // Overloaded function asin() for data type - Float48 
.................... #if defined(__PCD__) 
.................... float48 asin(float48 x) 
.................... { 
....................    float48 r; 
....................  
....................    r = ASIN_COS(x, 0); 
....................    return(r); 
.................... } 
....................  
.................... // Overloaded function asin() for data type - Float64 
.................... float64 asin(float64 x) 
.................... { 
....................    float64 r; 
....................  
....................    r = ASIN_COS(x, 0); 
....................    return(r); 
.................... } 
.................... #endif 
....................  
.................... //////////////////////////////////////////////////////////////////////////// 
.................... //   float acos(float x) 
.................... //////////////////////////////////////////////////////////////////////////// 
.................... // Description : returns the arccosine value of the value x. 
.................... // Date : N/A 
.................... // 
.................... float32 acos(float32 x) 
.................... { 
....................    float32 r; 
....................  
....................    r = ASIN_COS(x, 1); 
....................    return(r); 
.................... } 
.................... //Overloaded functions for acos() for PCD 
.................... // Overloaded function acos() for data type - Float48 
.................... #if defined(__PCD__) 
.................... float48 acos(float48 x) 
.................... { 
....................    float48 r; 
....................  
....................    r = ASIN_COS(x, 1); 
....................    return(r); 
.................... } 
....................  
.................... // Overloaded function acos() for data type - Float64 
.................... float64 acos(float64 x) 
.................... { 
....................    float64 r; 
....................  
....................    r = ASIN_COS(x, 1); 
....................    return(r); 
.................... } 
.................... #endif 
....................  
.................... float32 const pat[4] = {0.17630401, 5.6710795, 22.376096, 19.818457}; 
.................... float32 const qat[4] = {1.0000000,  11.368190, 28.982246, 19.818457}; 
....................  
.................... //////////////////////////////////////////////////////////////////////////// 
.................... //   float atan(float x) 
.................... //////////////////////////////////////////////////////////////////////////// 
.................... // Description : returns the arctangent value of the value x. 
.................... // Date : N/A 
.................... // 
.................... float32 atan(float32 x) 
.................... { 
....................    float32 y, res, r; 
....................    int1 s, flag; 
....................  
....................    s = 0; 
....................    flag = 0; 
....................    y = x; 
....................  
....................    if (x < 0) 
....................    { 
....................       s = 1; 
....................       y = -y; 
....................    } 
....................  
....................    if (y > 1.0) 
....................    { 
....................       y = 1.0/y; 
....................       flag = 1; 
....................    } 
....................  
....................    res = pat[0]*y*y + pat[1]; 
....................    res = res*y*y + pat[2]; 
....................    res = res*y*y + pat[3]; 
....................  
....................    r = qat[0]*y*y + qat[1]; 
....................    r = r*y*y + qat[2]; 
....................    r = r*y*y + qat[3]; 
....................  
....................    res = y*res/r; 
....................  
....................  
....................    if (flag)                              // for |x| > 1 
....................       res = PI_DIV_BY_TWO - res; 
....................    if (s) 
....................       res = -res; 
....................  
....................    return(res); 
.................... } 
.................... //Overloaded functions for atan() for PCD 
.................... // Overloaded function atan() for data type - Float48 
.................... #if defined(__PCD__) 
.................... float48 atan(float48 x) 
.................... { 
....................    float48 y, res, r; 
....................    int1 s, flag; 
....................  
....................    s = 0; 
....................    flag = 0; 
....................    y = x; 
....................  
....................    if (x < 0) 
....................    { 
....................       s = 1; 
....................       y = -y; 
....................    } 
....................  
....................    if (y > 1.0) 
....................    { 
....................       y = 1.0/y; 
....................       flag = 1; 
....................    } 
....................  
....................    res = pat[0]*y*y + pat[1]; 
....................    res = res*y*y + pat[2]; 
....................    res = res*y*y + pat[3]; 
....................  
....................    r = qat[0]*y*y + qat[1]; 
....................    r = r*y*y + qat[2]; 
....................    r = r*y*y + qat[3]; 
....................  
....................    res = y*res/r; 
....................  
....................  
....................    if (flag)                              // for |x| > 1 
....................       res = PI_DIV_BY_TWO - res; 
....................    if (s) 
....................       res = -res; 
....................  
....................    return(res); 
.................... } 
....................  
.................... // Overloaded function atan() for data type - Float64 
.................... float64 atan(float64 x) 
.................... { 
....................    float64 y, res, r; 
....................    int1 s, flag; 
....................  
....................    s = 0; 
....................    flag = 0; 
....................    y = x; 
....................  
....................    if (x < 0) 
....................    { 
....................       s = 1; 
....................       y = -y; 
....................    } 
....................  
....................    if (y > 1.0) 
....................    { 
....................       y = 1.0/y; 
....................       flag = 1; 
....................    } 
....................  
....................    res = pat[0]*y*y + pat[1]; 
....................    res = res*y*y + pat[2]; 
....................    res = res*y*y + pat[3]; 
....................  
....................    r = qat[0]*y*y + qat[1]; 
....................    r = r*y*y + qat[2]; 
....................    r = r*y*y + qat[3]; 
....................  
....................    res = y*res/r; 
....................  
....................  
....................    if (flag)                              // for |x| > 1 
....................       res = PI_DIV_BY_TWO - res; 
....................    if (s) 
....................       res = -res; 
....................  
....................    return(res); 
.................... } 
.................... #endif 
....................  
.................... ///////////////////////////////////////////////////////////////////////////// 
.................... //   float atan2(float y, float x) 
.................... ///////////////////////////////////////////////////////////////////////////// 
.................... // Description :computes the principal value of arc tangent of y/x, using the 
.................... // signs of both the arguments to determine the quadrant of the return value 
.................... // Returns : returns the arc tangent of y/x. 
.................... // Date : N/A 
.................... // 
....................  
.................... float32 atan2(float32 y,float32 x) 
.................... { 
....................    float32 z; 
....................    int1 sign; 
....................    unsigned int8 quad; 
....................    sign=0; 
....................    quad=0; //quadrant 
....................    quad=((y<=0.0)?((x<=0.0)?3:4):((x<0.0)?2:1)); 
....................    if(y<0.0) 
....................    { 
....................       sign=1; 
....................       y=-y; 
....................    } 
....................    if(x<0.0) 
....................    { 
....................       x=-x; 
....................    } 
....................    if (x==0.0) 
....................    { 
....................       if(y==0.0) 
....................       { 
....................       #ifdef _ERRNO 
....................       { 
....................          errno=EDOM; 
....................       } 
....................       #endif 
....................       } 
....................       else 
....................       { 
....................          if(sign) 
....................          { 
....................          return (-(PI_DIV_BY_TWO)); 
....................          } 
....................          else 
....................          { 
....................          return (PI_DIV_BY_TWO); 
....................          } 
....................       } 
....................    } 
....................    else 
....................    { 
....................       z=y/x; 
....................       switch(quad) 
....................       { 
....................          case 1: 
....................          { 
....................             return atan(z); 
....................             break; 
....................          } 
....................          case 2: 
....................          { 
.................... //            return (atan(z)+PI_DIV_BY_TWO);  //2L3122 
....................             return (PI-atan(z)); 
....................             break; 
....................          } 
....................          case 3: 
....................          { 
....................             return (atan(z)-PI); 
....................             break; 
....................          } 
....................          case 4: 
....................          { 
....................             return (-atan(z)); 
....................             break; 
....................          } 
....................       } 
....................    } 
.................... } 
....................  
.................... //Overloaded functions for atan2() for PCD 
.................... // Overloaded function atan2() for data type - Float48 
.................... #if defined(__PCD__) 
.................... float48 atan2(float48 y,float48 x) 
.................... { 
....................    float48 z; 
....................    int1 sign; 
....................    unsigned int8 quad; 
....................    sign=0; 
....................    quad=0; //quadrant 
....................    quad=((y<=0.0)?((x<=0.0)?3:4):((x<0.0)?2:1)); 
....................    if(y<0.0) 
....................    { 
....................       sign=1; 
....................       y=-y; 
....................    } 
....................    if(x<0.0) 
....................    { 
....................       x=-x; 
....................    } 
....................    if (x==0.0) 
....................    { 
....................       if(y==0.0) 
....................       { 
....................       #ifdef _ERRNO 
....................       { 
....................          errno=EDOM; 
....................       } 
....................       #endif 
....................       } 
....................       else 
....................       { 
....................          if(sign) 
....................          { 
....................          return (-(PI_DIV_BY_TWO)); 
....................          } 
....................          else 
....................          { 
....................          return (PI_DIV_BY_TWO); 
....................          } 
....................       } 
....................    } 
....................    else 
....................    { 
....................       z=y/x; 
....................       switch(quad) 
....................       { 
....................          case 1: 
....................          { 
....................             return atan(z); 
....................             break; 
....................          } 
....................          case 2: 
....................          { 
.................... //            return (atan(z)+PI_DIV_BY_TWO);  //2L3122 
....................             return (PI-atan(z)); 
....................             break; 
....................          } 
....................          case 3: 
....................          { 
....................             return (atan(z)-PI); 
....................             break; 
....................          } 
....................          case 4: 
....................          { 
....................             return (-atan(z)); 
....................             break; 
....................          } 
....................       } 
....................    } 
.................... } 
....................  
.................... // Overloaded function atan2() for data type - Float64 
.................... float64 atan2(float64 y,float64 x) 
.................... { 
....................    float64 z; 
....................    int1 sign; 
....................    unsigned int8 quad; 
....................    sign=0; 
....................    quad=0; //quadrant 
....................    quad=((y<=0.0)?((x<=0.0)?3:4):((x<0.0)?2:1)); 
....................    if(y<0.0) 
....................    { 
....................       sign=1; 
....................       y=-y; 
....................    } 
....................    if(x<0.0) 
....................    { 
....................       x=-x; 
....................    } 
....................    if (x==0.0) 
....................    { 
....................       if(y==0.0) 
....................       { 
....................       #ifdef _ERRNO 
....................       { 
....................          errno=EDOM; 
....................       } 
....................       #endif 
....................       } 
....................       else 
....................       { 
....................          if(sign) 
....................          { 
....................          return (-(PI_DIV_BY_TWO)); 
....................          } 
....................          else 
....................          { 
....................          return (PI_DIV_BY_TWO); 
....................          } 
....................       } 
....................    } 
....................    else 
....................    { 
....................       z=y/x; 
....................       switch(quad) 
....................       { 
....................          case 1: 
....................          { 
....................             return atan(z); 
....................             break; 
....................          } 
....................          case 2: 
....................          { 
.................... //            return (atan(z)+PI_DIV_BY_TWO);  //2L3122 
....................             return (PI-atan(z)); 
....................             break; 
....................          } 
....................          case 3: 
....................          { 
....................             return (atan(z)-PI); 
....................             break; 
....................          } 
....................          case 4: 
....................          { 
....................             return (-atan(z)); 
....................             break; 
....................          } 
....................       } 
....................    } 
.................... } 
.................... #endif 
....................  
.................... //////////////////// Hyperbolic functions //////////////////// 
....................  
.................... //////////////////////////////////////////////////////////////////////////// 
.................... //   float cosh(float x) 
.................... //////////////////////////////////////////////////////////////////////////// 
.................... // Description : Computes the hyperbolic cosine value of x 
.................... // Returns : returns the hyperbolic cosine value of x 
.................... // Date : N/A 
.................... // 
....................  
.................... float32 cosh(float32 x) 
.................... { 
....................    return ((exp(x)+exp(-x))/2); 
.................... } 
.................... //Overloaded functions for cosh() for PCD 
.................... // Overloaded function cosh() for data type - Float48 
.................... #if defined(__PCD__) 
.................... float48 cosh(float48 x) 
.................... { 
....................    return ((exp(x)+exp(-x))/2); 
.................... } 
....................  
.................... // Overloaded function cosh() for data type - Float64 
.................... float64 cosh(float64 x) 
.................... { 
....................    return ((exp(x)+exp(-x))/2); 
.................... } 
.................... #endif 
....................  
.................... //////////////////////////////////////////////////////////////////////////// 
.................... //   float sinh(float x) 
.................... //////////////////////////////////////////////////////////////////////////// 
.................... // Description : Computes the hyperbolic sine value of x 
.................... // Returns : returns the hyperbolic sine value of x 
.................... // Date : N/A 
.................... // 
....................  
.................... float32 sinh(float32 x) 
.................... { 
....................  
....................    return ((exp(x) - exp(-x))/2); 
.................... } 
.................... //Overloaded functions for sinh() for PCD 
.................... // Overloaded function sinh() for data type - Float48 
.................... #if defined(__PCD__) 
.................... float48 sinh(float48 x) 
.................... { 
....................  
....................    return ((exp(x) - exp(-x))/2); 
.................... } 
....................  
.................... // Overloaded function sinh() for data type - Float48 
.................... float64 sinh(float64 x) 
.................... { 
....................  
....................    return ((exp(x) - exp(-x))/2); 
.................... } 
.................... #endif 
....................  
.................... //////////////////////////////////////////////////////////////////////////// 
.................... //   float tanh(float x) 
.................... //////////////////////////////////////////////////////////////////////////// 
.................... // Description : Computes the hyperbolic tangent value of x 
.................... // Returns : returns the hyperbolic tangent value of x 
.................... // Date : N/A 
.................... // 
....................  
.................... float32 tanh(float32 x) 
.................... { 
....................    return(sinh(x)/cosh(x)); 
.................... } 
.................... //Overloaded functions for tanh() for PCD 
.................... // Overloaded function tanh() for data type - Float48 
.................... #if defined(__PCD__) 
.................... float48 tanh(float48 x) 
.................... { 
....................    return(sinh(x)/cosh(x)); 
.................... } 
....................  
.................... // Overloaded function tanh() for data type - Float64 
.................... float64 tanh(float64 x) 
.................... { 
....................    return(sinh(x)/cosh(x)); 
.................... } 
.................... #endif 
....................  
.................... //////////////////////////////////////////////////////////////////////////// 
.................... //   float frexp(float x, signed int *exp) 
.................... //////////////////////////////////////////////////////////////////////////// 
.................... // Description : breaks a floating point number into a normalized fraction and an integral 
.................... // power of 2. It stores the integer in the signed int object pointed to by exp. 
.................... // Returns : returns the value x, such that x is a double with magnitude in the interval 
.................... // [1/2,1) or zero, and value equals x times 2 raised to the power *exp.If value is zero, 
.................... // both parts of the result are zero. 
.................... // Date : N/A 
.................... // 
....................  
.................... #define LOG2 .30102999566398119521 
.................... float32 frexp(float32 x, signed int8 *exp) 
.................... { 
....................    float32 res; 
....................    int1 sign = 0; 
....................    if(x == 0.0) 
....................    { 
....................       *exp=0; 
....................       return (0.0); 
....................    } 
....................    if(x < 0.0) 
....................    { 
....................      x=-x; 
....................      sign=1; 
....................    } 
....................    if (x > 1.0) 
....................    { 
....................       *exp=(ceil(log10(x)/LOG2)); 
....................       res=x/(pow(2, *exp)); 
....................       if (res == 1) 
....................       { 
....................          *exp=*exp+1; 
....................           res=.5; 
....................       } 
....................    } 
....................    else 
....................    { 
....................       if(x < 0.5) 
....................       { 
....................          *exp=-1; 
....................          res=x*2; 
....................       } 
....................       else 
....................       { 
....................          *exp=0; 
....................           res=x; 
....................       } 
....................    } 
....................    if(sign) 
....................    { 
....................       res=-res; 
....................    } 
....................    return res; 
.................... } 
....................  
.................... //Overloaded functions for frexp() for PCD 
.................... // Overloaded function frexp() for data type - Float48 
.................... #if defined(__PCD__) 
.................... float48 frexp(float48 x, signed int8 *exp) 
.................... { 
....................    float48 res; 
....................    int1 sign = 0; 
....................    if(x == 0.0) 
....................    { 
....................       *exp=0; 
....................       return (0.0); 
....................    } 
....................    if(x < 0.0) 
....................    { 
....................      x=-x; 
....................      sign=1; 
....................    } 
....................    if (x > 1.0) 
....................    { 
....................       *exp=(ceil(log10(x)/LOG2)); 
....................       res=x/(pow(2, *exp)); 
....................       if (res == 1) 
....................       { 
....................          *exp=*exp+1; 
....................           res=.5; 
....................       } 
....................    } 
....................    else 
....................    { 
....................       if(x < 0.5) 
....................       { 
....................          *exp=-1; 
....................          res=x*2; 
....................       } 
....................       else 
....................       { 
....................          *exp=0; 
....................           res=x; 
....................       } 
....................    } 
....................    if(sign) 
....................    { 
....................       res=-res; 
....................    } 
....................    return res; 
.................... } 
....................  
.................... // Overloaded function frexp() for data type - Float64 
.................... float64 frexp(float64 x, signed int8 *exp) 
.................... { 
....................    float64 res; 
....................    int1 sign = 0; 
....................    if(x == 0.0) 
....................    { 
....................       *exp=0; 
....................       return (0.0); 
....................    } 
....................    if(x < 0.0) 
....................    { 
....................      x=-x; 
....................      sign=1; 
....................    } 
....................    if (x > 1.0) 
....................    { 
....................       *exp=(ceil(log10(x)/LOG2)); 
....................       res=x/(pow(2, *exp)); 
....................       if (res == 1) 
....................       { 
....................          *exp=*exp+1; 
....................           res=.5; 
....................       } 
....................    } 
....................    else 
....................    { 
....................       if(x < 0.5) 
....................       { 
....................          *exp=-1; 
....................          res=x*2; 
....................       } 
....................       else 
....................       { 
....................          *exp=0; 
....................           res=x; 
....................       } 
....................    } 
....................    if(sign) 
....................    { 
....................       res=-res; 
....................    } 
....................    return res; 
.................... } 
.................... #endif 
....................  
.................... ////////////////////////////////////////////////////////////////////////////// 
.................... //   float ldexp(float x, signed int *exp) 
.................... ////////////////////////////////////////////////////////////////////////////// 
.................... // Description : multiplies a floating point number by an integral power of 2. 
.................... // Returns : returns the value of x times 2 raised to the power exp. 
.................... // Date : N/A 
.................... // 
....................  
.................... float32 ldexp(float32 value, signed int8 exp) 
.................... { 
....................    return (value * pow(2,exp)); 
.................... } 
.................... //Overloaded functions for ldexp() for PCD 
.................... // Overloaded function ldexp() for data type - Float48 
....................  
.................... #if defined(__PCD__) 
.................... float48 ldexp(float48 value, signed int8 exp) 
.................... { 
....................    return (value * pow(2,exp)); 
.................... } 
.................... // Overloaded function ldexp() for data type - Float64 
.................... float64 ldexp(float64 value, signed int8 exp) 
.................... { 
....................    return (value * pow(2,exp)); 
.................... } 
.................... #endif 
....................  
.................... #endif 
....................  
....................  
.................... // Definicin de teclado - NC 
.................... #define   UP            !input(PIN_A5) 
.................... #define   DOWN          !input(PIN_E0) 
.................... #define   RIGHT         !input(PIN_E1) 
.................... #define   IZQU          !input(PIN_E2) 
.................... #define   VIDRIO        !input(PIN_A1) 
....................  
.................... // Definicin de otros puertos 
.................... #define   Luz_UV_on         output_bit(PIN_B1,0) 
.................... #define   Luz_UV_off        output_bit(PIN_B1,1) 
.................... #define   Luz_Blanca_on     output_bit(PIN_B2,0) 
.................... #define   Luz_Blanca_off    output_bit(PIN_B2,1) 
.................... #define   Buzzer_on         output_bit(PIN_C0,1) 
.................... #define   Buzzer_off        output_bit(PIN_C0,0) 
.................... #define   ON  1 
.................... #define   OFF 0 
....................  
.................... short estadouv=0,estadofl=0,estadomv=0,Flanco=0,Flanco1=0,tiempo_cumplido=0,Lectura=0,flaguv=0,flagfl=0,estadobuzzer=0,infinito=0; 
.................... int8 Menu=1, Flecha=2,Flecha2=2, segundos=0,minutos=0,horasL=0,horasH=0; 
.................... int8 tempo_minutos=0,tempo_segundos=0,tempo_minutos_pro=0,tempo_segundos_pro=0,i=0,tiemporeset=0,guardaruv=0; 
.................... signed int8   paso=0; 
.................... int8 ActivaBuzzer=0; 
.................... int16 tiempos,horas=0; 
.................... short Cambio=ON; 
....................  
.................... #include <LCD420.c> 
.................... //////////////////////////////////////////////////////////////////////////// 
.................... ////                             LCD420.C                               //// 
.................... ////            Driver for common 4x20 LCD modules                      //// 
.................... ////                                                                    //// 
.................... ////  lcd_init()   Must be called before any other function.            //// 
.................... ////                                                                    //// 
.................... ////  lcd_putc(c)  Will display c on the next position of the LCD.      //// 
.................... ////                     The following have special meaning:            //// 
.................... ////                      \f  Clear display                             //// 
.................... ////                      \n  Go to start of second line                //// 
.................... ////                      \b  Move back one position                    //// 
.................... ////                                                                    //// 
.................... ////  lcd_gotoxy(x,y) Set write position on LCD (upper left is 1,1)     //// 
.................... ////                                                                    //// 
.................... ////  lcd_getc(x,y)   Returns character at position x,y on LCD          //// 
.................... ////                                                                    //// 
.................... //////////////////////////////////////////////////////////////////////////// 
.................... ////        (C) Copyright 1996,1997 Custom Computer Services            //// 
.................... //// This source code may only be used by licensed users of the CCS C   //// 
.................... //// compiler.  This source code may only be distributed to other       //// 
.................... //// licensed users of the CCS C compiler.  No other use, reproduction  //// 
.................... //// or distribution is permitted without written permission.           //// 
.................... //// Derivative programs created using this software in object code     //// 
.................... //// form are not restricted in any way.                                //// 
.................... //////////////////////////////////////////////////////////////////////////// 
....................  
.................... // As defined in the following structure the pin connection is as follows: 
.................... //     B0  enable 
.................... //     B1  rs 
.................... //     B2  rw 
.................... //     B4  D4 
.................... //     B5  D5 
.................... //     B6  D6 
.................... //     B7  D7 
.................... // 
.................... //   LCD pins D0-D3 are not used and PIC B3 is not used. 
....................  
.................... struct lcd_pin_map {                 // This structure is overlayed 
....................            BOOLEAN unused;           // on to an I/O port to gain 
....................            BOOLEAN rs;               // access to the LCD pins. 
....................            BOOLEAN rw;               // The bits are allocated from 
....................            BOOLEAN enable;           // low order up.  ENABLE will 
....................            int     data : 4;         // be pin B0. 
....................         } lcd; 
....................  
.................... #locate lcd = getenv("SFR:PORTD")                        // This puts the entire structure 
....................                                      // on to port B  
....................  
.................... #define lcd_type 2           // 0=5x7, 1=5x10, 2=2 lines 
....................  
....................  
.................... BYTE const LCD_INIT_STRING[4] = {0x20 | (lcd_type << 2), 0xc, 1, 6}; 
....................                              // These bytes need to be sent to the LCD 
....................                              // to start it up. 
....................  
....................  
....................                              // The following are used for setting 
....................                              // the I/O port direction register. 
....................  
.................... struct lcd_pin_map const LCD_WRITE = {0,0,0,0,0}; // For write mode all pins are out 
.................... struct lcd_pin_map const LCD_READ = {0,0,0,0,15}; // For read mode data pins are in 
....................  
....................  
.................... BYTE lcdline; 
....................  
.................... BYTE lcd_read_byte() { 
....................       BYTE low,high; 
....................  
....................       set_tris_d(LCD_READ); 
....................       lcd.rw = 1; 
....................       delay_cycles(30);//30 
....................       lcd.enable = 1; 
....................       delay_cycles(30);//30 
....................       high = lcd.data; 
....................       lcd.enable = 0; 
....................       delay_cycles(30);//30 
....................       lcd.enable = 1; 
....................       delay_us(30);//30 
....................       low = lcd.data; 
....................       lcd.enable = 0; 
....................       set_tris_d(LCD_WRITE); 
....................       return( (high<<4) | low); 
.................... } 
....................  
....................  
.................... void lcd_send_nibble( BYTE n ) { 
....................       lcd.data = n; 
02FE:  SWAPF  3D,W
0300:  ANDLW  F0
0302:  MOVWF  00
0304:  MOVLW  0F
0306:  ANDWF  F83,W
0308:  IORWF  00,W
030A:  MOVWF  F83
....................       delay_cycles(30);//30 
030C:  MOVLW  09
030E:  MOVWF  00
0310:  DECFSZ 00,F
0312:  BRA    0310
0314:  BRA    0316
....................       lcd.enable = 1; 
0316:  BSF    F83.3
....................       delay_us(55);//55 
0318:  MOVLW  49
031A:  MOVWF  00
031C:  DECFSZ 00,F
031E:  BRA    031C
....................       lcd.enable = 0; 
0320:  BCF    F83.3
.................... } 
0322:  RETLW  00
....................  
....................  
.................... void lcd_send_byte( BYTE address, BYTE n ) { 
....................  
....................       lcd.rs = 0; 
0324:  BCF    F83.1
....................       //while ( bit_test(lcd_read_byte(),7)); 
....................       delay_ms(1); 
0326:  MOVLW  01
0328:  MOVWF  3C
032A:  RCALL  02D6
....................       lcd.rs = address; 
032C:  BTFSS  3A.0
032E:  BCF    F83.1
0330:  BTFSC  3A.0
0332:  BSF    F83.1
....................       delay_cycles(30);//30 
0334:  MOVLW  09
0336:  MOVWF  00
0338:  DECFSZ 00,F
033A:  BRA    0338
033C:  BRA    033E
....................       lcd.rw = 0; 
033E:  BCF    F83.2
....................       delay_cycles(30);//30 
0340:  MOVLW  09
0342:  MOVWF  00
0344:  DECFSZ 00,F
0346:  BRA    0344
0348:  BRA    034A
....................       lcd.enable = 0; 
034A:  BCF    F83.3
....................       lcd_send_nibble(n >> 4); 
034C:  SWAPF  3B,W
034E:  MOVWF  3C
0350:  MOVLW  0F
0352:  ANDWF  3C,F
0354:  MOVFF  3C,3D
0358:  RCALL  02FE
....................       lcd_send_nibble(n & 0xf); 
035A:  MOVF   3B,W
035C:  ANDLW  0F
035E:  MOVWF  3C
0360:  MOVWF  3D
0362:  RCALL  02FE
.................... } 
0364:  RETLW  00
....................  
....................  
.................... void lcd_init() { 
....................     BYTE i; 
....................  
....................     set_tris_d(LCD_WRITE); 
0366:  MOVLW  00
0368:  MOVWF  F95
....................     lcd.rs = 0; 
036A:  BCF    F83.1
....................     lcd.rw = 0; 
036C:  BCF    F83.2
....................     lcd.enable = 0; 
036E:  BCF    F83.3
....................     delay_ms(15); 
0370:  MOVLW  0F
0372:  MOVWF  3C
0374:  RCALL  02D6
....................     for(i=1;i<=3;++i) { 
0376:  MOVLW  01
0378:  MOVWF  2D
037A:  MOVF   2D,W
037C:  SUBLW  03
037E:  BNC   0390
....................        lcd_send_nibble(3); 
0380:  MOVLW  03
0382:  MOVWF  3D
0384:  RCALL  02FE
....................        delay_ms(5); 
0386:  MOVLW  05
0388:  MOVWF  3C
038A:  RCALL  02D6
....................     } 
038C:  INCF   2D,F
038E:  BRA    037A
....................     lcd_send_nibble(2); 
0390:  MOVLW  02
0392:  MOVWF  3D
0394:  RCALL  02FE
....................     for(i=0;i<=3;++i) 
0396:  CLRF   2D
0398:  MOVF   2D,W
039A:  SUBLW  03
039C:  BNC   03BA
....................        lcd_send_byte(0, LCD_INIT_STRING[i]); 
039E:  CLRF   03
03A0:  MOVF   2D,W
03A2:  MOVFF  FF2,2E
03A6:  BCF    FF2.7
03A8:  RCALL  0096
03AA:  BTFSC  2E.7
03AC:  BSF    FF2.7
03AE:  MOVWF  2E
03B0:  CLRF   3A
03B2:  MOVWF  3B
03B4:  RCALL  0324
03B6:  INCF   2D,F
03B8:  BRA    0398
.................... } 
03BA:  RETLW  00
....................  
....................  
.................... void lcd_gotoxy( BYTE x, BYTE y) { 
....................    BYTE address; 
....................  
....................    switch(y) { 
*
03D2:  MOVLW  01
03D4:  SUBWF  38,W
03D6:  ADDLW  FC
03D8:  BC    03F8
03DA:  ADDLW  04
03DC:  GOTO   0408
....................      case 1 : address=0x80;break; 
03E0:  MOVLW  80
03E2:  MOVWF  39
03E4:  BRA    03F8
....................      case 2 : address=0xc0;break; 
03E6:  MOVLW  C0
03E8:  MOVWF  39
03EA:  BRA    03F8
....................      case 3 : address=0x94;break; 
03EC:  MOVLW  94
03EE:  MOVWF  39
03F0:  BRA    03F8
....................      case 4 : address=0xd4;break; 
03F2:  MOVLW  D4
03F4:  MOVWF  39
03F6:  BRA    03F8
....................    } 
....................    address+=x-1; 
03F8:  MOVLW  01
03FA:  SUBWF  37,W
03FC:  ADDWF  39,F
....................    lcd_send_byte(0,address); 
03FE:  CLRF   3A
0400:  MOVFF  39,3B
0404:  RCALL  0324
.................... } 
0406:  RETLW  00
....................  
.................... void lcd_putc( char c) { 
....................    if(c=='') 
*
0434:  MOVF   36,W
0436:  SUBLW  F1
0438:  BNZ   043E
....................    { 
....................       c=238; 
043A:  MOVLW  EE
043C:  MOVWF  36
....................    } 
....................    if(c=='') 
043E:  MOVF   36,W
0440:  SUBLW  D1
0442:  BNZ   0448
....................    { 
....................       c=255; 
0444:  MOVLW  FF
0446:  MOVWF  36
....................    } 
....................     
....................    switch (c) { 
0448:  MOVF   36,W
044A:  XORLW  0C
044C:  BZ    0458
044E:  XORLW  06
0450:  BZ    046C
0452:  XORLW  02
0454:  BZ    047A
0456:  BRA    0484
....................      case '\f'   : lcd_send_byte(0,1); 
0458:  CLRF   3A
045A:  MOVLW  01
045C:  MOVWF  3B
045E:  RCALL  0324
....................                    lcdline=1; 
0460:  MOVLW  01
0462:  MOVWF  2C
....................                    delay_ms(2); 
0464:  MOVLW  02
0466:  MOVWF  3C
0468:  RCALL  02D6
....................                                            break; 
046A:  BRA    0490
....................      case '\n'   : lcd_gotoxy(1,++lcdline);        break; 
046C:  INCF   2C,F
046E:  MOVLW  01
0470:  MOVWF  37
0472:  MOVFF  2C,38
0476:  RCALL  03D2
0478:  BRA    0490
....................      case '\b'   : lcd_send_byte(0,0x10);  break; 
047A:  CLRF   3A
047C:  MOVLW  10
047E:  MOVWF  3B
0480:  RCALL  0324
0482:  BRA    0490
....................      default     : lcd_send_byte(1,c);     break; 
0484:  MOVLW  01
0486:  MOVWF  3A
0488:  MOVFF  36,3B
048C:  RCALL  0324
048E:  BRA    0490
....................    } 
.................... } 
0490:  RETLW  00
....................  
.................... char lcd_getc( BYTE x, BYTE y) { 
....................    char value; 
....................  
....................     lcd_gotoxy(x,y); 
....................     lcd.rs=1; 
....................     value = lcd_read_byte(); 
....................     lcd.rs=0; 
....................     return(value); 
.................... } 
....................  
....................  
.................... #include <Funciones.h> 
.................... void ConfigInterrupciones (void){ 
....................    lcd_init(); 
*
03BC:  RCALL  0366
....................    set_tris_a(0XFF); 
03BE:  MOVLW  FF
03C0:  MOVWF  F92
....................    set_tris_e(0XFF); 
03C2:  MOVWF  F96
....................    setup_timer_1(T1_INTERNAL|T1_DIV_BY_1); 
03C4:  MOVLW  85
03C6:  MOVWF  FCD
....................    enable_interrupts(INT_TIMER1); 
03C8:  BSF    F9D.0
....................    enable_interrupts(global); 
03CA:  MOVLW  C0
03CC:  IORWF  FF2,F
.................... } 
03CE:  GOTO   09B6 (RETURN)
....................  
.................... void MensajeBienvenida (void){ 
....................    lcd_gotoxy(1,1); 
*
04B2:  MOVLW  01
04B4:  MOVWF  37
04B6:  MOVWF  38
04B8:  RCALL  03D2
....................    printf(lcd_putc,"ESTACION DE  TRABAJO"); 
04BA:  MOVLW  B4
04BC:  MOVWF  FF6
04BE:  MOVLW  00
04C0:  MOVWF  FF7
04C2:  RCALL  0492
....................    lcd_gotoxy(1,2); 
04C4:  MOVLW  01
04C6:  MOVWF  37
04C8:  MOVLW  02
04CA:  MOVWF  38
04CC:  RCALL  03D2
....................    printf(lcd_putc,"        PCR         "); 
04CE:  MOVLW  CA
04D0:  MOVWF  FF6
04D2:  MOVLW  00
04D4:  MOVWF  FF7
04D6:  RCALL  0492
....................    lcd_gotoxy(1,3); 
04D8:  MOVLW  01
04DA:  MOVWF  37
04DC:  MOVLW  03
04DE:  MOVWF  38
04E0:  RCALL  03D2
....................    printf(lcd_putc,"    JP  INGLOBAL    "); 
04E2:  MOVLW  E0
04E4:  MOVWF  FF6
04E6:  MOVLW  00
04E8:  MOVWF  FF7
04EA:  RCALL  0492
....................    lcd_gotoxy(1,4); 
04EC:  MOVLW  01
04EE:  MOVWF  37
04F0:  MOVLW  04
04F2:  MOVWF  38
04F4:  RCALL  03D2
....................    printf(lcd_putc,"    REF:JP24-PCR    "); 
04F6:  MOVLW  F6
04F8:  MOVWF  FF6
04FA:  MOVLW  00
04FC:  MOVWF  FF7
04FE:  RCALL  0492
....................    delay_ms(2000); 
0500:  MOVLW  08
0502:  MOVWF  2D
0504:  MOVLW  FA
0506:  MOVWF  3C
0508:  RCALL  02D6
050A:  DECFSZ 2D,F
050C:  BRA    0504
....................    printf(lcd_putc,"\f"); 
050E:  MOVLW  0C
0510:  MOVWF  36
0512:  RCALL  0434
.................... } 
0514:  RETLW  00
....................  
.................... void LeeEEPROM (void){ 
....................    // Lee la contrasea almacenada en la eeprom para poder comprobar con la que escribe el usuario. 
....................    tempo_minutos=read_eeprom(0); 
0516:  MOVFF  FF2,2D
051A:  BCF    FF2.7
051C:  CLRF   FA9
051E:  BCF    FA6.6
0520:  BCF    FA6.7
0522:  BSF    FA6.0
0524:  MOVF   FA8,W
0526:  BTFSC  2D.7
0528:  BSF    FF2.7
052A:  MOVWF  1F
....................    delay_ms(20); 
052C:  MOVLW  14
052E:  MOVWF  3C
0530:  RCALL  02D6
....................    segundos=read_eeprom(1); 
0532:  MOVFF  FF2,2D
0536:  BCF    FF2.7
0538:  MOVLW  01
053A:  MOVWF  FA9
053C:  BCF    FA6.6
053E:  BCF    FA6.7
0540:  BSF    FA6.0
0542:  MOVF   FA8,W
0544:  BTFSC  2D.7
0546:  BSF    FF2.7
0548:  MOVWF  1B
....................    delay_ms(20); 
054A:  MOVLW  14
054C:  MOVWF  3C
054E:  RCALL  02D6
....................    minutos=read_eeprom(2); 
0550:  MOVFF  FF2,2D
0554:  BCF    FF2.7
0556:  MOVLW  02
0558:  MOVWF  FA9
055A:  BCF    FA6.6
055C:  BCF    FA6.7
055E:  BSF    FA6.0
0560:  MOVF   FA8,W
0562:  BTFSC  2D.7
0564:  BSF    FF2.7
0566:  MOVWF  1C
....................    delay_ms(20); 
0568:  MOVLW  14
056A:  MOVWF  3C
056C:  RCALL  02D6
....................    horasL=read_eeprom(3); 
056E:  MOVFF  FF2,2D
0572:  BCF    FF2.7
0574:  MOVLW  03
0576:  MOVWF  FA9
0578:  BCF    FA6.6
057A:  BCF    FA6.7
057C:  BSF    FA6.0
057E:  MOVF   FA8,W
0580:  BTFSC  2D.7
0582:  BSF    FF2.7
0584:  MOVWF  1D
....................    delay_ms(20); 
0586:  MOVLW  14
0588:  MOVWF  3C
058A:  RCALL  02D6
....................    horasH=read_eeprom(4); 
058C:  MOVFF  FF2,2D
0590:  BCF    FF2.7
0592:  MOVLW  04
0594:  MOVWF  FA9
0596:  BCF    FA6.6
0598:  BCF    FA6.7
059A:  BSF    FA6.0
059C:  MOVF   FA8,W
059E:  BTFSC  2D.7
05A0:  BSF    FF2.7
05A2:  MOVWF  1E
....................    delay_ms(20); 
05A4:  MOVLW  14
05A6:  MOVWF  3C
05A8:  RCALL  02D6
....................    horas=make16(horasH,horasL); 
05AA:  MOVFF  1E,2B
05AE:  MOVFF  1D,2A
.................... } 
05B2:  RETLW  00
....................  
.................... void LimitaValores(void){ 
....................    if(tempo_minutos>200){ 
05B4:  MOVF   1F,W
05B6:  SUBLW  C8
05B8:  BC    05EC
....................       tempo_minutos=5;write_eeprom(0,5);delay_ms(20); 
05BA:  MOVLW  05
05BC:  MOVWF  1F
05BE:  CLRF   FA9
05C0:  MOVWF  FA8
05C2:  BCF    FA6.6
05C4:  BCF    FA6.7
05C6:  BSF    FA6.2
05C8:  MOVF   FF2,W
05CA:  MOVWF  00
05CC:  BCF    FF2.7
05CE:  MOVLB  F
05D0:  MOVLW  55
05D2:  MOVWF  FA7
05D4:  MOVLW  AA
05D6:  MOVWF  FA7
05D8:  BSF    FA6.1
05DA:  BTFSC  FA6.1
05DC:  BRA    05DA
05DE:  BCF    FA6.2
05E0:  MOVF   00,W
05E2:  IORWF  FF2,F
05E4:  MOVLW  14
05E6:  MOVWF  3C
05E8:  MOVLB  0
05EA:  RCALL  02D6
....................    } 
....................    if(segundos>60){ 
05EC:  MOVF   1B,W
05EE:  SUBLW  3C
05F0:  BC    0624
....................       segundos=0;write_eeprom(1,0);delay_ms(20); 
05F2:  CLRF   1B
05F4:  MOVLW  01
05F6:  MOVWF  FA9
05F8:  CLRF   FA8
05FA:  BCF    FA6.6
05FC:  BCF    FA6.7
05FE:  BSF    FA6.2
0600:  MOVF   FF2,W
0602:  MOVWF  00
0604:  BCF    FF2.7
0606:  MOVLB  F
0608:  MOVLW  55
060A:  MOVWF  FA7
060C:  MOVLW  AA
060E:  MOVWF  FA7
0610:  BSF    FA6.1
0612:  BTFSC  FA6.1
0614:  BRA    0612
0616:  BCF    FA6.2
0618:  MOVF   00,W
061A:  IORWF  FF2,F
061C:  MOVLW  14
061E:  MOVWF  3C
0620:  MOVLB  0
0622:  RCALL  02D6
....................    } 
....................    if(minutos>60){ 
0624:  MOVF   1C,W
0626:  SUBLW  3C
0628:  BC    065C
....................       minutos=0;write_eeprom(2,0);delay_ms(20); 
062A:  CLRF   1C
062C:  MOVLW  02
062E:  MOVWF  FA9
0630:  CLRF   FA8
0632:  BCF    FA6.6
0634:  BCF    FA6.7
0636:  BSF    FA6.2
0638:  MOVF   FF2,W
063A:  MOVWF  00
063C:  BCF    FF2.7
063E:  MOVLB  F
0640:  MOVLW  55
0642:  MOVWF  FA7
0644:  MOVLW  AA
0646:  MOVWF  FA7
0648:  BSF    FA6.1
064A:  BTFSC  FA6.1
064C:  BRA    064A
064E:  BCF    FA6.2
0650:  MOVF   00,W
0652:  IORWF  FF2,F
0654:  MOVLW  14
0656:  MOVWF  3C
0658:  MOVLB  0
065A:  RCALL  02D6
....................    } 
....................    if(horas>10000){ 
065C:  MOVF   2B,W
065E:  SUBLW  26
0660:  BC    06D0
0662:  XORLW  FF
0664:  BNZ   066C
0666:  MOVF   2A,W
0668:  SUBLW  10
066A:  BC    06D0
....................       horas=0;write_eeprom(3,0);delay_ms(20);write_eeprom(4,0);delay_ms(20); 
066C:  CLRF   2B
066E:  CLRF   2A
0670:  MOVLW  03
0672:  MOVWF  FA9
0674:  CLRF   FA8
0676:  BCF    FA6.6
0678:  BCF    FA6.7
067A:  BSF    FA6.2
067C:  MOVF   FF2,W
067E:  MOVWF  00
0680:  BCF    FF2.7
0682:  MOVLB  F
0684:  MOVLW  55
0686:  MOVWF  FA7
0688:  MOVLW  AA
068A:  MOVWF  FA7
068C:  BSF    FA6.1
068E:  BTFSC  FA6.1
0690:  BRA    068E
0692:  BCF    FA6.2
0694:  MOVF   00,W
0696:  IORWF  FF2,F
0698:  MOVLW  14
069A:  MOVWF  3C
069C:  MOVLB  0
069E:  RCALL  02D6
06A0:  MOVLW  04
06A2:  MOVWF  FA9
06A4:  CLRF   FA8
06A6:  BCF    FA6.6
06A8:  BCF    FA6.7
06AA:  BSF    FA6.2
06AC:  MOVF   FF2,W
06AE:  MOVWF  00
06B0:  BCF    FF2.7
06B2:  MOVLB  F
06B4:  MOVLW  55
06B6:  MOVWF  FA7
06B8:  MOVLW  AA
06BA:  MOVWF  FA7
06BC:  BSF    FA6.1
06BE:  BTFSC  FA6.1
06C0:  BRA    06BE
06C2:  BCF    FA6.2
06C4:  MOVF   00,W
06C6:  IORWF  FF2,F
06C8:  MOVLW  14
06CA:  MOVWF  3C
06CC:  MOVLB  0
06CE:  RCALL  02D6
....................    } 
....................    tempo_minutos_pro=tempo_minutos;tempo_segundos_pro=tempo_segundos; 
06D0:  MOVFF  1F,21
06D4:  MOVFF  20,22
....................    if(tempo_minutos_pro==0) 
06D8:  MOVF   21,F
06DA:  BNZ   06E0
....................       infinito=1; 
06DC:  BSF    17.2
....................    else 
06DE:  BRA    06E2
....................       infinito=0; 
06E0:  BCF    17.2
.................... } 
06E2:  RETLW  00
....................  
.................... void resetFabrica(){ 
....................    write_eeprom(0,0); 
06E4:  CLRF   FA9
06E6:  CLRF   FA8
06E8:  BCF    FA6.6
06EA:  BCF    FA6.7
06EC:  BSF    FA6.2
06EE:  MOVF   FF2,W
06F0:  MOVWF  00
06F2:  BCF    FF2.7
06F4:  MOVLB  F
06F6:  MOVLW  55
06F8:  MOVWF  FA7
06FA:  MOVLW  AA
06FC:  MOVWF  FA7
06FE:  BSF    FA6.1
0700:  BTFSC  FA6.1
0702:  BRA    0700
0704:  BCF    FA6.2
0706:  MOVF   00,W
0708:  IORWF  FF2,F
....................    delay_ms(20); 
070A:  MOVLW  14
070C:  MOVWF  3C
070E:  MOVLB  0
0710:  RCALL  02D6
....................    write_eeprom(1,0); 
0712:  MOVLW  01
0714:  MOVWF  FA9
0716:  CLRF   FA8
0718:  BCF    FA6.6
071A:  BCF    FA6.7
071C:  BSF    FA6.2
071E:  MOVF   FF2,W
0720:  MOVWF  00
0722:  BCF    FF2.7
0724:  MOVLB  F
0726:  MOVLW  55
0728:  MOVWF  FA7
072A:  MOVLW  AA
072C:  MOVWF  FA7
072E:  BSF    FA6.1
0730:  BTFSC  FA6.1
0732:  BRA    0730
0734:  BCF    FA6.2
0736:  MOVF   00,W
0738:  IORWF  FF2,F
....................    delay_ms(20); 
073A:  MOVLW  14
073C:  MOVWF  3C
073E:  MOVLB  0
0740:  RCALL  02D6
....................    write_eeprom(2,0); 
0742:  MOVLW  02
0744:  MOVWF  FA9
0746:  CLRF   FA8
0748:  BCF    FA6.6
074A:  BCF    FA6.7
074C:  BSF    FA6.2
074E:  MOVF   FF2,W
0750:  MOVWF  00
0752:  BCF    FF2.7
0754:  MOVLB  F
0756:  MOVLW  55
0758:  MOVWF  FA7
075A:  MOVLW  AA
075C:  MOVWF  FA7
075E:  BSF    FA6.1
0760:  BTFSC  FA6.1
0762:  BRA    0760
0764:  BCF    FA6.2
0766:  MOVF   00,W
0768:  IORWF  FF2,F
....................    delay_ms(20); 
076A:  MOVLW  14
076C:  MOVWF  3C
076E:  MOVLB  0
0770:  RCALL  02D6
....................    /* 
....................    //Prueba 
....................    write_eeprom(3,0x89); 
....................    delay_ms(20); 
....................    write_eeprom(4,0x13); 
....................    delay_ms(20); 
....................    */ 
....................    write_eeprom(3,0); 
0772:  MOVLW  03
0774:  MOVWF  FA9
0776:  CLRF   FA8
0778:  BCF    FA6.6
077A:  BCF    FA6.7
077C:  BSF    FA6.2
077E:  MOVF   FF2,W
0780:  MOVWF  00
0782:  BCF    FF2.7
0784:  MOVLB  F
0786:  MOVLW  55
0788:  MOVWF  FA7
078A:  MOVLW  AA
078C:  MOVWF  FA7
078E:  BSF    FA6.1
0790:  BTFSC  FA6.1
0792:  BRA    0790
0794:  BCF    FA6.2
0796:  MOVF   00,W
0798:  IORWF  FF2,F
....................    delay_ms(20); 
079A:  MOVLW  14
079C:  MOVWF  3C
079E:  MOVLB  0
07A0:  RCALL  02D6
....................    write_eeprom(4,0); 
07A2:  MOVLW  04
07A4:  MOVWF  FA9
07A6:  CLRF   FA8
07A8:  BCF    FA6.6
07AA:  BCF    FA6.7
07AC:  BSF    FA6.2
07AE:  MOVF   FF2,W
07B0:  MOVWF  00
07B2:  BCF    FF2.7
07B4:  MOVLB  F
07B6:  MOVLW  55
07B8:  MOVWF  FA7
07BA:  MOVLW  AA
07BC:  MOVWF  FA7
07BE:  BSF    FA6.1
07C0:  BTFSC  FA6.1
07C2:  BRA    07C0
07C4:  BCF    FA6.2
07C6:  MOVF   00,W
07C8:  IORWF  FF2,F
....................    delay_ms(20); 
07CA:  MOVLW  14
07CC:  MOVWF  3C
07CE:  MOVLB  0
07D0:  RCALL  02D6
....................     
....................    lcd_gotoxy(1,4); 
07D2:  MOVLW  01
07D4:  MOVWF  37
07D6:  MOVLW  04
07D8:  MOVWF  38
07DA:  RCALL  03D2
....................    printf(lcd_putc,"Reiniciando...."); 
07DC:  MOVLW  0C
07DE:  MOVWF  FF6
07E0:  MOVLW  01
07E2:  MOVWF  FF7
07E4:  RCALL  0492
....................    delay_ms(2000); 
07E6:  MOVLW  08
07E8:  MOVWF  2D
07EA:  MOVLW  FA
07EC:  MOVWF  3C
07EE:  RCALL  02D6
07F0:  DECFSZ 2D,F
07F2:  BRA    07EA
....................    MensajeBienvenida(); 
07F4:  RCALL  04B2
....................    LeeEEPROM(); 
07F6:  RCALL  0516
....................    LimitaValores(); 
07F8:  RCALL  05B4
.................... } 
07FA:  GOTO   0A04 (RETURN)
....................  
....................  
.................... #int_TIMER1 
.................... void temp1s(void){ 
....................    //set_timer1(45536);  // 5 ms 
....................    set_timer1(45580);  // 5 ms 
*
011C:  MOVLW  B2
011E:  MOVWF  FCF
0120:  MOVLW  0C
0122:  MOVWF  FCE
....................    tiempos++; 
0124:  INCF   28,F
0126:  BTFSC  FD8.2
0128:  INCF   29,F
....................    if(tiempos>=200){   // Ha transcurrido una decima de segundo (PIC18F4550 con XT = 16MHZ) 
012A:  MOVF   29,F
012C:  BNZ   0134
012E:  MOVF   28,W
0130:  SUBLW  C7
0132:  BC    017E
....................    tiempos=0;tiemporeset++;Lectura=1; 
0134:  CLRF   29
0136:  CLRF   28
0138:  INCF   24,F
013A:  BSF    16.6
....................     
....................       if(ActivaBuzzer==1){ 
013C:  DECFSZ 27,W
013E:  BRA    0150
....................          if(estadobuzzer==0){ 
0140:  BTFSC  17.1
0142:  BRA    014A
....................             Buzzer_off; 
0144:  BCF    F8B.0
0146:  BCF    F94.0
....................          }else{ 
0148:  BRA    014E
....................                Buzzer_on; 
014A:  BSF    F8B.0
014C:  BCF    F94.0
....................          } 
....................          estadobuzzer=!estadobuzzer; 
014E:  BTG    17.1
....................       } 
....................    //----------------------------- Tiempo Total-----------------------------// 
....................       if(estadouv==1 && infinito==0){ 
0150:  BTFSS  16.0
0152:  BRA    017E
0154:  BTFSC  17.2
0156:  BRA    017E
....................          segundos++; 
0158:  INCF   1B,F
....................          if(tiempo_cumplido==0){ 
015A:  BTFSC  16.5
015C:  BRA    017E
....................             if(tempo_segundos>0){ 
015E:  MOVF   20,F
0160:  BZ    0166
....................                tempo_segundos--; 
0162:  DECF   20,F
....................             }else{ 
0164:  BRA    017E
....................                if(tempo_minutos>0){ 
0166:  MOVF   1F,F
0168:  BZ    0172
....................                   tempo_minutos--; 
016A:  DECF   1F,F
....................                   tempo_segundos=59; 
016C:  MOVLW  3B
016E:  MOVWF  20
....................                }else{ 
0170:  BRA    017E
....................                   tiempo_cumplido=1; 
0172:  BSF    16.5
....................                   estadouv=0; 
0174:  BCF    16.0
....................                   tempo_minutos=tempo_minutos_pro;tempo_segundos=tempo_segundos_pro; 
0176:  MOVFF  21,1F
017A:  MOVFF  22,20
....................                } 
....................             } 
....................          } 
....................       } 
....................    } 
.................... } 
....................  
017E:  BCF    F9E.0
0180:  GOTO   0054
.................... void main () 
.................... { 
*
095E:  CLRF   FF8
0960:  BCF    FD0.7
0962:  BSF    07.7
0964:  CLRF   FEA
0966:  CLRF   FE9
0968:  BCF    16.0
096A:  BCF    16.1
096C:  BCF    16.2
096E:  BCF    16.3
0970:  BCF    16.4
0972:  BCF    16.5
0974:  BCF    16.6
0976:  BCF    16.7
0978:  BCF    17.0
097A:  BCF    17.1
097C:  BCF    17.2
097E:  MOVLW  01
0980:  MOVWF  18
0982:  MOVLW  02
0984:  MOVWF  19
0986:  MOVWF  1A
0988:  CLRF   1B
098A:  CLRF   1C
098C:  CLRF   1D
098E:  CLRF   1E
0990:  CLRF   1F
0992:  CLRF   20
0994:  CLRF   21
0996:  CLRF   22
0998:  CLRF   23
099A:  CLRF   24
099C:  CLRF   25
099E:  CLRF   26
09A0:  CLRF   27
09A2:  CLRF   2B
09A4:  CLRF   2A
09A6:  BSF    17.3
09A8:  MOVF   FC1,W
09AA:  ANDLW  C0
09AC:  IORLW  0F
09AE:  MOVWF  FC1
09B0:  MOVLW  07
09B2:  MOVWF  FB4
....................    ConfigInterrupciones(); 
09B4:  BRA    03BC
....................    MensajeBienvenida(); 
09B6:  RCALL  04B2
....................    LeeEEPROM();  
09B8:  RCALL  0516
....................    LimitaValores(); 
09BA:  RCALL  05B4
....................    output_bit(PIN_A0,0);output_bit(PIN_A2,0);output_bit(PIN_A3,0); 
09BC:  BCF    F89.0
09BE:  BCF    F92.0
09C0:  BCF    F89.2
09C2:  BCF    F92.2
09C4:  BCF    F89.3
09C6:  BCF    F92.3
....................    output_bit(PIN_C1,0);output_bit(PIN_C2,0);output_bit(PIN_C6,0);output_bit(PIN_C7,0); 
09C8:  BCF    F8B.1
09CA:  BCF    F94.1
09CC:  BCF    F8B.2
09CE:  BCF    F94.2
09D0:  BCF    F8B.6
09D2:  BCF    F94.6
09D4:  BCF    F8B.7
09D6:  BCF    F94.7
....................    output_bit(PIN_B0,0);output_bit(PIN_B3,0);output_bit(PIN_B4,0);output_bit(PIN_B5,0);output_bit(PIN_B6,0);output_bit(PIN_B7,0); 
09D8:  BCF    F8A.0
09DA:  BCF    F93.0
09DC:  BCF    F8A.3
09DE:  BCF    F93.3
09E0:  BCF    F8A.4
09E2:  BCF    F93.4
09E4:  BCF    F8A.5
09E6:  BCF    F93.5
09E8:  BCF    F8A.6
09EA:  BCF    F93.6
09EC:  BCF    F8A.7
09EE:  BCF    F93.7
....................    if(UP && DOWN && RIGHT) 
09F0:  BSF    F92.5
09F2:  BTFSC  F80.5
09F4:  BRA    0A04
09F6:  BSF    F96.0
09F8:  BTFSC  F84.0
09FA:  BRA    0A04
09FC:  BSF    F96.1
09FE:  BTFSC  F84.1
0A00:  BRA    0A04
....................       resetFabrica(); 
0A02:  BRA    06E4
....................    while(true){ 
....................           
.................... //----------------Menu2--------------------------------------------------------------- 
....................    if(Menu == 2){ // Menu de tiempo de trabajo de Luz UV    
0A04:  MOVF   18,W
0A06:  SUBLW  02
0A08:  BTFSS  FD8.2
0A0A:  BRA    0BB0
....................       lcd_gotoxy(1,1); 
0A0C:  MOVLW  01
0A0E:  MOVWF  37
0A10:  MOVWF  38
0A12:  RCALL  03D2
....................       printf(lcd_putc,"    Temporizador     "); 
0A14:  MOVLW  84
0A16:  MOVWF  FF6
0A18:  MOVLW  01
0A1A:  MOVWF  FF7
0A1C:  RCALL  0492
....................       lcd_gotoxy(1,2); 
0A1E:  MOVLW  01
0A20:  MOVWF  37
0A22:  MOVLW  02
0A24:  MOVWF  38
0A26:  RCALL  03D2
....................       printf(lcd_putc,"       Luz UV        "); 
0A28:  MOVLW  9A
0A2A:  MOVWF  FF6
0A2C:  MOVLW  01
0A2E:  MOVWF  FF7
0A30:  RCALL  0492
....................       lcd_gotoxy(6,3); 
0A32:  MOVLW  06
0A34:  MOVWF  37
0A36:  MOVLW  03
0A38:  MOVWF  38
0A3A:  RCALL  03D2
....................       printf(lcd_putc,"%03u Minutos  ",tempo_minutos_pro);  
0A3C:  MOVFF  21,2D
0A40:  MOVLW  03
0A42:  MOVWF  2E
0A44:  RCALL  0826
0A46:  MOVLW  B4
0A48:  MOVWF  FF6
0A4A:  MOVLW  01
0A4C:  MOVWF  FF7
0A4E:  MOVLW  0A
0A50:  MOVWF  2D
0A52:  RCALL  088C
....................  
....................    if(tempo_minutos_pro%5!=0){ 
0A54:  MOVFF  21,2F
0A58:  MOVLW  05
0A5A:  MOVWF  30
0A5C:  RCALL  07FE
0A5E:  MOVF   00,F
0A60:  BZ    0A66
....................       tempo_minutos_pro=5; 
0A62:  MOVLW  05
0A64:  MOVWF  21
....................    } 
....................     
....................    if(UP){ 
0A66:  BSF    F92.5
0A68:  BTFSC  F80.5
0A6A:  BRA    0A90
....................       delay_ms(20); 
0A6C:  MOVLW  14
0A6E:  MOVWF  3C
0A70:  RCALL  02D6
....................       if(UP){ 
0A72:  BSF    F92.5
0A74:  BTFSC  F80.5
0A76:  BRA    0A90
....................          if(tempo_minutos_pro<240){ 
0A78:  MOVF   21,W
0A7A:  SUBLW  EF
0A7C:  BNC   0A90
....................             tempo_minutos_pro+=5;delay_ms(300); 
0A7E:  MOVLW  05
0A80:  ADDWF  21,F
0A82:  MOVLW  02
0A84:  MOVWF  2D
0A86:  MOVLW  96
0A88:  MOVWF  3C
0A8A:  RCALL  02D6
0A8C:  DECFSZ 2D,F
0A8E:  BRA    0A86
....................          }    
....................       } 
....................    } 
....................     
....................    if(DOWN){ 
0A90:  BSF    F96.0
0A92:  BTFSC  F84.0
0A94:  BRA    0AB8
....................       delay_ms(20); 
0A96:  MOVLW  14
0A98:  MOVWF  3C
0A9A:  RCALL  02D6
....................       if(DOWN){          
0A9C:  BSF    F96.0
0A9E:  BTFSC  F84.0
0AA0:  BRA    0AB8
....................          if(tempo_minutos_pro>0){ 
0AA2:  MOVF   21,F
0AA4:  BZ    0AB8
....................             tempo_minutos_pro-=5;delay_ms(300); 
0AA6:  MOVLW  05
0AA8:  SUBWF  21,F
0AAA:  MOVLW  02
0AAC:  MOVWF  2D
0AAE:  MOVLW  96
0AB0:  MOVWF  3C
0AB2:  RCALL  02D6
0AB4:  DECFSZ 2D,F
0AB6:  BRA    0AAE
....................          }  
....................       } 
....................    } 
....................     
....................    if(IZQU || RIGHT){ 
0AB8:  BSF    F96.2
0ABA:  BTFSS  F84.2
0ABC:  BRA    0AC4
0ABE:  BSF    F96.1
0AC0:  BTFSC  F84.1
0AC2:  BRA    0BB0
....................       delay_ms(200); 
0AC4:  MOVLW  C8
0AC6:  MOVWF  3C
0AC8:  RCALL  02D6
....................       if(IZQU || RIGHT){ 
0ACA:  BSF    F96.2
0ACC:  BTFSS  F84.2
0ACE:  BRA    0AD6
0AD0:  BSF    F96.1
0AD2:  BTFSC  F84.1
0AD4:  BRA    0BB0
....................          printf(lcd_putc,"\f"); 
0AD6:  MOVLW  0C
0AD8:  MOVWF  36
0ADA:  RCALL  0434
....................          lcd_gotoxy(1,2); 
0ADC:  MOVLW  01
0ADE:  MOVWF  37
0AE0:  MOVLW  02
0AE2:  MOVWF  38
0AE4:  RCALL  03D2
....................          printf(lcd_putc,"  Tiempo Almacenado"); 
0AE6:  MOVLW  C0
0AE8:  MOVWF  FF6
0AEA:  MOVLW  01
0AEC:  MOVWF  FF7
0AEE:  RCALL  0492
....................          lcd_gotoxy(1,3); 
0AF0:  MOVLW  01
0AF2:  MOVWF  37
0AF4:  MOVLW  03
0AF6:  MOVWF  38
0AF8:  RCALL  03D2
....................          printf(lcd_putc,"    Correctamente  "); 
0AFA:  MOVLW  D4
0AFC:  MOVWF  FF6
0AFE:  MOVLW  01
0B00:  MOVWF  FF7
0B02:  RCALL  0492
....................          write_eeprom(0,tempo_minutos_pro); 
0B04:  CLRF   FA9
0B06:  MOVFF  21,FA8
0B0A:  BCF    FA6.6
0B0C:  BCF    FA6.7
0B0E:  BSF    FA6.2
0B10:  MOVF   FF2,W
0B12:  MOVWF  00
0B14:  BCF    FF2.7
0B16:  MOVLB  F
0B18:  MOVLW  55
0B1A:  MOVWF  FA7
0B1C:  MOVLW  AA
0B1E:  MOVWF  FA7
0B20:  BSF    FA6.1
0B22:  BTFSC  FA6.1
0B24:  BRA    0B22
0B26:  BCF    FA6.2
0B28:  MOVF   00,W
0B2A:  IORWF  FF2,F
....................          delay_ms(20); 
0B2C:  MOVLW  14
0B2E:  MOVWF  3C
0B30:  MOVLB  0
0B32:  CALL   02D6
....................          tempo_minutos=tempo_minutos_pro;tempo_segundos_pro=0; 
0B36:  MOVFF  21,1F
0B3A:  CLRF   22
....................          tempo_segundos=0; 
0B3C:  CLRF   20
....................          delay_ms(700); 
0B3E:  MOVLW  04
0B40:  MOVWF  2D
0B42:  MOVLW  AF
0B44:  MOVWF  3C
0B46:  CALL   02D6
0B4A:  DECFSZ 2D,F
0B4C:  BRA    0B42
....................          printf(lcd_putc,"\f"); 
0B4E:  MOVLW  0C
0B50:  MOVWF  36
0B52:  RCALL  0434
....................          if(tempo_minutos_pro==0){ 
0B54:  MOVF   21,F
0B56:  BNZ   0B84
....................             infinito=1; 
0B58:  BSF    17.2
....................             lcd_gotoxy(1,2); 
0B5A:  MOVLW  01
0B5C:  MOVWF  37
0B5E:  MOVLW  02
0B60:  MOVWF  38
0B62:  RCALL  03D2
....................             printf(lcd_putc,"  Modo  Continuo "); 
0B64:  MOVLW  E8
0B66:  MOVWF  FF6
0B68:  MOVLW  01
0B6A:  MOVWF  FF7
0B6C:  RCALL  0492
....................             lcd_gotoxy(1,3); 
0B6E:  MOVLW  01
0B70:  MOVWF  37
0B72:  MOVLW  03
0B74:  MOVWF  38
0B76:  RCALL  03D2
....................             printf(lcd_putc,"   Seleccionado  "); 
0B78:  MOVLW  FA
0B7A:  MOVWF  FF6
0B7C:  MOVLW  01
0B7E:  MOVWF  FF7
0B80:  RCALL  0492
....................          }else{ 
0B82:  BRA    0B86
....................             infinito=0; 
0B84:  BCF    17.2
....................          } 
....................          delay_ms(700); 
0B86:  MOVLW  04
0B88:  MOVWF  2D
0B8A:  MOVLW  AF
0B8C:  MOVWF  3C
0B8E:  CALL   02D6
0B92:  DECFSZ 2D,F
0B94:  BRA    0B8A
....................          delay_ms(30);Menu=1; paso=0;Flecha=2;Flecha2=2;printf(lcd_putc,"\f"); 
0B96:  MOVLW  1E
0B98:  MOVWF  3C
0B9A:  CALL   02D6
0B9E:  MOVLW  01
0BA0:  MOVWF  18
0BA2:  CLRF   26
0BA4:  MOVLW  02
0BA6:  MOVWF  19
0BA8:  MOVWF  1A
0BAA:  MOVLW  0C
0BAC:  MOVWF  36
0BAE:  RCALL  0434
....................       } 
....................    }   
....................   } 
.................... //----------------Fin-Menu2--------------------------------------------------------------- 
....................  
.................... //----------------Menu100--------------------------------------------------------------- 
....................    if(Menu == 1){ // Menu de seleccion de Estado de Luz UV    
0BB0:  DECFSZ 18,W
0BB2:  BRA    0FC2
....................    if(Lectura==1){ 
0BB4:  BTFSS  16.6
0BB6:  BRA    0C7A
....................       Lectura=0; 
0BB8:  BCF    16.6
....................       lcd_gotoxy(1,1); 
0BBA:  MOVLW  01
0BBC:  MOVWF  37
0BBE:  MOVWF  38
0BC0:  RCALL  03D2
....................       printf(lcd_putc,"JPCR ");       
0BC2:  MOVLW  0C
0BC4:  MOVWF  FF6
0BC6:  MOVLW  02
0BC8:  MOVWF  FF7
0BCA:  RCALL  0492
....................       lcd_gotoxy(1,2); 
0BCC:  MOVLW  01
0BCE:  MOVWF  37
0BD0:  MOVLW  02
0BD2:  MOVWF  38
0BD4:  CALL   03D2
....................       printf(lcd_putc,"Uso Luz UV: %05Lu H",horas);       
0BD8:  MOVLW  12
0BDA:  MOVWF  FF6
0BDC:  MOVLW  02
0BDE:  MOVWF  FF7
0BE0:  MOVLW  0C
0BE2:  MOVWF  2D
0BE4:  RCALL  088C
0BE6:  MOVLW  08
0BE8:  MOVWF  FE9
0BEA:  MOVFF  2B,2E
0BEE:  MOVFF  2A,2D
0BF2:  BRA    08AA
0BF4:  MOVLW  20
0BF6:  MOVWF  36
0BF8:  RCALL  0434
0BFA:  MOVLW  48
0BFC:  MOVWF  36
0BFE:  RCALL  0434
....................       if(horas>1500){ 
0C00:  MOVF   2B,W
0C02:  SUBLW  04
0C04:  BC    0C2C
0C06:  XORLW  FF
0C08:  BNZ   0C10
0C0A:  MOVF   2A,W
0C0C:  SUBLW  DC
0C0E:  BC    0C2C
....................          lcd_gotoxy(6,1); 
0C10:  MOVLW  06
0C12:  MOVWF  37
0C14:  MOVLW  01
0C16:  MOVWF  38
0C18:  CALL   03D2
....................          printf(lcd_putc,"!Cambie Luz UV!");       
0C1C:  MOVLW  26
0C1E:  MOVWF  FF6
0C20:  MOVLW  02
0C22:  MOVWF  FF7
0C24:  RCALL  0492
....................          ActivaBuzzer=1; 
0C26:  MOVLW  01
0C28:  MOVWF  27
....................       }else{ 
0C2A:  BRA    0C44
....................          lcd_gotoxy(6,1); 
0C2C:  MOVLW  06
0C2E:  MOVWF  37
0C30:  MOVLW  01
0C32:  MOVWF  38
0C34:  CALL   03D2
....................          printf(lcd_putc,"               ");       
0C38:  MOVLW  36
0C3A:  MOVWF  FF6
0C3C:  MOVLW  02
0C3E:  MOVWF  FF7
0C40:  RCALL  0492
....................          ActivaBuzzer=0; 
0C42:  CLRF   27
....................       } 
....................       /* 
....................       for(i=0;i<floor(Saturacion);i++){ 
....................          lcd_gotoxy(i+8,2); 
....................          printf(lcd_putc,""); 
....................       } 
....................        
....................       for(i=floor(Saturacion);i<11;i++){ 
....................          lcd_gotoxy(i+8,2); 
....................          printf(lcd_putc," "); 
....................       } 
....................       */ 
....................        
....................       lcd_gotoxy(1,3); 
0C44:  MOVLW  01
0C46:  MOVWF  37
0C48:  MOVLW  03
0C4A:  MOVWF  38
0C4C:  CALL   03D2
....................       printf(lcd_putc,"Temporizador:%03u:%02u",tempo_minutos,tempo_segundos); 
0C50:  MOVLW  46
0C52:  MOVWF  FF6
0C54:  MOVLW  02
0C56:  MOVWF  FF7
0C58:  MOVLW  0D
0C5A:  MOVWF  2D
0C5C:  RCALL  088C
0C5E:  MOVFF  1F,2D
0C62:  MOVLW  03
0C64:  MOVWF  2E
0C66:  RCALL  0826
0C68:  MOVLW  3A
0C6A:  MOVWF  36
0C6C:  CALL   0434
0C70:  MOVFF  20,2D
0C74:  MOVLW  01
0C76:  MOVWF  2E
0C78:  RCALL  0826
....................    } 
....................      
....................    if(tiempo_cumplido==1){  
0C7A:  BTFSS  16.5
0C7C:  BRA    0D12
....................       printf(lcd_putc,"\f"); 
0C7E:  MOVLW  0C
0C80:  MOVWF  36
0C82:  CALL   0434
....................       lcd_gotoxy(1,2); 
0C86:  MOVLW  01
0C88:  MOVWF  37
0C8A:  MOVLW  02
0C8C:  MOVWF  38
0C8E:  CALL   03D2
....................       printf(lcd_putc,"  Temporizador  de  "); 
0C92:  MOVLW  5E
0C94:  MOVWF  FF6
0C96:  MOVLW  02
0C98:  MOVWF  FF7
0C9A:  CALL   0492
....................       lcd_gotoxy(1,3); 
0C9E:  MOVLW  01
0CA0:  MOVWF  37
0CA2:  MOVLW  03
0CA4:  MOVWF  38
0CA6:  CALL   03D2
....................       printf(lcd_putc," Luz UV  Finalizado "); 
0CAA:  MOVLW  74
0CAC:  MOVWF  FF6
0CAE:  MOVLW  02
0CB0:  MOVWF  FF7
0CB2:  CALL   0492
....................       lcd_gotoxy(1,4); 
0CB6:  MOVLW  01
0CB8:  MOVWF  37
0CBA:  MOVLW  04
0CBC:  MOVWF  38
0CBE:  CALL   03D2
....................       printf(lcd_putc,"                    "); 
0CC2:  MOVLW  8A
0CC4:  MOVWF  FF6
0CC6:  MOVLW  02
0CC8:  MOVWF  FF7
0CCA:  CALL   0492
....................       lcd_gotoxy(1,1); 
0CCE:  MOVLW  01
0CD0:  MOVWF  37
0CD2:  MOVWF  38
0CD4:  CALL   03D2
....................       printf(lcd_putc,"                    "); 
0CD8:  MOVLW  A0
0CDA:  MOVWF  FF6
0CDC:  MOVLW  02
0CDE:  MOVWF  FF7
0CE0:  CALL   0492
....................       for(i=0;i<5;i++){ 
0CE4:  CLRF   23
0CE6:  MOVF   23,W
0CE8:  SUBLW  04
0CEA:  BNC   0D08
....................          Buzzer_on; 
0CEC:  BSF    F8B.0
0CEE:  BCF    F94.0
....................          delay_ms(200); 
0CF0:  MOVLW  C8
0CF2:  MOVWF  3C
0CF4:  CALL   02D6
....................          Buzzer_off; 
0CF8:  BCF    F8B.0
0CFA:  BCF    F94.0
....................          delay_ms(200); 
0CFC:  MOVLW  C8
0CFE:  MOVWF  3C
0D00:  CALL   02D6
....................       } 
0D04:  INCF   23,F
0D06:  BRA    0CE6
....................       tiempo_cumplido=0; 
0D08:  BCF    16.5
....................       printf(lcd_putc,"\f"); 
0D0A:  MOVLW  0C
0D0C:  MOVWF  36
0D0E:  CALL   0434
....................    } 
....................     
....................    if(estadouv==1 && VIDRIO){ 
0D12:  BTFSS  16.0
0D14:  BRA    0D4C
0D16:  BSF    F92.1
0D18:  BTFSC  F80.1
0D1A:  BRA    0D4C
....................       estadofl=0; 
0D1C:  BCF    16.1
....................       Luz_Blanca_off; 
0D1E:  BSF    F8A.2
0D20:  BCF    F93.2
....................       Luz_UV_on; 
0D22:  BCF    F8A.1
0D24:  BCF    F93.1
....................       if(flaguv==0){ 
0D26:  BTFSC  16.7
0D28:  BRA    0D4A
....................          printf(lcd_putc,"\f");lcd_init();delay_ms(200);lcd_init();flaguv=1;guardaruv=1;Cambio=ON; 
0D2A:  MOVLW  0C
0D2C:  MOVWF  36
0D2E:  CALL   0434
0D32:  CALL   0366
0D36:  MOVLW  C8
0D38:  MOVWF  3C
0D3A:  CALL   02D6
0D3E:  CALL   0366
0D42:  BSF    16.7
0D44:  MOVLW  01
0D46:  MOVWF  25
0D48:  BSF    17.3
....................       } 
....................    }else{ 
0D4A:  BRA    0D76
....................       estadouv=0; 
0D4C:  BCF    16.0
....................       Luz_UV_off; 
0D4E:  BSF    F8A.1
0D50:  BCF    F93.1
....................       if(flaguv==1){ 
0D52:  BTFSS  16.7
0D54:  BRA    0D76
....................          printf(lcd_putc,"\f");lcd_init();delay_ms(200);lcd_init();flaguv=0;guardaruv=1;Cambio=ON; 
0D56:  MOVLW  0C
0D58:  MOVWF  36
0D5A:  CALL   0434
0D5E:  CALL   0366
0D62:  MOVLW  C8
0D64:  MOVWF  3C
0D66:  CALL   02D6
0D6A:  CALL   0366
0D6E:  BCF    16.7
0D70:  MOVLW  01
0D72:  MOVWF  25
0D74:  BSF    17.3
....................       } 
....................    } 
....................        
....................    if(estadofl==1){ 
0D76:  BTFSS  16.1
0D78:  BRA    0D98
....................       Luz_Blanca_on; 
0D7A:  BCF    F8A.2
0D7C:  BCF    F93.2
....................       if(flagfl==0){ 
0D7E:  BTFSC  17.0
0D80:  BRA    0D96
....................          lcd_init();delay_ms(200);lcd_init();flagfl=1;Cambio=ON; 
0D82:  CALL   0366
0D86:  MOVLW  C8
0D88:  MOVWF  3C
0D8A:  CALL   02D6
0D8E:  CALL   0366
0D92:  BSF    17.0
0D94:  BSF    17.3
....................       } 
....................    }else{ 
0D96:  BRA    0DB4
....................       Luz_Blanca_off; 
0D98:  BSF    F8A.2
0D9A:  BCF    F93.2
....................       if(flagfl==1){ 
0D9C:  BTFSS  17.0
0D9E:  BRA    0DB4
....................          lcd_init();delay_ms(200);lcd_init();flagfl=0;Cambio=ON; 
0DA0:  CALL   0366
0DA4:  MOVLW  C8
0DA6:  MOVWF  3C
0DA8:  CALL   02D6
0DAC:  CALL   0366
0DB0:  BCF    17.0
0DB2:  BSF    17.3
....................       } 
....................    } 
....................     
....................    if(DOWN){//Si oprime hacia arriba    
0DB4:  BSF    F96.0
0DB6:  BTFSC  F84.0
0DB8:  BRA    0DE4
....................       delay_ms(20); 
0DBA:  MOVLW  14
0DBC:  MOVWF  3C
0DBE:  CALL   02D6
....................       if(DOWN){ 
0DC2:  BSF    F96.0
0DC4:  BTFSC  F84.0
0DC6:  BRA    0DE2
....................          if(Flanco == 0) 
0DC8:  BTFSC  16.3
0DCA:  BRA    0DE2
....................          { 
....................             estadofl=!estadofl;Flanco = 1;delay_ms(300);Cambio=ON; 
0DCC:  BTG    16.1
0DCE:  BSF    16.3
0DD0:  MOVLW  02
0DD2:  MOVWF  2D
0DD4:  MOVLW  96
0DD6:  MOVWF  3C
0DD8:  CALL   02D6
0DDC:  DECFSZ 2D,F
0DDE:  BRA    0DD4
0DE0:  BSF    17.3
....................          } 
....................       } 
....................    }else{ 
0DE2:  BRA    0DE6
....................       Flanco = 0; 
0DE4:  BCF    16.3
....................    } 
....................     
....................    if(RIGHT){//Si oprime hacia abajo 
0DE6:  BSF    F96.1
0DE8:  BTFSC  F84.1
0DEA:  BRA    0E16
....................       delay_ms(20); 
0DEC:  MOVLW  14
0DEE:  MOVWF  3C
0DF0:  CALL   02D6
....................       if(RIGHT){ 
0DF4:  BSF    F96.1
0DF6:  BTFSC  F84.1
0DF8:  BRA    0E14
....................          if(Flanco1 == 0){ 
0DFA:  BTFSC  16.4
0DFC:  BRA    0E14
....................             estadomv=!estadomv;Flanco1 = 1;delay_ms(300);Cambio=ON; 
0DFE:  BTG    16.2
0E00:  BSF    16.4
0E02:  MOVLW  02
0E04:  MOVWF  2D
0E06:  MOVLW  96
0E08:  MOVWF  3C
0E0A:  CALL   02D6
0E0E:  DECFSZ 2D,F
0E10:  BRA    0E06
0E12:  BSF    17.3
....................          } 
....................       } 
....................    }else{ 
0E14:  BRA    0E18
....................       Flanco1 = 0; 
0E16:  BCF    16.4
....................    } 
....................     
....................    if(IZQU){//Si oprime hacia izquierda 
0E18:  BSF    F96.2
0E1A:  BTFSC  F84.2
0E1C:  BRA    0E38
....................       delay_ms(20); 
0E1E:  MOVLW  14
0E20:  MOVWF  3C
0E22:  CALL   02D6
....................       if(IZQU){ 
0E26:  BSF    F96.2
0E28:  BTFSC  F84.2
0E2A:  BRA    0E38
....................          delay_ms(150);  
0E2C:  MOVLW  96
0E2E:  MOVWF  3C
0E30:  CALL   02D6
....................          estadouv=!estadouv; 
0E34:  BTG    16.0
....................          Cambio=ON; 
0E36:  BSF    17.3
....................       } 
....................    } 
....................     
....................    if(estadouv==1){ 
0E38:  BTFSS  16.0
0E3A:  BRA    0E56
....................       lcd_gotoxy(13,4); 
0E3C:  MOVLW  0D
0E3E:  MOVWF  37
0E40:  MOVLW  04
0E42:  MOVWF  38
0E44:  CALL   03D2
....................       printf(lcd_putc," UV:ON "); 
0E48:  MOVLW  B6
0E4A:  MOVWF  FF6
0E4C:  MOVLW  02
0E4E:  MOVWF  FF7
0E50:  CALL   0492
....................    }else{          
0E54:  BRA    0E6E
....................       lcd_gotoxy(13,4); 
0E56:  MOVLW  0D
0E58:  MOVWF  37
0E5A:  MOVLW  04
0E5C:  MOVWF  38
0E5E:  CALL   03D2
....................       printf(lcd_putc," UV:OFF"); 
0E62:  MOVLW  BE
0E64:  MOVWF  FF6
0E66:  MOVLW  02
0E68:  MOVWF  FF7
0E6A:  CALL   0492
....................    } 
....................     
....................    if(estadofl==1){ 
0E6E:  BTFSS  16.1
0E70:  BRA    0E8C
....................       lcd_gotoxy(1,4); 
0E72:  MOVLW  01
0E74:  MOVWF  37
0E76:  MOVLW  04
0E78:  MOVWF  38
0E7A:  CALL   03D2
....................       printf(lcd_putc,"Luz:ON "); 
0E7E:  MOVLW  C6
0E80:  MOVWF  FF6
0E82:  MOVLW  02
0E84:  MOVWF  FF7
0E86:  CALL   0492
....................    }else{ 
0E8A:  BRA    0EA4
....................       lcd_gotoxy(1,4); 
0E8C:  MOVLW  01
0E8E:  MOVWF  37
0E90:  MOVLW  04
0E92:  MOVWF  38
0E94:  CALL   03D2
....................       printf(lcd_putc,"Luz:OFF"); 
0E98:  MOVLW  CE
0E9A:  MOVWF  FF6
0E9C:  MOVLW  02
0E9E:  MOVWF  FF7
0EA0:  CALL   0492
....................    }     
....................     
....................    if(guardaruv==1){ 
0EA4:  DECFSZ 25,W
0EA6:  BRA    0F6A
....................       write_eeprom(1,segundos);write_eeprom(2,minutos); 
0EA8:  MOVLW  01
0EAA:  MOVWF  FA9
0EAC:  MOVFF  1B,FA8
0EB0:  BCF    FA6.6
0EB2:  BCF    FA6.7
0EB4:  BSF    FA6.2
0EB6:  MOVF   FF2,W
0EB8:  MOVWF  00
0EBA:  BCF    FF2.7
0EBC:  MOVLB  F
0EBE:  MOVLW  55
0EC0:  MOVWF  FA7
0EC2:  MOVLW  AA
0EC4:  MOVWF  FA7
0EC6:  BSF    FA6.1
0EC8:  BTFSC  FA6.1
0ECA:  BRA    0EC8
0ECC:  BCF    FA6.2
0ECE:  MOVF   00,W
0ED0:  IORWF  FF2,F
0ED2:  MOVLW  02
0ED4:  MOVWF  FA9
0ED6:  MOVFF  1C,FA8
0EDA:  BCF    FA6.6
0EDC:  BCF    FA6.7
0EDE:  BSF    FA6.2
0EE0:  MOVF   FF2,W
0EE2:  MOVWF  00
0EE4:  BCF    FF2.7
0EE6:  MOVLW  55
0EE8:  MOVWF  FA7
0EEA:  MOVLW  AA
0EEC:  MOVWF  FA7
0EEE:  BSF    FA6.1
0EF0:  BTFSC  FA6.1
0EF2:  BRA    0EF0
0EF4:  BCF    FA6.2
0EF6:  MOVF   00,W
0EF8:  IORWF  FF2,F
....................       horasL=make8(horas,0); 
0EFA:  MOVFF  2A,1D
....................       horasH=make8(horas,1); 
0EFE:  MOVFF  2B,1E
....................       write_eeprom(3,horasL); 
0F02:  MOVLW  03
0F04:  MOVWF  FA9
0F06:  MOVFF  1D,FA8
0F0A:  BCF    FA6.6
0F0C:  BCF    FA6.7
0F0E:  BSF    FA6.2
0F10:  MOVFF  FF2,00
0F14:  BCF    FF2.7
0F16:  MOVLW  55
0F18:  MOVWF  FA7
0F1A:  MOVLW  AA
0F1C:  MOVWF  FA7
0F1E:  BSF    FA6.1
0F20:  BTFSC  FA6.1
0F22:  BRA    0F20
0F24:  BCF    FA6.2
0F26:  MOVF   00,W
0F28:  IORWF  FF2,F
....................       delay_ms(20); 
0F2A:  MOVLW  14
0F2C:  MOVWF  3C
0F2E:  MOVLB  0
0F30:  CALL   02D6
....................       write_eeprom(4,horasH); 
0F34:  MOVLW  04
0F36:  MOVWF  FA9
0F38:  MOVFF  1E,FA8
0F3C:  BCF    FA6.6
0F3E:  BCF    FA6.7
0F40:  BSF    FA6.2
0F42:  MOVF   FF2,W
0F44:  MOVWF  00
0F46:  BCF    FF2.7
0F48:  MOVLB  F
0F4A:  MOVLW  55
0F4C:  MOVWF  FA7
0F4E:  MOVLW  AA
0F50:  MOVWF  FA7
0F52:  BSF    FA6.1
0F54:  BTFSC  FA6.1
0F56:  BRA    0F54
0F58:  BCF    FA6.2
0F5A:  MOVF   00,W
0F5C:  IORWF  FF2,F
....................       delay_ms(20); 
0F5E:  MOVLW  14
0F60:  MOVWF  3C
0F62:  MOVLB  0
0F64:  CALL   02D6
....................       guardaruv=0; 
0F68:  CLRF   25
....................    } 
....................     
....................    if(segundos>=60){ 
0F6A:  MOVF   1B,W
0F6C:  SUBLW  3B
0F6E:  BC    0F74
....................       segundos=0;minutos++; 
0F70:  CLRF   1B
0F72:  INCF   1C,F
....................    } 
....................    if(minutos==60){ 
0F74:  MOVF   1C,W
0F76:  SUBLW  3C
0F78:  BNZ   0F82
....................       minutos=0;horas++; 
0F7A:  CLRF   1C
0F7C:  INCF   2A,F
0F7E:  BTFSC  FD8.2
0F80:  INCF   2B,F
....................    }   
....................     
....................    if(UP){//Si oprime hacia izquierda 
0F82:  BSF    F92.5
0F84:  BTFSC  F80.5
0F86:  BRA    0FC2
....................       delay_ms(20); 
0F88:  MOVLW  14
0F8A:  MOVWF  3C
0F8C:  CALL   02D6
....................       if(UP){ 
0F90:  BSF    F92.5
0F92:  BTFSC  F80.5
0F94:  BRA    0FC2
....................          delay_ms(200); 
0F96:  MOVLW  C8
0F98:  MOVWF  3C
0F9A:  CALL   02D6
....................          printf(lcd_putc,"\f"); 
0F9E:  MOVLW  0C
0FA0:  MOVWF  36
0FA2:  CALL   0434
....................          delay_ms(300); 
0FA6:  MOVLW  02
0FA8:  MOVWF  2D
0FAA:  MOVLW  96
0FAC:  MOVWF  3C
0FAE:  CALL   02D6
0FB2:  DECFSZ 2D,F
0FB4:  BRA    0FAA
....................          Menu=2;  
0FB6:  MOVLW  02
0FB8:  MOVWF  18
....................          paso=0; 
0FBA:  CLRF   26
....................          Flecha=2; 
0FBC:  MOVWF  19
....................          Flecha2=2; 
0FBE:  MOVWF  1A
....................          Cambio=ON; 
0FC0:  BSF    17.3
....................       } 
....................    } 
....................      
....................    } 
.................... //----------------Fin-Menu100--------------------------------------------------------------   
....................    if(tiemporeset>=60){ 
0FC2:  MOVF   24,W
0FC4:  SUBLW  3B
0FC6:  BC    0FDA
....................       lcd_init();delay_ms(200);lcd_init(); 
0FC8:  CALL   0366
0FCC:  MOVLW  C8
0FCE:  MOVWF  3C
0FD0:  CALL   02D6
0FD4:  CALL   0366
....................       tiemporeset=0; 
0FD8:  CLRF   24
....................    } 
....................     
....................    } 
0FDA:  BRA    0A04
.................... } 
....................  
0FDC:  SLEEP 

Configuration Fuses:
   Word  1: C238   XTPLL IESO FCMEN PLL1 CPUDIV4 USBDIV
   Word  2: 1E3F   BROWNOUT NOWDT BORV20 NOPUT WDT32768 VREGEN
   Word  3: 0700   PBADEN CCP2C1 NOMCLR LPT1OSC
   Word  4: 0081   STVREN NODEBUG NOLVP NOXINST NOICPRT
   Word  5: C00F   NOPROTECT NOCPD NOCPB
   Word  6: E00F   NOWRT NOWRTD NOWRTC NOWRTB
   Word  7: 400F   NOEBTR NOEBTRB
